ARM GAS  /tmp/ccTOQdg9.s 			page 1


   1              		.syntax unified
   2              		.cpu cortex-m4
   3              		.fpu softvfp
   4              		.eabi_attribute 20, 1
   5              		.eabi_attribute 21, 1
   6              		.eabi_attribute 23, 3
   7              		.eabi_attribute 24, 1
   8              		.eabi_attribute 25, 1
   9              		.eabi_attribute 26, 1
  10              		.eabi_attribute 30, 2
  11              		.eabi_attribute 34, 1
  12              		.eabi_attribute 18, 4
  13              		.thumb
  14              		.file	"chdynamic.c"
  15              		.text
  16              	.Ltext0:
  17              		.cfi_sections	.debug_frame
  18              		.section	.text.chThdAddRef,"ax",%progbits
  19              		.align	2
  20              		.p2align 4,,15
  21              		.global	chThdAddRef
  22              		.thumb
  23              		.thumb_func
  24              		.type	chThdAddRef, %function
  25              	chThdAddRef:
  26              	.LFB226:
  27              		.file 1 "../ChibiOS/os/rt/src/chdynamic.c"
  28              		.loc 1 68 0
  29              		.cfi_startproc
  30              		@ args = 0, pretend = 0, frame = 0
  31              		@ frame_needed = 0, uses_anonymous_args = 0
  32              		@ link register save eliminated.
  33              	.LVL0:
  34              	.LBB54:
  35              	.LBB55:
  36              	.LBB56:
  37              	.LBB57:
  38              		.file 2 "../ChibiOS/os/ext/CMSIS/include/core_cmFunc.h"
  39              		.loc 2 546 0
  40 0000 2022     		movs	r2, #32
  41              	@ 546 "../ChibiOS/os/ext/CMSIS/include/core_cmFunc.h" 1
  42 0002 82F31188 		MSR basepri, r2
  43              	@ 0 "" 2
  44              		.thumb
  45              	.LBE57:
  46              	.LBE56:
  47              	.LBE55:
  48              	.LBE54:
  49              		.loc 1 72 0
  50 0006 827F     		ldrb	r2, [r0, #30]	@ zero_extendqisi2
  51 0008 0132     		adds	r2, r2, #1
  52 000a 8277     		strb	r2, [r0, #30]
  53              	.LVL1:
  54              	.LBB58:
  55              	.LBB59:
  56              	.LBB60:
  57              	.LBB61:
ARM GAS  /tmp/ccTOQdg9.s 			page 2


  58              	.LBB62:
  59              		.loc 2 546 0
  60 000c 0023     		movs	r3, #0
  61              	@ 546 "../ChibiOS/os/ext/CMSIS/include/core_cmFunc.h" 1
  62 000e 83F31188 		MSR basepri, r3
  63              	@ 0 "" 2
  64              		.thumb
  65              	.LBE62:
  66              	.LBE61:
  67              	.LBE60:
  68              	.LBE59:
  69              	.LBE58:
  70              		.loc 1 75 0
  71 0012 7047     		bx	lr
  72              		.cfi_endproc
  73              	.LFE226:
  74              		.size	chThdAddRef, .-chThdAddRef
  75 0014 AFF30080 		.section	.text.chThdRelease,"ax",%progbits
  75      AFF30080 
  75      AFF30080 
  76              		.align	2
  77              		.p2align 4,,15
  78              		.global	chThdRelease
  79              		.thumb
  80              		.thumb_func
  81              		.type	chThdRelease, %function
  82              	chThdRelease:
  83              	.LFB227:
  84              		.loc 1 90 0
  85              		.cfi_startproc
  86              		@ args = 0, pretend = 0, frame = 0
  87              		@ frame_needed = 0, uses_anonymous_args = 0
  88              		@ link register save eliminated.
  89              	.LVL2:
  90              		.loc 1 90 0
  91 0000 0146     		mov	r1, r0
  92              	.LBB63:
  93              	.LBB64:
  94              	.LBB65:
  95              	.LBB66:
  96              		.loc 2 546 0
  97 0002 2023     		movs	r3, #32
  98              	@ 546 "../ChibiOS/os/ext/CMSIS/include/core_cmFunc.h" 1
  99 0004 83F31188 		MSR basepri, r3
 100              	@ 0 "" 2
 101              		.thumb
 102              	.LBE66:
 103              	.LBE65:
 104              	.LBE64:
 105              	.LBE63:
 106              		.loc 1 95 0
 107 0008 837F     		ldrb	r3, [r0, #30]	@ zero_extendqisi2
 108 000a 013B     		subs	r3, r3, #1
 109 000c DBB2     		uxtb	r3, r3
 110 000e 8377     		strb	r3, [r0, #30]
 111              	.LVL3:
 112              	.LBB67:
ARM GAS  /tmp/ccTOQdg9.s 			page 3


 113              	.LBB68:
 114              	.LBB69:
 115              	.LBB70:
 116              	.LBB71:
 117              		.loc 2 546 0
 118 0010 0022     		movs	r2, #0
 119              	@ 546 "../ChibiOS/os/ext/CMSIS/include/core_cmFunc.h" 1
 120 0012 82F31188 		MSR basepri, r2
 121              	@ 0 "" 2
 122              		.thumb
 123              	.LBE71:
 124              	.LBE70:
 125              	.LBE69:
 126              	.LBE68:
 127              	.LBE67:
 128              		.loc 1 101 0
 129 0016 13B9     		cbnz	r3, .L2
 130              		.loc 1 101 0 is_stmt 0 discriminator 1
 131 0018 037F     		ldrb	r3, [r0, #28]	@ zero_extendqisi2
 132              	.LVL4:
 133 001a 0F2B     		cmp	r3, #15
 134 001c 00D0     		beq	.L7
 135              	.L2:
 136 001e 7047     		bx	lr
 137              	.L7:
 138              		.loc 1 102 0 is_stmt 1
 139 0020 437F     		ldrb	r3, [r0, #29]	@ zero_extendqisi2
 140 0022 03F00303 		and	r3, r3, #3
 141 0026 012B     		cmp	r3, #1
 142 0028 02D0     		beq	.L4
 143 002a 022B     		cmp	r3, #2
 144 002c 07D0     		beq	.L5
 145 002e 7047     		bx	lr
 146              	.L4:
 147              		.loc 1 106 0
 148 0030 4369     		ldr	r3, [r0, #20]
 149 0032 0269     		ldr	r2, [r0, #16]
 150 0034 1A61     		str	r2, [r3, #16]
 151 0036 0269     		ldr	r2, [r0, #16]
 152 0038 5361     		str	r3, [r2, #20]
 153              		.loc 1 108 0
 154 003a FFF7FEBF 		b	chHeapFree
 155              	.LVL5:
 156              	.L5:
 157              		.loc 1 114 0
 158 003e 4369     		ldr	r3, [r0, #20]
 159 0040 0269     		ldr	r2, [r0, #16]
 160 0042 1A61     		str	r2, [r3, #16]
 161 0044 0269     		ldr	r2, [r0, #16]
 162              		.loc 1 116 0
 163 0046 006C     		ldr	r0, [r0, #64]
 164              	.LVL6:
 165              		.loc 1 114 0
 166 0048 5361     		str	r3, [r2, #20]
 167              		.loc 1 116 0
 168 004a FFF7FEBF 		b	chPoolFree
 169              	.LVL7:
ARM GAS  /tmp/ccTOQdg9.s 			page 4


 170              		.cfi_endproc
 171              	.LFE227:
 172              		.size	chThdRelease, .-chThdRelease
 173 004e 00BF     		.section	.text.chThdCreateFromHeap,"ax",%progbits
 174              		.align	2
 175              		.p2align 4,,15
 176              		.global	chThdCreateFromHeap
 177              		.thumb
 178              		.thumb_func
 179              		.type	chThdCreateFromHeap, %function
 180              	chThdCreateFromHeap:
 181              	.LFB228:
 182              		.loc 1 147 0
 183              		.cfi_startproc
 184              		@ args = 4, pretend = 0, frame = 0
 185              		@ frame_needed = 0, uses_anonymous_args = 0
 186              	.LVL8:
 187 0000 F0B5     		push	{r4, r5, r6, r7, lr}
 188              		.cfi_def_cfa_offset 20
 189              		.cfi_offset 4, -20
 190              		.cfi_offset 5, -16
 191              		.cfi_offset 6, -12
 192              		.cfi_offset 7, -8
 193              		.cfi_offset 14, -4
 194 0002 83B0     		sub	sp, sp, #12
 195              		.cfi_def_cfa_offset 32
 196              		.loc 1 147 0
 197 0004 1746     		mov	r7, r2
 198 0006 1E46     		mov	r6, r3
 199 0008 0D46     		mov	r5, r1
 200              		.loc 1 151 0
 201 000a FFF7FEFF 		bl	chHeapAlloc
 202              	.LVL9:
 203              		.loc 1 152 0
 204 000e 98B1     		cbz	r0, .L9
 205              	.LVL10:
 206              	.LBB72:
 207              	.LBB73:
 208              	.LBB74:
 209              	.LBB75:
 210              		.loc 2 546 0
 211 0010 2023     		movs	r3, #32
 212              	@ 546 "../ChibiOS/os/ext/CMSIS/include/core_cmFunc.h" 1
 213 0012 83F31188 		MSR basepri, r3
 214              	@ 0 "" 2
 215              		.thumb
 216              	.LBE75:
 217              	.LBE74:
 218              	.LBE73:
 219              	.LBE72:
 220              		.loc 1 165 0
 221 0016 089B     		ldr	r3, [sp, #32]
 222 0018 0093     		str	r3, [sp]
 223 001a 2946     		mov	r1, r5
 224 001c 3A46     		mov	r2, r7
 225 001e 3346     		mov	r3, r6
 226 0020 FFF7FEFF 		bl	chThdCreateI
ARM GAS  /tmp/ccTOQdg9.s 			page 5


 227              	.LVL11:
 228              		.loc 1 166 0
 229 0024 0123     		movs	r3, #1
 230 0026 4377     		strb	r3, [r0, #29]
 231              		.loc 1 167 0
 232 0028 0021     		movs	r1, #0
 233              		.loc 1 165 0
 234 002a 0446     		mov	r4, r0
 235              	.LVL12:
 236              		.loc 1 167 0
 237 002c FFF7FEFF 		bl	chSchWakeupS
 238              	.LVL13:
 239              	.LBB76:
 240              	.LBB77:
 241              	.LBB78:
 242              	.LBB79:
 243              	.LBB80:
 244              		.loc 2 546 0
 245 0030 0023     		movs	r3, #0
 246              	@ 546 "../ChibiOS/os/ext/CMSIS/include/core_cmFunc.h" 1
 247 0032 83F31188 		MSR basepri, r3
 248              	@ 0 "" 2
 249              		.thumb
 250              	.LBE80:
 251              	.LBE79:
 252              	.LBE78:
 253              	.LBE77:
 254              	.LBE76:
 255              		.loc 1 169 0
 256 0036 2046     		mov	r0, r4
 257              	.LVL14:
 258              	.L9:
 259              		.loc 1 170 0
 260 0038 03B0     		add	sp, sp, #12
 261              		@ sp needed
 262 003a F0BD     		pop	{r4, r5, r6, r7, pc}
 263              		.cfi_endproc
 264              	.LFE228:
 265              		.size	chThdCreateFromHeap, .-chThdCreateFromHeap
 266 003c AFF30080 		.section	.text.chThdCreateFromMemoryPool,"ax",%progbits
 267              		.align	2
 268              		.p2align 4,,15
 269              		.global	chThdCreateFromMemoryPool
 270              		.thumb
 271              		.thumb_func
 272              		.type	chThdCreateFromMemoryPool, %function
 273              	chThdCreateFromMemoryPool:
 274              	.LFB229:
 275              		.loc 1 197 0
 276              		.cfi_startproc
 277              		@ args = 0, pretend = 0, frame = 0
 278              		@ frame_needed = 0, uses_anonymous_args = 0
 279              	.LVL15:
 280 0000 F0B5     		push	{r4, r5, r6, r7, lr}
 281              		.cfi_def_cfa_offset 20
 282              		.cfi_offset 4, -20
 283              		.cfi_offset 5, -16
ARM GAS  /tmp/ccTOQdg9.s 			page 6


 284              		.cfi_offset 6, -12
 285              		.cfi_offset 7, -8
 286              		.cfi_offset 14, -4
 287 0002 83B0     		sub	sp, sp, #12
 288              		.cfi_def_cfa_offset 32
 289              		.loc 1 197 0
 290 0004 0F46     		mov	r7, r1
 291 0006 1646     		mov	r6, r2
 292 0008 1C46     		mov	r4, r3
 293 000a 0546     		mov	r5, r0
 294              		.loc 1 203 0
 295 000c FFF7FEFF 		bl	chPoolAlloc
 296              	.LVL16:
 297              		.loc 1 204 0
 298 0010 98B1     		cbz	r0, .L12
 299              	.LVL17:
 300              	.LBB81:
 301              	.LBB82:
 302              	.LBB83:
 303              	.LBB84:
 304              		.loc 2 546 0
 305 0012 2023     		movs	r3, #32
 306              	@ 546 "../ChibiOS/os/ext/CMSIS/include/core_cmFunc.h" 1
 307 0014 83F31188 		MSR basepri, r3
 308              	@ 0 "" 2
 309              		.thumb
 310              	.LBE84:
 311              	.LBE83:
 312              	.LBE82:
 313              	.LBE81:
 314              		.loc 1 217 0
 315 0018 6968     		ldr	r1, [r5, #4]
 316 001a 0094     		str	r4, [sp]
 317 001c 3A46     		mov	r2, r7
 318 001e 3346     		mov	r3, r6
 319 0020 FFF7FEFF 		bl	chThdCreateI
 320              	.LVL18:
 321              		.loc 1 218 0
 322 0024 0223     		movs	r3, #2
 323 0026 4377     		strb	r3, [r0, #29]
 324              		.loc 1 219 0
 325 0028 0564     		str	r5, [r0, #64]
 326              		.loc 1 220 0
 327 002a 0021     		movs	r1, #0
 328              		.loc 1 217 0
 329 002c 0446     		mov	r4, r0
 330              	.LVL19:
 331              		.loc 1 220 0
 332 002e FFF7FEFF 		bl	chSchWakeupS
 333              	.LVL20:
 334              	.LBB85:
 335              	.LBB86:
 336              	.LBB87:
 337              	.LBB88:
 338              	.LBB89:
 339              		.loc 2 546 0
 340 0032 0023     		movs	r3, #0
ARM GAS  /tmp/ccTOQdg9.s 			page 7


 341              	@ 546 "../ChibiOS/os/ext/CMSIS/include/core_cmFunc.h" 1
 342 0034 83F31188 		MSR basepri, r3
 343              	@ 0 "" 2
 344              		.thumb
 345              	.LBE89:
 346              	.LBE88:
 347              	.LBE87:
 348              	.LBE86:
 349              	.LBE85:
 350              		.loc 1 222 0
 351 0038 2046     		mov	r0, r4
 352              	.LVL21:
 353              	.L12:
 354              		.loc 1 223 0
 355 003a 03B0     		add	sp, sp, #12
 356              		@ sp needed
 357 003c F0BD     		pop	{r4, r5, r6, r7, pc}
 358              		.cfi_endproc
 359              	.LFE229:
 360              		.size	chThdCreateFromMemoryPool, .-chThdCreateFromMemoryPool
 361 003e 00BF     		.text
 362              	.Letext0:
 363              		.file 3 "/nfs/nfs5/home/research/hardware/arm2/gcc-arm-embedded/gcc-arm-none-eabi-4_8-2014q2/lib/g
 364              		.file 4 "/nfs/nfs5/home/research/hardware/arm2/gcc-arm-embedded/gcc-arm-none-eabi-4_8-2014q2/arm-n
 365              		.file 5 "/nfs/nfs5/home/research/hardware/arm2/gcc-arm-embedded/gcc-arm-none-eabi-4_8-2014q2/arm-n
 366              		.file 6 "../ChibiOS/os/rt/ports/ARMCMx/compilers/GCC/chtypes.h"
 367              		.file 7 "../ChibiOS/os/rt/include/chsystypes.h"
 368              		.file 8 "../ChibiOS/os/rt/include/chschd.h"
 369              		.file 9 "../ChibiOS/os/rt/ports/ARMCMx/chcore.h"
 370              		.file 10 "../ChibiOS/os/rt/ports/ARMCMx/chcore_v7m.h"
 371              		.file 11 "../ChibiOS/os/rt/include/chtm.h"
 372              		.file 12 "../ChibiOS/os/rt/include/chmtx.h"
 373              		.file 13 "../ChibiOS/os/rt/include/chthreads.h"
 374              		.file 14 "../ChibiOS/os/rt/include/chmemcore.h"
 375              		.file 15 "../ChibiOS/os/rt/include/chheap.h"
 376              		.file 16 "../ChibiOS/os/rt/include/chmempools.h"
 377              		.file 17 "../ChibiOS/os/rt/include/chsys.h"
 378              		.file 18 "../ChibiOS/os/ext/CMSIS/include/core_cm4.h"