ARM GAS  /tmp/ccg5TJd7.s 			page 1


   1              		.syntax unified
   2              		.cpu cortex-m4
   3              		.fpu softvfp
   4              		.eabi_attribute 20, 1
   5              		.eabi_attribute 21, 1
   6              		.eabi_attribute 23, 3
   7              		.eabi_attribute 24, 1
   8              		.eabi_attribute 25, 1
   9              		.eabi_attribute 26, 1
  10              		.eabi_attribute 30, 2
  11              		.eabi_attribute 34, 1
  12              		.eabi_attribute 18, 4
  13              		.thumb
  14              		.file	"chevents.c"
  15              		.text
  16              	.Ltext0:
  17              		.cfi_sections	.debug_frame
  18              		.section	.text.chEvtRegisterMaskWithFlags,"ax",%progbits
  19              		.align	2
  20              		.p2align 4,,15
  21              		.global	chEvtRegisterMaskWithFlags
  22              		.thumb
  23              		.thumb_func
  24              		.type	chEvtRegisterMaskWithFlags, %function
  25              	chEvtRegisterMaskWithFlags:
  26              	.LFB226:
  27              		.file 1 "../ChibiOS/os/rt/src/chevents.c"
  28              		.loc 1 106 0
  29              		.cfi_startproc
  30              		@ args = 0, pretend = 0, frame = 0
  31              		@ frame_needed = 0, uses_anonymous_args = 0
  32              		@ link register save eliminated.
  33              	.LVL0:
  34 0000 30B4     		push	{r4, r5}
  35              		.cfi_def_cfa_offset 8
  36              		.cfi_offset 4, -8
  37              		.cfi_offset 5, -4
  38              	.LBB174:
  39              	.LBB175:
  40              	.LBB176:
  41              	.LBB177:
  42              		.file 2 "../ChibiOS/os/ext/CMSIS/include/core_cmFunc.h"
  43              		.loc 2 546 0
  44 0002 2024     		movs	r4, #32
  45              	@ 546 "../ChibiOS/os/ext/CMSIS/include/core_cmFunc.h" 1
  46 0004 84F31188 		MSR basepri, r4
  47              	@ 0 "" 2
  48              		.thumb
  49              	.LBE177:
  50              	.LBE176:
  51              	.LBE175:
  52              	.LBE174:
  53              		.loc 1 113 0
  54 0008 064D     		ldr	r5, .L2
  55              		.loc 1 111 0
  56 000a 0468     		ldr	r4, [r0]
  57              		.loc 1 113 0
ARM GAS  /tmp/ccg5TJd7.s 			page 2


  58 000c AD69     		ldr	r5, [r5, #24]
  59              		.loc 1 111 0
  60 000e 0C60     		str	r4, [r1]
  61              		.loc 1 115 0
  62 0010 0024     		movs	r4, #0
  63              		.loc 1 112 0
  64 0012 0160     		str	r1, [r0]
  65              		.loc 1 113 0
  66 0014 4D60     		str	r5, [r1, #4]
  67              		.loc 1 114 0
  68 0016 8A60     		str	r2, [r1, #8]
  69              		.loc 1 116 0
  70 0018 0B61     		str	r3, [r1, #16]
  71              	.LVL1:
  72              		.loc 1 115 0
  73 001a CC60     		str	r4, [r1, #12]
  74              	.LBB178:
  75              	.LBB179:
  76              	.LBB180:
  77              	.LBB181:
  78              	.LBB182:
  79              		.loc 2 546 0
  80              	@ 546 "../ChibiOS/os/ext/CMSIS/include/core_cmFunc.h" 1
  81 001c 84F31188 		MSR basepri, r4
  82              	@ 0 "" 2
  83              		.thumb
  84              	.LBE182:
  85              	.LBE181:
  86              	.LBE180:
  87              	.LBE179:
  88              	.LBE178:
  89              		.loc 1 118 0
  90 0020 30BC     		pop	{r4, r5}
  91 0022 7047     		bx	lr
  92              	.L3:
  93              		.align	2
  94              	.L2:
  95 0024 00000000 		.word	ch
  96              		.cfi_endproc
  97              	.LFE226:
  98              		.size	chEvtRegisterMaskWithFlags, .-chEvtRegisterMaskWithFlags
  99 0028 AFF30080 		.section	.text.chEvtUnregister,"ax",%progbits
  99      AFF30080 
 100              		.align	2
 101              		.p2align 4,,15
 102              		.global	chEvtUnregister
 103              		.thumb
 104              		.thumb_func
 105              		.type	chEvtUnregister, %function
 106              	chEvtUnregister:
 107              	.LFB227:
 108              		.loc 1 133 0
 109              		.cfi_startproc
 110              		@ args = 0, pretend = 0, frame = 0
 111              		@ frame_needed = 0, uses_anonymous_args = 0
 112              		@ link register save eliminated.
 113              	.LVL2:
ARM GAS  /tmp/ccg5TJd7.s 			page 3


 114              	.LBB183:
 115              	.LBB184:
 116              	.LBB185:
 117              	.LBB186:
 118              		.loc 2 546 0
 119 0000 2023     		movs	r3, #32
 120              	@ 546 "../ChibiOS/os/ext/CMSIS/include/core_cmFunc.h" 1
 121 0002 83F31188 		MSR basepri, r3
 122              	@ 0 "" 2
 123              		.thumb
 124              	.LBE186:
 125              	.LBE185:
 126              	.LBE184:
 127              	.LBE183:
 128              		.loc 1 138 0
 129 0006 0246     		mov	r2, r0
 130 0008 02E0     		b	.L5
 131              	.LVL3:
 132              	.L8:
 133              		.loc 1 141 0
 134 000a 8B42     		cmp	r3, r1
 135 000c 07D0     		beq	.L10
 136 000e 1A46     		mov	r2, r3
 137              	.LVL4:
 138              	.L5:
 139              		.loc 1 140 0 discriminator 1
 140 0010 1368     		ldr	r3, [r2]
 141 0012 8342     		cmp	r3, r0
 142 0014 F9D1     		bne	.L8
 143              	.LVL5:
 144              	.LBB187:
 145              	.LBB188:
 146              	.LBB189:
 147              	.LBB190:
 148              	.LBB191:
 149              		.loc 2 546 0
 150 0016 0023     		movs	r3, #0
 151              	@ 546 "../ChibiOS/os/ext/CMSIS/include/core_cmFunc.h" 1
 152 0018 83F31188 		MSR basepri, r3
 153              	@ 0 "" 2
 154              		.thumb
 155 001c 7047     		bx	lr
 156              	.LVL6:
 157              	.L10:
 158              	.LBE191:
 159              	.LBE190:
 160              	.LBE189:
 161              	.LBE188:
 162              	.LBE187:
 163              		.loc 1 142 0
 164 001e 0B68     		ldr	r3, [r1]
 165 0020 1360     		str	r3, [r2]
 166              	.LVL7:
 167              	.LBB196:
 168              	.LBB195:
 169              	.LBB194:
 170              	.LBB193:
ARM GAS  /tmp/ccg5TJd7.s 			page 4


 171              	.LBB192:
 172              		.loc 2 546 0
 173 0022 0023     		movs	r3, #0
 174              	@ 546 "../ChibiOS/os/ext/CMSIS/include/core_cmFunc.h" 1
 175 0024 83F31188 		MSR basepri, r3
 176              	@ 0 "" 2
 177              		.thumb
 178 0028 7047     		bx	lr
 179              	.LBE192:
 180              	.LBE193:
 181              	.LBE194:
 182              	.LBE195:
 183              	.LBE196:
 184              		.cfi_endproc
 185              	.LFE227:
 186              		.size	chEvtUnregister, .-chEvtUnregister
 187 002a 00BFAFF3 		.section	.text.chEvtGetAndClearEvents,"ax",%progbits
 187      0080
 188              		.align	2
 189              		.p2align 4,,15
 190              		.global	chEvtGetAndClearEvents
 191              		.thumb
 192              		.thumb_func
 193              		.type	chEvtGetAndClearEvents, %function
 194              	chEvtGetAndClearEvents:
 195              	.LFB228:
 196              		.loc 1 158 0
 197              		.cfi_startproc
 198              		@ args = 0, pretend = 0, frame = 0
 199              		@ frame_needed = 0, uses_anonymous_args = 0
 200              		@ link register save eliminated.
 201              	.LVL8:
 202              	.LBB197:
 203              	.LBB198:
 204              	.LBB199:
 205              	.LBB200:
 206              		.loc 2 546 0
 207 0000 2023     		movs	r3, #32
 208              	@ 546 "../ChibiOS/os/ext/CMSIS/include/core_cmFunc.h" 1
 209 0002 83F31188 		MSR basepri, r3
 210              	@ 0 "" 2
 211              		.thumb
 212              	.LBE200:
 213              	.LBE199:
 214              	.LBE198:
 215              	.LBE197:
 216              		.loc 1 163 0
 217 0006 054B     		ldr	r3, .L12
 218 0008 9A69     		ldr	r2, [r3, #24]
 219 000a 536B     		ldr	r3, [r2, #52]
 220              	.LVL9:
 221              		.loc 1 164 0
 222 000c 23EA0001 		bic	r1, r3, r0
 223 0010 5163     		str	r1, [r2, #52]
 224              	.LVL10:
 225              	.LBB201:
 226              	.LBB202:
ARM GAS  /tmp/ccg5TJd7.s 			page 5


 227              	.LBB203:
 228              	.LBB204:
 229              	.LBB205:
 230              		.loc 2 546 0
 231 0012 0022     		movs	r2, #0
 232              	@ 546 "../ChibiOS/os/ext/CMSIS/include/core_cmFunc.h" 1
 233 0014 82F31188 		MSR basepri, r2
 234              	@ 0 "" 2
 235              		.thumb
 236              	.LBE205:
 237              	.LBE204:
 238              	.LBE203:
 239              	.LBE202:
 240              	.LBE201:
 241              		.loc 1 168 0
 242 0018 1840     		ands	r0, r0, r3
 243              	.LVL11:
 244 001a 7047     		bx	lr
 245              	.L13:
 246              		.align	2
 247              	.L12:
 248 001c 00000000 		.word	ch
 249              		.cfi_endproc
 250              	.LFE228:
 251              		.size	chEvtGetAndClearEvents, .-chEvtGetAndClearEvents
 252              		.section	.text.chEvtAddEvents,"ax",%progbits
 253              		.align	2
 254              		.p2align 4,,15
 255              		.global	chEvtAddEvents
 256              		.thumb
 257              		.thumb_func
 258              		.type	chEvtAddEvents, %function
 259              	chEvtAddEvents:
 260              	.LFB229:
 261              		.loc 1 179 0
 262              		.cfi_startproc
 263              		@ args = 0, pretend = 0, frame = 0
 264              		@ frame_needed = 0, uses_anonymous_args = 0
 265              		@ link register save eliminated.
 266              	.LVL12:
 267              	.LBB206:
 268              	.LBB207:
 269              	.LBB208:
 270              	.LBB209:
 271              		.loc 2 546 0
 272 0000 2023     		movs	r3, #32
 273              	@ 546 "../ChibiOS/os/ext/CMSIS/include/core_cmFunc.h" 1
 274 0002 83F31188 		MSR basepri, r3
 275              	@ 0 "" 2
 276              		.thumb
 277              	.LBE209:
 278              	.LBE208:
 279              	.LBE207:
 280              	.LBE206:
 281              		.loc 1 183 0
 282 0006 044B     		ldr	r3, .L15
 283 0008 9B69     		ldr	r3, [r3, #24]
ARM GAS  /tmp/ccg5TJd7.s 			page 6


 284 000a 5A6B     		ldr	r2, [r3, #52]
 285 000c 1043     		orrs	r0, r0, r2
 286              	.LVL13:
 287 000e 5863     		str	r0, [r3, #52]
 288              	.LVL14:
 289              	.LBB210:
 290              	.LBB211:
 291              	.LBB212:
 292              	.LBB213:
 293              	.LBB214:
 294              		.loc 2 546 0
 295 0010 0023     		movs	r3, #0
 296              	@ 546 "../ChibiOS/os/ext/CMSIS/include/core_cmFunc.h" 1
 297 0012 83F31188 		MSR basepri, r3
 298              	@ 0 "" 2
 299              		.thumb
 300              	.LBE214:
 301              	.LBE213:
 302              	.LBE212:
 303              	.LBE211:
 304              	.LBE210:
 305              		.loc 1 187 0
 306 0016 7047     		bx	lr
 307              	.L16:
 308              		.align	2
 309              	.L15:
 310 0018 00000000 		.word	ch
 311              		.cfi_endproc
 312              	.LFE229:
 313              		.size	chEvtAddEvents, .-chEvtAddEvents
 314 001c AFF30080 		.section	.text.chEvtGetAndClearFlags,"ax",%progbits
 315              		.align	2
 316              		.p2align 4,,15
 317              		.global	chEvtGetAndClearFlags
 318              		.thumb
 319              		.thumb_func
 320              		.type	chEvtGetAndClearFlags, %function
 321              	chEvtGetAndClearFlags:
 322              	.LFB231:
 323              		.loc 1 234 0
 324              		.cfi_startproc
 325              		@ args = 0, pretend = 0, frame = 0
 326              		@ frame_needed = 0, uses_anonymous_args = 0
 327              		@ link register save eliminated.
 328              	.LVL15:
 329              		.loc 1 234 0
 330 0000 0246     		mov	r2, r0
 331              	.LBB215:
 332              	.LBB216:
 333              	.LBB217:
 334              	.LBB218:
 335              		.loc 2 546 0
 336 0002 2023     		movs	r3, #32
 337              	@ 546 "../ChibiOS/os/ext/CMSIS/include/core_cmFunc.h" 1
 338 0004 83F31188 		MSR basepri, r3
 339              	@ 0 "" 2
 340              		.thumb
ARM GAS  /tmp/ccg5TJd7.s 			page 7


 341              	.LBE218:
 342              	.LBE217:
 343              	.LBE216:
 344              	.LBE215:
 345              		.loc 1 240 0
 346 0008 0023     		movs	r3, #0
 347              		.loc 1 239 0
 348 000a C068     		ldr	r0, [r0, #12]
 349              	.LVL16:
 350              		.loc 1 240 0
 351 000c D360     		str	r3, [r2, #12]
 352              	.LVL17:
 353              	.LBB219:
 354              	.LBB220:
 355              	.LBB221:
 356              	.LBB222:
 357              	.LBB223:
 358              		.loc 2 546 0
 359              	@ 546 "../ChibiOS/os/ext/CMSIS/include/core_cmFunc.h" 1
 360 000e 83F31188 		MSR basepri, r3
 361              	@ 0 "" 2
 362              		.thumb
 363              	.LBE223:
 364              	.LBE222:
 365              	.LBE221:
 366              	.LBE220:
 367              	.LBE219:
 368              		.loc 1 244 0
 369 0012 7047     		bx	lr
 370              		.cfi_endproc
 371              	.LFE231:
 372              		.size	chEvtGetAndClearFlags, .-chEvtGetAndClearFlags
 373 0014 AFF30080 		.section	.text.chEvtSignalI,"ax",%progbits
 373      AFF30080 
 373      AFF30080 
 374              		.align	2
 375              		.p2align 4,,15
 376              		.global	chEvtSignalI
 377              		.thumb
 378              		.thumb_func
 379              		.type	chEvtSignalI, %function
 380              	chEvtSignalI:
 381              	.LFB233:
 382              		.loc 1 276 0
 383              		.cfi_startproc
 384              		@ args = 0, pretend = 0, frame = 0
 385              		@ frame_needed = 0, uses_anonymous_args = 0
 386              		@ link register save eliminated.
 387              	.LVL18:
 388              		.loc 1 281 0
 389 0000 426B     		ldr	r2, [r0, #52]
 390              		.loc 1 283 0
 391 0002 037F     		ldrb	r3, [r0, #28]	@ zero_extendqisi2
 392              		.loc 1 281 0
 393 0004 1143     		orrs	r1, r1, r2
 394              	.LVL19:
 395              		.loc 1 283 0
ARM GAS  /tmp/ccg5TJd7.s 			page 8


 396 0006 0A2B     		cmp	r3, #10
 397              		.loc 1 281 0
 398 0008 4163     		str	r1, [r0, #52]
 399              		.loc 1 283 0
 400 000a 0AD0     		beq	.L22
 401              		.loc 1 284 0
 402 000c 0B2B     		cmp	r3, #11
 403 000e 00D0     		beq	.L23
 404              	.L18:
 405 0010 7047     		bx	lr
 406              	.L23:
 407              		.loc 1 286 0
 408 0012 036A     		ldr	r3, [r0, #32]
 409 0014 1940     		ands	r1, r1, r3
 410              		.loc 1 285 0
 411 0016 8B42     		cmp	r3, r1
 412 0018 FAD1     		bne	.L18
 413              	.L20:
 414              		.loc 1 287 0
 415 001a 0023     		movs	r3, #0
 416 001c 0362     		str	r3, [r0, #32]
 417              		.loc 1 288 0
 418 001e FFF7FEBF 		b	chSchReadyI
 419              	.LVL20:
 420              	.L22:
 421              		.loc 1 284 0 discriminator 1
 422 0022 036A     		ldr	r3, [r0, #32]
 423              		.loc 1 283 0 discriminator 1
 424 0024 1942     		tst	r1, r3
 425 0026 F8D1     		bne	.L20
 426 0028 7047     		bx	lr
 427              		.cfi_endproc
 428              	.LFE233:
 429              		.size	chEvtSignalI, .-chEvtSignalI
 430 002a 00BFAFF3 		.section	.text.chEvtBroadcastFlagsI,"ax",%progbits
 430      0080
 431              		.align	2
 432              		.p2align 4,,15
 433              		.global	chEvtBroadcastFlagsI
 434              		.thumb
 435              		.thumb_func
 436              		.type	chEvtBroadcastFlagsI, %function
 437              	chEvtBroadcastFlagsI:
 438              	.LFB230:
 439              		.loc 1 206 0
 440              		.cfi_startproc
 441              		@ args = 0, pretend = 0, frame = 0
 442              		@ frame_needed = 0, uses_anonymous_args = 0
 443              	.LVL21:
 444 0000 70B5     		push	{r4, r5, r6, lr}
 445              		.cfi_def_cfa_offset 16
 446              		.cfi_offset 4, -16
 447              		.cfi_offset 5, -12
 448              		.cfi_offset 6, -8
 449              		.cfi_offset 14, -4
 450              		.loc 1 212 0
 451 0002 0468     		ldr	r4, [r0]
ARM GAS  /tmp/ccg5TJd7.s 			page 9


 452              	.LVL22:
 453              		.loc 1 213 0
 454 0004 A042     		cmp	r0, r4
 455              		.loc 1 206 0
 456 0006 0646     		mov	r6, r0
 457 0008 0D46     		mov	r5, r1
 458              		.loc 1 213 0
 459 000a 0DD0     		beq	.L24
 460              	.LVL23:
 461              	.L29:
 462              		.loc 1 214 0
 463 000c E368     		ldr	r3, [r4, #12]
 464 000e 2B43     		orrs	r3, r3, r5
 465 0010 E360     		str	r3, [r4, #12]
 466              		.loc 1 217 0
 467 0012 15B1     		cbz	r5, .L26
 468              		.loc 1 217 0 is_stmt 0 discriminator 1
 469 0014 2269     		ldr	r2, [r4, #16]
 470 0016 1342     		tst	r3, r2
 471 0018 03D0     		beq	.L27
 472              	.L26:
 473              		.loc 1 218 0 is_stmt 1
 474 001a 6068     		ldr	r0, [r4, #4]
 475 001c A168     		ldr	r1, [r4, #8]
 476 001e FFF7FEFF 		bl	chEvtSignalI
 477              	.LVL24:
 478              	.L27:
 479              		.loc 1 219 0
 480 0022 2468     		ldr	r4, [r4]
 481              	.LVL25:
 482              		.loc 1 213 0
 483 0024 A642     		cmp	r6, r4
 484 0026 F1D1     		bne	.L29
 485              	.L24:
 486 0028 70BD     		pop	{r4, r5, r6, pc}
 487              		.cfi_endproc
 488              	.LFE230:
 489              		.size	chEvtBroadcastFlagsI, .-chEvtBroadcastFlagsI
 490 002a 00BFAFF3 		.section	.text.chEvtSignal,"ax",%progbits
 490      0080
 491              		.align	2
 492              		.p2align 4,,15
 493              		.global	chEvtSignal
 494              		.thumb
 495              		.thumb_func
 496              		.type	chEvtSignal, %function
 497              	chEvtSignal:
 498              	.LFB232:
 499              		.loc 1 254 0
 500              		.cfi_startproc
 501              		@ args = 0, pretend = 0, frame = 0
 502              		@ frame_needed = 0, uses_anonymous_args = 0
 503              	.LVL26:
 504 0000 08B5     		push	{r3, lr}
 505              		.cfi_def_cfa_offset 8
 506              		.cfi_offset 3, -8
 507              		.cfi_offset 14, -4
ARM GAS  /tmp/ccg5TJd7.s 			page 10


 508              	.LBB224:
 509              	.LBB225:
 510              	.LBB226:
 511              	.LBB227:
 512              		.loc 2 546 0
 513 0002 2023     		movs	r3, #32
 514              	@ 546 "../ChibiOS/os/ext/CMSIS/include/core_cmFunc.h" 1
 515 0004 83F31188 		MSR basepri, r3
 516              	@ 0 "" 2
 517              		.thumb
 518              	.LBE227:
 519              	.LBE226:
 520              	.LBE225:
 521              	.LBE224:
 522              		.loc 1 259 0
 523 0008 FFF7FEFF 		bl	chEvtSignalI
 524              	.LVL27:
 525              		.loc 1 260 0
 526 000c FFF7FEFF 		bl	chSchRescheduleS
 527              	.LVL28:
 528              	.LBB228:
 529              	.LBB229:
 530              	.LBB230:
 531              	.LBB231:
 532              	.LBB232:
 533              		.loc 2 546 0
 534 0010 0023     		movs	r3, #0
 535              	@ 546 "../ChibiOS/os/ext/CMSIS/include/core_cmFunc.h" 1
 536 0012 83F31188 		MSR basepri, r3
 537              	@ 0 "" 2
 538              		.thumb
 539 0016 08BD     		pop	{r3, pc}
 540              	.LBE232:
 541              	.LBE231:
 542              	.LBE230:
 543              	.LBE229:
 544              	.LBE228:
 545              		.cfi_endproc
 546              	.LFE232:
 547              		.size	chEvtSignal, .-chEvtSignal
 548 0018 AFF30080 		.section	.text.chEvtBroadcastFlags,"ax",%progbits
 548      AFF30080 
 549              		.align	2
 550              		.p2align 4,,15
 551              		.global	chEvtBroadcastFlags
 552              		.thumb
 553              		.thumb_func
 554              		.type	chEvtBroadcastFlags, %function
 555              	chEvtBroadcastFlags:
 556              	.LFB234:
 557              		.loc 1 305 0
 558              		.cfi_startproc
 559              		@ args = 0, pretend = 0, frame = 0
 560              		@ frame_needed = 0, uses_anonymous_args = 0
 561              	.LVL29:
 562 0000 08B5     		push	{r3, lr}
 563              		.cfi_def_cfa_offset 8
ARM GAS  /tmp/ccg5TJd7.s 			page 11


 564              		.cfi_offset 3, -8
 565              		.cfi_offset 14, -4
 566              	.LBB233:
 567              	.LBB234:
 568              	.LBB235:
 569              	.LBB236:
 570              		.loc 2 546 0
 571 0002 2023     		movs	r3, #32
 572              	@ 546 "../ChibiOS/os/ext/CMSIS/include/core_cmFunc.h" 1
 573 0004 83F31188 		MSR basepri, r3
 574              	@ 0 "" 2
 575              		.thumb
 576              	.LBE236:
 577              	.LBE235:
 578              	.LBE234:
 579              	.LBE233:
 580              		.loc 1 308 0
 581 0008 FFF7FEFF 		bl	chEvtBroadcastFlagsI
 582              	.LVL30:
 583              		.loc 1 309 0
 584 000c FFF7FEFF 		bl	chSchRescheduleS
 585              	.LVL31:
 586              	.LBB237:
 587              	.LBB238:
 588              	.LBB239:
 589              	.LBB240:
 590              	.LBB241:
 591              		.loc 2 546 0
 592 0010 0023     		movs	r3, #0
 593              	@ 546 "../ChibiOS/os/ext/CMSIS/include/core_cmFunc.h" 1
 594 0012 83F31188 		MSR basepri, r3
 595              	@ 0 "" 2
 596              		.thumb
 597 0016 08BD     		pop	{r3, pc}
 598              	.LBE241:
 599              	.LBE240:
 600              	.LBE239:
 601              	.LBE238:
 602              	.LBE237:
 603              		.cfi_endproc
 604              	.LFE234:
 605              		.size	chEvtBroadcastFlags, .-chEvtBroadcastFlags
 606 0018 AFF30080 		.section	.text.chEvtGetAndClearFlagsI,"ax",%progbits
 606      AFF30080 
 607              		.align	2
 608              		.p2align 4,,15
 609              		.global	chEvtGetAndClearFlagsI
 610              		.thumb
 611              		.thumb_func
 612              		.type	chEvtGetAndClearFlagsI, %function
 613              	chEvtGetAndClearFlagsI:
 614              	.LFB235:
 615              		.loc 1 324 0
 616              		.cfi_startproc
 617              		@ args = 0, pretend = 0, frame = 0
 618              		@ frame_needed = 0, uses_anonymous_args = 0
 619              		@ link register save eliminated.
ARM GAS  /tmp/ccg5TJd7.s 			page 12


 620              	.LVL32:
 621              		.loc 1 324 0
 622 0000 0346     		mov	r3, r0
 623              		.loc 1 328 0
 624 0002 0022     		movs	r2, #0
 625              		.loc 1 327 0
 626 0004 C068     		ldr	r0, [r0, #12]
 627              	.LVL33:
 628              		.loc 1 328 0
 629 0006 DA60     		str	r2, [r3, #12]
 630              		.loc 1 331 0
 631 0008 7047     		bx	lr
 632              		.cfi_endproc
 633              	.LFE235:
 634              		.size	chEvtGetAndClearFlagsI, .-chEvtGetAndClearFlagsI
 635 000a 00BFAFF3 		.section	.text.chEvtDispatch,"ax",%progbits
 635      0080
 636              		.align	2
 637              		.p2align 4,,15
 638              		.global	chEvtDispatch
 639              		.thumb
 640              		.thumb_func
 641              		.type	chEvtDispatch, %function
 642              	chEvtDispatch:
 643              	.LFB236:
 644              		.loc 1 342 0
 645              		.cfi_startproc
 646              		@ args = 0, pretend = 0, frame = 0
 647              		@ frame_needed = 0, uses_anonymous_args = 0
 648              	.LVL34:
 649 0000 F8B5     		push	{r3, r4, r5, r6, r7, lr}
 650              		.cfi_def_cfa_offset 24
 651              		.cfi_offset 3, -24
 652              		.cfi_offset 4, -20
 653              		.cfi_offset 5, -16
 654              		.cfi_offset 6, -12
 655              		.cfi_offset 7, -8
 656              		.cfi_offset 14, -4
 657              		.loc 1 348 0
 658 0002 0D46     		mov	r5, r1
 659              		.loc 1 342 0
 660 0004 0746     		mov	r7, r0
 661              		.loc 1 348 0
 662 0006 89B1     		cbz	r1, .L39
 663              		.loc 1 347 0
 664 0008 0024     		movs	r4, #0
 665              		.loc 1 349 0
 666 000a 0126     		movs	r6, #1
 667 000c 01E0     		b	.L43
 668              	.LVL35:
 669              	.L41:
 670              		.loc 1 354 0
 671 000e 0134     		adds	r4, r4, #1
 672              	.LVL36:
 673              		.loc 1 348 0
 674 0010 65B1     		cbz	r5, .L39
 675              	.LVL37:
ARM GAS  /tmp/ccg5TJd7.s 			page 13


 676              	.L43:
 677              		.loc 1 349 0
 678 0012 06FA04F3 		lsl	r3, r6, r4
 679 0016 2B42     		tst	r3, r5
 680 0018 F9D0     		beq	.L41
 681              		.loc 1 352 0
 682 001a 57F82420 		ldr	r2, [r7, r4, lsl #2]
 683 001e 2046     		mov	r0, r4
 684              		.loc 1 351 0
 685 0020 25EA0305 		bic	r5, r5, r3
 686              	.LVL38:
 687              		.loc 1 354 0
 688 0024 0134     		adds	r4, r4, #1
 689              	.LVL39:
 690              		.loc 1 352 0
 691 0026 9047     		blx	r2
 692              	.LVL40:
 693              		.loc 1 348 0
 694 0028 002D     		cmp	r5, #0
 695 002a F2D1     		bne	.L43
 696              	.LVL41:
 697              	.L39:
 698 002c F8BD     		pop	{r3, r4, r5, r6, r7, pc}
 699              		.cfi_endproc
 700              	.LFE236:
 701              		.size	chEvtDispatch, .-chEvtDispatch
 702 002e 00BF     		.section	.text.chEvtWaitOne,"ax",%progbits
 703              		.align	2
 704              		.p2align 4,,15
 705              		.global	chEvtWaitOne
 706              		.thumb
 707              		.thumb_func
 708              		.type	chEvtWaitOne, %function
 709              	chEvtWaitOne:
 710              	.LFB237:
 711              		.loc 1 375 0
 712              		.cfi_startproc
 713              		@ args = 0, pretend = 0, frame = 0
 714              		@ frame_needed = 0, uses_anonymous_args = 0
 715              	.LVL42:
 716 0000 38B5     		push	{r3, r4, r5, lr}
 717              		.cfi_def_cfa_offset 16
 718              		.cfi_offset 3, -16
 719              		.cfi_offset 4, -12
 720              		.cfi_offset 5, -8
 721              		.cfi_offset 14, -4
 722              		.loc 1 376 0
 723 0002 0D4B     		ldr	r3, .L52
 724              		.loc 1 375 0
 725 0004 0546     		mov	r5, r0
 726              		.loc 1 376 0
 727 0006 9C69     		ldr	r4, [r3, #24]
 728              	.LVL43:
 729              	.LBB242:
 730              	.LBB243:
 731              	.LBB244:
 732              	.LBB245:
ARM GAS  /tmp/ccg5TJd7.s 			page 14


 733              		.loc 2 546 0
 734 0008 2023     		movs	r3, #32
 735              	@ 546 "../ChibiOS/os/ext/CMSIS/include/core_cmFunc.h" 1
 736 000a 83F31188 		MSR basepri, r3
 737              	@ 0 "" 2
 738              		.thumb
 739              	.LBE245:
 740              	.LBE244:
 741              	.LBE243:
 742              	.LBE242:
 743              		.loc 1 381 0
 744 000e 636B     		ldr	r3, [r4, #52]
 745              	.LVL44:
 746 0010 10EA0302 		ands	r2, r0, r3
 747              	.LVL45:
 748 0014 06D1     		bne	.L51
 749              		.loc 1 382 0
 750 0016 2062     		str	r0, [r4, #32]
 751              		.loc 1 383 0
 752 0018 0A20     		movs	r0, #10
 753              	.LVL46:
 754 001a FFF7FEFF 		bl	chSchGoSleepS
 755              	.LVL47:
 756              		.loc 1 384 0
 757 001e 636B     		ldr	r3, [r4, #52]
 758 0020 05EA0302 		and	r2, r5, r3
 759              	.LVL48:
 760              	.L51:
 761              		.loc 1 386 0
 762 0024 5042     		negs	r0, r2
 763 0026 1040     		ands	r0, r0, r2
 764              	.LVL49:
 765              		.loc 1 387 0
 766 0028 23EA0003 		bic	r3, r3, r0
 767 002c 6363     		str	r3, [r4, #52]
 768              	.LVL50:
 769              	.LBB246:
 770              	.LBB247:
 771              	.LBB248:
 772              	.LBB249:
 773              	.LBB250:
 774              		.loc 2 546 0
 775 002e 0023     		movs	r3, #0
 776              	@ 546 "../ChibiOS/os/ext/CMSIS/include/core_cmFunc.h" 1
 777 0030 83F31188 		MSR basepri, r3
 778              	@ 0 "" 2
 779              		.thumb
 780              	.LBE250:
 781              	.LBE249:
 782              	.LBE248:
 783              	.LBE247:
 784              	.LBE246:
 785              		.loc 1 391 0
 786 0034 38BD     		pop	{r3, r4, r5, pc}
 787              	.LVL51:
 788              	.L53:
 789 0036 00BF     		.align	2
ARM GAS  /tmp/ccg5TJd7.s 			page 15


 790              	.L52:
 791 0038 00000000 		.word	ch
 792              		.cfi_endproc
 793              	.LFE237:
 794              		.size	chEvtWaitOne, .-chEvtWaitOne
 795 003c AFF30080 		.section	.text.chEvtWaitAny,"ax",%progbits
 796              		.align	2
 797              		.p2align 4,,15
 798              		.global	chEvtWaitAny
 799              		.thumb
 800              		.thumb_func
 801              		.type	chEvtWaitAny, %function
 802              	chEvtWaitAny:
 803              	.LFB238:
 804              		.loc 1 405 0
 805              		.cfi_startproc
 806              		@ args = 0, pretend = 0, frame = 0
 807              		@ frame_needed = 0, uses_anonymous_args = 0
 808              	.LVL52:
 809 0000 38B5     		push	{r3, r4, r5, lr}
 810              		.cfi_def_cfa_offset 16
 811              		.cfi_offset 3, -16
 812              		.cfi_offset 4, -12
 813              		.cfi_offset 5, -8
 814              		.cfi_offset 14, -4
 815              		.loc 1 406 0
 816 0002 0B4B     		ldr	r3, .L56
 817              		.loc 1 405 0
 818 0004 0546     		mov	r5, r0
 819              		.loc 1 406 0
 820 0006 9C69     		ldr	r4, [r3, #24]
 821              	.LVL53:
 822              	.LBB251:
 823              	.LBB252:
 824              	.LBB253:
 825              	.LBB254:
 826              		.loc 2 546 0
 827 0008 2023     		movs	r3, #32
 828              	@ 546 "../ChibiOS/os/ext/CMSIS/include/core_cmFunc.h" 1
 829 000a 83F31188 		MSR basepri, r3
 830              	@ 0 "" 2
 831              		.thumb
 832              	.LBE254:
 833              	.LBE253:
 834              	.LBE252:
 835              	.LBE251:
 836              		.loc 1 411 0
 837 000e 636B     		ldr	r3, [r4, #52]
 838              	.LVL54:
 839 0010 1840     		ands	r0, r0, r3
 840              	.LVL55:
 841 0012 06D1     		bne	.L55
 842              		.loc 1 413 0
 843 0014 0A20     		movs	r0, #10
 844              	.LVL56:
 845              		.loc 1 412 0
 846 0016 2562     		str	r5, [r4, #32]
ARM GAS  /tmp/ccg5TJd7.s 			page 16


 847              		.loc 1 413 0
 848 0018 FFF7FEFF 		bl	chSchGoSleepS
 849              	.LVL57:
 850              		.loc 1 414 0
 851 001c 636B     		ldr	r3, [r4, #52]
 852 001e 05EA0300 		and	r0, r5, r3
 853              	.LVL58:
 854              	.L55:
 855              		.loc 1 416 0
 856 0022 23EA0003 		bic	r3, r3, r0
 857 0026 6363     		str	r3, [r4, #52]
 858              	.LVL59:
 859              	.LBB255:
 860              	.LBB256:
 861              	.LBB257:
 862              	.LBB258:
 863              	.LBB259:
 864              		.loc 2 546 0
 865 0028 0023     		movs	r3, #0
 866              	@ 546 "../ChibiOS/os/ext/CMSIS/include/core_cmFunc.h" 1
 867 002a 83F31188 		MSR basepri, r3
 868              	@ 0 "" 2
 869              		.thumb
 870              	.LBE259:
 871              	.LBE258:
 872              	.LBE257:
 873              	.LBE256:
 874              	.LBE255:
 875              		.loc 1 420 0
 876 002e 38BD     		pop	{r3, r4, r5, pc}
 877              	.LVL60:
 878              	.L57:
 879              		.align	2
 880              	.L56:
 881 0030 00000000 		.word	ch
 882              		.cfi_endproc
 883              	.LFE238:
 884              		.size	chEvtWaitAny, .-chEvtWaitAny
 885 0034 AFF30080 		.section	.text.chEvtWaitAll,"ax",%progbits
 885      AFF30080 
 885      AFF30080 
 886              		.align	2
 887              		.p2align 4,,15
 888              		.global	chEvtWaitAll
 889              		.thumb
 890              		.thumb_func
 891              		.type	chEvtWaitAll, %function
 892              	chEvtWaitAll:
 893              	.LFB239:
 894              		.loc 1 433 0
 895              		.cfi_startproc
 896              		@ args = 0, pretend = 0, frame = 0
 897              		@ frame_needed = 0, uses_anonymous_args = 0
 898              	.LVL61:
 899 0000 38B5     		push	{r3, r4, r5, lr}
 900              		.cfi_def_cfa_offset 16
 901              		.cfi_offset 3, -16
ARM GAS  /tmp/ccg5TJd7.s 			page 17


 902              		.cfi_offset 4, -12
 903              		.cfi_offset 5, -8
 904              		.cfi_offset 14, -4
 905              		.loc 1 434 0
 906 0002 0C4B     		ldr	r3, .L60
 907              		.loc 1 433 0
 908 0004 0446     		mov	r4, r0
 909              		.loc 1 434 0
 910 0006 9D69     		ldr	r5, [r3, #24]
 911              	.LVL62:
 912              	.LBB260:
 913              	.LBB261:
 914              	.LBB262:
 915              	.LBB263:
 916              		.loc 2 546 0
 917 0008 2023     		movs	r3, #32
 918              	@ 546 "../ChibiOS/os/ext/CMSIS/include/core_cmFunc.h" 1
 919 000a 83F31188 		MSR basepri, r3
 920              	@ 0 "" 2
 921              		.thumb
 922              	.LBE263:
 923              	.LBE262:
 924              	.LBE261:
 925              	.LBE260:
 926              		.loc 1 438 0
 927 000e 6B6B     		ldr	r3, [r5, #52]
 928 0010 00EA0302 		and	r2, r0, r3
 929 0014 8242     		cmp	r2, r0
 930 0016 04D0     		beq	.L59
 931              		.loc 1 439 0
 932 0018 2862     		str	r0, [r5, #32]
 933              		.loc 1 440 0
 934 001a 0B20     		movs	r0, #11
 935              	.LVL63:
 936 001c FFF7FEFF 		bl	chSchGoSleepS
 937              	.LVL64:
 938 0020 6B6B     		ldr	r3, [r5, #52]
 939              	.L59:
 940              		.loc 1 442 0
 941 0022 23EA0403 		bic	r3, r3, r4
 942 0026 6B63     		str	r3, [r5, #52]
 943              	.LVL65:
 944              	.LBB264:
 945              	.LBB265:
 946              	.LBB266:
 947              	.LBB267:
 948              	.LBB268:
 949              		.loc 2 546 0
 950 0028 0023     		movs	r3, #0
 951              	@ 546 "../ChibiOS/os/ext/CMSIS/include/core_cmFunc.h" 1
 952 002a 83F31188 		MSR basepri, r3
 953              	@ 0 "" 2
 954              		.thumb
 955              	.LBE268:
 956              	.LBE267:
 957              	.LBE266:
 958              	.LBE265:
ARM GAS  /tmp/ccg5TJd7.s 			page 18


 959              	.LBE264:
 960              		.loc 1 446 0
 961 002e 2046     		mov	r0, r4
 962 0030 38BD     		pop	{r3, r4, r5, pc}
 963              	.LVL66:
 964              	.L61:
 965 0032 00BF     		.align	2
 966              	.L60:
 967 0034 00000000 		.word	ch
 968              		.cfi_endproc
 969              	.LFE239:
 970              		.size	chEvtWaitAll, .-chEvtWaitAll
 971 0038 AFF30080 		.section	.text.chEvtWaitOneTimeout,"ax",%progbits
 971      AFF30080 
 972              		.align	2
 973              		.p2align 4,,15
 974              		.global	chEvtWaitOneTimeout
 975              		.thumb
 976              		.thumb_func
 977              		.type	chEvtWaitOneTimeout, %function
 978              	chEvtWaitOneTimeout:
 979              	.LFB240:
 980              		.loc 1 472 0
 981              		.cfi_startproc
 982              		@ args = 0, pretend = 0, frame = 0
 983              		@ frame_needed = 0, uses_anonymous_args = 0
 984              	.LVL67:
 985              		.loc 1 473 0
 986 0000 124B     		ldr	r3, .L68
 987              		.loc 1 472 0
 988 0002 70B5     		push	{r4, r5, r6, lr}
 989              		.cfi_def_cfa_offset 16
 990              		.cfi_offset 4, -16
 991              		.cfi_offset 5, -12
 992              		.cfi_offset 6, -8
 993              		.cfi_offset 14, -4
 994              		.loc 1 472 0
 995 0004 0446     		mov	r4, r0
 996              		.loc 1 473 0
 997 0006 9D69     		ldr	r5, [r3, #24]
 998              	.LVL68:
 999              		.loc 1 472 0
 1000 0008 0846     		mov	r0, r1
 1001              	.LVL69:
 1002              	.LBB269:
 1003              	.LBB270:
 1004              	.LBB271:
 1005              	.LBB272:
 1006              		.loc 2 546 0
 1007 000a 2023     		movs	r3, #32
 1008              	@ 546 "../ChibiOS/os/ext/CMSIS/include/core_cmFunc.h" 1
 1009 000c 83F31188 		MSR basepri, r3
 1010              	@ 0 "" 2
 1011              		.thumb
 1012              	.LBE272:
 1013              	.LBE271:
 1014              	.LBE270:
ARM GAS  /tmp/ccg5TJd7.s 			page 19


 1015              	.LBE269:
 1016              		.loc 1 478 0
 1017 0010 6B6B     		ldr	r3, [r5, #52]
 1018              	.LVL70:
 1019 0012 14EA0306 		ands	r6, r4, r3
 1020              	.LVL71:
 1021 0016 0CD1     		bne	.L63
 1022              		.loc 1 479 0
 1023 0018 11B9     		cbnz	r1, .L64
 1024              	.LVL72:
 1025              	.LBB273:
 1026              	.LBB274:
 1027              	.LBB275:
 1028              	.LBB276:
 1029              	.LBB277:
 1030              		.loc 2 546 0
 1031              	@ 546 "../ChibiOS/os/ext/CMSIS/include/core_cmFunc.h" 1
 1032 001a 81F31188 		MSR basepri, r1
 1033              	@ 0 "" 2
 1034              		.thumb
 1035              	.LBE277:
 1036              	.LBE276:
 1037              	.LBE275:
 1038              	.LBE274:
 1039              	.LBE273:
 1040              		.loc 1 481 0
 1041 001e 70BD     		pop	{r4, r5, r6, pc}
 1042              	.LVL73:
 1043              	.L64:
 1044              		.loc 1 483 0
 1045 0020 2C62     		str	r4, [r5, #32]
 1046              		.loc 1 484 0
 1047 0022 0A20     		movs	r0, #10
 1048 0024 FFF7FEFF 		bl	chSchGoSleepTimeoutS
 1049              	.LVL74:
 1050 0028 0028     		cmp	r0, #0
 1051 002a 0BDB     		blt	.L67
 1052              		.loc 1 488 0
 1053 002c 6B6B     		ldr	r3, [r5, #52]
 1054 002e 04EA0306 		and	r6, r4, r3
 1055              	.LVL75:
 1056              	.L63:
 1057              		.loc 1 490 0
 1058 0032 7042     		negs	r0, r6
 1059 0034 3040     		ands	r0, r0, r6
 1060              	.LVL76:
 1061              		.loc 1 491 0
 1062 0036 23EA0003 		bic	r3, r3, r0
 1063 003a 6B63     		str	r3, [r5, #52]
 1064              	.LVL77:
 1065              	.LBB278:
 1066              	.LBB279:
 1067              	.LBB280:
 1068              	.LBB281:
 1069              	.LBB282:
 1070              		.loc 2 546 0
 1071 003c 0023     		movs	r3, #0
ARM GAS  /tmp/ccg5TJd7.s 			page 20


 1072              	@ 546 "../ChibiOS/os/ext/CMSIS/include/core_cmFunc.h" 1
 1073 003e 83F31188 		MSR basepri, r3
 1074              	@ 0 "" 2
 1075              		.thumb
 1076              	.LBE282:
 1077              	.LBE281:
 1078              	.LBE280:
 1079              	.LBE279:
 1080              	.LBE278:
 1081              		.loc 1 495 0
 1082 0042 70BD     		pop	{r4, r5, r6, pc}
 1083              	.LVL78:
 1084              	.L67:
 1085              	.LBB283:
 1086              	.LBB284:
 1087              	.LBB285:
 1088              	.LBB286:
 1089              	.LBB287:
 1090              		.loc 2 546 0
 1091              	@ 546 "../ChibiOS/os/ext/CMSIS/include/core_cmFunc.h" 1
 1092 0044 86F31188 		MSR basepri, r6
 1093              	@ 0 "" 2
 1094              		.thumb
 1095              	.LBE287:
 1096              	.LBE286:
 1097              	.LBE285:
 1098              	.LBE284:
 1099              	.LBE283:
 1100              		.loc 1 486 0
 1101 0048 3046     		mov	r0, r6
 1102 004a 70BD     		pop	{r4, r5, r6, pc}
 1103              	.LVL79:
 1104              	.L69:
 1105              		.align	2
 1106              	.L68:
 1107 004c 00000000 		.word	ch
 1108              		.cfi_endproc
 1109              	.LFE240:
 1110              		.size	chEvtWaitOneTimeout, .-chEvtWaitOneTimeout
 1111              		.section	.text.chEvtWaitAnyTimeout,"ax",%progbits
 1112              		.align	2
 1113              		.p2align 4,,15
 1114              		.global	chEvtWaitAnyTimeout
 1115              		.thumb
 1116              		.thumb_func
 1117              		.type	chEvtWaitAnyTimeout, %function
 1118              	chEvtWaitAnyTimeout:
 1119              	.LFB241:
 1120              		.loc 1 515 0
 1121              		.cfi_startproc
 1122              		@ args = 0, pretend = 0, frame = 0
 1123              		@ frame_needed = 0, uses_anonymous_args = 0
 1124              	.LVL80:
 1125              		.loc 1 516 0
 1126 0000 124B     		ldr	r3, .L76
 1127              		.loc 1 515 0
 1128 0002 70B5     		push	{r4, r5, r6, lr}
ARM GAS  /tmp/ccg5TJd7.s 			page 21


 1129              		.cfi_def_cfa_offset 16
 1130              		.cfi_offset 4, -16
 1131              		.cfi_offset 5, -12
 1132              		.cfi_offset 6, -8
 1133              		.cfi_offset 14, -4
 1134              		.loc 1 515 0
 1135 0004 0446     		mov	r4, r0
 1136              		.loc 1 516 0
 1137 0006 9D69     		ldr	r5, [r3, #24]
 1138              	.LVL81:
 1139              		.loc 1 515 0
 1140 0008 0846     		mov	r0, r1
 1141              	.LVL82:
 1142              	.LBB288:
 1143              	.LBB289:
 1144              	.LBB290:
 1145              	.LBB291:
 1146              		.loc 2 546 0
 1147 000a 2023     		movs	r3, #32
 1148              	@ 546 "../ChibiOS/os/ext/CMSIS/include/core_cmFunc.h" 1
 1149 000c 83F31188 		MSR basepri, r3
 1150              	@ 0 "" 2
 1151              		.thumb
 1152              	.LBE291:
 1153              	.LBE290:
 1154              	.LBE289:
 1155              	.LBE288:
 1156              		.loc 1 521 0
 1157 0010 6B6B     		ldr	r3, [r5, #52]
 1158              	.LVL83:
 1159 0012 14EA0306 		ands	r6, r4, r3
 1160              	.LVL84:
 1161 0016 0CD1     		bne	.L71
 1162              		.loc 1 522 0
 1163 0018 11B9     		cbnz	r1, .L72
 1164              	.LVL85:
 1165              	.LBB292:
 1166              	.LBB293:
 1167              	.LBB294:
 1168              	.LBB295:
 1169              	.LBB296:
 1170              		.loc 2 546 0
 1171              	@ 546 "../ChibiOS/os/ext/CMSIS/include/core_cmFunc.h" 1
 1172 001a 81F31188 		MSR basepri, r1
 1173              	@ 0 "" 2
 1174              		.thumb
 1175              	.LBE296:
 1176              	.LBE295:
 1177              	.LBE294:
 1178              	.LBE293:
 1179              	.LBE292:
 1180              		.loc 1 524 0
 1181 001e 70BD     		pop	{r4, r5, r6, pc}
 1182              	.LVL86:
 1183              	.L72:
 1184              		.loc 1 526 0
 1185 0020 2C62     		str	r4, [r5, #32]
ARM GAS  /tmp/ccg5TJd7.s 			page 22


 1186              		.loc 1 527 0
 1187 0022 0A20     		movs	r0, #10
 1188 0024 FFF7FEFF 		bl	chSchGoSleepTimeoutS
 1189              	.LVL87:
 1190 0028 0028     		cmp	r0, #0
 1191 002a 0ADB     		blt	.L75
 1192              		.loc 1 531 0
 1193 002c 6B6B     		ldr	r3, [r5, #52]
 1194 002e 04EA0306 		and	r6, r4, r3
 1195              	.LVL88:
 1196              	.L71:
 1197              		.loc 1 533 0
 1198 0032 23EA0603 		bic	r3, r3, r6
 1199 0036 6B63     		str	r3, [r5, #52]
 1200              	.LVL89:
 1201              	.LBB297:
 1202              	.LBB298:
 1203              	.LBB299:
 1204              	.LBB300:
 1205              	.LBB301:
 1206              		.loc 2 546 0
 1207 0038 0023     		movs	r3, #0
 1208              	@ 546 "../ChibiOS/os/ext/CMSIS/include/core_cmFunc.h" 1
 1209 003a 83F31188 		MSR basepri, r3
 1210              	@ 0 "" 2
 1211              		.thumb
 1212              	.LBE301:
 1213              	.LBE300:
 1214              	.LBE299:
 1215              	.LBE298:
 1216              	.LBE297:
 1217              		.loc 1 536 0
 1218 003e 3046     		mov	r0, r6
 1219              		.loc 1 537 0
 1220 0040 70BD     		pop	{r4, r5, r6, pc}
 1221              	.LVL90:
 1222              	.L75:
 1223              	.LBB302:
 1224              	.LBB303:
 1225              	.LBB304:
 1226              	.LBB305:
 1227              	.LBB306:
 1228              		.loc 2 546 0
 1229              	@ 546 "../ChibiOS/os/ext/CMSIS/include/core_cmFunc.h" 1
 1230 0042 86F31188 		MSR basepri, r6
 1231              	@ 0 "" 2
 1232              		.thumb
 1233              	.LBE306:
 1234              	.LBE305:
 1235              	.LBE304:
 1236              	.LBE303:
 1237              	.LBE302:
 1238              		.loc 1 529 0
 1239 0046 3046     		mov	r0, r6
 1240 0048 70BD     		pop	{r4, r5, r6, pc}
 1241              	.LVL91:
 1242              	.L77:
ARM GAS  /tmp/ccg5TJd7.s 			page 23


 1243 004a 00BF     		.align	2
 1244              	.L76:
 1245 004c 00000000 		.word	ch
 1246              		.cfi_endproc
 1247              	.LFE241:
 1248              		.size	chEvtWaitAnyTimeout, .-chEvtWaitAnyTimeout
 1249              		.section	.text.chEvtWaitAllTimeout,"ax",%progbits
 1250              		.align	2
 1251              		.p2align 4,,15
 1252              		.global	chEvtWaitAllTimeout
 1253              		.thumb
 1254              		.thumb_func
 1255              		.type	chEvtWaitAllTimeout, %function
 1256              	chEvtWaitAllTimeout:
 1257              	.LFB242:
 1258              		.loc 1 556 0
 1259              		.cfi_startproc
 1260              		@ args = 0, pretend = 0, frame = 0
 1261              		@ frame_needed = 0, uses_anonymous_args = 0
 1262              	.LVL92:
 1263 0000 38B5     		push	{r3, r4, r5, lr}
 1264              		.cfi_def_cfa_offset 16
 1265              		.cfi_offset 3, -16
 1266              		.cfi_offset 4, -12
 1267              		.cfi_offset 5, -8
 1268              		.cfi_offset 14, -4
 1269              		.loc 1 557 0
 1270 0002 104B     		ldr	r3, .L84
 1271              		.loc 1 556 0
 1272 0004 0446     		mov	r4, r0
 1273              		.loc 1 557 0
 1274 0006 9D69     		ldr	r5, [r3, #24]
 1275              	.LVL93:
 1276              		.loc 1 556 0
 1277 0008 0846     		mov	r0, r1
 1278              	.LVL94:
 1279              	.LBB307:
 1280              	.LBB308:
 1281              	.LBB309:
 1282              	.LBB310:
 1283              		.loc 2 546 0
 1284 000a 2023     		movs	r3, #32
 1285              	@ 546 "../ChibiOS/os/ext/CMSIS/include/core_cmFunc.h" 1
 1286 000c 83F31188 		MSR basepri, r3
 1287              	@ 0 "" 2
 1288              		.thumb
 1289              	.LBE310:
 1290              	.LBE309:
 1291              	.LBE308:
 1292              	.LBE307:
 1293              		.loc 1 561 0
 1294 0010 6B6B     		ldr	r3, [r5, #52]
 1295 0012 04EA0302 		and	r2, r4, r3
 1296 0016 A242     		cmp	r2, r4
 1297 0018 0AD0     		beq	.L79
 1298              		.loc 1 562 0
 1299 001a 11B9     		cbnz	r1, .L80
ARM GAS  /tmp/ccg5TJd7.s 			page 24


 1300              	.LVL95:
 1301              	.L83:
 1302              	.LBB311:
 1303              	.LBB312:
 1304              	.LBB313:
 1305              	.LBB314:
 1306              	.LBB315:
 1307              		.loc 2 546 0
 1308              	@ 546 "../ChibiOS/os/ext/CMSIS/include/core_cmFunc.h" 1
 1309 001c 80F31188 		MSR basepri, r0
 1310              	@ 0 "" 2
 1311              		.thumb
 1312              	.LBE315:
 1313              	.LBE314:
 1314              	.LBE313:
 1315              	.LBE312:
 1316              	.LBE311:
 1317              		.loc 1 569 0
 1318 0020 38BD     		pop	{r3, r4, r5, pc}
 1319              	.LVL96:
 1320              	.L80:
 1321              		.loc 1 566 0
 1322 0022 2C62     		str	r4, [r5, #32]
 1323              		.loc 1 567 0
 1324 0024 0B20     		movs	r0, #11
 1325              	.LVL97:
 1326 0026 FFF7FEFF 		bl	chSchGoSleepTimeoutS
 1327              	.LVL98:
 1328 002a 0028     		cmp	r0, #0
 1329 002c 08DB     		blt	.L82
 1330 002e 6B6B     		ldr	r3, [r5, #52]
 1331              	.L79:
 1332              		.loc 1 572 0
 1333 0030 23EA0403 		bic	r3, r3, r4
 1334 0034 6B63     		str	r3, [r5, #52]
 1335              	.LVL99:
 1336              	.LBB320:
 1337              	.LBB321:
 1338              	.LBB322:
 1339              	.LBB323:
 1340              	.LBB324:
 1341              		.loc 2 546 0
 1342 0036 0023     		movs	r3, #0
 1343              	@ 546 "../ChibiOS/os/ext/CMSIS/include/core_cmFunc.h" 1
 1344 0038 83F31188 		MSR basepri, r3
 1345              	@ 0 "" 2
 1346              		.thumb
 1347              	.LBE324:
 1348              	.LBE323:
 1349              	.LBE322:
 1350              	.LBE321:
 1351              	.LBE320:
 1352              		.loc 1 575 0
 1353 003c 2046     		mov	r0, r4
 1354              		.loc 1 576 0
 1355 003e 38BD     		pop	{r3, r4, r5, pc}
 1356              	.LVL100:
ARM GAS  /tmp/ccg5TJd7.s 			page 25


 1357              	.L82:
 1358              	.LBB325:
 1359              	.LBB319:
 1360              	.LBB318:
 1361              	.LBB317:
 1362              	.LBB316:
 1363              		.loc 2 546 0
 1364 0040 0020     		movs	r0, #0
 1365 0042 EBE7     		b	.L83
 1366              	.L85:
 1367              		.align	2
 1368              	.L84:
 1369 0044 00000000 		.word	ch
 1370              	.LBE316:
 1371              	.LBE317:
 1372              	.LBE318:
 1373              	.LBE319:
 1374              	.LBE325:
 1375              		.cfi_endproc
 1376              	.LFE242:
 1377              		.size	chEvtWaitAllTimeout, .-chEvtWaitAllTimeout
 1378 0048 AFF30080 		.text
 1378      AFF30080 
 1379              	.Letext0:
 1380              		.file 3 "/nfs/nfs5/home/research/hardware/arm2/gcc-arm-embedded/gcc-arm-none-eabi-4_8-2014q2/arm-n
 1381              		.file 4 "/nfs/nfs5/home/research/hardware/arm2/gcc-arm-embedded/gcc-arm-none-eabi-4_8-2014q2/arm-n
 1382              		.file 5 "../ChibiOS/os/rt/ports/ARMCMx/compilers/GCC/chtypes.h"
 1383              		.file 6 "../ChibiOS/os/rt/include/chsystypes.h"
 1384              		.file 7 "../ChibiOS/os/rt/include/chschd.h"
 1385              		.file 8 "../ChibiOS/os/rt/ports/ARMCMx/chcore.h"
 1386              		.file 9 "../ChibiOS/os/rt/ports/ARMCMx/chcore_v7m.h"
 1387              		.file 10 "../ChibiOS/os/rt/include/chtm.h"
 1388              		.file 11 "../ChibiOS/os/rt/include/chmtx.h"
 1389              		.file 12 "../ChibiOS/os/rt/include/chevents.h"
 1390              		.file 13 "../ChibiOS/os/rt/include/chsys.h"
 1391              		.file 14 "../ChibiOS/os/ext/CMSIS/include/core_cm4.h"