ARM GAS  /tmp/ccx6OaX7.s 			page 1


   1              		.syntax unified
   2              		.cpu cortex-m4
   3              		.fpu softvfp
   4              		.eabi_attribute 20, 1
   5              		.eabi_attribute 21, 1
   6              		.eabi_attribute 23, 3
   7              		.eabi_attribute 24, 1
   8              		.eabi_attribute 25, 1
   9              		.eabi_attribute 26, 1
  10              		.eabi_attribute 30, 2
  11              		.eabi_attribute 34, 1
  12              		.eabi_attribute 18, 4
  13              		.thumb
  14              		.file	"chheap.c"
  15              		.text
  16              	.Ltext0:
  17              		.cfi_sections	.debug_frame
  18              		.section	.text._heap_init,"ax",%progbits
  19              		.align	2
  20              		.p2align 4,,15
  21              		.global	_heap_init
  22              		.thumb
  23              		.thumb_func
  24              		.type	_heap_init, %function
  25              	_heap_init:
  26              	.LFB226:
  27              		.file 1 "../ChibiOS/os/rt/src/chheap.c"
  28              		.loc 1 85 0
  29              		.cfi_startproc
  30              		@ args = 0, pretend = 0, frame = 0
  31              		@ frame_needed = 0, uses_anonymous_args = 0
  32              		@ link register save eliminated.
  33              		.loc 1 86 0
  34 0000 044B     		ldr	r3, .L2
  35 0002 054A     		ldr	r2, .L2+4
  36 0004 1A60     		str	r2, [r3]
  37              		.loc 1 90 0
  38 0006 03F11000 		add	r0, r3, #16
  39              		.loc 1 87 0
  40 000a 0022     		movs	r2, #0
  41 000c 9A60     		str	r2, [r3, #8]
  42              		.loc 1 88 0
  43 000e DA60     		str	r2, [r3, #12]
  44              		.loc 1 90 0
  45 0010 FFF7FEBF 		b	chMtxObjectInit
  46              	.LVL0:
  47              	.L3:
  48              		.align	2
  49              	.L2:
  50 0014 00000000 		.word	.LANCHOR0
  51 0018 00000000 		.word	chCoreAlloc
  52              		.cfi_endproc
  53              	.LFE226:
  54              		.size	_heap_init, .-_heap_init
  55 001c AFF30080 		.section	.text.chHeapObjectInit,"ax",%progbits
  56              		.align	2
  57              		.p2align 4,,15
ARM GAS  /tmp/ccx6OaX7.s 			page 2


  58              		.global	chHeapObjectInit
  59              		.thumb
  60              		.thumb_func
  61              		.type	chHeapObjectInit, %function
  62              	chHeapObjectInit:
  63              	.LFB227:
  64              		.loc 1 107 0
  65              		.cfi_startproc
  66              		@ args = 0, pretend = 0, frame = 0
  67              		@ frame_needed = 0, uses_anonymous_args = 0
  68              		@ link register save eliminated.
  69              	.LVL1:
  70              		.loc 1 112 0
  71 0000 0023     		movs	r3, #0
  72              		.loc 1 116 0
  73 0002 083A     		subs	r2, r2, #8
  74              	.LVL2:
  75              		.loc 1 113 0
  76 0004 8160     		str	r1, [r0, #8]
  77              		.loc 1 112 0
  78 0006 0360     		str	r3, [r0]
  79              	.LVL3:
  80              		.loc 1 114 0
  81 0008 C360     		str	r3, [r0, #12]
  82              		.loc 1 118 0
  83 000a 1030     		adds	r0, r0, #16
  84              	.LVL4:
  85              		.loc 1 116 0
  86 000c 4A60     		str	r2, [r1, #4]
  87              		.loc 1 115 0
  88 000e 0B60     		str	r3, [r1]
  89              		.loc 1 118 0
  90 0010 FFF7FEBF 		b	chMtxObjectInit
  91              	.LVL5:
  92              		.cfi_endproc
  93              	.LFE227:
  94              		.size	chHeapObjectInit, .-chHeapObjectInit
  95 0014 AFF30080 		.section	.text.chHeapAlloc,"ax",%progbits
  95      AFF30080 
  95      AFF30080 
  96              		.align	2
  97              		.p2align 4,,15
  98              		.global	chHeapAlloc
  99              		.thumb
 100              		.thumb_func
 101              		.type	chHeapAlloc, %function
 102              	chHeapAlloc:
 103              	.LFB228:
 104              		.loc 1 140 0
 105              		.cfi_startproc
 106              		@ args = 0, pretend = 0, frame = 0
 107              		@ frame_needed = 0, uses_anonymous_args = 0
 108              	.LVL6:
 109 0000 F8B5     		push	{r3, r4, r5, r6, r7, lr}
 110              		.cfi_def_cfa_offset 24
 111              		.cfi_offset 3, -24
 112              		.cfi_offset 4, -20
ARM GAS  /tmp/ccx6OaX7.s 			page 3


 113              		.cfi_offset 5, -16
 114              		.cfi_offset 6, -12
 115              		.cfi_offset 7, -8
 116              		.cfi_offset 14, -4
 117              		.loc 1 144 0
 118 0002 214E     		ldr	r6, .L21
 119 0004 0028     		cmp	r0, #0
 120 0006 18BF     		it	ne
 121 0008 0646     		movne	r6, r0
 122              	.LVL7:
 123              		.loc 1 148 0
 124 000a 06F11007 		add	r7, r6, #16
 125              		.loc 1 146 0
 126 000e 0731     		adds	r1, r1, #7
 127              	.LVL8:
 128              		.loc 1 148 0
 129 0010 3846     		mov	r0, r7
 130              		.loc 1 146 0
 131 0012 21F00705 		bic	r5, r1, #7
 132              	.LVL9:
 133              		.loc 1 147 0
 134 0016 06F10804 		add	r4, r6, #8
 135              	.LVL10:
 136              		.loc 1 148 0
 137 001a FFF7FEFF 		bl	chMtxLock
 138              	.LVL11:
 139              		.loc 1 150 0
 140 001e 03E0     		b	.L7
 141              	.LVL12:
 142              	.L12:
 143              		.loc 1 152 0
 144 0020 5A68     		ldr	r2, [r3, #4]
 145 0022 9542     		cmp	r5, r2
 146 0024 12D9     		bls	.L20
 147 0026 1C46     		mov	r4, r3
 148              	.LVL13:
 149              	.L7:
 150              		.loc 1 150 0 discriminator 1
 151 0028 2368     		ldr	r3, [r4]
 152              	.LVL14:
 153 002a 002B     		cmp	r3, #0
 154 002c F8D1     		bne	.L12
 155              		.loc 1 175 0
 156 002e 3846     		mov	r0, r7
 157 0030 FFF7FEFF 		bl	chMtxUnlock
 158              	.LVL15:
 159              		.loc 1 179 0
 160 0034 3368     		ldr	r3, [r6]
 161 0036 2BB3     		cbz	r3, .L14
 162              		.loc 1 180 0
 163 0038 05F10800 		add	r0, r5, #8
 164 003c 9847     		blx	r3
 165              	.LVL16:
 166              		.loc 1 181 0
 167 003e 08B3     		cbz	r0, .L14
 168              		.loc 1 182 0
 169 0040 0660     		str	r6, [r0]
ARM GAS  /tmp/ccx6OaX7.s 			page 4


 170              		.loc 1 183 0
 171 0042 4560     		str	r5, [r0, #4]
 172              	.LVL17:
 173              		.loc 1 185 0
 174 0044 00F10804 		add	r4, r0, #8
 175              	.LVL18:
 176              	.L11:
 177              		.loc 1 189 0
 178 0048 2046     		mov	r0, r4
 179 004a F8BD     		pop	{r3, r4, r5, r6, r7, pc}
 180              	.LVL19:
 181              	.L20:
 182              		.loc 1 153 0
 183 004c 05F10801 		add	r1, r5, #8
 184 0050 9142     		cmp	r1, r2
 185 0052 09D9     		bls	.L9
 186              		.loc 1 157 0
 187 0054 1A68     		ldr	r2, [r3]
 188 0056 2260     		str	r2, [r4]
 189              	.L10:
 190              		.loc 1 167 0
 191 0058 1C46     		mov	r4, r3
 192              	.LVL20:
 193              		.loc 1 169 0
 194 005a 3846     		mov	r0, r7
 195              		.loc 1 167 0
 196 005c 44F8086B 		str	r6, [r4], #8
 197              		.loc 1 169 0
 198 0060 FFF7FEFF 		bl	chMtxUnlock
 199              	.LVL21:
 200              		.loc 1 189 0
 201 0064 2046     		mov	r0, r4
 202 0066 F8BD     		pop	{r3, r4, r5, r6, r7, pc}
 203              	.LVL22:
 204              	.L9:
 205              		.loc 1 163 0
 206 0068 6FF00700 		mvn	r0, #7
 207 006c 401B     		subs	r0, r0, r5
 208              		.loc 1 161 0
 209 006e 03EB010E 		add	lr, r3, r1
 210              	.LVL23:
 211              		.loc 1 163 0
 212 0072 0244     		add	r2, r2, r0
 213              		.loc 1 162 0
 214 0074 1868     		ldr	r0, [r3]
 215 0076 5850     		str	r0, [r3, r1]
 216              		.loc 1 163 0
 217 0078 CEF80420 		str	r2, [lr, #4]
 218              		.loc 1 164 0
 219 007c C4F800E0 		str	lr, [r4]
 220              		.loc 1 165 0
 221 0080 5D60     		str	r5, [r3, #4]
 222 0082 E9E7     		b	.L10
 223              	.LVL24:
 224              	.L14:
 225              		.loc 1 188 0
 226 0084 0024     		movs	r4, #0
ARM GAS  /tmp/ccx6OaX7.s 			page 5


 227              	.LVL25:
 228 0086 DFE7     		b	.L11
 229              	.L22:
 230              		.align	2
 231              	.L21:
 232 0088 00000000 		.word	.LANCHOR0
 233              		.cfi_endproc
 234              	.LFE228:
 235              		.size	chHeapAlloc, .-chHeapAlloc
 236 008c AFF30080 		.section	.text.chHeapFree,"ax",%progbits
 237              		.align	2
 238              		.p2align 4,,15
 239              		.global	chHeapFree
 240              		.thumb
 241              		.thumb_func
 242              		.type	chHeapFree, %function
 243              	chHeapFree:
 244              	.LFB229:
 245              		.loc 1 202 0
 246              		.cfi_startproc
 247              		@ args = 0, pretend = 0, frame = 0
 248              		@ frame_needed = 0, uses_anonymous_args = 0
 249              	.LVL26:
 250 0000 F8B5     		push	{r3, r4, r5, r6, r7, lr}
 251              		.cfi_def_cfa_offset 24
 252              		.cfi_offset 3, -24
 253              		.cfi_offset 4, -20
 254              		.cfi_offset 5, -16
 255              		.cfi_offset 6, -12
 256              		.cfi_offset 7, -8
 257              		.cfi_offset 14, -4
 258              		.loc 1 209 0
 259 0002 50F8085C 		ldr	r5, [r0, #-8]
 260              		.loc 1 211 0
 261 0006 05F11007 		add	r7, r5, #16
 262              		.loc 1 202 0
 263 000a 0646     		mov	r6, r0
 264              		.loc 1 208 0
 265 000c A0F10804 		sub	r4, r0, #8
 266              	.LVL27:
 267              		.loc 1 210 0
 268 0010 0835     		adds	r5, r5, #8
 269              	.LVL28:
 270              		.loc 1 211 0
 271 0012 3846     		mov	r0, r7
 272              	.LVL29:
 273 0014 FFF7FEFF 		bl	chMtxLock
 274              	.LVL30:
 275              		.loc 1 210 0
 276 0018 2B46     		mov	r3, r5
 277              	.LVL31:
 278              	.L30:
 279              		.loc 1 216 0
 280 001a AB42     		cmp	r3, r5
 281 001c 04D0     		beq	.L24
 282              	.L35:
 283              		.loc 1 216 0 is_stmt 0 discriminator 2
ARM GAS  /tmp/ccx6OaX7.s 			page 6


 284 001e A342     		cmp	r3, r4
 285 0020 02D3     		bcc	.L24
 286 0022 1B68     		ldr	r3, [r3]
 287              	.LVL32:
 288              		.loc 1 216 0
 289 0024 AB42     		cmp	r3, r5
 290 0026 FAD1     		bne	.L35
 291              	.L24:
 292              		.loc 1 217 0 is_stmt 1 discriminator 1
 293 0028 1A68     		ldr	r2, [r3]
 294              		.loc 1 216 0 discriminator 1
 295 002a 1AB1     		cbz	r2, .L26
 296              		.loc 1 217 0
 297 002c 9442     		cmp	r4, r2
 298 002e 01D3     		bcc	.L26
 299 0030 1346     		mov	r3, r2
 300              	.LVL33:
 301              		.loc 1 235 0
 302 0032 F2E7     		b	.L30
 303              	.LVL34:
 304              	.L26:
 305              		.loc 1 222 0
 306 0034 56F8041C 		ldr	r1, [r6, #-4]
 307              		.loc 1 219 0
 308 0038 46F8082C 		str	r2, [r6, #-8]
 309              		.loc 1 220 0
 310 003c 1C60     		str	r4, [r3]
 311              		.loc 1 222 0
 312 003e 01F10802 		add	r2, r1, #8
 313 0042 56F8085C 		ldr	r5, [r6, #-8]
 314              	.LVL35:
 315 0046 A018     		adds	r0, r4, r2
 316 0048 A842     		cmp	r0, r5
 317 004a 0AD0     		beq	.L36
 318              		.loc 1 227 0
 319 004c 5A68     		ldr	r2, [r3, #4]
 320 004e 02F10801 		add	r1, r2, #8
 321 0052 1944     		add	r1, r1, r3
 322 0054 8C42     		cmp	r4, r1
 323 0056 12D0     		beq	.L37
 324              	.L29:
 325              		.loc 1 237 0
 326 0058 3846     		mov	r0, r7
 327              		.loc 1 239 0
 328 005a BDE8F840 		pop	{r3, r4, r5, r6, r7, lr}
 329              	.LVL36:
 330              		.loc 1 237 0
 331 005e FFF7FEBF 		b	chMtxUnlock
 332              	.LVL37:
 333              	.L36:
 334              		.loc 1 224 0
 335 0062 4068     		ldr	r0, [r0, #4]
 336              		.loc 1 225 0
 337 0064 A258     		ldr	r2, [r4, r2]
 338 0066 46F8082C 		str	r2, [r6, #-8]
 339              		.loc 1 224 0
 340 006a 0A18     		adds	r2, r1, r0
ARM GAS  /tmp/ccx6OaX7.s 			page 7


 341 006c 0832     		adds	r2, r2, #8
 342 006e 46F8042C 		str	r2, [r6, #-4]
 343              		.loc 1 227 0
 344 0072 5A68     		ldr	r2, [r3, #4]
 345 0074 02F10801 		add	r1, r2, #8
 346 0078 1944     		add	r1, r1, r3
 347 007a 8C42     		cmp	r4, r1
 348 007c ECD1     		bne	.L29
 349              	.L37:
 350              		.loc 1 229 0
 351 007e 56F8040C 		ldr	r0, [r6, #-4]
 352              		.loc 1 230 0
 353 0082 56F8081C 		ldr	r1, [r6, #-8]
 354 0086 1960     		str	r1, [r3]
 355              		.loc 1 229 0
 356 0088 0244     		add	r2, r2, r0
 357 008a 0832     		adds	r2, r2, #8
 358 008c 5A60     		str	r2, [r3, #4]
 359              		.loc 1 237 0
 360 008e 3846     		mov	r0, r7
 361              		.loc 1 239 0
 362 0090 BDE8F840 		pop	{r3, r4, r5, r6, r7, lr}
 363              	.LVL38:
 364              		.loc 1 237 0
 365 0094 FFF7FEBF 		b	chMtxUnlock
 366              	.LVL39:
 367              		.cfi_endproc
 368              	.LFE229:
 369              		.size	chHeapFree, .-chHeapFree
 370 0098 AFF30080 		.section	.text.chHeapStatus,"ax",%progbits
 370      AFF30080 
 371              		.align	2
 372              		.p2align 4,,15
 373              		.global	chHeapStatus
 374              		.thumb
 375              		.thumb_func
 376              		.type	chHeapStatus, %function
 377              	chHeapStatus:
 378              	.LFB230:
 379              		.loc 1 254 0
 380              		.cfi_startproc
 381              		@ args = 0, pretend = 0, frame = 0
 382              		@ frame_needed = 0, uses_anonymous_args = 0
 383              	.LVL40:
 384 0000 F8B5     		push	{r3, r4, r5, r6, r7, lr}
 385              		.cfi_def_cfa_offset 24
 386              		.cfi_offset 3, -24
 387              		.cfi_offset 4, -20
 388              		.cfi_offset 5, -16
 389              		.cfi_offset 6, -12
 390              		.cfi_offset 7, -8
 391              		.cfi_offset 14, -4
 392              		.loc 1 259 0
 393 0002 0E4C     		ldr	r4, .L51
 394 0004 0028     		cmp	r0, #0
 395 0006 18BF     		it	ne
 396 0008 0446     		movne	r4, r0
ARM GAS  /tmp/ccx6OaX7.s 			page 8


 397              	.LVL41:
 398              		.loc 1 261 0
 399 000a 04F11006 		add	r6, r4, #16
 400 000e 3046     		mov	r0, r6
 401              		.loc 1 254 0
 402 0010 0F46     		mov	r7, r1
 403              		.loc 1 261 0
 404 0012 FFF7FEFF 		bl	chMtxLock
 405              	.LVL42:
 406              		.loc 1 264 0
 407 0016 A368     		ldr	r3, [r4, #8]
 408 0018 6BB1     		cbz	r3, .L44
 409              		.loc 1 263 0
 410 001a 0022     		movs	r2, #0
 411              		.loc 1 264 0
 412 001c 1446     		mov	r4, r2
 413              	.LVL43:
 414              	.L41:
 415              		.loc 1 264 0 is_stmt 0 discriminator 2
 416 001e 28CB     		ldmia	r3, {r3, r5}
 417 0020 0134     		adds	r4, r4, #1
 418              	.LVL44:
 419              		.loc 1 265 0 is_stmt 1 discriminator 2
 420 0022 2A44     		add	r2, r2, r5
 421              	.LVL45:
 422              		.loc 1 264 0 discriminator 2
 423 0024 002B     		cmp	r3, #0
 424 0026 FAD1     		bne	.L41
 425              	.LVL46:
 426              	.L40:
 427              		.loc 1 266 0
 428 0028 07B1     		cbz	r7, .L42
 429              		.loc 1 267 0
 430 002a 3A60     		str	r2, [r7]
 431              	.L42:
 432              		.loc 1 269 0
 433 002c 3046     		mov	r0, r6
 434 002e FFF7FEFF 		bl	chMtxUnlock
 435              	.LVL47:
 436              		.loc 1 271 0
 437 0032 2046     		mov	r0, r4
 438 0034 F8BD     		pop	{r3, r4, r5, r6, r7, pc}
 439              	.LVL48:
 440              	.L44:
 441              		.loc 1 263 0
 442 0036 1A46     		mov	r2, r3
 443              		.loc 1 264 0
 444 0038 1C46     		mov	r4, r3
 445              	.LVL49:
 446 003a F5E7     		b	.L40
 447              	.L52:
 448              		.align	2
 449              	.L51:
 450 003c 00000000 		.word	.LANCHOR0
 451              		.cfi_endproc
 452              	.LFE230:
 453              		.size	chHeapStatus, .-chHeapStatus
ARM GAS  /tmp/ccx6OaX7.s 			page 9


 454              		.section	.bss.default_heap,"aw",%nobits
 455              		.align	3
 456              		.set	.LANCHOR0,. + 0
 457              		.type	default_heap, %object
 458              		.size	default_heap, 32
 459              	default_heap:
 460 0000 00000000 		.space	32
 460      00000000 
 460      00000000 
 460      00000000 
 460      00000000 
 461              		.text
 462              	.Letext0:
 463              		.file 2 "/nfs/nfs5/home/research/hardware/arm2/gcc-arm-embedded/gcc-arm-none-eabi-4_8-2014q2/lib/g
 464              		.file 3 "/nfs/nfs5/home/research/hardware/arm2/gcc-arm-embedded/gcc-arm-none-eabi-4_8-2014q2/arm-n
 465              		.file 4 "/nfs/nfs5/home/research/hardware/arm2/gcc-arm-embedded/gcc-arm-none-eabi-4_8-2014q2/arm-n
 466              		.file 5 "../ChibiOS/os/rt/ports/ARMCMx/compilers/GCC/chtypes.h"
 467              		.file 6 "../ChibiOS/os/rt/include/chsystypes.h"
 468              		.file 7 "../ChibiOS/os/rt/include/chschd.h"
 469              		.file 8 "../ChibiOS/os/rt/ports/ARMCMx/chcore.h"
 470              		.file 9 "../ChibiOS/os/rt/ports/ARMCMx/chcore_v7m.h"
 471              		.file 10 "../ChibiOS/os/rt/include/chtm.h"
 472              		.file 11 "../ChibiOS/os/rt/include/chmtx.h"
 473              		.file 12 "../ChibiOS/os/rt/include/chmemcore.h"
 474              		.file 13 "../ChibiOS/os/rt/include/chheap.h"
 475              		.file 14 "../ChibiOS/os/ext/CMSIS/include/core_cm4.h"