ARM GAS  /tmp/cchwPuds.s 			page 1


   1              		.syntax unified
   2              		.cpu cortex-m4
   3              		.fpu softvfp
   4              		.eabi_attribute 20, 1
   5              		.eabi_attribute 21, 1
   6              		.eabi_attribute 23, 3
   7              		.eabi_attribute 24, 1
   8              		.eabi_attribute 25, 1
   9              		.eabi_attribute 26, 1
  10              		.eabi_attribute 30, 2
  11              		.eabi_attribute 34, 1
  12              		.eabi_attribute 18, 4
  13              		.thumb
  14              		.file	"chmboxes.c"
  15              		.text
  16              	.Ltext0:
  17              		.cfi_sections	.debug_frame
  18              		.section	.text.chMBObjectInit,"ax",%progbits
  19              		.align	2
  20              		.p2align 4,,15
  21              		.global	chMBObjectInit
  22              		.thumb
  23              		.thumb_func
  24              		.type	chMBObjectInit, %function
  25              	chMBObjectInit:
  26              	.LFB226:
  27              		.file 1 "../ChibiOS/os/rt/src/chmboxes.c"
  28              		.loc 1 86 0
  29              		.cfi_startproc
  30              		@ args = 0, pretend = 0, frame = 0
  31              		@ frame_needed = 0, uses_anonymous_args = 0
  32              	.LVL0:
  33 0000 10B5     		push	{r4, lr}
  34              		.cfi_def_cfa_offset 8
  35              		.cfi_offset 4, -8
  36              		.cfi_offset 14, -4
  37              		.loc 1 86 0
  38 0002 0B46     		mov	r3, r1
  39              		.loc 1 91 0
  40 0004 01EB8201 		add	r1, r1, r2, lsl #2
  41              	.LVL1:
  42 0008 4160     		str	r1, [r0, #4]
  43              		.loc 1 86 0
  44 000a 0446     		mov	r4, r0
  45              		.loc 1 90 0
  46 000c C360     		str	r3, [r0, #12]
  47 000e 8360     		str	r3, [r0, #8]
  48 0010 0360     		str	r3, [r0]
  49              		.loc 1 92 0
  50 0012 1146     		mov	r1, r2
  51 0014 1C30     		adds	r0, r0, #28
  52              	.LVL2:
  53 0016 FFF7FEFF 		bl	chSemObjectInit
  54              	.LVL3:
  55              		.loc 1 93 0
  56 001a 04F11000 		add	r0, r4, #16
  57 001e 0021     		movs	r1, #0
ARM GAS  /tmp/cchwPuds.s 			page 2


  58              		.loc 1 94 0
  59 0020 BDE81040 		pop	{r4, lr}
  60              	.LVL4:
  61              		.loc 1 93 0
  62 0024 FFF7FEBF 		b	chSemObjectInit
  63              	.LVL5:
  64              		.cfi_endproc
  65              	.LFE226:
  66              		.size	chMBObjectInit, .-chMBObjectInit
  67 0028 AFF30080 		.section	.text.chMBResetI,"ax",%progbits
  67      AFF30080 
  68              		.align	2
  69              		.p2align 4,,15
  70              		.global	chMBResetI
  71              		.thumb
  72              		.thumb_func
  73              		.type	chMBResetI, %function
  74              	chMBResetI:
  75              	.LFB228:
  76              		.loc 1 122 0
  77              		.cfi_startproc
  78              		@ args = 0, pretend = 0, frame = 0
  79              		@ frame_needed = 0, uses_anonymous_args = 0
  80              	.LVL6:
  81 0000 10B5     		push	{r4, lr}
  82              		.cfi_def_cfa_offset 8
  83              		.cfi_offset 4, -8
  84              		.cfi_offset 14, -4
  85              		.loc 1 122 0
  86 0002 0446     		mov	r4, r0
  87              		.loc 1 128 0
  88 0004 1C30     		adds	r0, r0, #28
  89              	.LVL7:
  90              		.loc 1 127 0
  91 0006 2368     		ldr	r3, [r4]
  92              		.loc 1 128 0
  93 0008 6168     		ldr	r1, [r4, #4]
  94              		.loc 1 127 0
  95 000a E360     		str	r3, [r4, #12]
  96              		.loc 1 128 0
  97 000c C91A     		subs	r1, r1, r3
  98              		.loc 1 127 0
  99 000e A360     		str	r3, [r4, #8]
 100              		.loc 1 128 0
 101 0010 8910     		asrs	r1, r1, #2
 102 0012 FFF7FEFF 		bl	chSemResetI
 103              	.LVL8:
 104              		.loc 1 129 0
 105 0016 04F11000 		add	r0, r4, #16
 106 001a 0021     		movs	r1, #0
 107              		.loc 1 130 0
 108 001c BDE81040 		pop	{r4, lr}
 109              	.LVL9:
 110              		.loc 1 129 0
 111 0020 FFF7FEBF 		b	chSemResetI
 112              	.LVL10:
 113              		.cfi_endproc
ARM GAS  /tmp/cchwPuds.s 			page 3


 114              	.LFE228:
 115              		.size	chMBResetI, .-chMBResetI
 116 0024 AFF30080 		.section	.text.chMBReset,"ax",%progbits
 116      AFF30080 
 116      AFF30080 
 117              		.align	2
 118              		.p2align 4,,15
 119              		.global	chMBReset
 120              		.thumb
 121              		.thumb_func
 122              		.type	chMBReset, %function
 123              	chMBReset:
 124              	.LFB227:
 125              		.loc 1 105 0
 126              		.cfi_startproc
 127              		@ args = 0, pretend = 0, frame = 0
 128              		@ frame_needed = 0, uses_anonymous_args = 0
 129              	.LVL11:
 130 0000 08B5     		push	{r3, lr}
 131              		.cfi_def_cfa_offset 8
 132              		.cfi_offset 3, -8
 133              		.cfi_offset 14, -4
 134              	.LBB66:
 135              	.LBB67:
 136              	.LBB68:
 137              	.LBB69:
 138              		.file 2 "../ChibiOS/os/ext/CMSIS/include/core_cmFunc.h"
 139              		.loc 2 546 0
 140 0002 2023     		movs	r3, #32
 141              	@ 546 "../ChibiOS/os/ext/CMSIS/include/core_cmFunc.h" 1
 142 0004 83F31188 		MSR basepri, r3
 143              	@ 0 "" 2
 144              		.thumb
 145              	.LBE69:
 146              	.LBE68:
 147              	.LBE67:
 148              	.LBE66:
 149              		.loc 1 108 0
 150 0008 FFF7FEFF 		bl	chMBResetI
 151              	.LVL12:
 152              		.loc 1 109 0
 153 000c FFF7FEFF 		bl	chSchRescheduleS
 154              	.LVL13:
 155              	.LBB70:
 156              	.LBB71:
 157              	.LBB72:
 158              	.LBB73:
 159              	.LBB74:
 160              		.loc 2 546 0
 161 0010 0023     		movs	r3, #0
 162              	@ 546 "../ChibiOS/os/ext/CMSIS/include/core_cmFunc.h" 1
 163 0012 83F31188 		MSR basepri, r3
 164              	@ 0 "" 2
 165              		.thumb
 166 0016 08BD     		pop	{r3, pc}
 167              	.LBE74:
 168              	.LBE73:
ARM GAS  /tmp/cchwPuds.s 			page 4


 169              	.LBE72:
 170              	.LBE71:
 171              	.LBE70:
 172              		.cfi_endproc
 173              	.LFE227:
 174              		.size	chMBReset, .-chMBReset
 175 0018 AFF30080 		.section	.text.chMBPostS,"ax",%progbits
 175      AFF30080 
 176              		.align	2
 177              		.p2align 4,,15
 178              		.global	chMBPostS
 179              		.thumb
 180              		.thumb_func
 181              		.type	chMBPostS, %function
 182              	chMBPostS:
 183              	.LFB230:
 184              		.loc 1 179 0
 185              		.cfi_startproc
 186              		@ args = 0, pretend = 0, frame = 0
 187              		@ frame_needed = 0, uses_anonymous_args = 0
 188              	.LVL14:
 189 0000 70B5     		push	{r4, r5, r6, lr}
 190              		.cfi_def_cfa_offset 16
 191              		.cfi_offset 4, -16
 192              		.cfi_offset 5, -12
 193              		.cfi_offset 6, -8
 194              		.cfi_offset 14, -4
 195              		.loc 1 179 0
 196 0002 0446     		mov	r4, r0
 197 0004 0E46     		mov	r6, r1
 198              		.loc 1 185 0
 199 0006 1C30     		adds	r0, r0, #28
 200              	.LVL15:
 201 0008 1146     		mov	r1, r2
 202              	.LVL16:
 203 000a FFF7FEFF 		bl	chSemWaitTimeoutS
 204              	.LVL17:
 205              		.loc 1 186 0
 206 000e 0546     		mov	r5, r0
 207 0010 78B9     		cbnz	r0, .L5
 208              		.loc 1 187 0
 209 0012 A268     		ldr	r2, [r4, #8]
 210              		.loc 1 188 0
 211 0014 6168     		ldr	r1, [r4, #4]
 212              		.loc 1 187 0
 213 0016 131D     		adds	r3, r2, #4
 214              		.loc 1 188 0
 215 0018 8B42     		cmp	r3, r1
 216              		.loc 1 187 0
 217 001a A360     		str	r3, [r4, #8]
 218              		.loc 1 189 0
 219 001c 28BF     		it	cs
 220 001e 2368     		ldrcs	r3, [r4]
 221              		.loc 1 187 0
 222 0020 1660     		str	r6, [r2]
 223              		.loc 1 190 0
 224 0022 04F11000 		add	r0, r4, #16
ARM GAS  /tmp/cchwPuds.s 			page 5


 225              	.LVL18:
 226              		.loc 1 189 0
 227 0026 28BF     		it	cs
 228 0028 A360     		strcs	r3, [r4, #8]
 229              		.loc 1 190 0
 230 002a FFF7FEFF 		bl	chSemSignalI
 231              	.LVL19:
 232              		.loc 1 191 0
 233 002e FFF7FEFF 		bl	chSchRescheduleS
 234              	.LVL20:
 235              	.L5:
 236              		.loc 1 194 0
 237 0032 2846     		mov	r0, r5
 238 0034 70BD     		pop	{r4, r5, r6, pc}
 239              		.cfi_endproc
 240              	.LFE230:
 241              		.size	chMBPostS, .-chMBPostS
 242 0036 00BFAFF3 		.section	.text.chMBPost,"ax",%progbits
 242      0080AFF3 
 242      0080
 243              		.align	2
 244              		.p2align 4,,15
 245              		.global	chMBPost
 246              		.thumb
 247              		.thumb_func
 248              		.type	chMBPost, %function
 249              	chMBPost:
 250              	.LFB229:
 251              		.loc 1 151 0
 252              		.cfi_startproc
 253              		@ args = 0, pretend = 0, frame = 0
 254              		@ frame_needed = 0, uses_anonymous_args = 0
 255              	.LVL21:
 256 0000 08B5     		push	{r3, lr}
 257              		.cfi_def_cfa_offset 8
 258              		.cfi_offset 3, -8
 259              		.cfi_offset 14, -4
 260              	.LBB75:
 261              	.LBB76:
 262              	.LBB77:
 263              	.LBB78:
 264              		.loc 2 546 0
 265 0002 2023     		movs	r3, #32
 266              	@ 546 "../ChibiOS/os/ext/CMSIS/include/core_cmFunc.h" 1
 267 0004 83F31188 		MSR basepri, r3
 268              	@ 0 "" 2
 269              		.thumb
 270              	.LBE78:
 271              	.LBE77:
 272              	.LBE76:
 273              	.LBE75:
 274              		.loc 1 155 0
 275 0008 FFF7FEFF 		bl	chMBPostS
 276              	.LVL22:
 277              	.LBB79:
 278              	.LBB80:
 279              	.LBB81:
ARM GAS  /tmp/cchwPuds.s 			page 6


 280              	.LBB82:
 281              	.LBB83:
 282              		.loc 2 546 0
 283 000c 0023     		movs	r3, #0
 284              	@ 546 "../ChibiOS/os/ext/CMSIS/include/core_cmFunc.h" 1
 285 000e 83F31188 		MSR basepri, r3
 286              	@ 0 "" 2
 287              		.thumb
 288              	.LBE83:
 289              	.LBE82:
 290              	.LBE81:
 291              	.LBE80:
 292              	.LBE79:
 293              		.loc 1 158 0
 294 0012 08BD     		pop	{r3, pc}
 295              		.cfi_endproc
 296              	.LFE229:
 297              		.size	chMBPost, .-chMBPost
 298 0014 AFF30080 		.section	.text.chMBPostI,"ax",%progbits
 298      AFF30080 
 298      AFF30080 
 299              		.align	2
 300              		.p2align 4,,15
 301              		.global	chMBPostI
 302              		.thumb
 303              		.thumb_func
 304              		.type	chMBPostI, %function
 305              	chMBPostI:
 306              	.LFB231:
 307              		.loc 1 210 0
 308              		.cfi_startproc
 309              		@ args = 0, pretend = 0, frame = 0
 310              		@ frame_needed = 0, uses_anonymous_args = 0
 311              	.LVL23:
 312 0000 38B5     		push	{r3, r4, r5, lr}
 313              		.cfi_def_cfa_offset 16
 314              		.cfi_offset 3, -16
 315              		.cfi_offset 4, -12
 316              		.cfi_offset 5, -8
 317              		.cfi_offset 14, -4
 318              		.loc 1 215 0
 319 0002 436A     		ldr	r3, [r0, #36]
 320              	.LVL24:
 321 0004 002B     		cmp	r3, #0
 322 0006 12DD     		ble	.L12
 323              	.LVL25:
 324              		.loc 1 218 0
 325 0008 8468     		ldr	r4, [r0, #8]
 326              		.loc 1 219 0
 327 000a 4568     		ldr	r5, [r0, #4]
 328              		.loc 1 218 0
 329 000c 221D     		adds	r2, r4, #4
 330              	.LBB84:
 331              	.LBB85:
 332              		.file 3 "../ChibiOS/os/rt/include/chsem.h"
 333              		.loc 3 122 0
 334 000e 013B     		subs	r3, r3, #1
ARM GAS  /tmp/cchwPuds.s 			page 7


 335              	.LBE85:
 336              	.LBE84:
 337              		.loc 1 219 0
 338 0010 AA42     		cmp	r2, r5
 339              	.LBB87:
 340              	.LBB86:
 341              		.loc 3 122 0
 342 0012 4362     		str	r3, [r0, #36]
 343              	.LBE86:
 344              	.LBE87:
 345              		.loc 1 220 0
 346 0014 28BF     		it	cs
 347 0016 0368     		ldrcs	r3, [r0]
 348              		.loc 1 218 0
 349 0018 8260     		str	r2, [r0, #8]
 350 001a 2160     		str	r1, [r4]
 351              		.loc 1 221 0
 352 001c 00F11000 		add	r0, r0, #16
 353              	.LVL26:
 354              		.loc 1 220 0
 355 0020 28BF     		it	cs
 356 0022 40F8083C 		strcs	r3, [r0, #-8]
 357              		.loc 1 221 0
 358 0026 FFF7FEFF 		bl	chSemSignalI
 359              	.LVL27:
 360              		.loc 1 222 0
 361 002a 0020     		movs	r0, #0
 362 002c 38BD     		pop	{r3, r4, r5, pc}
 363              	.LVL28:
 364              	.L12:
 365              		.loc 1 216 0
 366 002e 4FF0FF30 		mov	r0, #-1
 367              	.LVL29:
 368              		.loc 1 223 0
 369 0032 38BD     		pop	{r3, r4, r5, pc}
 370              		.cfi_endproc
 371              	.LFE231:
 372              		.size	chMBPostI, .-chMBPostI
 373 0034 AFF30080 		.section	.text.chMBPostAheadS,"ax",%progbits
 373      AFF30080 
 373      AFF30080 
 374              		.align	2
 375              		.p2align 4,,15
 376              		.global	chMBPostAheadS
 377              		.thumb
 378              		.thumb_func
 379              		.type	chMBPostAheadS, %function
 380              	chMBPostAheadS:
 381              	.LFB233:
 382              		.loc 1 272 0
 383              		.cfi_startproc
 384              		@ args = 0, pretend = 0, frame = 0
 385              		@ frame_needed = 0, uses_anonymous_args = 0
 386              	.LVL30:
 387 0000 70B5     		push	{r4, r5, r6, lr}
 388              		.cfi_def_cfa_offset 16
 389              		.cfi_offset 4, -16
ARM GAS  /tmp/cchwPuds.s 			page 8


 390              		.cfi_offset 5, -12
 391              		.cfi_offset 6, -8
 392              		.cfi_offset 14, -4
 393              		.loc 1 272 0
 394 0002 0446     		mov	r4, r0
 395 0004 0E46     		mov	r6, r1
 396              		.loc 1 278 0
 397 0006 1C30     		adds	r0, r0, #28
 398              	.LVL31:
 399 0008 1146     		mov	r1, r2
 400              	.LVL32:
 401 000a FFF7FEFF 		bl	chSemWaitTimeoutS
 402              	.LVL33:
 403              		.loc 1 279 0
 404 000e 0546     		mov	r5, r0
 405 0010 60B9     		cbnz	r0, .L14
 406              		.loc 1 280 0
 407 0012 E368     		ldr	r3, [r4, #12]
 408 0014 2268     		ldr	r2, [r4]
 409 0016 043B     		subs	r3, r3, #4
 410 0018 9342     		cmp	r3, r2
 411 001a E360     		str	r3, [r4, #12]
 412 001c 08D3     		bcc	.L16
 413              	.L15:
 414              		.loc 1 282 0
 415 001e 1E60     		str	r6, [r3]
 416              		.loc 1 283 0
 417 0020 04F11000 		add	r0, r4, #16
 418              	.LVL34:
 419 0024 FFF7FEFF 		bl	chSemSignalI
 420              	.LVL35:
 421              		.loc 1 284 0
 422 0028 FFF7FEFF 		bl	chSchRescheduleS
 423              	.LVL36:
 424              	.L14:
 425              		.loc 1 287 0
 426 002c 2846     		mov	r0, r5
 427 002e 70BD     		pop	{r4, r5, r6, pc}
 428              	.LVL37:
 429              	.L16:
 430              		.loc 1 281 0
 431 0030 6368     		ldr	r3, [r4, #4]
 432 0032 043B     		subs	r3, r3, #4
 433 0034 E360     		str	r3, [r4, #12]
 434 0036 F2E7     		b	.L15
 435              		.cfi_endproc
 436              	.LFE233:
 437              		.size	chMBPostAheadS, .-chMBPostAheadS
 438 0038 AFF30080 		.section	.text.chMBPostAhead,"ax",%progbits
 438      AFF30080 
 439              		.align	2
 440              		.p2align 4,,15
 441              		.global	chMBPostAhead
 442              		.thumb
 443              		.thumb_func
 444              		.type	chMBPostAhead, %function
 445              	chMBPostAhead:
ARM GAS  /tmp/cchwPuds.s 			page 9


 446              	.LFB232:
 447              		.loc 1 244 0
 448              		.cfi_startproc
 449              		@ args = 0, pretend = 0, frame = 0
 450              		@ frame_needed = 0, uses_anonymous_args = 0
 451              	.LVL38:
 452 0000 08B5     		push	{r3, lr}
 453              		.cfi_def_cfa_offset 8
 454              		.cfi_offset 3, -8
 455              		.cfi_offset 14, -4
 456              	.LBB88:
 457              	.LBB89:
 458              	.LBB90:
 459              	.LBB91:
 460              		.loc 2 546 0
 461 0002 2023     		movs	r3, #32
 462              	@ 546 "../ChibiOS/os/ext/CMSIS/include/core_cmFunc.h" 1
 463 0004 83F31188 		MSR basepri, r3
 464              	@ 0 "" 2
 465              		.thumb
 466              	.LBE91:
 467              	.LBE90:
 468              	.LBE89:
 469              	.LBE88:
 470              		.loc 1 248 0
 471 0008 FFF7FEFF 		bl	chMBPostAheadS
 472              	.LVL39:
 473              	.LBB92:
 474              	.LBB93:
 475              	.LBB94:
 476              	.LBB95:
 477              	.LBB96:
 478              		.loc 2 546 0
 479 000c 0023     		movs	r3, #0
 480              	@ 546 "../ChibiOS/os/ext/CMSIS/include/core_cmFunc.h" 1
 481 000e 83F31188 		MSR basepri, r3
 482              	@ 0 "" 2
 483              		.thumb
 484              	.LBE96:
 485              	.LBE95:
 486              	.LBE94:
 487              	.LBE93:
 488              	.LBE92:
 489              		.loc 1 251 0
 490 0012 08BD     		pop	{r3, pc}
 491              		.cfi_endproc
 492              	.LFE232:
 493              		.size	chMBPostAhead, .-chMBPostAhead
 494 0014 AFF30080 		.section	.text.chMBPostAheadI,"ax",%progbits
 494      AFF30080 
 494      AFF30080 
 495              		.align	2
 496              		.p2align 4,,15
 497              		.global	chMBPostAheadI
 498              		.thumb
 499              		.thumb_func
 500              		.type	chMBPostAheadI, %function
ARM GAS  /tmp/cchwPuds.s 			page 10


 501              	chMBPostAheadI:
 502              	.LFB234:
 503              		.loc 1 303 0
 504              		.cfi_startproc
 505              		@ args = 0, pretend = 0, frame = 0
 506              		@ frame_needed = 0, uses_anonymous_args = 0
 507              	.LVL40:
 508              		.loc 1 308 0
 509 0000 426A     		ldr	r2, [r0, #36]
 510              	.LVL41:
 511 0002 002A     		cmp	r2, #0
 512              		.loc 1 303 0
 513 0004 10B5     		push	{r4, lr}
 514              		.cfi_def_cfa_offset 8
 515              		.cfi_offset 4, -8
 516              		.cfi_offset 14, -4
 517              		.loc 1 308 0
 518 0006 10DD     		ble	.L21
 519              	.LVL42:
 520              		.loc 1 311 0
 521 0008 C368     		ldr	r3, [r0, #12]
 522 000a 0468     		ldr	r4, [r0]
 523 000c 043B     		subs	r3, r3, #4
 524              	.LBB97:
 525              	.LBB98:
 526              		.loc 3 122 0
 527 000e 013A     		subs	r2, r2, #1
 528              	.LBE98:
 529              	.LBE97:
 530              		.loc 1 311 0
 531 0010 A342     		cmp	r3, r4
 532              	.LBB100:
 533              	.LBB99:
 534              		.loc 3 122 0
 535 0012 4262     		str	r2, [r0, #36]
 536              	.LBE99:
 537              	.LBE100:
 538              		.loc 1 311 0
 539 0014 C360     		str	r3, [r0, #12]
 540 0016 02D2     		bcs	.L20
 541              		.loc 1 312 0
 542 0018 4368     		ldr	r3, [r0, #4]
 543 001a 043B     		subs	r3, r3, #4
 544 001c C360     		str	r3, [r0, #12]
 545              	.L20:
 546              		.loc 1 313 0
 547 001e 1960     		str	r1, [r3]
 548              		.loc 1 314 0
 549 0020 1030     		adds	r0, r0, #16
 550              	.LVL43:
 551 0022 FFF7FEFF 		bl	chSemSignalI
 552              	.LVL44:
 553              		.loc 1 315 0
 554 0026 0020     		movs	r0, #0
 555 0028 10BD     		pop	{r4, pc}
 556              	.LVL45:
 557              	.L21:
ARM GAS  /tmp/cchwPuds.s 			page 11


 558              		.loc 1 309 0
 559 002a 4FF0FF30 		mov	r0, #-1
 560              	.LVL46:
 561              		.loc 1 316 0
 562 002e 10BD     		pop	{r4, pc}
 563              		.cfi_endproc
 564              	.LFE234:
 565              		.size	chMBPostAheadI, .-chMBPostAheadI
 566              		.section	.text.chMBFetchS,"ax",%progbits
 567              		.align	2
 568              		.p2align 4,,15
 569              		.global	chMBFetchS
 570              		.thumb
 571              		.thumb_func
 572              		.type	chMBFetchS, %function
 573              	chMBFetchS:
 574              	.LFB236:
 575              		.loc 1 365 0
 576              		.cfi_startproc
 577              		@ args = 0, pretend = 0, frame = 0
 578              		@ frame_needed = 0, uses_anonymous_args = 0
 579              	.LVL47:
 580 0000 70B5     		push	{r4, r5, r6, lr}
 581              		.cfi_def_cfa_offset 16
 582              		.cfi_offset 4, -16
 583              		.cfi_offset 5, -12
 584              		.cfi_offset 6, -8
 585              		.cfi_offset 14, -4
 586              		.loc 1 365 0
 587 0002 0446     		mov	r4, r0
 588 0004 0E46     		mov	r6, r1
 589              		.loc 1 371 0
 590 0006 1030     		adds	r0, r0, #16
 591              	.LVL48:
 592 0008 1146     		mov	r1, r2
 593              	.LVL49:
 594 000a FFF7FEFF 		bl	chSemWaitTimeoutS
 595              	.LVL50:
 596              		.loc 1 372 0
 597 000e 0546     		mov	r5, r0
 598 0010 80B9     		cbnz	r0, .L23
 599              		.loc 1 373 0
 600 0012 E368     		ldr	r3, [r4, #12]
 601              		.loc 1 374 0
 602 0014 6268     		ldr	r2, [r4, #4]
 603              		.loc 1 373 0
 604 0016 1968     		ldr	r1, [r3]
 605 0018 0433     		adds	r3, r3, #4
 606              		.loc 1 374 0
 607 001a 9342     		cmp	r3, r2
 608              		.loc 1 373 0
 609 001c E360     		str	r3, [r4, #12]
 610              		.loc 1 375 0
 611 001e 28BF     		it	cs
 612 0020 2368     		ldrcs	r3, [r4]
 613              		.loc 1 373 0
 614 0022 3160     		str	r1, [r6]
ARM GAS  /tmp/cchwPuds.s 			page 12


 615              		.loc 1 376 0
 616 0024 04F11C00 		add	r0, r4, #28
 617              	.LVL51:
 618              		.loc 1 375 0
 619 0028 28BF     		it	cs
 620 002a E360     		strcs	r3, [r4, #12]
 621              		.loc 1 376 0
 622 002c FFF7FEFF 		bl	chSemSignalI
 623              	.LVL52:
 624              		.loc 1 377 0
 625 0030 FFF7FEFF 		bl	chSchRescheduleS
 626              	.LVL53:
 627              	.L23:
 628              		.loc 1 380 0
 629 0034 2846     		mov	r0, r5
 630 0036 70BD     		pop	{r4, r5, r6, pc}
 631              		.cfi_endproc
 632              	.LFE236:
 633              		.size	chMBFetchS, .-chMBFetchS
 634 0038 AFF30080 		.section	.text.chMBFetch,"ax",%progbits
 634      AFF30080 
 635              		.align	2
 636              		.p2align 4,,15
 637              		.global	chMBFetch
 638              		.thumb
 639              		.thumb_func
 640              		.type	chMBFetch, %function
 641              	chMBFetch:
 642              	.LFB235:
 643              		.loc 1 337 0
 644              		.cfi_startproc
 645              		@ args = 0, pretend = 0, frame = 0
 646              		@ frame_needed = 0, uses_anonymous_args = 0
 647              	.LVL54:
 648 0000 08B5     		push	{r3, lr}
 649              		.cfi_def_cfa_offset 8
 650              		.cfi_offset 3, -8
 651              		.cfi_offset 14, -4
 652              	.LBB101:
 653              	.LBB102:
 654              	.LBB103:
 655              	.LBB104:
 656              		.loc 2 546 0
 657 0002 2023     		movs	r3, #32
 658              	@ 546 "../ChibiOS/os/ext/CMSIS/include/core_cmFunc.h" 1
 659 0004 83F31188 		MSR basepri, r3
 660              	@ 0 "" 2
 661              		.thumb
 662              	.LBE104:
 663              	.LBE103:
 664              	.LBE102:
 665              	.LBE101:
 666              		.loc 1 341 0
 667 0008 FFF7FEFF 		bl	chMBFetchS
 668              	.LVL55:
 669              	.LBB105:
 670              	.LBB106:
ARM GAS  /tmp/cchwPuds.s 			page 13


 671              	.LBB107:
 672              	.LBB108:
 673              	.LBB109:
 674              		.loc 2 546 0
 675 000c 0023     		movs	r3, #0
 676              	@ 546 "../ChibiOS/os/ext/CMSIS/include/core_cmFunc.h" 1
 677 000e 83F31188 		MSR basepri, r3
 678              	@ 0 "" 2
 679              		.thumb
 680              	.LBE109:
 681              	.LBE108:
 682              	.LBE107:
 683              	.LBE106:
 684              	.LBE105:
 685              		.loc 1 344 0
 686 0012 08BD     		pop	{r3, pc}
 687              		.cfi_endproc
 688              	.LFE235:
 689              		.size	chMBFetch, .-chMBFetch
 690 0014 AFF30080 		.section	.text.chMBFetchI,"ax",%progbits
 690      AFF30080 
 690      AFF30080 
 691              		.align	2
 692              		.p2align 4,,15
 693              		.global	chMBFetchI
 694              		.thumb
 695              		.thumb_func
 696              		.type	chMBFetchI, %function
 697              	chMBFetchI:
 698              	.LFB237:
 699              		.loc 1 396 0
 700              		.cfi_startproc
 701              		@ args = 0, pretend = 0, frame = 0
 702              		@ frame_needed = 0, uses_anonymous_args = 0
 703              	.LVL56:
 704              		.loc 1 401 0
 705 0000 8369     		ldr	r3, [r0, #24]
 706              	.LVL57:
 707 0002 002B     		cmp	r3, #0
 708              		.loc 1 396 0
 709 0004 10B5     		push	{r4, lr}
 710              		.cfi_def_cfa_offset 8
 711              		.cfi_offset 4, -8
 712              		.cfi_offset 14, -4
 713              		.loc 1 401 0
 714 0006 13DD     		ble	.L29
 715              	.LVL58:
 716              	.LBB110:
 717              	.LBB111:
 718              		.loc 3 122 0
 719 0008 5A1E     		subs	r2, r3, #1
 720              	.LBE111:
 721              	.LBE110:
 722              		.loc 1 404 0
 723 000a C368     		ldr	r3, [r0, #12]
 724              	.LBB113:
 725              	.LBB112:
ARM GAS  /tmp/cchwPuds.s 			page 14


 726              		.loc 3 122 0
 727 000c 8261     		str	r2, [r0, #24]
 728              	.LBE112:
 729              	.LBE113:
 730              		.loc 1 405 0
 731 000e 4268     		ldr	r2, [r0, #4]
 732              		.loc 1 404 0
 733 0010 1C68     		ldr	r4, [r3]
 734 0012 0433     		adds	r3, r3, #4
 735              		.loc 1 405 0
 736 0014 9342     		cmp	r3, r2
 737              		.loc 1 404 0
 738 0016 C360     		str	r3, [r0, #12]
 739              		.loc 1 406 0
 740 0018 28BF     		it	cs
 741 001a 0368     		ldrcs	r3, [r0]
 742              		.loc 1 404 0
 743 001c 0C60     		str	r4, [r1]
 744              		.loc 1 407 0
 745 001e 00F11C00 		add	r0, r0, #28
 746              	.LVL59:
 747              		.loc 1 406 0
 748 0022 28BF     		it	cs
 749 0024 40F8103C 		strcs	r3, [r0, #-16]
 750              		.loc 1 407 0
 751 0028 FFF7FEFF 		bl	chSemSignalI
 752              	.LVL60:
 753              		.loc 1 408 0
 754 002c 0020     		movs	r0, #0
 755 002e 10BD     		pop	{r4, pc}
 756              	.LVL61:
 757              	.L29:
 758              		.loc 1 402 0
 759 0030 4FF0FF30 		mov	r0, #-1
 760              	.LVL62:
 761              		.loc 1 409 0
 762 0034 10BD     		pop	{r4, pc}
 763              		.cfi_endproc
 764              	.LFE237:
 765              		.size	chMBFetchI, .-chMBFetchI
 766 0036 00BFAFF3 		.text
 766      0080AFF3 
 766      0080
 767              	.Letext0:
 768              		.file 4 "/nfs/nfs5/home/research/hardware/arm2/gcc-arm-embedded/gcc-arm-none-eabi-4_8-2014q2/arm-n
 769              		.file 5 "/nfs/nfs5/home/research/hardware/arm2/gcc-arm-embedded/gcc-arm-none-eabi-4_8-2014q2/arm-n
 770              		.file 6 "../ChibiOS/os/rt/ports/ARMCMx/compilers/GCC/chtypes.h"
 771              		.file 7 "../ChibiOS/os/rt/include/chsystypes.h"
 772              		.file 8 "../ChibiOS/os/rt/include/chschd.h"
 773              		.file 9 "../ChibiOS/os/rt/ports/ARMCMx/chcore.h"
 774              		.file 10 "../ChibiOS/os/rt/ports/ARMCMx/chcore_v7m.h"
 775              		.file 11 "../ChibiOS/os/rt/include/chtm.h"
 776              		.file 12 "../ChibiOS/os/rt/include/chmtx.h"
 777              		.file 13 "../ChibiOS/os/rt/include/chmboxes.h"
 778              		.file 14 "../ChibiOS/os/rt/include/chsys.h"
 779              		.file 15 "../ChibiOS/os/ext/CMSIS/include/core_cm4.h"