ARM GAS  /tmp/ccBi34LW.s 			page 1


   1              		.syntax unified
   2              		.cpu cortex-m4
   3              		.fpu softvfp
   4              		.eabi_attribute 20, 1
   5              		.eabi_attribute 21, 1
   6              		.eabi_attribute 23, 3
   7              		.eabi_attribute 24, 1
   8              		.eabi_attribute 25, 1
   9              		.eabi_attribute 26, 1
  10              		.eabi_attribute 30, 2
  11              		.eabi_attribute 34, 1
  12              		.eabi_attribute 18, 4
  13              		.thumb
  14              		.file	"chmemcore.c"
  15              		.text
  16              	.Ltext0:
  17              		.cfi_sections	.debug_frame
  18              		.section	.text._core_init,"ax",%progbits
  19              		.align	2
  20              		.p2align 4,,15
  21              		.global	_core_init
  22              		.thumb
  23              		.thumb_func
  24              		.type	_core_init, %function
  25              	_core_init:
  26              	.LFB226:
  27              		.file 1 "../ChibiOS/os/rt/src/chmemcore.c"
  28              		.loc 1 78 0
  29              		.cfi_startproc
  30              		@ args = 0, pretend = 0, frame = 0
  31              		@ frame_needed = 0, uses_anonymous_args = 0
  32              		@ link register save eliminated.
  33              		.loc 1 83 0
  34 0000 0548     		ldr	r0, .L2
  35              		.loc 1 84 0
  36 0002 064A     		ldr	r2, .L2+4
  37              		.loc 1 83 0
  38 0004 0649     		ldr	r1, .L2+8
  39              		.loc 1 84 0
  40 0006 074B     		ldr	r3, .L2+12
  41              		.loc 1 83 0
  42 0008 20F00700 		bic	r0, r0, #7
  43              		.loc 1 84 0
  44 000c 22F00702 		bic	r2, r2, #7
  45              		.loc 1 83 0
  46 0010 0860     		str	r0, [r1]
  47              		.loc 1 84 0
  48 0012 1A60     		str	r2, [r3]
  49 0014 7047     		bx	lr
  50              	.L3:
  51 0016 00BF     		.align	2
  52              	.L2:
  53 0018 07000000 		.word	__heap_base__+7
  54 001c 00000000 		.word	__heap_end__
  55 0020 00000000 		.word	.LANCHOR0
  56 0024 00000000 		.word	.LANCHOR1
  57              		.cfi_endproc
ARM GAS  /tmp/ccBi34LW.s 			page 2


  58              	.LFE226:
  59              		.size	_core_init, .-_core_init
  60 0028 AFF30080 		.section	.text.chCoreAlloc,"ax",%progbits
  60      AFF30080 
  61              		.align	2
  62              		.p2align 4,,15
  63              		.global	chCoreAlloc
  64              		.thumb
  65              		.thumb_func
  66              		.type	chCoreAlloc, %function
  67              	chCoreAlloc:
  68              	.LFB227:
  69              		.loc 1 105 0
  70              		.cfi_startproc
  71              		@ args = 0, pretend = 0, frame = 0
  72              		@ frame_needed = 0, uses_anonymous_args = 0
  73              		@ link register save eliminated.
  74              	.LVL0:
  75              	.LBB26:
  76              	.LBB27:
  77              	.LBB28:
  78              	.LBB29:
  79              		.file 2 "../ChibiOS/os/ext/CMSIS/include/core_cmFunc.h"
  80              		.loc 2 546 0
  81 0000 2023     		movs	r3, #32
  82              	@ 546 "../ChibiOS/os/ext/CMSIS/include/core_cmFunc.h" 1
  83 0002 83F31188 		MSR basepri, r3
  84              	@ 0 "" 2
  85              	.LVL1:
  86              		.thumb
  87              	.LBE29:
  88              	.LBE28:
  89              	.LBE27:
  90              	.LBE26:
  91              	.LBB30:
  92              	.LBB31:
  93              		.loc 1 132 0
  94 0006 094A     		ldr	r2, .L7
  95 0008 0949     		ldr	r1, .L7+4
  96 000a 1368     		ldr	r3, [r2]
  97 000c 0968     		ldr	r1, [r1]
  98              		.loc 1 131 0
  99 000e 0730     		adds	r0, r0, #7
 100              	.LVL2:
 101 0010 20F00700 		bic	r0, r0, #7
 102              	.LVL3:
 103              		.loc 1 132 0
 104 0014 C91A     		subs	r1, r1, r3
 105 0016 8842     		cmp	r0, r1
 106              	.LVL4:
 107              		.loc 1 135 0
 108 0018 9BBF     		ittet	ls
 109 001a C018     		addls	r0, r0, r3
 110              	.LVL5:
 111 001c 1060     		strls	r0, [r2]
 112              		.loc 1 133 0
 113 001e 0020     		movhi	r0, #0
ARM GAS  /tmp/ccBi34LW.s 			page 3


 114              	.LVL6:
 115              		.loc 1 136 0
 116 0020 1846     		movls	r0, r3
 117              	.LBE31:
 118              	.LBE30:
 119              	.LBB32:
 120              	.LBB33:
 121              	.LBB34:
 122              	.LBB35:
 123              	.LBB36:
 124              		.loc 2 546 0
 125 0022 0023     		movs	r3, #0
 126              	.LVL7:
 127              	@ 546 "../ChibiOS/os/ext/CMSIS/include/core_cmFunc.h" 1
 128 0024 83F31188 		MSR basepri, r3
 129              	@ 0 "" 2
 130              		.thumb
 131              	.LBE36:
 132              	.LBE35:
 133              	.LBE34:
 134              	.LBE33:
 135              	.LBE32:
 136              		.loc 1 112 0
 137 0028 7047     		bx	lr
 138              	.L8:
 139 002a 00BF     		.align	2
 140              	.L7:
 141 002c 00000000 		.word	.LANCHOR0
 142 0030 00000000 		.word	.LANCHOR1
 143              		.cfi_endproc
 144              	.LFE227:
 145              		.size	chCoreAlloc, .-chCoreAlloc
 146 0034 AFF30080 		.section	.text.chCoreAllocI,"ax",%progbits
 146      AFF30080 
 146      AFF30080 
 147              		.align	2
 148              		.p2align 4,,15
 149              		.global	chCoreAllocI
 150              		.thumb
 151              		.thumb_func
 152              		.type	chCoreAllocI, %function
 153              	chCoreAllocI:
 154              	.LFB228:
 155              		.loc 1 126 0
 156              		.cfi_startproc
 157              		@ args = 0, pretend = 0, frame = 0
 158              		@ frame_needed = 0, uses_anonymous_args = 0
 159              		@ link register save eliminated.
 160              	.LVL8:
 161              		.loc 1 132 0
 162 0000 074A     		ldr	r2, .L12
 163 0002 0849     		ldr	r1, .L12+4
 164 0004 1368     		ldr	r3, [r2]
 165 0006 0968     		ldr	r1, [r1]
 166              		.loc 1 131 0
 167 0008 0730     		adds	r0, r0, #7
 168              	.LVL9:
ARM GAS  /tmp/ccBi34LW.s 			page 4


 169 000a 20F00700 		bic	r0, r0, #7
 170              	.LVL10:
 171              		.loc 1 132 0
 172 000e C91A     		subs	r1, r1, r3
 173 0010 8842     		cmp	r0, r1
 174              	.LVL11:
 175              		.loc 1 135 0
 176 0012 9DBF     		ittte	ls
 177 0014 C018     		addls	r0, r0, r3
 178              	.LVL12:
 179 0016 1060     		strls	r0, [r2]
 180              		.loc 1 136 0
 181 0018 1846     		movls	r0, r3
 182              		.loc 1 133 0
 183 001a 0020     		movhi	r0, #0
 184              		.loc 1 137 0
 185 001c 7047     		bx	lr
 186              	.L13:
 187 001e 00BF     		.align	2
 188              	.L12:
 189 0020 00000000 		.word	.LANCHOR0
 190 0024 00000000 		.word	.LANCHOR1
 191              		.cfi_endproc
 192              	.LFE228:
 193              		.size	chCoreAllocI, .-chCoreAllocI
 194 0028 AFF30080 		.section	.text.chCoreGetStatusX,"ax",%progbits
 194      AFF30080 
 195              		.align	2
 196              		.p2align 4,,15
 197              		.global	chCoreGetStatusX
 198              		.thumb
 199              		.thumb_func
 200              		.type	chCoreGetStatusX, %function
 201              	chCoreGetStatusX:
 202              	.LFB229:
 203              		.loc 1 146 0
 204              		.cfi_startproc
 205              		@ args = 0, pretend = 0, frame = 0
 206              		@ frame_needed = 0, uses_anonymous_args = 0
 207              		@ link register save eliminated.
 208              		.loc 1 148 0
 209 0000 024A     		ldr	r2, .L15
 210 0002 034B     		ldr	r3, .L15+4
 211 0004 1068     		ldr	r0, [r2]
 212 0006 1B68     		ldr	r3, [r3]
 213              		.loc 1 149 0
 214 0008 C01A     		subs	r0, r0, r3
 215 000a 7047     		bx	lr
 216              	.L16:
 217              		.align	2
 218              	.L15:
 219 000c 00000000 		.word	.LANCHOR1
 220 0010 00000000 		.word	.LANCHOR0
 221              		.cfi_endproc
 222              	.LFE229:
 223              		.size	chCoreGetStatusX, .-chCoreGetStatusX
 224 0014 AFF30080 		.section	.bss.endmem,"aw",%nobits
ARM GAS  /tmp/ccBi34LW.s 			page 5


 224      AFF30080 
 224      AFF30080 
 225              		.align	2
 226              		.set	.LANCHOR1,. + 0
 227              		.type	endmem, %object
 228              		.size	endmem, 4
 229              	endmem:
 230 0000 00000000 		.space	4
 231              		.section	.bss.nextmem,"aw",%nobits
 232              		.align	2
 233              		.set	.LANCHOR0,. + 0
 234              		.type	nextmem, %object
 235              		.size	nextmem, 4
 236              	nextmem:
 237 0000 00000000 		.space	4
 238              		.text
 239              	.Letext0:
 240              		.file 3 "/nfs/nfs5/home/research/hardware/arm2/gcc-arm-embedded/gcc-arm-none-eabi-4_8-2014q2/lib/g
 241              		.file 4 "/nfs/nfs5/home/research/hardware/arm2/gcc-arm-embedded/gcc-arm-none-eabi-4_8-2014q2/arm-n
 242              		.file 5 "/nfs/nfs5/home/research/hardware/arm2/gcc-arm-embedded/gcc-arm-none-eabi-4_8-2014q2/arm-n
 243              		.file 6 "../ChibiOS/os/rt/ports/ARMCMx/compilers/GCC/chtypes.h"
 244              		.file 7 "../ChibiOS/os/rt/include/chsystypes.h"
 245              		.file 8 "../ChibiOS/os/rt/include/chschd.h"
 246              		.file 9 "../ChibiOS/os/rt/ports/ARMCMx/chcore.h"
 247              		.file 10 "../ChibiOS/os/rt/ports/ARMCMx/chcore_v7m.h"
 248              		.file 11 "../ChibiOS/os/rt/include/chtm.h"
 249              		.file 12 "../ChibiOS/os/rt/include/chmtx.h"
 250              		.file 13 "../ChibiOS/os/rt/include/chsys.h"
 251              		.file 14 "../ChibiOS/os/ext/CMSIS/include/core_cm4.h"