ARM GAS  /tmp/cc0347tc.s 			page 1


   1              		.syntax unified
   2              		.cpu cortex-m4
   3              		.fpu softvfp
   4              		.eabi_attribute 20, 1
   5              		.eabi_attribute 21, 1
   6              		.eabi_attribute 23, 3
   7              		.eabi_attribute 24, 1
   8              		.eabi_attribute 25, 1
   9              		.eabi_attribute 26, 1
  10              		.eabi_attribute 30, 2
  11              		.eabi_attribute 34, 1
  12              		.eabi_attribute 18, 4
  13              		.thumb
  14              		.file	"chmempools.c"
  15              		.text
  16              	.Ltext0:
  17              		.cfi_sections	.debug_frame
  18              		.section	.text.chPoolObjectInit,"ax",%progbits
  19              		.align	2
  20              		.p2align 4,,15
  21              		.global	chPoolObjectInit
  22              		.thumb
  23              		.thumb_func
  24              		.type	chPoolObjectInit, %function
  25              	chPoolObjectInit:
  26              	.LFB226:
  27              		.file 1 "../ChibiOS/os/rt/src/chmempools.c"
  28              		.loc 1 75 0
  29              		.cfi_startproc
  30              		@ args = 0, pretend = 0, frame = 0
  31              		@ frame_needed = 0, uses_anonymous_args = 0
  32              		@ link register save eliminated.
  33              	.LVL0:
  34              		.loc 1 79 0
  35 0000 0023     		movs	r3, #0
  36              		.loc 1 80 0
  37 0002 4160     		str	r1, [r0, #4]
  38              		.loc 1 81 0
  39 0004 8260     		str	r2, [r0, #8]
  40              		.loc 1 79 0
  41 0006 0360     		str	r3, [r0]
  42 0008 7047     		bx	lr
  43              		.cfi_endproc
  44              	.LFE226:
  45              		.size	chPoolObjectInit, .-chPoolObjectInit
  46 000a 00BFAFF3 		.section	.text.chPoolLoadArray,"ax",%progbits
  46      0080
  47              		.align	2
  48              		.p2align 4,,15
  49              		.global	chPoolLoadArray
  50              		.thumb
  51              		.thumb_func
  52              		.type	chPoolLoadArray, %function
  53              	chPoolLoadArray:
  54              	.LFB227:
  55              		.loc 1 97 0
  56              		.cfi_startproc
ARM GAS  /tmp/cc0347tc.s 			page 2


  57              		@ args = 0, pretend = 0, frame = 0
  58              		@ frame_needed = 0, uses_anonymous_args = 0
  59              		@ link register save eliminated.
  60              	.LVL1:
  61 0000 30B4     		push	{r4, r5}
  62              		.cfi_def_cfa_offset 8
  63              		.cfi_offset 4, -8
  64              		.cfi_offset 5, -4
  65              		.loc 1 101 0
  66 0002 62B1     		cbz	r2, .L2
  67              	.LBB77:
  68              	.LBB78:
  69              	.LBB79:
  70              	.LBB80:
  71              	.LBB81:
  72              	.LBB82:
  73              		.file 2 "../ChibiOS/os/ext/CMSIS/include/core_cmFunc.h"
  74              		.loc 2 546 0
  75 0004 2025     		movs	r5, #32
  76              	.LBE82:
  77              	.LBE81:
  78              	.LBE80:
  79              	.LBE79:
  80              	.LBB86:
  81              	.LBB87:
  82              	.LBB88:
  83              	.LBB89:
  84              	.LBB90:
  85 0006 0024     		movs	r4, #0
  86              	.LVL2:
  87              	.L5:
  88              	.LBE90:
  89              	.LBE89:
  90              	.LBE88:
  91              	.LBE87:
  92              	.LBE86:
  93              	.LBB95:
  94              	.LBB85:
  95              	.LBB84:
  96              	.LBB83:
  97              	@ 546 "../ChibiOS/os/ext/CMSIS/include/core_cmFunc.h" 1
  98 0008 85F31188 		MSR basepri, r5
  99              	@ 0 "" 2
 100              	.LVL3:
 101              		.thumb
 102              	.LBE83:
 103              	.LBE84:
 104              	.LBE85:
 105              	.LBE95:
 106              	.LBB96:
 107              	.LBB97:
 108              		.loc 1 168 0
 109 000c 0368     		ldr	r3, [r0]
 110 000e 0B60     		str	r3, [r1]
 111              		.loc 1 169 0
 112 0010 0160     		str	r1, [r0]
 113              	.LVL4:
ARM GAS  /tmp/cc0347tc.s 			page 3


 114              	.LBE97:
 115              	.LBE96:
 116              	.LBB98:
 117              	.LBB94:
 118              	.LBB93:
 119              	.LBB92:
 120              	.LBB91:
 121              		.loc 2 546 0
 122              	@ 546 "../ChibiOS/os/ext/CMSIS/include/core_cmFunc.h" 1
 123 0012 84F31188 		MSR basepri, r4
 124              	@ 0 "" 2
 125              		.thumb
 126              	.LBE91:
 127              	.LBE92:
 128              	.LBE93:
 129              	.LBE94:
 130              	.LBE98:
 131              	.LBE78:
 132              	.LBE77:
 133              		.loc 1 103 0
 134 0016 4368     		ldr	r3, [r0, #4]
 135              		.loc 1 101 0
 136 0018 013A     		subs	r2, r2, #1
 137              	.LVL5:
 138              		.loc 1 103 0
 139 001a 1944     		add	r1, r1, r3
 140              	.LVL6:
 141              		.loc 1 101 0
 142 001c F4D1     		bne	.L5
 143              	.LVL7:
 144              	.L2:
 145              		.loc 1 106 0
 146 001e 30BC     		pop	{r4, r5}
 147 0020 7047     		bx	lr
 148              		.cfi_endproc
 149              	.LFE227:
 150              		.size	chPoolLoadArray, .-chPoolLoadArray
 151 0022 00BFAFF3 		.section	.text.chPoolAllocI,"ax",%progbits
 151      0080AFF3 
 151      0080AFF3 
 151      0080
 152              		.align	2
 153              		.p2align 4,,15
 154              		.global	chPoolAllocI
 155              		.thumb
 156              		.thumb_func
 157              		.type	chPoolAllocI, %function
 158              	chPoolAllocI:
 159              	.LFB228:
 160              		.loc 1 118 0
 161              		.cfi_startproc
 162              		@ args = 0, pretend = 0, frame = 0
 163              		@ frame_needed = 0, uses_anonymous_args = 0
 164              	.LVL8:
 165 0000 08B5     		push	{r3, lr}
 166              		.cfi_def_cfa_offset 8
 167              		.cfi_offset 3, -8
ARM GAS  /tmp/cc0347tc.s 			page 4


 168              		.cfi_offset 14, -4
 169              		.loc 1 118 0
 170 0002 0346     		mov	r3, r0
 171              		.loc 1 124 0
 172 0004 0068     		ldr	r0, [r0]
 173              	.LVL9:
 174 0006 10B1     		cbz	r0, .L12
 175              		.loc 1 125 0
 176 0008 0268     		ldr	r2, [r0]
 177 000a 1A60     		str	r2, [r3]
 178 000c 08BD     		pop	{r3, pc}
 179              	.LVL10:
 180              	.L12:
 181              		.loc 1 126 0
 182 000e 9A68     		ldr	r2, [r3, #8]
 183 0010 0AB1     		cbz	r2, .L13
 184              		.loc 1 127 0
 185 0012 5868     		ldr	r0, [r3, #4]
 186              	.LVL11:
 187 0014 9047     		blx	r2
 188              	.LVL12:
 189              	.L13:
 190              		.loc 1 129 0
 191 0016 08BD     		pop	{r3, pc}
 192              		.cfi_endproc
 193              	.LFE228:
 194              		.size	chPoolAllocI, .-chPoolAllocI
 195 0018 AFF30080 		.section	.text.chPoolAlloc,"ax",%progbits
 195      AFF30080 
 196              		.align	2
 197              		.p2align 4,,15
 198              		.global	chPoolAlloc
 199              		.thumb
 200              		.thumb_func
 201              		.type	chPoolAlloc, %function
 202              	chPoolAlloc:
 203              	.LFB229:
 204              		.loc 1 141 0
 205              		.cfi_startproc
 206              		@ args = 0, pretend = 0, frame = 0
 207              		@ frame_needed = 0, uses_anonymous_args = 0
 208              	.LVL13:
 209 0000 08B5     		push	{r3, lr}
 210              		.cfi_def_cfa_offset 8
 211              		.cfi_offset 3, -8
 212              		.cfi_offset 14, -4
 213              	.LBB99:
 214              	.LBB100:
 215              	.LBB101:
 216              	.LBB102:
 217              		.loc 2 546 0
 218 0002 2022     		movs	r2, #32
 219              	.LBE102:
 220              	.LBE101:
 221              	.LBE100:
 222              	.LBE99:
 223              		.loc 1 141 0
ARM GAS  /tmp/cc0347tc.s 			page 5


 224 0004 0346     		mov	r3, r0
 225              	.LBB106:
 226              	.LBB105:
 227              	.LBB104:
 228              	.LBB103:
 229              		.loc 2 546 0
 230              	@ 546 "../ChibiOS/os/ext/CMSIS/include/core_cmFunc.h" 1
 231 0006 82F31188 		MSR basepri, r2
 232              	@ 0 "" 2
 233              	.LVL14:
 234              		.thumb
 235              	.LBE103:
 236              	.LBE104:
 237              	.LBE105:
 238              	.LBE106:
 239              	.LBB107:
 240              	.LBB108:
 241              		.loc 1 124 0
 242 000a 0068     		ldr	r0, [r0]
 243              	.LVL15:
 244 000c 28B1     		cbz	r0, .L18
 245              		.loc 1 125 0
 246 000e 0268     		ldr	r2, [r0]
 247 0010 1A60     		str	r2, [r3]
 248              	.L19:
 249              	.LVL16:
 250              	.LBE108:
 251              	.LBE107:
 252              	.LBB110:
 253              	.LBB111:
 254              	.LBB112:
 255              	.LBB113:
 256              	.LBB114:
 257              		.loc 2 546 0
 258 0012 0023     		movs	r3, #0
 259              	.LVL17:
 260              	@ 546 "../ChibiOS/os/ext/CMSIS/include/core_cmFunc.h" 1
 261 0014 83F31188 		MSR basepri, r3
 262              	@ 0 "" 2
 263              		.thumb
 264              	.LBE114:
 265              	.LBE113:
 266              	.LBE112:
 267              	.LBE111:
 268              	.LBE110:
 269              		.loc 1 148 0
 270 0018 08BD     		pop	{r3, pc}
 271              	.LVL18:
 272              	.L18:
 273              	.LBB119:
 274              	.LBB109:
 275              		.loc 1 126 0
 276 001a 9A68     		ldr	r2, [r3, #8]
 277 001c 002A     		cmp	r2, #0
 278 001e F8D0     		beq	.L19
 279              		.loc 1 127 0
 280 0020 5868     		ldr	r0, [r3, #4]
ARM GAS  /tmp/cc0347tc.s 			page 6


 281              	.LVL19:
 282 0022 9047     		blx	r2
 283              	.LVL20:
 284              	.LBE109:
 285              	.LBE119:
 286              	.LBB120:
 287              	.LBB118:
 288              	.LBB117:
 289              	.LBB116:
 290              	.LBB115:
 291              		.loc 2 546 0
 292 0024 0023     		movs	r3, #0
 293              	@ 546 "../ChibiOS/os/ext/CMSIS/include/core_cmFunc.h" 1
 294 0026 83F31188 		MSR basepri, r3
 295              	@ 0 "" 2
 296              		.thumb
 297              	.LBE115:
 298              	.LBE116:
 299              	.LBE117:
 300              	.LBE118:
 301              	.LBE120:
 302              		.loc 1 148 0
 303 002a 08BD     		pop	{r3, pc}
 304              		.cfi_endproc
 305              	.LFE229:
 306              		.size	chPoolAlloc, .-chPoolAlloc
 307 002c AFF30080 		.section	.text.chPoolFreeI,"ax",%progbits
 308              		.align	2
 309              		.p2align 4,,15
 310              		.global	chPoolFreeI
 311              		.thumb
 312              		.thumb_func
 313              		.type	chPoolFreeI, %function
 314              	chPoolFreeI:
 315              	.LFB230:
 316              		.loc 1 162 0
 317              		.cfi_startproc
 318              		@ args = 0, pretend = 0, frame = 0
 319              		@ frame_needed = 0, uses_anonymous_args = 0
 320              		@ link register save eliminated.
 321              	.LVL21:
 322              		.loc 1 168 0
 323 0000 0368     		ldr	r3, [r0]
 324 0002 0B60     		str	r3, [r1]
 325              		.loc 1 169 0
 326 0004 0160     		str	r1, [r0]
 327 0006 7047     		bx	lr
 328              		.cfi_endproc
 329              	.LFE230:
 330              		.size	chPoolFreeI, .-chPoolFreeI
 331 0008 AFF30080 		.section	.text.chPoolFree,"ax",%progbits
 331      AFF30080 
 332              		.align	2
 333              		.p2align 4,,15
 334              		.global	chPoolFree
 335              		.thumb
 336              		.thumb_func
ARM GAS  /tmp/cc0347tc.s 			page 7


 337              		.type	chPoolFree, %function
 338              	chPoolFree:
 339              	.LFB231:
 340              		.loc 1 184 0
 341              		.cfi_startproc
 342              		@ args = 0, pretend = 0, frame = 0
 343              		@ frame_needed = 0, uses_anonymous_args = 0
 344              		@ link register save eliminated.
 345              	.LVL22:
 346              	.LBB121:
 347              	.LBB122:
 348              	.LBB123:
 349              	.LBB124:
 350              		.loc 2 546 0
 351 0000 2023     		movs	r3, #32
 352              	@ 546 "../ChibiOS/os/ext/CMSIS/include/core_cmFunc.h" 1
 353 0002 83F31188 		MSR basepri, r3
 354              	@ 0 "" 2
 355              	.LVL23:
 356              		.thumb
 357              	.LBE124:
 358              	.LBE123:
 359              	.LBE122:
 360              	.LBE121:
 361              	.LBB125:
 362              	.LBB126:
 363              		.loc 1 168 0
 364 0006 0368     		ldr	r3, [r0]
 365 0008 0B60     		str	r3, [r1]
 366              	.LBE126:
 367              	.LBE125:
 368              	.LBB128:
 369              	.LBB129:
 370              	.LBB130:
 371              	.LBB131:
 372              	.LBB132:
 373              		.loc 2 546 0
 374 000a 0023     		movs	r3, #0
 375              	.LBE132:
 376              	.LBE131:
 377              	.LBE130:
 378              	.LBE129:
 379              	.LBE128:
 380              	.LBB137:
 381              	.LBB127:
 382              		.loc 1 169 0
 383 000c 0160     		str	r1, [r0]
 384              	.LVL24:
 385              	.LBE127:
 386              	.LBE137:
 387              	.LBB138:
 388              	.LBB136:
 389              	.LBB135:
 390              	.LBB134:
 391              	.LBB133:
 392              		.loc 2 546 0
 393              	@ 546 "../ChibiOS/os/ext/CMSIS/include/core_cmFunc.h" 1
ARM GAS  /tmp/cc0347tc.s 			page 8


 394 000e 83F31188 		MSR basepri, r3
 395              	@ 0 "" 2
 396              		.thumb
 397 0012 7047     		bx	lr
 398              	.LBE133:
 399              	.LBE134:
 400              	.LBE135:
 401              	.LBE136:
 402              	.LBE138:
 403              		.cfi_endproc
 404              	.LFE231:
 405              		.size	chPoolFree, .-chPoolFree
 406 0014 AFF30080 		.text
 406      AFF30080 
 406      AFF30080 
 407              	.Letext0:
 408              		.file 3 "/nfs/nfs5/home/research/hardware/arm2/gcc-arm-embedded/gcc-arm-none-eabi-4_8-2014q2/lib/g
 409              		.file 4 "/nfs/nfs5/home/research/hardware/arm2/gcc-arm-embedded/gcc-arm-none-eabi-4_8-2014q2/arm-n
 410              		.file 5 "/nfs/nfs5/home/research/hardware/arm2/gcc-arm-embedded/gcc-arm-none-eabi-4_8-2014q2/arm-n
 411              		.file 6 "../ChibiOS/os/rt/ports/ARMCMx/compilers/GCC/chtypes.h"
 412              		.file 7 "../ChibiOS/os/rt/include/chsystypes.h"
 413              		.file 8 "../ChibiOS/os/rt/include/chschd.h"
 414              		.file 9 "../ChibiOS/os/rt/ports/ARMCMx/chcore.h"
 415              		.file 10 "../ChibiOS/os/rt/ports/ARMCMx/chcore_v7m.h"
 416              		.file 11 "../ChibiOS/os/rt/include/chtm.h"
 417              		.file 12 "../ChibiOS/os/rt/include/chmtx.h"
 418              		.file 13 "../ChibiOS/os/rt/include/chmemcore.h"
 419              		.file 14 "../ChibiOS/os/rt/include/chmempools.h"
 420              		.file 15 "../ChibiOS/os/rt/include/chsys.h"
 421              		.file 16 "../ChibiOS/os/ext/CMSIS/include/core_cm4.h"