ARM GAS  /tmp/cc9fIDpg.s 			page 1


   1              		.syntax unified
   2              		.cpu cortex-m4
   3              		.fpu softvfp
   4              		.eabi_attribute 20, 1
   5              		.eabi_attribute 21, 1
   6              		.eabi_attribute 23, 3
   7              		.eabi_attribute 24, 1
   8              		.eabi_attribute 25, 1
   9              		.eabi_attribute 26, 1
  10              		.eabi_attribute 30, 2
  11              		.eabi_attribute 34, 1
  12              		.eabi_attribute 18, 4
  13              		.thumb
  14              		.file	"chmsg.c"
  15              		.text
  16              	.Ltext0:
  17              		.cfi_sections	.debug_frame
  18              		.section	.text.chMsgSend,"ax",%progbits
  19              		.align	2
  20              		.p2align 4,,15
  21              		.global	chMsgSend
  22              		.thumb
  23              		.thumb_func
  24              		.type	chMsgSend, %function
  25              	chMsgSend:
  26              	.LFB226:
  27              		.file 1 "../ChibiOS/os/rt/src/chmsg.c"
  28              		.loc 1 87 0
  29              		.cfi_startproc
  30              		@ args = 0, pretend = 0, frame = 0
  31              		@ frame_needed = 0, uses_anonymous_args = 0
  32              	.LVL0:
  33              		.loc 1 88 0
  34 0000 0E4B     		ldr	r3, .L5
  35              		.loc 1 87 0
  36 0002 70B5     		push	{r4, r5, r6, lr}
  37              		.cfi_def_cfa_offset 16
  38              		.cfi_offset 4, -16
  39              		.cfi_offset 5, -12
  40              		.cfi_offset 6, -8
  41              		.cfi_offset 14, -4
  42              	.LBB52:
  43              	.LBB53:
  44              	.LBB54:
  45              	.LBB55:
  46              		.file 2 "../ChibiOS/os/ext/CMSIS/include/core_cmFunc.h"
  47              		.loc 2 546 0
  48 0004 2022     		movs	r2, #32
  49              	.LBE55:
  50              	.LBE54:
  51              	.LBE53:
  52              	.LBE52:
  53              		.loc 1 88 0
  54 0006 9C69     		ldr	r4, [r3, #24]
  55              	.LVL1:
  56              	.LBB59:
  57              	.LBB58:
ARM GAS  /tmp/cc9fIDpg.s 			page 2


  58              	.LBB57:
  59              	.LBB56:
  60              		.loc 2 546 0
  61              	@ 546 "../ChibiOS/os/ext/CMSIS/include/core_cmFunc.h" 1
  62 0008 82F31188 		MSR basepri, r2
  63              	@ 0 "" 2
  64              		.thumb
  65              	.LBE56:
  66              	.LBE57:
  67              	.LBE58:
  68              	.LBE59:
  69              		.loc 1 94 0
  70 000c 00F12805 		add	r5, r0, #40
  71              		.loc 1 96 0
  72 0010 067F     		ldrb	r6, [r0, #28]	@ zero_extendqisi2
  73              		.loc 1 94 0
  74 0012 2562     		str	r5, [r4, #32]
  75              	.LVL2:
  76              	.LBB60:
  77              	.LBB61:
  78              		.file 3 "../ChibiOS/os/rt/include/chschd.h"
  79              		.loc 3 633 0
  80 0014 C26A     		ldr	r2, [r0, #44]
  81 0016 6260     		str	r2, [r4, #4]
  82              	.LBE61:
  83              	.LBE60:
  84              		.loc 1 96 0
  85 0018 0E2E     		cmp	r6, #14
  86              		.loc 1 93 0
  87 001a 2163     		str	r1, [r4, #48]
  88              	.LBB63:
  89              	.LBB62:
  90              		.loc 3 632 0
  91 001c 2560     		str	r5, [r4]
  92              		.loc 3 634 0
  93 001e C462     		str	r4, [r0, #44]
  94 0020 1460     		str	r4, [r2]
  95              	.LBE62:
  96              	.LBE63:
  97              		.loc 1 96 0
  98 0022 07D0     		beq	.L4
  99              	.LVL3:
 100              	.L2:
 101              		.loc 1 98 0
 102 0024 0C20     		movs	r0, #12
 103 0026 FFF7FEFF 		bl	chSchGoSleepS
 104              	.LVL4:
 105              		.loc 1 99 0
 106 002a 206A     		ldr	r0, [r4, #32]
 107              	.LVL5:
 108              	.LBB64:
 109              	.LBB65:
 110              	.LBB66:
 111              	.LBB67:
 112              	.LBB68:
 113              		.loc 2 546 0
 114 002c 0023     		movs	r3, #0
ARM GAS  /tmp/cc9fIDpg.s 			page 3


 115              	@ 546 "../ChibiOS/os/ext/CMSIS/include/core_cmFunc.h" 1
 116 002e 83F31188 		MSR basepri, r3
 117              	@ 0 "" 2
 118              		.thumb
 119              	.LBE68:
 120              	.LBE67:
 121              	.LBE66:
 122              	.LBE65:
 123              	.LBE64:
 124              		.loc 1 102 0
 125 0032 70BD     		pop	{r4, r5, r6, pc}
 126              	.LVL6:
 127              	.L4:
 128              		.loc 1 97 0
 129 0034 FFF7FEFF 		bl	chSchReadyI
 130              	.LVL7:
 131 0038 F4E7     		b	.L2
 132              	.L6:
 133 003a 00BF     		.align	2
 134              	.L5:
 135 003c 00000000 		.word	ch
 136              		.cfi_endproc
 137              	.LFE226:
 138              		.size	chMsgSend, .-chMsgSend
 139              		.section	.text.chMsgWait,"ax",%progbits
 140              		.align	2
 141              		.p2align 4,,15
 142              		.global	chMsgWait
 143              		.thumb
 144              		.thumb_func
 145              		.type	chMsgWait, %function
 146              	chMsgWait:
 147              	.LFB227:
 148              		.loc 1 118 0
 149              		.cfi_startproc
 150              		@ args = 0, pretend = 0, frame = 0
 151              		@ frame_needed = 0, uses_anonymous_args = 0
 152              	.LVL8:
 153 0000 10B5     		push	{r4, lr}
 154              		.cfi_def_cfa_offset 8
 155              		.cfi_offset 4, -8
 156              		.cfi_offset 14, -4
 157              	.LBB69:
 158              	.LBB70:
 159              	.LBB71:
 160              	.LBB72:
 161              		.loc 2 546 0
 162 0002 2023     		movs	r3, #32
 163              	@ 546 "../ChibiOS/os/ext/CMSIS/include/core_cmFunc.h" 1
 164 0004 83F31188 		MSR basepri, r3
 165              	@ 0 "" 2
 166              		.thumb
 167              	.LBE72:
 168              	.LBE71:
 169              	.LBE70:
 170              	.LBE69:
 171              		.loc 1 122 0
ARM GAS  /tmp/cc9fIDpg.s 			page 4


 172 0008 0B4C     		ldr	r4, .L10
 173 000a A269     		ldr	r2, [r4, #24]
 174              	.LVL9:
 175              	.LBB73:
 176              	.LBB74:
 177              		.file 4 "../ChibiOS/os/rt/include/chmsg.h"
 178              		.loc 4 83 0
 179 000c 1346     		mov	r3, r2
 180 000e 53F8280F 		ldr	r0, [r3, #40]!
 181              	.LBE74:
 182              	.LBE73:
 183              		.loc 1 122 0
 184 0012 9842     		cmp	r0, r3
 185 0014 08D0     		beq	.L9
 186              	.LVL10:
 187              	.L8:
 188              	.LBB75:
 189              	.LBB76:
 190              		.loc 3 640 0
 191 0016 0168     		ldr	r1, [r0]
 192 0018 9162     		str	r1, [r2, #40]
 193              	.LBE76:
 194              	.LBE75:
 195              		.loc 1 125 0
 196 001a 0D22     		movs	r2, #13
 197              	.LBB78:
 198              	.LBB77:
 199              		.loc 3 640 0
 200 001c 4B60     		str	r3, [r1, #4]
 201              	.LBE77:
 202              	.LBE78:
 203              	.LBB79:
 204              	.LBB80:
 205              	.LBB81:
 206              	.LBB82:
 207              	.LBB83:
 208              		.loc 2 546 0
 209 001e 0023     		movs	r3, #0
 210              	.LVL11:
 211              	.LBE83:
 212              	.LBE82:
 213              	.LBE81:
 214              	.LBE80:
 215              	.LBE79:
 216              		.loc 1 125 0
 217 0020 0277     		strb	r2, [r0, #28]
 218              	.LVL12:
 219              	.LBB88:
 220              	.LBB87:
 221              	.LBB86:
 222              	.LBB85:
 223              	.LBB84:
 224              		.loc 2 546 0
 225              	@ 546 "../ChibiOS/os/ext/CMSIS/include/core_cmFunc.h" 1
 226 0022 83F31188 		MSR basepri, r3
 227              	@ 0 "" 2
 228              		.thumb
ARM GAS  /tmp/cc9fIDpg.s 			page 5


 229              	.LBE84:
 230              	.LBE85:
 231              	.LBE86:
 232              	.LBE87:
 233              	.LBE88:
 234              		.loc 1 128 0
 235 0026 10BD     		pop	{r4, pc}
 236              	.LVL13:
 237              	.L9:
 238              		.loc 1 123 0
 239 0028 0E20     		movs	r0, #14
 240 002a FFF7FEFF 		bl	chSchGoSleepS
 241              	.LVL14:
 242 002e A269     		ldr	r2, [r4, #24]
 243 0030 906A     		ldr	r0, [r2, #40]
 244 0032 02F12803 		add	r3, r2, #40
 245 0036 EEE7     		b	.L8
 246              	.L11:
 247              		.align	2
 248              	.L10:
 249 0038 00000000 		.word	ch
 250              		.cfi_endproc
 251              	.LFE227:
 252              		.size	chMsgWait, .-chMsgWait
 253 003c AFF30080 		.section	.text.chMsgRelease,"ax",%progbits
 254              		.align	2
 255              		.p2align 4,,15
 256              		.global	chMsgRelease
 257              		.thumb
 258              		.thumb_func
 259              		.type	chMsgRelease, %function
 260              	chMsgRelease:
 261              	.LFB228:
 262              		.loc 1 140 0
 263              		.cfi_startproc
 264              		@ args = 0, pretend = 0, frame = 0
 265              		@ frame_needed = 0, uses_anonymous_args = 0
 266              	.LVL15:
 267 0000 08B5     		push	{r3, lr}
 268              		.cfi_def_cfa_offset 8
 269              		.cfi_offset 3, -8
 270              		.cfi_offset 14, -4
 271              	.LBB89:
 272              	.LBB90:
 273              	.LBB91:
 274              	.LBB92:
 275              		.loc 2 546 0
 276 0002 2023     		movs	r3, #32
 277              	@ 546 "../ChibiOS/os/ext/CMSIS/include/core_cmFunc.h" 1
 278 0004 83F31188 		MSR basepri, r3
 279              	@ 0 "" 2
 280              	.LVL16:
 281              		.thumb
 282              	.LBE92:
 283              	.LBE91:
 284              	.LBE90:
 285              	.LBE89:
ARM GAS  /tmp/cc9fIDpg.s 			page 6


 286              	.LBB93:
 287              	.LBB94:
 288              		.loc 4 115 0
 289 0008 FFF7FEFF 		bl	chSchWakeupS
 290              	.LVL17:
 291              	.LBE94:
 292              	.LBE93:
 293              	.LBB95:
 294              	.LBB96:
 295              	.LBB97:
 296              	.LBB98:
 297              	.LBB99:
 298              		.loc 2 546 0
 299 000c 0023     		movs	r3, #0
 300              	@ 546 "../ChibiOS/os/ext/CMSIS/include/core_cmFunc.h" 1
 301 000e 83F31188 		MSR basepri, r3
 302              	@ 0 "" 2
 303              		.thumb
 304 0012 08BD     		pop	{r3, pc}
 305              	.LBE99:
 306              	.LBE98:
 307              	.LBE97:
 308              	.LBE96:
 309              	.LBE95:
 310              		.cfi_endproc
 311              	.LFE228:
 312              		.size	chMsgRelease, .-chMsgRelease
 313 0014 AFF30080 		.text
 313      AFF30080 
 313      AFF30080 
 314              	.Letext0:
 315              		.file 5 "/nfs/nfs5/home/research/hardware/arm2/gcc-arm-embedded/gcc-arm-none-eabi-4_8-2014q2/arm-n
 316              		.file 6 "/nfs/nfs5/home/research/hardware/arm2/gcc-arm-embedded/gcc-arm-none-eabi-4_8-2014q2/arm-n
 317              		.file 7 "../ChibiOS/os/rt/ports/ARMCMx/compilers/GCC/chtypes.h"
 318              		.file 8 "../ChibiOS/os/rt/include/chsystypes.h"
 319              		.file 9 "../ChibiOS/os/rt/ports/ARMCMx/chcore.h"
 320              		.file 10 "../ChibiOS/os/rt/ports/ARMCMx/chcore_v7m.h"
 321              		.file 11 "../ChibiOS/os/rt/include/chtm.h"
 322              		.file 12 "../ChibiOS/os/rt/include/chmtx.h"
 323              		.file 13 "../ChibiOS/os/rt/include/chsys.h"
 324              		.file 14 "../ChibiOS/os/ext/CMSIS/include/core_cm4.h"
 325              		.section	.debug_info,"",%progbits
 326              	.Ldebug_info0:
 327 0000 390A0000 		.4byte	0xa39
 328 0004 0400     		.2byte	0x4
 329 0006 00000000 		.4byte	.Ldebug_abbrev0
 330 000a 04       		.byte	0x4
 331 000b 01       		.uleb128 0x1
 332 000c 09040000 		.4byte	.LASF108
 333 0010 01       		.byte	0x1
 334 0011 3F030000 		.4byte	.LASF109
 335 0015 32010000 		.4byte	.LASF110
 336 0019 60000000 		.4byte	.Ldebug_ranges0+0x60
 337 001d 00000000 		.4byte	0
 338 0021 00000000 		.4byte	.Ldebug_line0
 339 0025 02       		.uleb128 0x2
 340 0026 04       		.byte	0x4
ARM GAS  /tmp/cc9fIDpg.s 			page 7


 341 0027 05       		.byte	0x5
 342 0028 696E7400 		.ascii	"int\000"
 343 002c 03       		.uleb128 0x3
 344 002d 04       		.byte	0x4
 345 002e 07       		.byte	0x7
 346 002f AE010000 		.4byte	.LASF0
 347 0033 03       		.uleb128 0x3
 348 0034 01       		.byte	0x1
 349 0035 06       		.byte	0x6
 350 0036 CD000000 		.4byte	.LASF1
 351 003a 04       		.uleb128 0x4
 352 003b 2A000000 		.4byte	.LASF5
 353 003f 05       		.byte	0x5
 354 0040 1C       		.byte	0x1c
 355 0041 45000000 		.4byte	0x45
 356 0045 03       		.uleb128 0x3
 357 0046 01       		.byte	0x1
 358 0047 08       		.byte	0x8
 359 0048 0E030000 		.4byte	.LASF2
 360 004c 03       		.uleb128 0x3
 361 004d 02       		.byte	0x2
 362 004e 05       		.byte	0x5
 363 004f 26030000 		.4byte	.LASF3
 364 0053 03       		.uleb128 0x3
 365 0054 02       		.byte	0x2
 366 0055 07       		.byte	0x7
 367 0056 D7010000 		.4byte	.LASF4
 368 005a 04       		.uleb128 0x4
 369 005b 35020000 		.4byte	.LASF6
 370 005f 05       		.byte	0x5
 371 0060 37       		.byte	0x37
 372 0061 65000000 		.4byte	0x65
 373 0065 03       		.uleb128 0x3
 374 0066 04       		.byte	0x4
 375 0067 05       		.byte	0x5
 376 0068 06010000 		.4byte	.LASF7
 377 006c 04       		.uleb128 0x4
 378 006d 13050000 		.4byte	.LASF8
 379 0071 05       		.byte	0x5
 380 0072 38       		.byte	0x38
 381 0073 77000000 		.4byte	0x77
 382 0077 03       		.uleb128 0x3
 383 0078 04       		.byte	0x4
 384 0079 07       		.byte	0x7
 385 007a E9030000 		.4byte	.LASF9
 386 007e 03       		.uleb128 0x3
 387 007f 08       		.byte	0x8
 388 0080 05       		.byte	0x5
 389 0081 BF000000 		.4byte	.LASF10
 390 0085 04       		.uleb128 0x4
 391 0086 B8020000 		.4byte	.LASF11
 392 008a 05       		.byte	0x5
 393 008b 4E       		.byte	0x4e
 394 008c 90000000 		.4byte	0x90
 395 0090 03       		.uleb128 0x3
 396 0091 08       		.byte	0x8
 397 0092 07       		.byte	0x7
ARM GAS  /tmp/cc9fIDpg.s 			page 8


 398 0093 59000000 		.4byte	.LASF12
 399 0097 04       		.uleb128 0x4
 400 0098 7B050000 		.4byte	.LASF13
 401 009c 06       		.byte	0x6
 402 009d 2A       		.byte	0x2a
 403 009e 3A000000 		.4byte	0x3a
 404 00a2 04       		.uleb128 0x4
 405 00a3 06030000 		.4byte	.LASF14
 406 00a7 06       		.byte	0x6
 407 00a8 41       		.byte	0x41
 408 00a9 5A000000 		.4byte	0x5a
 409 00ad 04       		.uleb128 0x4
 410 00ae BC030000 		.4byte	.LASF15
 411 00b2 06       		.byte	0x6
 412 00b3 42       		.byte	0x42
 413 00b4 6C000000 		.4byte	0x6c
 414 00b8 04       		.uleb128 0x4
 415 00b9 21000000 		.4byte	.LASF16
 416 00bd 06       		.byte	0x6
 417 00be 4E       		.byte	0x4e
 418 00bf 85000000 		.4byte	0x85
 419 00c3 05       		.uleb128 0x5
 420 00c4 A2000000 		.4byte	0xa2
 421 00c8 04       		.uleb128 0x4
 422 00c9 45050000 		.4byte	.LASF17
 423 00cd 07       		.byte	0x7
 424 00ce 45       		.byte	0x45
 425 00cf AD000000 		.4byte	0xad
 426 00d3 04       		.uleb128 0x4
 427 00d4 13020000 		.4byte	.LASF18
 428 00d8 07       		.byte	0x7
 429 00d9 48       		.byte	0x48
 430 00da 97000000 		.4byte	0x97
 431 00de 04       		.uleb128 0x4
 432 00df 19010000 		.4byte	.LASF19
 433 00e3 07       		.byte	0x7
 434 00e4 49       		.byte	0x49
 435 00e5 97000000 		.4byte	0x97
 436 00e9 04       		.uleb128 0x4
 437 00ea C3020000 		.4byte	.LASF20
 438 00ee 07       		.byte	0x7
 439 00ef 4A       		.byte	0x4a
 440 00f0 97000000 		.4byte	0x97
 441 00f4 04       		.uleb128 0x4
 442 00f5 E2020000 		.4byte	.LASF21
 443 00f9 07       		.byte	0x7
 444 00fa 4C       		.byte	0x4c
 445 00fb AD000000 		.4byte	0xad
 446 00ff 04       		.uleb128 0x4
 447 0100 01020000 		.4byte	.LASF22
 448 0104 07       		.byte	0x7
 449 0105 4D       		.byte	0x4d
 450 0106 A2000000 		.4byte	0xa2
 451 010a 04       		.uleb128 0x4
 452 010b 29020000 		.4byte	.LASF23
 453 010f 07       		.byte	0x7
 454 0110 4F       		.byte	0x4f
ARM GAS  /tmp/cc9fIDpg.s 			page 9


 455 0111 AD000000 		.4byte	0xad
 456 0115 04       		.uleb128 0x4
 457 0116 F5040000 		.4byte	.LASF24
 458 011a 08       		.byte	0x8
 459 011b 33       		.byte	0x33
 460 011c AD000000 		.4byte	0xad
 461 0120 04       		.uleb128 0x4
 462 0121 00040000 		.4byte	.LASF25
 463 0125 08       		.byte	0x8
 464 0126 3F       		.byte	0x3f
 465 0127 2B010000 		.4byte	0x12b
 466 012b 06       		.uleb128 0x6
 467 012c EA010000 		.4byte	.LASF44
 468 0130 44       		.byte	0x44
 469 0131 03       		.byte	0x3
 470 0132 BE       		.byte	0xbe
 471 0133 18020000 		.4byte	0x218
 472 0137 07       		.uleb128 0x7
 473 0138 63030000 		.4byte	.LASF26
 474 013c 03       		.byte	0x3
 475 013d BF       		.byte	0xbf
 476 013e FC040000 		.4byte	0x4fc
 477 0142 00       		.byte	0
 478 0143 07       		.uleb128 0x7
 479 0144 DB020000 		.4byte	.LASF27
 480 0148 03       		.byte	0x3
 481 0149 C1       		.byte	0xc1
 482 014a FC040000 		.4byte	0x4fc
 483 014e 04       		.byte	0x4
 484 014f 07       		.uleb128 0x7
 485 0150 B8000000 		.4byte	.LASF28
 486 0154 03       		.byte	0x3
 487 0155 C3       		.byte	0xc3
 488 0156 F4000000 		.4byte	0xf4
 489 015a 08       		.byte	0x8
 490 015b 07       		.uleb128 0x7
 491 015c C8050000 		.4byte	.LASF29
 492 0160 03       		.byte	0x3
 493 0161 C4       		.byte	0xc4
 494 0162 42040000 		.4byte	0x442
 495 0166 0C       		.byte	0xc
 496 0167 07       		.uleb128 0x7
 497 0168 70010000 		.4byte	.LASF30
 498 016c 03       		.byte	0x3
 499 016d C6       		.byte	0xc6
 500 016e FC040000 		.4byte	0x4fc
 501 0172 10       		.byte	0x10
 502 0173 07       		.uleb128 0x7
 503 0174 80020000 		.4byte	.LASF31
 504 0178 03       		.byte	0x3
 505 0179 C7       		.byte	0xc7
 506 017a FC040000 		.4byte	0x4fc
 507 017e 14       		.byte	0x14
 508 017f 07       		.uleb128 0x7
 509 0180 8A050000 		.4byte	.LASF32
 510 0184 03       		.byte	0x3
 511 0185 CE       		.byte	0xce
ARM GAS  /tmp/cc9fIDpg.s 			page 10


 512 0186 3A050000 		.4byte	0x53a
 513 018a 18       		.byte	0x18
 514 018b 07       		.uleb128 0x7
 515 018c 30030000 		.4byte	.LASF33
 516 0190 03       		.byte	0x3
 517 0191 D9       		.byte	0xd9
 518 0192 DE000000 		.4byte	0xde
 519 0196 1C       		.byte	0x1c
 520 0197 07       		.uleb128 0x7
 521 0198 6A030000 		.4byte	.LASF34
 522 019c 03       		.byte	0x3
 523 019d DD       		.byte	0xdd
 524 019e D3000000 		.4byte	0xd3
 525 01a2 1D       		.byte	0x1d
 526 01a3 07       		.uleb128 0x7
 527 01a4 6E050000 		.4byte	.LASF35
 528 01a8 03       		.byte	0x3
 529 01a9 E2       		.byte	0xe2
 530 01aa E9000000 		.4byte	0xe9
 531 01ae 1E       		.byte	0x1e
 532 01af 08       		.uleb128 0x8
 533 01b0 705F7500 		.ascii	"p_u\000"
 534 01b4 03       		.byte	0x3
 535 01b5 1401     		.2byte	0x114
 536 01b7 02050000 		.4byte	0x502
 537 01bb 20       		.byte	0x20
 538 01bc 09       		.uleb128 0x9
 539 01bd 4A020000 		.4byte	.LASF36
 540 01c1 03       		.byte	0x3
 541 01c2 1901     		.2byte	0x119
 542 01c4 18020000 		.4byte	0x218
 543 01c8 24       		.byte	0x24
 544 01c9 09       		.uleb128 0x9
 545 01ca CC010000 		.4byte	.LASF37
 546 01ce 03       		.byte	0x3
 547 01cf 1F01     		.2byte	0x11f
 548 01d1 3C020000 		.4byte	0x23c
 549 01d5 28       		.byte	0x28
 550 01d6 09       		.uleb128 0x9
 551 01d7 AC050000 		.4byte	.LASF38
 552 01db 03       		.byte	0x3
 553 01dc 2301     		.2byte	0x123
 554 01de FF000000 		.4byte	0xff
 555 01e2 30       		.byte	0x30
 556 01e3 09       		.uleb128 0x9
 557 01e4 B1030000 		.4byte	.LASF39
 558 01e8 03       		.byte	0x3
 559 01e9 2901     		.2byte	0x129
 560 01eb 0A010000 		.4byte	0x10a
 561 01ef 34       		.byte	0x34
 562 01f0 09       		.uleb128 0x9
 563 01f1 1C030000 		.4byte	.LASF40
 564 01f5 03       		.byte	0x3
 565 01f6 3001     		.2byte	0x130
 566 01f8 7D050000 		.4byte	0x57d
 567 01fc 38       		.byte	0x38
 568 01fd 09       		.uleb128 0x9
ARM GAS  /tmp/cc9fIDpg.s 			page 11


 569 01fe FF040000 		.4byte	.LASF41
 570 0202 03       		.byte	0x3
 571 0203 3401     		.2byte	0x134
 572 0205 F4000000 		.4byte	0xf4
 573 0209 3C       		.byte	0x3c
 574 020a 09       		.uleb128 0x9
 575 020b D9000000 		.4byte	.LASF42
 576 020f 03       		.byte	0x3
 577 0210 3A01     		.2byte	0x13a
 578 0212 EF020000 		.4byte	0x2ef
 579 0216 40       		.byte	0x40
 580 0217 00       		.byte	0
 581 0218 04       		.uleb128 0x4
 582 0219 91050000 		.4byte	.LASF43
 583 021d 08       		.byte	0x8
 584 021e 44       		.byte	0x44
 585 021f 23020000 		.4byte	0x223
 586 0223 06       		.uleb128 0x6
 587 0224 D9030000 		.4byte	.LASF45
 588 0228 04       		.byte	0x4
 589 0229 03       		.byte	0x3
 590 022a AC       		.byte	0xac
 591 022b 3C020000 		.4byte	0x23c
 592 022f 07       		.uleb128 0x7
 593 0230 63030000 		.4byte	.LASF26
 594 0234 03       		.byte	0x3
 595 0235 AD       		.byte	0xad
 596 0236 FC040000 		.4byte	0x4fc
 597 023a 00       		.byte	0
 598 023b 00       		.byte	0
 599 023c 04       		.uleb128 0x4
 600 023d 5E050000 		.4byte	.LASF46
 601 0241 08       		.byte	0x8
 602 0242 4B       		.byte	0x4b
 603 0243 47020000 		.4byte	0x247
 604 0247 06       		.uleb128 0x6
 605 0248 A7000000 		.4byte	.LASF47
 606 024c 08       		.byte	0x8
 607 024d 03       		.byte	0x3
 608 024e B3       		.byte	0xb3
 609 024f 6C020000 		.4byte	0x26c
 610 0253 07       		.uleb128 0x7
 611 0254 63030000 		.4byte	.LASF26
 612 0258 03       		.byte	0x3
 613 0259 B4       		.byte	0xb4
 614 025a FC040000 		.4byte	0x4fc
 615 025e 00       		.byte	0
 616 025f 07       		.uleb128 0x7
 617 0260 DB020000 		.4byte	.LASF27
 618 0264 03       		.byte	0x3
 619 0265 B5       		.byte	0xb5
 620 0266 FC040000 		.4byte	0x4fc
 621 026a 04       		.byte	0x4
 622 026b 00       		.byte	0
 623 026c 04       		.uleb128 0x4
 624 026d 00000000 		.4byte	.LASF48
 625 0271 08       		.byte	0x8
ARM GAS  /tmp/cc9fIDpg.s 			page 12


 626 0272 52       		.byte	0x52
 627 0273 77020000 		.4byte	0x277
 628 0277 0A       		.uleb128 0xa
 629 0278 1B020000 		.4byte	.LASF49
 630 027c 1C       		.byte	0x1c
 631 027d 03       		.byte	0x3
 632 027e 7201     		.2byte	0x172
 633 0280 D3020000 		.4byte	0x2d3
 634 0284 09       		.uleb128 0x9
 635 0285 C5030000 		.4byte	.LASF50
 636 0289 03       		.byte	0x3
 637 028a 7301     		.2byte	0x173
 638 028c 3C020000 		.4byte	0x23c
 639 0290 00       		.byte	0
 640 0291 09       		.uleb128 0x9
 641 0292 38030000 		.4byte	.LASF51
 642 0296 03       		.byte	0x3
 643 0297 7401     		.2byte	0x174
 644 0299 F4000000 		.4byte	0xf4
 645 029d 08       		.byte	0x8
 646 029e 09       		.uleb128 0x9
 647 029f 88020000 		.4byte	.LASF52
 648 02a3 03       		.byte	0x3
 649 02a4 7601     		.2byte	0x176
 650 02a6 42040000 		.4byte	0x442
 651 02aa 0C       		.byte	0xc
 652 02ab 09       		.uleb128 0x9
 653 02ac 78010000 		.4byte	.LASF53
 654 02b0 03       		.byte	0x3
 655 02b1 7901     		.2byte	0x179
 656 02b3 FC040000 		.4byte	0x4fc
 657 02b7 10       		.byte	0x10
 658 02b8 09       		.uleb128 0x9
 659 02b9 B0020000 		.4byte	.LASF54
 660 02bd 03       		.byte	0x3
 661 02be 7A01     		.2byte	0x17a
 662 02c0 FC040000 		.4byte	0x4fc
 663 02c4 14       		.byte	0x14
 664 02c5 09       		.uleb128 0x9
 665 02c6 A6020000 		.4byte	.LASF55
 666 02ca 03       		.byte	0x3
 667 02cb 7D01     		.2byte	0x17d
 668 02cd FC040000 		.4byte	0x4fc
 669 02d1 18       		.byte	0x18
 670 02d2 00       		.byte	0
 671 02d3 04       		.uleb128 0x4
 672 02d4 0A050000 		.4byte	.LASF56
 673 02d8 08       		.byte	0x8
 674 02d9 57       		.byte	0x57
 675 02da DE020000 		.4byte	0x2de
 676 02de 0B       		.uleb128 0xb
 677 02df 04       		.byte	0x4
 678 02e0 E4020000 		.4byte	0x2e4
 679 02e4 0C       		.uleb128 0xc
 680 02e5 EF020000 		.4byte	0x2ef
 681 02e9 0D       		.uleb128 0xd
 682 02ea EF020000 		.4byte	0x2ef
ARM GAS  /tmp/cc9fIDpg.s 			page 13


 683 02ee 00       		.byte	0
 684 02ef 0E       		.uleb128 0xe
 685 02f0 04       		.byte	0x4
 686 02f1 04       		.uleb128 0x4
 687 02f2 CB020000 		.4byte	.LASF57
 688 02f6 08       		.byte	0x8
 689 02f7 5C       		.byte	0x5c
 690 02f8 FC020000 		.4byte	0x2fc
 691 02fc 0A       		.uleb128 0xa
 692 02fd 85030000 		.4byte	.LASF58
 693 0301 14       		.byte	0x14
 694 0302 03       		.byte	0x3
 695 0303 4D01     		.2byte	0x14d
 696 0305 4B030000 		.4byte	0x34b
 697 0309 09       		.uleb128 0x9
 698 030a BB010000 		.4byte	.LASF59
 699 030e 03       		.byte	0x3
 700 030f 4E01     		.2byte	0x14e
 701 0311 83050000 		.4byte	0x583
 702 0315 00       		.byte	0
 703 0316 09       		.uleb128 0x9
 704 0317 89010000 		.4byte	.LASF60
 705 031b 03       		.byte	0x3
 706 031c 4F01     		.2byte	0x14f
 707 031e 83050000 		.4byte	0x583
 708 0322 04       		.byte	0x4
 709 0323 09       		.uleb128 0x9
 710 0324 C3010000 		.4byte	.LASF61
 711 0328 03       		.byte	0x3
 712 0329 5001     		.2byte	0x150
 713 032b 15010000 		.4byte	0x115
 714 032f 08       		.byte	0x8
 715 0330 09       		.uleb128 0x9
 716 0331 CE050000 		.4byte	.LASF62
 717 0335 03       		.byte	0x3
 718 0336 5101     		.2byte	0x151
 719 0338 D3020000 		.4byte	0x2d3
 720 033c 0C       		.byte	0xc
 721 033d 09       		.uleb128 0x9
 722 033e 4D050000 		.4byte	.LASF63
 723 0342 03       		.byte	0x3
 724 0343 5301     		.2byte	0x153
 725 0345 EF020000 		.4byte	0x2ef
 726 0349 10       		.byte	0x10
 727 034a 00       		.byte	0
 728 034b 04       		.uleb128 0x4
 729 034c 84000000 		.4byte	.LASF64
 730 0350 08       		.byte	0x8
 731 0351 61       		.byte	0x61
 732 0352 56030000 		.4byte	0x356
 733 0356 0A       		.uleb128 0xa
 734 0357 5D020000 		.4byte	.LASF65
 735 035b 10       		.byte	0x10
 736 035c 03       		.byte	0x3
 737 035d 5D01     		.2byte	0x15d
 738 035f 98030000 		.4byte	0x398
 739 0363 09       		.uleb128 0x9
ARM GAS  /tmp/cc9fIDpg.s 			page 14


 740 0364 BB010000 		.4byte	.LASF59
 741 0368 03       		.byte	0x3
 742 0369 5E01     		.2byte	0x15e
 743 036b 83050000 		.4byte	0x583
 744 036f 00       		.byte	0
 745 0370 09       		.uleb128 0x9
 746 0371 89010000 		.4byte	.LASF60
 747 0375 03       		.byte	0x3
 748 0376 6001     		.2byte	0x160
 749 0378 83050000 		.4byte	0x583
 750 037c 04       		.byte	0x4
 751 037d 09       		.uleb128 0x9
 752 037e C3010000 		.4byte	.LASF61
 753 0382 03       		.byte	0x3
 754 0383 6201     		.2byte	0x162
 755 0385 15010000 		.4byte	0x115
 756 0389 08       		.byte	0x8
 757 038a 09       		.uleb128 0x9
 758 038b 74020000 		.4byte	.LASF66
 759 038f 03       		.byte	0x3
 760 0390 6A01     		.2byte	0x16a
 761 0392 15010000 		.4byte	0x115
 762 0396 0C       		.byte	0xc
 763 0397 00       		.byte	0
 764 0398 04       		.uleb128 0x4
 765 0399 40000000 		.4byte	.LASF67
 766 039d 08       		.byte	0x8
 767 039e 66       		.byte	0x66
 768 039f A3030000 		.4byte	0x3a3
 769 03a3 0A       		.uleb128 0xa
 770 03a4 F0020000 		.4byte	.LASF68
 771 03a8 04       		.byte	0x4
 772 03a9 03       		.byte	0x3
 773 03aa 8401     		.2byte	0x184
 774 03ac BE030000 		.4byte	0x3be
 775 03b0 09       		.uleb128 0x9
 776 03b1 2C050000 		.4byte	.LASF69
 777 03b5 03       		.byte	0x3
 778 03b6 8C01     		.2byte	0x18c
 779 03b8 89050000 		.4byte	0x589
 780 03bc 00       		.byte	0
 781 03bd 00       		.byte	0
 782 03be 04       		.uleb128 0x4
 783 03bf 07020000 		.4byte	.LASF70
 784 03c3 08       		.byte	0x8
 785 03c4 6B       		.byte	0x6b
 786 03c5 C9030000 		.4byte	0x3c9
 787 03c9 0F       		.uleb128 0xf
 788 03ca FC000000 		.4byte	.LASF71
 789 03ce 5001     		.2byte	0x150
 790 03d0 03       		.byte	0x3
 791 03d1 A401     		.2byte	0x1a4
 792 03d3 25040000 		.4byte	0x425
 793 03d7 09       		.uleb128 0x9
 794 03d8 75050000 		.4byte	.LASF72
 795 03dc 03       		.byte	0x3
 796 03dd A801     		.2byte	0x1a8
ARM GAS  /tmp/cc9fIDpg.s 			page 15


 797 03df 6C020000 		.4byte	0x26c
 798 03e3 00       		.byte	0
 799 03e4 09       		.uleb128 0x9
 800 03e5 E9000000 		.4byte	.LASF73
 801 03e9 03       		.byte	0x3
 802 03ea AC01     		.2byte	0x1ac
 803 03ec 4B030000 		.4byte	0x34b
 804 03f0 1C       		.byte	0x1c
 805 03f1 08       		.uleb128 0x8
 806 03f2 64626700 		.ascii	"dbg\000"
 807 03f6 03       		.byte	0x3
 808 03f7 B001     		.2byte	0x1b0
 809 03f9 98030000 		.4byte	0x398
 810 03fd 2C       		.byte	0x2c
 811 03fe 09       		.uleb128 0x9
 812 03ff 79000000 		.4byte	.LASF74
 813 0403 03       		.byte	0x3
 814 0404 B401     		.2byte	0x1b4
 815 0406 20010000 		.4byte	0x120
 816 040a 30       		.byte	0x30
 817 040b 08       		.uleb128 0x8
 818 040c 746D00   		.ascii	"tm\000"
 819 040f 03       		.byte	0x3
 820 0410 B901     		.2byte	0x1b9
 821 0412 F1040000 		.4byte	0x4f1
 822 0416 74       		.byte	0x74
 823 0417 09       		.uleb128 0x9
 824 0418 9F010000 		.4byte	.LASF75
 825 041c 03       		.byte	0x3
 826 041d C501     		.2byte	0x1c5
 827 041f 8E050000 		.4byte	0x58e
 828 0423 78       		.byte	0x78
 829 0424 00       		.byte	0
 830 0425 03       		.uleb128 0x3
 831 0426 04       		.byte	0x4
 832 0427 07       		.byte	0x7
 833 0428 54020000 		.4byte	.LASF76
 834 042c 04       		.uleb128 0x4
 835 042d 80010000 		.4byte	.LASF77
 836 0431 09       		.byte	0x9
 837 0432 85       		.byte	0x85
 838 0433 EF020000 		.4byte	0x2ef
 839 0437 04       		.uleb128 0x4
 840 0438 3F020000 		.4byte	.LASF78
 841 043c 09       		.byte	0x9
 842 043d 8D       		.byte	0x8d
 843 043e B8000000 		.4byte	0xb8
 844 0442 06       		.uleb128 0x6
 845 0443 3D050000 		.4byte	.LASF79
 846 0447 04       		.byte	0x4
 847 0448 09       		.byte	0x9
 848 0449 A9       		.byte	0xa9
 849 044a 5B040000 		.4byte	0x45b
 850 044e 10       		.uleb128 0x10
 851 044f 72313300 		.ascii	"r13\000"
 852 0453 09       		.byte	0x9
 853 0454 AA       		.byte	0xaa
ARM GAS  /tmp/cc9fIDpg.s 			page 16


 854 0455 D6040000 		.4byte	0x4d6
 855 0459 00       		.byte	0
 856 045a 00       		.byte	0
 857 045b 06       		.uleb128 0x6
 858 045c 34000000 		.4byte	.LASF80
 859 0460 24       		.byte	0x24
 860 0461 0A       		.byte	0xa
 861 0462 F4       		.byte	0xf4
 862 0463 D6040000 		.4byte	0x4d6
 863 0467 08       		.uleb128 0x8
 864 0468 723400   		.ascii	"r4\000"
 865 046b 0A       		.byte	0xa
 866 046c 0701     		.2byte	0x107
 867 046e 2C040000 		.4byte	0x42c
 868 0472 00       		.byte	0
 869 0473 08       		.uleb128 0x8
 870 0474 723500   		.ascii	"r5\000"
 871 0477 0A       		.byte	0xa
 872 0478 0801     		.2byte	0x108
 873 047a 2C040000 		.4byte	0x42c
 874 047e 04       		.byte	0x4
 875 047f 08       		.uleb128 0x8
 876 0480 723600   		.ascii	"r6\000"
 877 0483 0A       		.byte	0xa
 878 0484 0901     		.2byte	0x109
 879 0486 2C040000 		.4byte	0x42c
 880 048a 08       		.byte	0x8
 881 048b 08       		.uleb128 0x8
 882 048c 723700   		.ascii	"r7\000"
 883 048f 0A       		.byte	0xa
 884 0490 0A01     		.2byte	0x10a
 885 0492 2C040000 		.4byte	0x42c
 886 0496 0C       		.byte	0xc
 887 0497 08       		.uleb128 0x8
 888 0498 723800   		.ascii	"r8\000"
 889 049b 0A       		.byte	0xa
 890 049c 0B01     		.2byte	0x10b
 891 049e 2C040000 		.4byte	0x42c
 892 04a2 10       		.byte	0x10
 893 04a3 08       		.uleb128 0x8
 894 04a4 723900   		.ascii	"r9\000"
 895 04a7 0A       		.byte	0xa
 896 04a8 0C01     		.2byte	0x10c
 897 04aa 2C040000 		.4byte	0x42c
 898 04ae 14       		.byte	0x14
 899 04af 08       		.uleb128 0x8
 900 04b0 72313000 		.ascii	"r10\000"
 901 04b4 0A       		.byte	0xa
 902 04b5 0D01     		.2byte	0x10d
 903 04b7 2C040000 		.4byte	0x42c
 904 04bb 18       		.byte	0x18
 905 04bc 08       		.uleb128 0x8
 906 04bd 72313100 		.ascii	"r11\000"
 907 04c1 0A       		.byte	0xa
 908 04c2 0E01     		.2byte	0x10e
 909 04c4 2C040000 		.4byte	0x42c
 910 04c8 1C       		.byte	0x1c
ARM GAS  /tmp/cc9fIDpg.s 			page 17


 911 04c9 08       		.uleb128 0x8
 912 04ca 6C7200   		.ascii	"lr\000"
 913 04cd 0A       		.byte	0xa
 914 04ce 0F01     		.2byte	0x10f
 915 04d0 2C040000 		.4byte	0x42c
 916 04d4 20       		.byte	0x20
 917 04d5 00       		.byte	0
 918 04d6 0B       		.uleb128 0xb
 919 04d7 04       		.byte	0x4
 920 04d8 5B040000 		.4byte	0x45b
 921 04dc 11       		.uleb128 0x11
 922 04dd 04       		.byte	0x4
 923 04de 0B       		.byte	0xb
 924 04df 38       		.byte	0x38
 925 04e0 F1040000 		.4byte	0x4f1
 926 04e4 07       		.uleb128 0x7
 927 04e5 36050000 		.4byte	.LASF81
 928 04e9 0B       		.byte	0xb
 929 04ea 3C       		.byte	0x3c
 930 04eb C8000000 		.4byte	0xc8
 931 04ef 00       		.byte	0
 932 04f0 00       		.byte	0
 933 04f1 04       		.uleb128 0x4
 934 04f2 8E020000 		.4byte	.LASF82
 935 04f6 0B       		.byte	0xb
 936 04f7 3D       		.byte	0x3d
 937 04f8 DC040000 		.4byte	0x4dc
 938 04fc 0B       		.uleb128 0xb
 939 04fd 04       		.byte	0x4
 940 04fe 20010000 		.4byte	0x120
 941 0502 12       		.uleb128 0x12
 942 0503 04       		.byte	0x4
 943 0504 03       		.byte	0x3
 944 0505 F6       		.byte	0xf6
 945 0506 3A050000 		.4byte	0x53a
 946 050a 13       		.uleb128 0x13
 947 050b 1A000000 		.4byte	.LASF83
 948 050f 03       		.byte	0x3
 949 0510 FD       		.byte	0xfd
 950 0511 FF000000 		.4byte	0xff
 951 0515 14       		.uleb128 0x14
 952 0516 70000000 		.4byte	.LASF84
 953 051a 03       		.byte	0x3
 954 051b 0401     		.2byte	0x104
 955 051d FF000000 		.4byte	0xff
 956 0521 14       		.uleb128 0x14
 957 0522 83050000 		.4byte	.LASF85
 958 0526 03       		.byte	0x3
 959 0527 0B01     		.2byte	0x10b
 960 0529 EF020000 		.4byte	0x2ef
 961 052d 14       		.uleb128 0x14
 962 052e 5C030000 		.4byte	.LASF86
 963 0532 03       		.byte	0x3
 964 0533 1201     		.2byte	0x112
 965 0535 0A010000 		.4byte	0x10a
 966 0539 00       		.byte	0
 967 053a 0B       		.uleb128 0xb
ARM GAS  /tmp/cc9fIDpg.s 			page 18


 968 053b 04       		.byte	0x4
 969 053c 40050000 		.4byte	0x540
 970 0540 15       		.uleb128 0x15
 971 0541 45050000 		.4byte	0x545
 972 0545 03       		.uleb128 0x3
 973 0546 01       		.byte	0x1
 974 0547 08       		.byte	0x8
 975 0548 FB030000 		.4byte	.LASF87
 976 054c 06       		.uleb128 0x6
 977 054d EA020000 		.4byte	.LASF88
 978 0551 10       		.byte	0x10
 979 0552 0C       		.byte	0xc
 980 0553 39       		.byte	0x39
 981 0554 7D050000 		.4byte	0x57d
 982 0558 07       		.uleb128 0x7
 983 0559 E1000000 		.4byte	.LASF89
 984 055d 0C       		.byte	0xc
 985 055e 3A       		.byte	0x3a
 986 055f 3C020000 		.4byte	0x23c
 987 0563 00       		.byte	0
 988 0564 07       		.uleb128 0x7
 989 0565 C0050000 		.4byte	.LASF90
 990 0569 0C       		.byte	0xc
 991 056a 3C       		.byte	0x3c
 992 056b FC040000 		.4byte	0x4fc
 993 056f 08       		.byte	0x8
 994 0570 07       		.uleb128 0x7
 995 0571 9F020000 		.4byte	.LASF91
 996 0575 0C       		.byte	0xc
 997 0576 3E       		.byte	0x3e
 998 0577 A9050000 		.4byte	0x5a9
 999 057b 0C       		.byte	0xc
 1000 057c 00       		.byte	0
 1001 057d 0B       		.uleb128 0xb
 1002 057e 04       		.byte	0x4
 1003 057f 4C050000 		.4byte	0x54c
 1004 0583 0B       		.uleb128 0xb
 1005 0584 04       		.byte	0x4
 1006 0585 F1020000 		.4byte	0x2f1
 1007 0589 05       		.uleb128 0x5
 1008 058a 3A050000 		.4byte	0x53a
 1009 058e 16       		.uleb128 0x16
 1010 058f 37040000 		.4byte	0x437
 1011 0593 9E050000 		.4byte	0x59e
 1012 0597 17       		.uleb128 0x17
 1013 0598 25040000 		.4byte	0x425
 1014 059c 1A       		.byte	0x1a
 1015 059d 00       		.byte	0
 1016 059e 04       		.uleb128 0x4
 1017 059f 91010000 		.4byte	.LASF92
 1018 05a3 0C       		.byte	0xc
 1019 05a4 34       		.byte	0x34
 1020 05a5 4C050000 		.4byte	0x54c
 1021 05a9 0B       		.uleb128 0xb
 1022 05aa 04       		.byte	0x4
 1023 05ab 9E050000 		.4byte	0x59e
 1024 05af 18       		.uleb128 0x18
ARM GAS  /tmp/cc9fIDpg.s 			page 19


 1025 05b0 1E050000 		.4byte	.LASF96
 1026 05b4 02       		.byte	0x2
 1027 05b5 2002     		.2byte	0x220
 1028 05b7 03       		.byte	0x3
 1029 05b8 C9050000 		.4byte	0x5c9
 1030 05bc 19       		.uleb128 0x19
 1031 05bd 99010000 		.4byte	.LASF98
 1032 05c1 02       		.byte	0x2
 1033 05c2 2002     		.2byte	0x220
 1034 05c4 AD000000 		.4byte	0xad
 1035 05c8 00       		.byte	0
 1036 05c9 1A       		.uleb128 0x1a
 1037 05ca 4F000000 		.4byte	.LASF93
 1038 05ce 0A       		.byte	0xa
 1039 05cf BB01     		.2byte	0x1bb
 1040 05d1 03       		.byte	0x3
 1041 05d2 1A       		.uleb128 0x1a
 1042 05d3 F0000000 		.4byte	.LASF94
 1043 05d7 0A       		.byte	0xa
 1044 05d8 C901     		.2byte	0x1c9
 1045 05da 03       		.byte	0x3
 1046 05db 1A       		.uleb128 0x1a
 1047 05dc 7B030000 		.4byte	.LASF95
 1048 05e0 0D       		.byte	0xd
 1049 05e1 2901     		.2byte	0x129
 1050 05e3 03       		.byte	0x3
 1051 05e4 18       		.uleb128 0x18
 1052 05e5 0D000000 		.4byte	.LASF97
 1053 05e9 03       		.byte	0x3
 1054 05ea 7602     		.2byte	0x276
 1055 05ec 03       		.byte	0x3
 1056 05ed 09060000 		.4byte	0x609
 1057 05f1 1B       		.uleb128 0x1b
 1058 05f2 747000   		.ascii	"tp\000"
 1059 05f5 03       		.byte	0x3
 1060 05f6 7602     		.2byte	0x276
 1061 05f8 FC040000 		.4byte	0x4fc
 1062 05fc 1B       		.uleb128 0x1b
 1063 05fd 74717000 		.ascii	"tqp\000"
 1064 0601 03       		.byte	0x3
 1065 0602 7602     		.2byte	0x276
 1066 0604 09060000 		.4byte	0x609
 1067 0608 00       		.byte	0
 1068 0609 0B       		.uleb128 0xb
 1069 060a 04       		.byte	0x4
 1070 060b 3C020000 		.4byte	0x23c
 1071 060f 18       		.uleb128 0x18
 1072 0610 A0050000 		.4byte	.LASF99
 1073 0614 0D       		.byte	0xd
 1074 0615 3501     		.2byte	0x135
 1075 0617 03       		.byte	0x3
 1076 0618 2A060000 		.4byte	0x62a
 1077 061c 1C       		.uleb128 0x1c
 1078 061d 72030000 		.4byte	.LASF103
 1079 0621 3A060000 		.4byte	0x63a
 1080 0625 A0050000 		.4byte	.LASF99
 1081 0629 00       		.byte	0
ARM GAS  /tmp/cc9fIDpg.s 			page 20


 1082 062a 16       		.uleb128 0x16
 1083 062b 45050000 		.4byte	0x545
 1084 062f 3A060000 		.4byte	0x63a
 1085 0633 17       		.uleb128 0x17
 1086 0634 25040000 		.4byte	0x425
 1087 0638 0B       		.byte	0xb
 1088 0639 00       		.byte	0
 1089 063a 15       		.uleb128 0x15
 1090 063b 2A060000 		.4byte	0x62a
 1091 063f 1D       		.uleb128 0x1d
 1092 0640 22010000 		.4byte	.LASF101
 1093 0644 04       		.byte	0x4
 1094 0645 4F       		.byte	0x4f
 1095 0646 5A060000 		.4byte	0x65a
 1096 064a 03       		.byte	0x3
 1097 064b 5A060000 		.4byte	0x65a
 1098 064f 1E       		.uleb128 0x1e
 1099 0650 747000   		.ascii	"tp\000"
 1100 0653 04       		.byte	0x4
 1101 0654 4F       		.byte	0x4f
 1102 0655 FC040000 		.4byte	0x4fc
 1103 0659 00       		.byte	0
 1104 065a 03       		.uleb128 0x3
 1105 065b 01       		.byte	0x1
 1106 065c 02       		.byte	0x2
 1107 065d 00030000 		.4byte	.LASF100
 1108 0661 1F       		.uleb128 0x1f
 1109 0662 E3040000 		.4byte	.LASF102
 1110 0666 03       		.byte	0x3
 1111 0667 7D02     		.2byte	0x27d
 1112 0669 FC040000 		.4byte	0x4fc
 1113 066d 03       		.byte	0x3
 1114 066e 8A060000 		.4byte	0x68a
 1115 0672 1B       		.uleb128 0x1b
 1116 0673 74717000 		.ascii	"tqp\000"
 1117 0677 03       		.byte	0x3
 1118 0678 7D02     		.2byte	0x27d
 1119 067a 09060000 		.4byte	0x609
 1120 067e 20       		.uleb128 0x20
 1121 067f 747000   		.ascii	"tp\000"
 1122 0682 03       		.byte	0x3
 1123 0683 7E02     		.2byte	0x27e
 1124 0685 FC040000 		.4byte	0x4fc
 1125 0689 00       		.byte	0
 1126 068a 21       		.uleb128 0x21
 1127 068b B2050000 		.4byte	.LASF104
 1128 068f 04       		.byte	0x4
 1129 0690 6F       		.byte	0x6f
 1130 0691 03       		.byte	0x3
 1131 0692 AC060000 		.4byte	0x6ac
 1132 0696 1E       		.uleb128 0x1e
 1133 0697 747000   		.ascii	"tp\000"
 1134 069a 04       		.byte	0x4
 1135 069b 6F       		.byte	0x6f
 1136 069c FC040000 		.4byte	0x4fc
 1137 06a0 1E       		.uleb128 0x1e
 1138 06a1 6D736700 		.ascii	"msg\000"
ARM GAS  /tmp/cc9fIDpg.s 			page 21


 1139 06a5 04       		.byte	0x4
 1140 06a6 6F       		.byte	0x6f
 1141 06a7 FF000000 		.4byte	0xff
 1142 06ab 00       		.byte	0
 1143 06ac 22       		.uleb128 0x22
 1144 06ad 0F010000 		.4byte	.LASF105
 1145 06b1 01       		.byte	0x1
 1146 06b2 57       		.byte	0x57
 1147 06b3 FF000000 		.4byte	0xff
 1148 06b7 00000000 		.4byte	.LFB226
 1149 06bb 40000000 		.4byte	.LFE226-.LFB226
 1150 06bf 01       		.uleb128 0x1
 1151 06c0 9C       		.byte	0x9c
 1152 06c1 C1070000 		.4byte	0x7c1
 1153 06c5 23       		.uleb128 0x23
 1154 06c6 747000   		.ascii	"tp\000"
 1155 06c9 01       		.byte	0x1
 1156 06ca 57       		.byte	0x57
 1157 06cb FC040000 		.4byte	0x4fc
 1158 06cf 00000000 		.4byte	.LLST0
 1159 06d3 23       		.uleb128 0x23
 1160 06d4 6D736700 		.ascii	"msg\000"
 1161 06d8 01       		.byte	0x1
 1162 06d9 57       		.byte	0x57
 1163 06da FF000000 		.4byte	0xff
 1164 06de 38000000 		.4byte	.LLST1
 1165 06e2 24       		.uleb128 0x24
 1166 06e3 63747000 		.ascii	"ctp\000"
 1167 06e7 01       		.byte	0x1
 1168 06e8 58       		.byte	0x58
 1169 06e9 FC040000 		.4byte	0x4fc
 1170 06ed 01       		.uleb128 0x1
 1171 06ee 54       		.byte	0x54
 1172 06ef 25       		.uleb128 0x25
 1173 06f0 72030000 		.4byte	.LASF103
 1174 06f4 D1070000 		.4byte	0x7d1
 1175 06f8 26       		.uleb128 0x26
 1176 06f9 DB050000 		.4byte	0x5db
 1177 06fd 04000000 		.4byte	.LBB52
 1178 0701 00000000 		.4byte	.Ldebug_ranges0+0
 1179 0705 01       		.byte	0x1
 1180 0706 5C       		.byte	0x5c
 1181 0707 34070000 		.4byte	0x734
 1182 070b 27       		.uleb128 0x27
 1183 070c C9050000 		.4byte	0x5c9
 1184 0710 04000000 		.4byte	.LBB53
 1185 0714 00000000 		.4byte	.Ldebug_ranges0+0
 1186 0718 0D       		.byte	0xd
 1187 0719 2B01     		.2byte	0x12b
 1188 071b 27       		.uleb128 0x27
 1189 071c AF050000 		.4byte	0x5af
 1190 0720 04000000 		.4byte	.LBB54
 1191 0724 00000000 		.4byte	.Ldebug_ranges0+0
 1192 0728 0A       		.byte	0xa
 1193 0729 BE01     		.2byte	0x1be
 1194 072b 28       		.uleb128 0x28
 1195 072c BC050000 		.4byte	0x5bc
ARM GAS  /tmp/cc9fIDpg.s 			page 22


 1196 0730 20       		.byte	0x20
 1197 0731 00       		.byte	0
 1198 0732 00       		.byte	0
 1199 0733 00       		.byte	0
 1200 0734 26       		.uleb128 0x26
 1201 0735 E4050000 		.4byte	0x5e4
 1202 0739 14000000 		.4byte	.LBB60
 1203 073d 18000000 		.4byte	.Ldebug_ranges0+0x18
 1204 0741 01       		.byte	0x1
 1205 0742 5F       		.byte	0x5f
 1206 0743 56070000 		.4byte	0x756
 1207 0747 29       		.uleb128 0x29
 1208 0748 FC050000 		.4byte	0x5fc
 1209 074c 01       		.uleb128 0x1
 1210 074d 55       		.byte	0x55
 1211 074e 29       		.uleb128 0x29
 1212 074f F1050000 		.4byte	0x5f1
 1213 0753 01       		.uleb128 0x1
 1214 0754 54       		.byte	0x54
 1215 0755 00       		.byte	0
 1216 0756 2A       		.uleb128 0x2a
 1217 0757 0F060000 		.4byte	0x60f
 1218 075b 2C000000 		.4byte	.LBB64
 1219 075f 06000000 		.4byte	.LBE64-.LBB64
 1220 0763 01       		.byte	0x1
 1221 0764 64       		.byte	0x64
 1222 0765 A4070000 		.4byte	0x7a4
 1223 0769 2B       		.uleb128 0x2b
 1224 076a 2C000000 		.4byte	.LBB65
 1225 076e 06000000 		.4byte	.LBE65-.LBB65
 1226 0772 2C       		.uleb128 0x2c
 1227 0773 1C060000 		.4byte	0x61c
 1228 0777 2D       		.uleb128 0x2d
 1229 0778 D2050000 		.4byte	0x5d2
 1230 077c 2C000000 		.4byte	.LBB66
 1231 0780 06000000 		.4byte	.LBE66-.LBB66
 1232 0784 0D       		.byte	0xd
 1233 0785 4101     		.2byte	0x141
 1234 0787 2D       		.uleb128 0x2d
 1235 0788 AF050000 		.4byte	0x5af
 1236 078c 2C000000 		.4byte	.LBB67
 1237 0790 06000000 		.4byte	.LBE67-.LBB67
 1238 0794 0A       		.byte	0xa
 1239 0795 CC01     		.2byte	0x1cc
 1240 0797 2E       		.uleb128 0x2e
 1241 0798 BC050000 		.4byte	0x5bc
 1242 079c 7D000000 		.4byte	.LLST2
 1243 07a0 00       		.byte	0
 1244 07a1 00       		.byte	0
 1245 07a2 00       		.byte	0
 1246 07a3 00       		.byte	0
 1247 07a4 2F       		.uleb128 0x2f
 1248 07a5 2A000000 		.4byte	.LVL4
 1249 07a9 010A0000 		.4byte	0xa01
 1250 07ad B7070000 		.4byte	0x7b7
 1251 07b1 30       		.uleb128 0x30
 1252 07b2 01       		.uleb128 0x1
ARM GAS  /tmp/cc9fIDpg.s 			page 23


 1253 07b3 50       		.byte	0x50
 1254 07b4 01       		.uleb128 0x1
 1255 07b5 3C       		.byte	0x3c
 1256 07b6 00       		.byte	0
 1257 07b7 31       		.uleb128 0x31
 1258 07b8 38000000 		.4byte	.LVL7
 1259 07bc 130A0000 		.4byte	0xa13
 1260 07c0 00       		.byte	0
 1261 07c1 16       		.uleb128 0x16
 1262 07c2 45050000 		.4byte	0x545
 1263 07c6 D1070000 		.4byte	0x7d1
 1264 07ca 17       		.uleb128 0x17
 1265 07cb 25040000 		.4byte	0x425
 1266 07cf 09       		.byte	0x9
 1267 07d0 00       		.byte	0
 1268 07d1 15       		.uleb128 0x15
 1269 07d2 C1070000 		.4byte	0x7c1
 1270 07d6 22       		.uleb128 0x22
 1271 07d7 54050000 		.4byte	.LASF106
 1272 07db 01       		.byte	0x1
 1273 07dc 76       		.byte	0x76
 1274 07dd FC040000 		.4byte	0x4fc
 1275 07e1 00000000 		.4byte	.LFB227
 1276 07e5 3C000000 		.4byte	.LFE227-.LFB227
 1277 07e9 01       		.uleb128 0x1
 1278 07ea 9C       		.byte	0x9c
 1279 07eb D8080000 		.4byte	0x8d8
 1280 07ef 32       		.uleb128 0x32
 1281 07f0 747000   		.ascii	"tp\000"
 1282 07f3 01       		.byte	0x1
 1283 07f4 77       		.byte	0x77
 1284 07f5 FC040000 		.4byte	0x4fc
 1285 07f9 2A       		.uleb128 0x2a
 1286 07fa DB050000 		.4byte	0x5db
 1287 07fe 02000000 		.4byte	.LBB69
 1288 0802 06000000 		.4byte	.LBE69-.LBB69
 1289 0806 01       		.byte	0x1
 1290 0807 79       		.byte	0x79
 1291 0808 35080000 		.4byte	0x835
 1292 080c 2D       		.uleb128 0x2d
 1293 080d C9050000 		.4byte	0x5c9
 1294 0811 02000000 		.4byte	.LBB70
 1295 0815 06000000 		.4byte	.LBE70-.LBB70
 1296 0819 0D       		.byte	0xd
 1297 081a 2B01     		.2byte	0x12b
 1298 081c 2D       		.uleb128 0x2d
 1299 081d AF050000 		.4byte	0x5af
 1300 0821 02000000 		.4byte	.LBB71
 1301 0825 06000000 		.4byte	.LBE71-.LBB71
 1302 0829 0A       		.byte	0xa
 1303 082a BE01     		.2byte	0x1be
 1304 082c 28       		.uleb128 0x28
 1305 082d BC050000 		.4byte	0x5bc
 1306 0831 20       		.byte	0x20
 1307 0832 00       		.byte	0
 1308 0833 00       		.byte	0
 1309 0834 00       		.byte	0
ARM GAS  /tmp/cc9fIDpg.s 			page 24


 1310 0835 2A       		.uleb128 0x2a
 1311 0836 3F060000 		.4byte	0x63f
 1312 083a 0C000000 		.4byte	.LBB73
 1313 083e 06000000 		.4byte	.LBE73-.LBB73
 1314 0842 01       		.byte	0x1
 1315 0843 7A       		.byte	0x7a
 1316 0844 52080000 		.4byte	0x852
 1317 0848 2E       		.uleb128 0x2e
 1318 0849 4F060000 		.4byte	0x64f
 1319 084d 91000000 		.4byte	.LLST3
 1320 0851 00       		.byte	0
 1321 0852 26       		.uleb128 0x26
 1322 0853 61060000 		.4byte	0x661
 1323 0857 16000000 		.4byte	.LBB75
 1324 085b 30000000 		.4byte	.Ldebug_ranges0+0x30
 1325 085f 01       		.byte	0x1
 1326 0860 7C       		.byte	0x7c
 1327 0861 7E080000 		.4byte	0x87e
 1328 0865 2E       		.uleb128 0x2e
 1329 0866 72060000 		.4byte	0x672
 1330 086a AF000000 		.4byte	.LLST4
 1331 086e 33       		.uleb128 0x33
 1332 086f 30000000 		.4byte	.Ldebug_ranges0+0x30
 1333 0873 34       		.uleb128 0x34
 1334 0874 7E060000 		.4byte	0x67e
 1335 0878 CE000000 		.4byte	.LLST5
 1336 087c 00       		.byte	0
 1337 087d 00       		.byte	0
 1338 087e 26       		.uleb128 0x26
 1339 087f 0F060000 		.4byte	0x60f
 1340 0883 1E000000 		.4byte	.LBB79
 1341 0887 48000000 		.4byte	.Ldebug_ranges0+0x48
 1342 088b 01       		.byte	0x1
 1343 088c 7E       		.byte	0x7e
 1344 088d C8080000 		.4byte	0x8c8
 1345 0891 33       		.uleb128 0x33
 1346 0892 48000000 		.4byte	.Ldebug_ranges0+0x48
 1347 0896 2C       		.uleb128 0x2c
 1348 0897 1C060000 		.4byte	0x61c
 1349 089b 27       		.uleb128 0x27
 1350 089c D2050000 		.4byte	0x5d2
 1351 08a0 1E000000 		.4byte	.LBB81
 1352 08a4 48000000 		.4byte	.Ldebug_ranges0+0x48
 1353 08a8 0D       		.byte	0xd
 1354 08a9 4101     		.2byte	0x141
 1355 08ab 27       		.uleb128 0x27
 1356 08ac AF050000 		.4byte	0x5af
 1357 08b0 1E000000 		.4byte	.LBB82
 1358 08b4 48000000 		.4byte	.Ldebug_ranges0+0x48
 1359 08b8 0A       		.byte	0xa
 1360 08b9 CC01     		.2byte	0x1cc
 1361 08bb 2E       		.uleb128 0x2e
 1362 08bc BC050000 		.4byte	0x5bc
 1363 08c0 E1000000 		.4byte	.LLST6
 1364 08c4 00       		.byte	0
 1365 08c5 00       		.byte	0
 1366 08c6 00       		.byte	0
ARM GAS  /tmp/cc9fIDpg.s 			page 25


 1367 08c7 00       		.byte	0
 1368 08c8 35       		.uleb128 0x35
 1369 08c9 2E000000 		.4byte	.LVL14
 1370 08cd 010A0000 		.4byte	0xa01
 1371 08d1 30       		.uleb128 0x30
 1372 08d2 01       		.uleb128 0x1
 1373 08d3 50       		.byte	0x50
 1374 08d4 01       		.uleb128 0x1
 1375 08d5 3E       		.byte	0x3e
 1376 08d6 00       		.byte	0
 1377 08d7 00       		.byte	0
 1378 08d8 36       		.uleb128 0x36
 1379 08d9 96030000 		.4byte	.LASF111
 1380 08dd 01       		.byte	0x1
 1381 08de 8C       		.byte	0x8c
 1382 08df 00000000 		.4byte	.LFB228
 1383 08e3 14000000 		.4byte	.LFE228-.LFB228
 1384 08e7 01       		.uleb128 0x1
 1385 08e8 9C       		.byte	0x9c
 1386 08e9 D5090000 		.4byte	0x9d5
 1387 08ed 23       		.uleb128 0x23
 1388 08ee 747000   		.ascii	"tp\000"
 1389 08f1 01       		.byte	0x1
 1390 08f2 8C       		.byte	0x8c
 1391 08f3 FC040000 		.4byte	0x4fc
 1392 08f7 F5000000 		.4byte	.LLST7
 1393 08fb 23       		.uleb128 0x23
 1394 08fc 6D736700 		.ascii	"msg\000"
 1395 0900 01       		.byte	0x1
 1396 0901 8C       		.byte	0x8c
 1397 0902 FF000000 		.4byte	0xff
 1398 0906 16010000 		.4byte	.LLST8
 1399 090a 25       		.uleb128 0x25
 1400 090b 72030000 		.4byte	.LASF103
 1401 090f E5090000 		.4byte	0x9e5
 1402 0913 2A       		.uleb128 0x2a
 1403 0914 DB050000 		.4byte	0x5db
 1404 0918 02000000 		.4byte	.LBB89
 1405 091c 06000000 		.4byte	.LBE89-.LBB89
 1406 0920 01       		.byte	0x1
 1407 0921 8E       		.byte	0x8e
 1408 0922 4F090000 		.4byte	0x94f
 1409 0926 2D       		.uleb128 0x2d
 1410 0927 C9050000 		.4byte	0x5c9
 1411 092b 02000000 		.4byte	.LBB90
 1412 092f 06000000 		.4byte	.LBE90-.LBB90
 1413 0933 0D       		.byte	0xd
 1414 0934 2B01     		.2byte	0x12b
 1415 0936 2D       		.uleb128 0x2d
 1416 0937 AF050000 		.4byte	0x5af
 1417 093b 02000000 		.4byte	.LBB91
 1418 093f 06000000 		.4byte	.LBE91-.LBB91
 1419 0943 0A       		.byte	0xa
 1420 0944 BE01     		.2byte	0x1be
 1421 0946 28       		.uleb128 0x28
 1422 0947 BC050000 		.4byte	0x5bc
 1423 094b 20       		.byte	0x20
ARM GAS  /tmp/cc9fIDpg.s 			page 26


 1424 094c 00       		.byte	0
 1425 094d 00       		.byte	0
 1426 094e 00       		.byte	0
 1427 094f 2A       		.uleb128 0x2a
 1428 0950 8A060000 		.4byte	0x68a
 1429 0954 08000000 		.4byte	.LBB93
 1430 0958 04000000 		.4byte	.LBE93-.LBB93
 1431 095c 01       		.byte	0x1
 1432 095d 90       		.byte	0x90
 1433 095e 8D090000 		.4byte	0x98d
 1434 0962 2E       		.uleb128 0x2e
 1435 0963 A0060000 		.4byte	0x6a0
 1436 0967 37010000 		.4byte	.LLST9
 1437 096b 2E       		.uleb128 0x2e
 1438 096c 96060000 		.4byte	0x696
 1439 0970 58010000 		.4byte	.LLST10
 1440 0974 35       		.uleb128 0x35
 1441 0975 0C000000 		.4byte	.LVL17
 1442 0979 290A0000 		.4byte	0xa29
 1443 097d 30       		.uleb128 0x30
 1444 097e 01       		.uleb128 0x1
 1445 097f 51       		.byte	0x51
 1446 0980 03       		.uleb128 0x3
 1447 0981 F3       		.byte	0xf3
 1448 0982 01       		.uleb128 0x1
 1449 0983 51       		.byte	0x51
 1450 0984 30       		.uleb128 0x30
 1451 0985 01       		.uleb128 0x1
 1452 0986 50       		.byte	0x50
 1453 0987 03       		.uleb128 0x3
 1454 0988 F3       		.byte	0xf3
 1455 0989 01       		.uleb128 0x1
 1456 098a 50       		.byte	0x50
 1457 098b 00       		.byte	0
 1458 098c 00       		.byte	0
 1459 098d 37       		.uleb128 0x37
 1460 098e 0F060000 		.4byte	0x60f
 1461 0992 0C000000 		.4byte	.LBB95
 1462 0996 08000000 		.4byte	.LBE95-.LBB95
 1463 099a 01       		.byte	0x1
 1464 099b 91       		.byte	0x91
 1465 099c 2B       		.uleb128 0x2b
 1466 099d 0C000000 		.4byte	.LBB96
 1467 09a1 08000000 		.4byte	.LBE96-.LBB96
 1468 09a5 2C       		.uleb128 0x2c
 1469 09a6 1C060000 		.4byte	0x61c
 1470 09aa 2D       		.uleb128 0x2d
 1471 09ab D2050000 		.4byte	0x5d2
 1472 09af 0C000000 		.4byte	.LBB97
 1473 09b3 08000000 		.4byte	.LBE97-.LBB97
 1474 09b7 0D       		.byte	0xd
 1475 09b8 4101     		.2byte	0x141
 1476 09ba 2D       		.uleb128 0x2d
 1477 09bb AF050000 		.4byte	0x5af
 1478 09bf 0C000000 		.4byte	.LBB98
 1479 09c3 08000000 		.4byte	.LBE98-.LBB98
 1480 09c7 0A       		.byte	0xa
ARM GAS  /tmp/cc9fIDpg.s 			page 27


 1481 09c8 CC01     		.2byte	0x1cc
 1482 09ca 28       		.uleb128 0x28
 1483 09cb BC050000 		.4byte	0x5bc
 1484 09cf 00       		.byte	0
 1485 09d0 00       		.byte	0
 1486 09d1 00       		.byte	0
 1487 09d2 00       		.byte	0
 1488 09d3 00       		.byte	0
 1489 09d4 00       		.byte	0
 1490 09d5 16       		.uleb128 0x16
 1491 09d6 45050000 		.4byte	0x545
 1492 09da E5090000 		.4byte	0x9e5
 1493 09de 17       		.uleb128 0x17
 1494 09df 25040000 		.4byte	0x425
 1495 09e3 0C       		.byte	0xc
 1496 09e4 00       		.byte	0
 1497 09e5 15       		.uleb128 0x15
 1498 09e6 D5090000 		.4byte	0x9d5
 1499 09ea 38       		.uleb128 0x38
 1500 09eb 9A000000 		.4byte	.LASF107
 1501 09ef 0E       		.byte	0xe
 1502 09f0 A706     		.2byte	0x6a7
 1503 09f2 C3000000 		.4byte	0xc3
 1504 09f6 39       		.uleb128 0x39
 1505 09f7 636800   		.ascii	"ch\000"
 1506 09fa 03       		.byte	0x3
 1507 09fb EB01     		.2byte	0x1eb
 1508 09fd BE030000 		.4byte	0x3be
 1509 0a01 3A       		.uleb128 0x3a
 1510 0a02 A3030000 		.4byte	.LASF112
 1511 0a06 03       		.byte	0x3
 1512 0a07 F601     		.2byte	0x1f6
 1513 0a09 130A0000 		.4byte	0xa13
 1514 0a0d 0D       		.uleb128 0xd
 1515 0a0e DE000000 		.4byte	0xde
 1516 0a12 00       		.byte	0
 1517 0a13 3B       		.uleb128 0x3b
 1518 0a14 CD030000 		.4byte	.LASF113
 1519 0a18 03       		.byte	0x3
 1520 0a19 F501     		.2byte	0x1f5
 1521 0a1b FC040000 		.4byte	0x4fc
 1522 0a1f 290A0000 		.4byte	0xa29
 1523 0a23 0D       		.uleb128 0xd
 1524 0a24 FC040000 		.4byte	0x4fc
 1525 0a28 00       		.byte	0
 1526 0a29 3C       		.uleb128 0x3c
 1527 0a2a F4010000 		.4byte	.LASF114
 1528 0a2e 03       		.byte	0x3
 1529 0a2f F801     		.2byte	0x1f8
 1530 0a31 0D       		.uleb128 0xd
 1531 0a32 FC040000 		.4byte	0x4fc
 1532 0a36 0D       		.uleb128 0xd
 1533 0a37 FF000000 		.4byte	0xff
 1534 0a3b 00       		.byte	0
 1535 0a3c 00       		.byte	0
 1536              		.section	.debug_abbrev,"",%progbits
 1537              	.Ldebug_abbrev0:
ARM GAS  /tmp/cc9fIDpg.s 			page 28


 1538 0000 01       		.uleb128 0x1
 1539 0001 11       		.uleb128 0x11
 1540 0002 01       		.byte	0x1
 1541 0003 25       		.uleb128 0x25
 1542 0004 0E       		.uleb128 0xe
 1543 0005 13       		.uleb128 0x13
 1544 0006 0B       		.uleb128 0xb
 1545 0007 03       		.uleb128 0x3
 1546 0008 0E       		.uleb128 0xe
 1547 0009 1B       		.uleb128 0x1b
 1548 000a 0E       		.uleb128 0xe
 1549 000b 55       		.uleb128 0x55
 1550 000c 17       		.uleb128 0x17
 1551 000d 11       		.uleb128 0x11
 1552 000e 01       		.uleb128 0x1
 1553 000f 10       		.uleb128 0x10
 1554 0010 17       		.uleb128 0x17
 1555 0011 00       		.byte	0
 1556 0012 00       		.byte	0
 1557 0013 02       		.uleb128 0x2
 1558 0014 24       		.uleb128 0x24
 1559 0015 00       		.byte	0
 1560 0016 0B       		.uleb128 0xb
 1561 0017 0B       		.uleb128 0xb
 1562 0018 3E       		.uleb128 0x3e
 1563 0019 0B       		.uleb128 0xb
 1564 001a 03       		.uleb128 0x3
 1565 001b 08       		.uleb128 0x8
 1566 001c 00       		.byte	0
 1567 001d 00       		.byte	0
 1568 001e 03       		.uleb128 0x3
 1569 001f 24       		.uleb128 0x24
 1570 0020 00       		.byte	0
 1571 0021 0B       		.uleb128 0xb
 1572 0022 0B       		.uleb128 0xb
 1573 0023 3E       		.uleb128 0x3e
 1574 0024 0B       		.uleb128 0xb
 1575 0025 03       		.uleb128 0x3
 1576 0026 0E       		.uleb128 0xe
 1577 0027 00       		.byte	0
 1578 0028 00       		.byte	0
 1579 0029 04       		.uleb128 0x4
 1580 002a 16       		.uleb128 0x16
 1581 002b 00       		.byte	0
 1582 002c 03       		.uleb128 0x3
 1583 002d 0E       		.uleb128 0xe
 1584 002e 3A       		.uleb128 0x3a
 1585 002f 0B       		.uleb128 0xb
 1586 0030 3B       		.uleb128 0x3b
 1587 0031 0B       		.uleb128 0xb
 1588 0032 49       		.uleb128 0x49
 1589 0033 13       		.uleb128 0x13
 1590 0034 00       		.byte	0
 1591 0035 00       		.byte	0
 1592 0036 05       		.uleb128 0x5
 1593 0037 35       		.uleb128 0x35
 1594 0038 00       		.byte	0
ARM GAS  /tmp/cc9fIDpg.s 			page 29


 1595 0039 49       		.uleb128 0x49
 1596 003a 13       		.uleb128 0x13
 1597 003b 00       		.byte	0
 1598 003c 00       		.byte	0
 1599 003d 06       		.uleb128 0x6
 1600 003e 13       		.uleb128 0x13
 1601 003f 01       		.byte	0x1
 1602 0040 03       		.uleb128 0x3
 1603 0041 0E       		.uleb128 0xe
 1604 0042 0B       		.uleb128 0xb
 1605 0043 0B       		.uleb128 0xb
 1606 0044 3A       		.uleb128 0x3a
 1607 0045 0B       		.uleb128 0xb
 1608 0046 3B       		.uleb128 0x3b
 1609 0047 0B       		.uleb128 0xb
 1610 0048 01       		.uleb128 0x1
 1611 0049 13       		.uleb128 0x13
 1612 004a 00       		.byte	0
 1613 004b 00       		.byte	0
 1614 004c 07       		.uleb128 0x7
 1615 004d 0D       		.uleb128 0xd
 1616 004e 00       		.byte	0
 1617 004f 03       		.uleb128 0x3
 1618 0050 0E       		.uleb128 0xe
 1619 0051 3A       		.uleb128 0x3a
 1620 0052 0B       		.uleb128 0xb
 1621 0053 3B       		.uleb128 0x3b
 1622 0054 0B       		.uleb128 0xb
 1623 0055 49       		.uleb128 0x49
 1624 0056 13       		.uleb128 0x13
 1625 0057 38       		.uleb128 0x38
 1626 0058 0B       		.uleb128 0xb
 1627 0059 00       		.byte	0
 1628 005a 00       		.byte	0
 1629 005b 08       		.uleb128 0x8
 1630 005c 0D       		.uleb128 0xd
 1631 005d 00       		.byte	0
 1632 005e 03       		.uleb128 0x3
 1633 005f 08       		.uleb128 0x8
 1634 0060 3A       		.uleb128 0x3a
 1635 0061 0B       		.uleb128 0xb
 1636 0062 3B       		.uleb128 0x3b
 1637 0063 05       		.uleb128 0x5
 1638 0064 49       		.uleb128 0x49
 1639 0065 13       		.uleb128 0x13
 1640 0066 38       		.uleb128 0x38
 1641 0067 0B       		.uleb128 0xb
 1642 0068 00       		.byte	0
 1643 0069 00       		.byte	0
 1644 006a 09       		.uleb128 0x9
 1645 006b 0D       		.uleb128 0xd
 1646 006c 00       		.byte	0
 1647 006d 03       		.uleb128 0x3
 1648 006e 0E       		.uleb128 0xe
 1649 006f 3A       		.uleb128 0x3a
 1650 0070 0B       		.uleb128 0xb
 1651 0071 3B       		.uleb128 0x3b
ARM GAS  /tmp/cc9fIDpg.s 			page 30


 1652 0072 05       		.uleb128 0x5
 1653 0073 49       		.uleb128 0x49
 1654 0074 13       		.uleb128 0x13
 1655 0075 38       		.uleb128 0x38
 1656 0076 0B       		.uleb128 0xb
 1657 0077 00       		.byte	0
 1658 0078 00       		.byte	0
 1659 0079 0A       		.uleb128 0xa
 1660 007a 13       		.uleb128 0x13
 1661 007b 01       		.byte	0x1
 1662 007c 03       		.uleb128 0x3
 1663 007d 0E       		.uleb128 0xe
 1664 007e 0B       		.uleb128 0xb
 1665 007f 0B       		.uleb128 0xb
 1666 0080 3A       		.uleb128 0x3a
 1667 0081 0B       		.uleb128 0xb
 1668 0082 3B       		.uleb128 0x3b
 1669 0083 05       		.uleb128 0x5
 1670 0084 01       		.uleb128 0x1
 1671 0085 13       		.uleb128 0x13
 1672 0086 00       		.byte	0
 1673 0087 00       		.byte	0
 1674 0088 0B       		.uleb128 0xb
 1675 0089 0F       		.uleb128 0xf
 1676 008a 00       		.byte	0
 1677 008b 0B       		.uleb128 0xb
 1678 008c 0B       		.uleb128 0xb
 1679 008d 49       		.uleb128 0x49
 1680 008e 13       		.uleb128 0x13
 1681 008f 00       		.byte	0
 1682 0090 00       		.byte	0
 1683 0091 0C       		.uleb128 0xc
 1684 0092 15       		.uleb128 0x15
 1685 0093 01       		.byte	0x1
 1686 0094 27       		.uleb128 0x27
 1687 0095 19       		.uleb128 0x19
 1688 0096 01       		.uleb128 0x1
 1689 0097 13       		.uleb128 0x13
 1690 0098 00       		.byte	0
 1691 0099 00       		.byte	0
 1692 009a 0D       		.uleb128 0xd
 1693 009b 05       		.uleb128 0x5
 1694 009c 00       		.byte	0
 1695 009d 49       		.uleb128 0x49
 1696 009e 13       		.uleb128 0x13
 1697 009f 00       		.byte	0
 1698 00a0 00       		.byte	0
 1699 00a1 0E       		.uleb128 0xe
 1700 00a2 0F       		.uleb128 0xf
 1701 00a3 00       		.byte	0
 1702 00a4 0B       		.uleb128 0xb
 1703 00a5 0B       		.uleb128 0xb
 1704 00a6 00       		.byte	0
 1705 00a7 00       		.byte	0
 1706 00a8 0F       		.uleb128 0xf
 1707 00a9 13       		.uleb128 0x13
 1708 00aa 01       		.byte	0x1
ARM GAS  /tmp/cc9fIDpg.s 			page 31


 1709 00ab 03       		.uleb128 0x3
 1710 00ac 0E       		.uleb128 0xe
 1711 00ad 0B       		.uleb128 0xb
 1712 00ae 05       		.uleb128 0x5
 1713 00af 3A       		.uleb128 0x3a
 1714 00b0 0B       		.uleb128 0xb
 1715 00b1 3B       		.uleb128 0x3b
 1716 00b2 05       		.uleb128 0x5
 1717 00b3 01       		.uleb128 0x1
 1718 00b4 13       		.uleb128 0x13
 1719 00b5 00       		.byte	0
 1720 00b6 00       		.byte	0
 1721 00b7 10       		.uleb128 0x10
 1722 00b8 0D       		.uleb128 0xd
 1723 00b9 00       		.byte	0
 1724 00ba 03       		.uleb128 0x3
 1725 00bb 08       		.uleb128 0x8
 1726 00bc 3A       		.uleb128 0x3a
 1727 00bd 0B       		.uleb128 0xb
 1728 00be 3B       		.uleb128 0x3b
 1729 00bf 0B       		.uleb128 0xb
 1730 00c0 49       		.uleb128 0x49
 1731 00c1 13       		.uleb128 0x13
 1732 00c2 38       		.uleb128 0x38
 1733 00c3 0B       		.uleb128 0xb
 1734 00c4 00       		.byte	0
 1735 00c5 00       		.byte	0
 1736 00c6 11       		.uleb128 0x11
 1737 00c7 13       		.uleb128 0x13
 1738 00c8 01       		.byte	0x1
 1739 00c9 0B       		.uleb128 0xb
 1740 00ca 0B       		.uleb128 0xb
 1741 00cb 3A       		.uleb128 0x3a
 1742 00cc 0B       		.uleb128 0xb
 1743 00cd 3B       		.uleb128 0x3b
 1744 00ce 0B       		.uleb128 0xb
 1745 00cf 01       		.uleb128 0x1
 1746 00d0 13       		.uleb128 0x13
 1747 00d1 00       		.byte	0
 1748 00d2 00       		.byte	0
 1749 00d3 12       		.uleb128 0x12
 1750 00d4 17       		.uleb128 0x17
 1751 00d5 01       		.byte	0x1
 1752 00d6 0B       		.uleb128 0xb
 1753 00d7 0B       		.uleb128 0xb
 1754 00d8 3A       		.uleb128 0x3a
 1755 00d9 0B       		.uleb128 0xb
 1756 00da 3B       		.uleb128 0x3b
 1757 00db 0B       		.uleb128 0xb
 1758 00dc 01       		.uleb128 0x1
 1759 00dd 13       		.uleb128 0x13
 1760 00de 00       		.byte	0
 1761 00df 00       		.byte	0
 1762 00e0 13       		.uleb128 0x13
 1763 00e1 0D       		.uleb128 0xd
 1764 00e2 00       		.byte	0
 1765 00e3 03       		.uleb128 0x3
ARM GAS  /tmp/cc9fIDpg.s 			page 32


 1766 00e4 0E       		.uleb128 0xe
 1767 00e5 3A       		.uleb128 0x3a
 1768 00e6 0B       		.uleb128 0xb
 1769 00e7 3B       		.uleb128 0x3b
 1770 00e8 0B       		.uleb128 0xb
 1771 00e9 49       		.uleb128 0x49
 1772 00ea 13       		.uleb128 0x13
 1773 00eb 00       		.byte	0
 1774 00ec 00       		.byte	0
 1775 00ed 14       		.uleb128 0x14
 1776 00ee 0D       		.uleb128 0xd
 1777 00ef 00       		.byte	0
 1778 00f0 03       		.uleb128 0x3
 1779 00f1 0E       		.uleb128 0xe
 1780 00f2 3A       		.uleb128 0x3a
 1781 00f3 0B       		.uleb128 0xb
 1782 00f4 3B       		.uleb128 0x3b
 1783 00f5 05       		.uleb128 0x5
 1784 00f6 49       		.uleb128 0x49
 1785 00f7 13       		.uleb128 0x13
 1786 00f8 00       		.byte	0
 1787 00f9 00       		.byte	0
 1788 00fa 15       		.uleb128 0x15
 1789 00fb 26       		.uleb128 0x26
 1790 00fc 00       		.byte	0
 1791 00fd 49       		.uleb128 0x49
 1792 00fe 13       		.uleb128 0x13
 1793 00ff 00       		.byte	0
 1794 0100 00       		.byte	0
 1795 0101 16       		.uleb128 0x16
 1796 0102 01       		.uleb128 0x1
 1797 0103 01       		.byte	0x1
 1798 0104 49       		.uleb128 0x49
 1799 0105 13       		.uleb128 0x13
 1800 0106 01       		.uleb128 0x1
 1801 0107 13       		.uleb128 0x13
 1802 0108 00       		.byte	0
 1803 0109 00       		.byte	0
 1804 010a 17       		.uleb128 0x17
 1805 010b 21       		.uleb128 0x21
 1806 010c 00       		.byte	0
 1807 010d 49       		.uleb128 0x49
 1808 010e 13       		.uleb128 0x13
 1809 010f 2F       		.uleb128 0x2f
 1810 0110 0B       		.uleb128 0xb
 1811 0111 00       		.byte	0
 1812 0112 00       		.byte	0
 1813 0113 18       		.uleb128 0x18
 1814 0114 2E       		.uleb128 0x2e
 1815 0115 01       		.byte	0x1
 1816 0116 03       		.uleb128 0x3
 1817 0117 0E       		.uleb128 0xe
 1818 0118 3A       		.uleb128 0x3a
 1819 0119 0B       		.uleb128 0xb
 1820 011a 3B       		.uleb128 0x3b
 1821 011b 05       		.uleb128 0x5
 1822 011c 27       		.uleb128 0x27
ARM GAS  /tmp/cc9fIDpg.s 			page 33


 1823 011d 19       		.uleb128 0x19
 1824 011e 20       		.uleb128 0x20
 1825 011f 0B       		.uleb128 0xb
 1826 0120 01       		.uleb128 0x1
 1827 0121 13       		.uleb128 0x13
 1828 0122 00       		.byte	0
 1829 0123 00       		.byte	0
 1830 0124 19       		.uleb128 0x19
 1831 0125 05       		.uleb128 0x5
 1832 0126 00       		.byte	0
 1833 0127 03       		.uleb128 0x3
 1834 0128 0E       		.uleb128 0xe
 1835 0129 3A       		.uleb128 0x3a
 1836 012a 0B       		.uleb128 0xb
 1837 012b 3B       		.uleb128 0x3b
 1838 012c 05       		.uleb128 0x5
 1839 012d 49       		.uleb128 0x49
 1840 012e 13       		.uleb128 0x13
 1841 012f 00       		.byte	0
 1842 0130 00       		.byte	0
 1843 0131 1A       		.uleb128 0x1a
 1844 0132 2E       		.uleb128 0x2e
 1845 0133 00       		.byte	0
 1846 0134 03       		.uleb128 0x3
 1847 0135 0E       		.uleb128 0xe
 1848 0136 3A       		.uleb128 0x3a
 1849 0137 0B       		.uleb128 0xb
 1850 0138 3B       		.uleb128 0x3b
 1851 0139 05       		.uleb128 0x5
 1852 013a 27       		.uleb128 0x27
 1853 013b 19       		.uleb128 0x19
 1854 013c 20       		.uleb128 0x20
 1855 013d 0B       		.uleb128 0xb
 1856 013e 00       		.byte	0
 1857 013f 00       		.byte	0
 1858 0140 1B       		.uleb128 0x1b
 1859 0141 05       		.uleb128 0x5
 1860 0142 00       		.byte	0
 1861 0143 03       		.uleb128 0x3
 1862 0144 08       		.uleb128 0x8
 1863 0145 3A       		.uleb128 0x3a
 1864 0146 0B       		.uleb128 0xb
 1865 0147 3B       		.uleb128 0x3b
 1866 0148 05       		.uleb128 0x5
 1867 0149 49       		.uleb128 0x49
 1868 014a 13       		.uleb128 0x13
 1869 014b 00       		.byte	0
 1870 014c 00       		.byte	0
 1871 014d 1C       		.uleb128 0x1c
 1872 014e 34       		.uleb128 0x34
 1873 014f 00       		.byte	0
 1874 0150 03       		.uleb128 0x3
 1875 0151 0E       		.uleb128 0xe
 1876 0152 49       		.uleb128 0x49
 1877 0153 13       		.uleb128 0x13
 1878 0154 34       		.uleb128 0x34
 1879 0155 19       		.uleb128 0x19
ARM GAS  /tmp/cc9fIDpg.s 			page 34


 1880 0156 1C       		.uleb128 0x1c
 1881 0157 0E       		.uleb128 0xe
 1882 0158 00       		.byte	0
 1883 0159 00       		.byte	0
 1884 015a 1D       		.uleb128 0x1d
 1885 015b 2E       		.uleb128 0x2e
 1886 015c 01       		.byte	0x1
 1887 015d 03       		.uleb128 0x3
 1888 015e 0E       		.uleb128 0xe
 1889 015f 3A       		.uleb128 0x3a
 1890 0160 0B       		.uleb128 0xb
 1891 0161 3B       		.uleb128 0x3b
 1892 0162 0B       		.uleb128 0xb
 1893 0163 27       		.uleb128 0x27
 1894 0164 19       		.uleb128 0x19
 1895 0165 49       		.uleb128 0x49
 1896 0166 13       		.uleb128 0x13
 1897 0167 20       		.uleb128 0x20
 1898 0168 0B       		.uleb128 0xb
 1899 0169 01       		.uleb128 0x1
 1900 016a 13       		.uleb128 0x13
 1901 016b 00       		.byte	0
 1902 016c 00       		.byte	0
 1903 016d 1E       		.uleb128 0x1e
 1904 016e 05       		.uleb128 0x5
 1905 016f 00       		.byte	0
 1906 0170 03       		.uleb128 0x3
 1907 0171 08       		.uleb128 0x8
 1908 0172 3A       		.uleb128 0x3a
 1909 0173 0B       		.uleb128 0xb
 1910 0174 3B       		.uleb128 0x3b
 1911 0175 0B       		.uleb128 0xb
 1912 0176 49       		.uleb128 0x49
 1913 0177 13       		.uleb128 0x13
 1914 0178 00       		.byte	0
 1915 0179 00       		.byte	0
 1916 017a 1F       		.uleb128 0x1f
 1917 017b 2E       		.uleb128 0x2e
 1918 017c 01       		.byte	0x1
 1919 017d 03       		.uleb128 0x3
 1920 017e 0E       		.uleb128 0xe
 1921 017f 3A       		.uleb128 0x3a
 1922 0180 0B       		.uleb128 0xb
 1923 0181 3B       		.uleb128 0x3b
 1924 0182 05       		.uleb128 0x5
 1925 0183 27       		.uleb128 0x27
 1926 0184 19       		.uleb128 0x19
 1927 0185 49       		.uleb128 0x49
 1928 0186 13       		.uleb128 0x13
 1929 0187 20       		.uleb128 0x20
 1930 0188 0B       		.uleb128 0xb
 1931 0189 01       		.uleb128 0x1
 1932 018a 13       		.uleb128 0x13
 1933 018b 00       		.byte	0
 1934 018c 00       		.byte	0
 1935 018d 20       		.uleb128 0x20
 1936 018e 34       		.uleb128 0x34
ARM GAS  /tmp/cc9fIDpg.s 			page 35


 1937 018f 00       		.byte	0
 1938 0190 03       		.uleb128 0x3
 1939 0191 08       		.uleb128 0x8
 1940 0192 3A       		.uleb128 0x3a
 1941 0193 0B       		.uleb128 0xb
 1942 0194 3B       		.uleb128 0x3b
 1943 0195 05       		.uleb128 0x5
 1944 0196 49       		.uleb128 0x49
 1945 0197 13       		.uleb128 0x13
 1946 0198 00       		.byte	0
 1947 0199 00       		.byte	0
 1948 019a 21       		.uleb128 0x21
 1949 019b 2E       		.uleb128 0x2e
 1950 019c 01       		.byte	0x1
 1951 019d 03       		.uleb128 0x3
 1952 019e 0E       		.uleb128 0xe
 1953 019f 3A       		.uleb128 0x3a
 1954 01a0 0B       		.uleb128 0xb
 1955 01a1 3B       		.uleb128 0x3b
 1956 01a2 0B       		.uleb128 0xb
 1957 01a3 27       		.uleb128 0x27
 1958 01a4 19       		.uleb128 0x19
 1959 01a5 20       		.uleb128 0x20
 1960 01a6 0B       		.uleb128 0xb
 1961 01a7 01       		.uleb128 0x1
 1962 01a8 13       		.uleb128 0x13
 1963 01a9 00       		.byte	0
 1964 01aa 00       		.byte	0
 1965 01ab 22       		.uleb128 0x22
 1966 01ac 2E       		.uleb128 0x2e
 1967 01ad 01       		.byte	0x1
 1968 01ae 3F       		.uleb128 0x3f
 1969 01af 19       		.uleb128 0x19
 1970 01b0 03       		.uleb128 0x3
 1971 01b1 0E       		.uleb128 0xe
 1972 01b2 3A       		.uleb128 0x3a
 1973 01b3 0B       		.uleb128 0xb
 1974 01b4 3B       		.uleb128 0x3b
 1975 01b5 0B       		.uleb128 0xb
 1976 01b6 27       		.uleb128 0x27
 1977 01b7 19       		.uleb128 0x19
 1978 01b8 49       		.uleb128 0x49
 1979 01b9 13       		.uleb128 0x13
 1980 01ba 11       		.uleb128 0x11
 1981 01bb 01       		.uleb128 0x1
 1982 01bc 12       		.uleb128 0x12
 1983 01bd 06       		.uleb128 0x6
 1984 01be 40       		.uleb128 0x40
 1985 01bf 18       		.uleb128 0x18
 1986 01c0 9742     		.uleb128 0x2117
 1987 01c2 19       		.uleb128 0x19
 1988 01c3 01       		.uleb128 0x1
 1989 01c4 13       		.uleb128 0x13
 1990 01c5 00       		.byte	0
 1991 01c6 00       		.byte	0
 1992 01c7 23       		.uleb128 0x23
 1993 01c8 05       		.uleb128 0x5
ARM GAS  /tmp/cc9fIDpg.s 			page 36


 1994 01c9 00       		.byte	0
 1995 01ca 03       		.uleb128 0x3
 1996 01cb 08       		.uleb128 0x8
 1997 01cc 3A       		.uleb128 0x3a
 1998 01cd 0B       		.uleb128 0xb
 1999 01ce 3B       		.uleb128 0x3b
 2000 01cf 0B       		.uleb128 0xb
 2001 01d0 49       		.uleb128 0x49
 2002 01d1 13       		.uleb128 0x13
 2003 01d2 02       		.uleb128 0x2
 2004 01d3 17       		.uleb128 0x17
 2005 01d4 00       		.byte	0
 2006 01d5 00       		.byte	0
 2007 01d6 24       		.uleb128 0x24
 2008 01d7 34       		.uleb128 0x34
 2009 01d8 00       		.byte	0
 2010 01d9 03       		.uleb128 0x3
 2011 01da 08       		.uleb128 0x8
 2012 01db 3A       		.uleb128 0x3a
 2013 01dc 0B       		.uleb128 0xb
 2014 01dd 3B       		.uleb128 0x3b
 2015 01de 0B       		.uleb128 0xb
 2016 01df 49       		.uleb128 0x49
 2017 01e0 13       		.uleb128 0x13
 2018 01e1 02       		.uleb128 0x2
 2019 01e2 18       		.uleb128 0x18
 2020 01e3 00       		.byte	0
 2021 01e4 00       		.byte	0
 2022 01e5 25       		.uleb128 0x25
 2023 01e6 34       		.uleb128 0x34
 2024 01e7 00       		.byte	0
 2025 01e8 03       		.uleb128 0x3
 2026 01e9 0E       		.uleb128 0xe
 2027 01ea 49       		.uleb128 0x49
 2028 01eb 13       		.uleb128 0x13
 2029 01ec 34       		.uleb128 0x34
 2030 01ed 19       		.uleb128 0x19
 2031 01ee 00       		.byte	0
 2032 01ef 00       		.byte	0
 2033 01f0 26       		.uleb128 0x26
 2034 01f1 1D       		.uleb128 0x1d
 2035 01f2 01       		.byte	0x1
 2036 01f3 31       		.uleb128 0x31
 2037 01f4 13       		.uleb128 0x13
 2038 01f5 52       		.uleb128 0x52
 2039 01f6 01       		.uleb128 0x1
 2040 01f7 55       		.uleb128 0x55
 2041 01f8 17       		.uleb128 0x17
 2042 01f9 58       		.uleb128 0x58
 2043 01fa 0B       		.uleb128 0xb
 2044 01fb 59       		.uleb128 0x59
 2045 01fc 0B       		.uleb128 0xb
 2046 01fd 01       		.uleb128 0x1
 2047 01fe 13       		.uleb128 0x13
 2048 01ff 00       		.byte	0
 2049 0200 00       		.byte	0
 2050 0201 27       		.uleb128 0x27
ARM GAS  /tmp/cc9fIDpg.s 			page 37


 2051 0202 1D       		.uleb128 0x1d
 2052 0203 01       		.byte	0x1
 2053 0204 31       		.uleb128 0x31
 2054 0205 13       		.uleb128 0x13
 2055 0206 52       		.uleb128 0x52
 2056 0207 01       		.uleb128 0x1
 2057 0208 55       		.uleb128 0x55
 2058 0209 17       		.uleb128 0x17
 2059 020a 58       		.uleb128 0x58
 2060 020b 0B       		.uleb128 0xb
 2061 020c 59       		.uleb128 0x59
 2062 020d 05       		.uleb128 0x5
 2063 020e 00       		.byte	0
 2064 020f 00       		.byte	0
 2065 0210 28       		.uleb128 0x28
 2066 0211 05       		.uleb128 0x5
 2067 0212 00       		.byte	0
 2068 0213 31       		.uleb128 0x31
 2069 0214 13       		.uleb128 0x13
 2070 0215 1C       		.uleb128 0x1c
 2071 0216 0B       		.uleb128 0xb
 2072 0217 00       		.byte	0
 2073 0218 00       		.byte	0
 2074 0219 29       		.uleb128 0x29
 2075 021a 05       		.uleb128 0x5
 2076 021b 00       		.byte	0
 2077 021c 31       		.uleb128 0x31
 2078 021d 13       		.uleb128 0x13
 2079 021e 02       		.uleb128 0x2
 2080 021f 18       		.uleb128 0x18
 2081 0220 00       		.byte	0
 2082 0221 00       		.byte	0
 2083 0222 2A       		.uleb128 0x2a
 2084 0223 1D       		.uleb128 0x1d
 2085 0224 01       		.byte	0x1
 2086 0225 31       		.uleb128 0x31
 2087 0226 13       		.uleb128 0x13
 2088 0227 11       		.uleb128 0x11
 2089 0228 01       		.uleb128 0x1
 2090 0229 12       		.uleb128 0x12
 2091 022a 06       		.uleb128 0x6
 2092 022b 58       		.uleb128 0x58
 2093 022c 0B       		.uleb128 0xb
 2094 022d 59       		.uleb128 0x59
 2095 022e 0B       		.uleb128 0xb
 2096 022f 01       		.uleb128 0x1
 2097 0230 13       		.uleb128 0x13
 2098 0231 00       		.byte	0
 2099 0232 00       		.byte	0
 2100 0233 2B       		.uleb128 0x2b
 2101 0234 0B       		.uleb128 0xb
 2102 0235 01       		.byte	0x1
 2103 0236 11       		.uleb128 0x11
 2104 0237 01       		.uleb128 0x1
 2105 0238 12       		.uleb128 0x12
 2106 0239 06       		.uleb128 0x6
 2107 023a 00       		.byte	0
ARM GAS  /tmp/cc9fIDpg.s 			page 38


 2108 023b 00       		.byte	0
 2109 023c 2C       		.uleb128 0x2c
 2110 023d 34       		.uleb128 0x34
 2111 023e 00       		.byte	0
 2112 023f 31       		.uleb128 0x31
 2113 0240 13       		.uleb128 0x13
 2114 0241 00       		.byte	0
 2115 0242 00       		.byte	0
 2116 0243 2D       		.uleb128 0x2d
 2117 0244 1D       		.uleb128 0x1d
 2118 0245 01       		.byte	0x1
 2119 0246 31       		.uleb128 0x31
 2120 0247 13       		.uleb128 0x13
 2121 0248 11       		.uleb128 0x11
 2122 0249 01       		.uleb128 0x1
 2123 024a 12       		.uleb128 0x12
 2124 024b 06       		.uleb128 0x6
 2125 024c 58       		.uleb128 0x58
 2126 024d 0B       		.uleb128 0xb
 2127 024e 59       		.uleb128 0x59
 2128 024f 05       		.uleb128 0x5
 2129 0250 00       		.byte	0
 2130 0251 00       		.byte	0
 2131 0252 2E       		.uleb128 0x2e
 2132 0253 05       		.uleb128 0x5
 2133 0254 00       		.byte	0
 2134 0255 31       		.uleb128 0x31
 2135 0256 13       		.uleb128 0x13
 2136 0257 02       		.uleb128 0x2
 2137 0258 17       		.uleb128 0x17
 2138 0259 00       		.byte	0
 2139 025a 00       		.byte	0
 2140 025b 2F       		.uleb128 0x2f
 2141 025c 898201   		.uleb128 0x4109
 2142 025f 01       		.byte	0x1
 2143 0260 11       		.uleb128 0x11
 2144 0261 01       		.uleb128 0x1
 2145 0262 31       		.uleb128 0x31
 2146 0263 13       		.uleb128 0x13
 2147 0264 01       		.uleb128 0x1
 2148 0265 13       		.uleb128 0x13
 2149 0266 00       		.byte	0
 2150 0267 00       		.byte	0
 2151 0268 30       		.uleb128 0x30
 2152 0269 8A8201   		.uleb128 0x410a
 2153 026c 00       		.byte	0
 2154 026d 02       		.uleb128 0x2
 2155 026e 18       		.uleb128 0x18
 2156 026f 9142     		.uleb128 0x2111
 2157 0271 18       		.uleb128 0x18
 2158 0272 00       		.byte	0
 2159 0273 00       		.byte	0
 2160 0274 31       		.uleb128 0x31
 2161 0275 898201   		.uleb128 0x4109
 2162 0278 00       		.byte	0
 2163 0279 11       		.uleb128 0x11
 2164 027a 01       		.uleb128 0x1
ARM GAS  /tmp/cc9fIDpg.s 			page 39


 2165 027b 31       		.uleb128 0x31
 2166 027c 13       		.uleb128 0x13
 2167 027d 00       		.byte	0
 2168 027e 00       		.byte	0
 2169 027f 32       		.uleb128 0x32
 2170 0280 34       		.uleb128 0x34
 2171 0281 00       		.byte	0
 2172 0282 03       		.uleb128 0x3
 2173 0283 08       		.uleb128 0x8
 2174 0284 3A       		.uleb128 0x3a
 2175 0285 0B       		.uleb128 0xb
 2176 0286 3B       		.uleb128 0x3b
 2177 0287 0B       		.uleb128 0xb
 2178 0288 49       		.uleb128 0x49
 2179 0289 13       		.uleb128 0x13
 2180 028a 00       		.byte	0
 2181 028b 00       		.byte	0
 2182 028c 33       		.uleb128 0x33
 2183 028d 0B       		.uleb128 0xb
 2184 028e 01       		.byte	0x1
 2185 028f 55       		.uleb128 0x55
 2186 0290 17       		.uleb128 0x17
 2187 0291 00       		.byte	0
 2188 0292 00       		.byte	0
 2189 0293 34       		.uleb128 0x34
 2190 0294 34       		.uleb128 0x34
 2191 0295 00       		.byte	0
 2192 0296 31       		.uleb128 0x31
 2193 0297 13       		.uleb128 0x13
 2194 0298 02       		.uleb128 0x2
 2195 0299 17       		.uleb128 0x17
 2196 029a 00       		.byte	0
 2197 029b 00       		.byte	0
 2198 029c 35       		.uleb128 0x35
 2199 029d 898201   		.uleb128 0x4109
 2200 02a0 01       		.byte	0x1
 2201 02a1 11       		.uleb128 0x11
 2202 02a2 01       		.uleb128 0x1
 2203 02a3 31       		.uleb128 0x31
 2204 02a4 13       		.uleb128 0x13
 2205 02a5 00       		.byte	0
 2206 02a6 00       		.byte	0
 2207 02a7 36       		.uleb128 0x36
 2208 02a8 2E       		.uleb128 0x2e
 2209 02a9 01       		.byte	0x1
 2210 02aa 3F       		.uleb128 0x3f
 2211 02ab 19       		.uleb128 0x19
 2212 02ac 03       		.uleb128 0x3
 2213 02ad 0E       		.uleb128 0xe
 2214 02ae 3A       		.uleb128 0x3a
 2215 02af 0B       		.uleb128 0xb
 2216 02b0 3B       		.uleb128 0x3b
 2217 02b1 0B       		.uleb128 0xb
 2218 02b2 27       		.uleb128 0x27
 2219 02b3 19       		.uleb128 0x19
 2220 02b4 11       		.uleb128 0x11
 2221 02b5 01       		.uleb128 0x1
ARM GAS  /tmp/cc9fIDpg.s 			page 40


 2222 02b6 12       		.uleb128 0x12
 2223 02b7 06       		.uleb128 0x6
 2224 02b8 40       		.uleb128 0x40
 2225 02b9 18       		.uleb128 0x18
 2226 02ba 9742     		.uleb128 0x2117
 2227 02bc 19       		.uleb128 0x19
 2228 02bd 01       		.uleb128 0x1
 2229 02be 13       		.uleb128 0x13
 2230 02bf 00       		.byte	0
 2231 02c0 00       		.byte	0
 2232 02c1 37       		.uleb128 0x37
 2233 02c2 1D       		.uleb128 0x1d
 2234 02c3 01       		.byte	0x1
 2235 02c4 31       		.uleb128 0x31
 2236 02c5 13       		.uleb128 0x13
 2237 02c6 11       		.uleb128 0x11
 2238 02c7 01       		.uleb128 0x1
 2239 02c8 12       		.uleb128 0x12
 2240 02c9 06       		.uleb128 0x6
 2241 02ca 58       		.uleb128 0x58
 2242 02cb 0B       		.uleb128 0xb
 2243 02cc 59       		.uleb128 0x59
 2244 02cd 0B       		.uleb128 0xb
 2245 02ce 00       		.byte	0
 2246 02cf 00       		.byte	0
 2247 02d0 38       		.uleb128 0x38
 2248 02d1 34       		.uleb128 0x34
 2249 02d2 00       		.byte	0
 2250 02d3 03       		.uleb128 0x3
 2251 02d4 0E       		.uleb128 0xe
 2252 02d5 3A       		.uleb128 0x3a
 2253 02d6 0B       		.uleb128 0xb
 2254 02d7 3B       		.uleb128 0x3b
 2255 02d8 05       		.uleb128 0x5
 2256 02d9 49       		.uleb128 0x49
 2257 02da 13       		.uleb128 0x13
 2258 02db 3F       		.uleb128 0x3f
 2259 02dc 19       		.uleb128 0x19
 2260 02dd 3C       		.uleb128 0x3c
 2261 02de 19       		.uleb128 0x19
 2262 02df 00       		.byte	0
 2263 02e0 00       		.byte	0
 2264 02e1 39       		.uleb128 0x39
 2265 02e2 34       		.uleb128 0x34
 2266 02e3 00       		.byte	0
 2267 02e4 03       		.uleb128 0x3
 2268 02e5 08       		.uleb128 0x8
 2269 02e6 3A       		.uleb128 0x3a
 2270 02e7 0B       		.uleb128 0xb
 2271 02e8 3B       		.uleb128 0x3b
 2272 02e9 05       		.uleb128 0x5
 2273 02ea 49       		.uleb128 0x49
 2274 02eb 13       		.uleb128 0x13
 2275 02ec 3F       		.uleb128 0x3f
 2276 02ed 19       		.uleb128 0x19
 2277 02ee 3C       		.uleb128 0x3c
 2278 02ef 19       		.uleb128 0x19
ARM GAS  /tmp/cc9fIDpg.s 			page 41


 2279 02f0 00       		.byte	0
 2280 02f1 00       		.byte	0
 2281 02f2 3A       		.uleb128 0x3a
 2282 02f3 2E       		.uleb128 0x2e
 2283 02f4 01       		.byte	0x1
 2284 02f5 3F       		.uleb128 0x3f
 2285 02f6 19       		.uleb128 0x19
 2286 02f7 03       		.uleb128 0x3
 2287 02f8 0E       		.uleb128 0xe
 2288 02f9 3A       		.uleb128 0x3a
 2289 02fa 0B       		.uleb128 0xb
 2290 02fb 3B       		.uleb128 0x3b
 2291 02fc 05       		.uleb128 0x5
 2292 02fd 27       		.uleb128 0x27
 2293 02fe 19       		.uleb128 0x19
 2294 02ff 3C       		.uleb128 0x3c
 2295 0300 19       		.uleb128 0x19
 2296 0301 01       		.uleb128 0x1
 2297 0302 13       		.uleb128 0x13
 2298 0303 00       		.byte	0
 2299 0304 00       		.byte	0
 2300 0305 3B       		.uleb128 0x3b
 2301 0306 2E       		.uleb128 0x2e
 2302 0307 01       		.byte	0x1
 2303 0308 3F       		.uleb128 0x3f
 2304 0309 19       		.uleb128 0x19
 2305 030a 03       		.uleb128 0x3
 2306 030b 0E       		.uleb128 0xe
 2307 030c 3A       		.uleb128 0x3a
 2308 030d 0B       		.uleb128 0xb
 2309 030e 3B       		.uleb128 0x3b
 2310 030f 05       		.uleb128 0x5
 2311 0310 27       		.uleb128 0x27
 2312 0311 19       		.uleb128 0x19
 2313 0312 49       		.uleb128 0x49
 2314 0313 13       		.uleb128 0x13
 2315 0314 3C       		.uleb128 0x3c
 2316 0315 19       		.uleb128 0x19
 2317 0316 01       		.uleb128 0x1
 2318 0317 13       		.uleb128 0x13
 2319 0318 00       		.byte	0
 2320 0319 00       		.byte	0
 2321 031a 3C       		.uleb128 0x3c
 2322 031b 2E       		.uleb128 0x2e
 2323 031c 01       		.byte	0x1
 2324 031d 3F       		.uleb128 0x3f
 2325 031e 19       		.uleb128 0x19
 2326 031f 03       		.uleb128 0x3
 2327 0320 0E       		.uleb128 0xe
 2328 0321 3A       		.uleb128 0x3a
 2329 0322 0B       		.uleb128 0xb
 2330 0323 3B       		.uleb128 0x3b
 2331 0324 05       		.uleb128 0x5
 2332 0325 27       		.uleb128 0x27
 2333 0326 19       		.uleb128 0x19
 2334 0327 3C       		.uleb128 0x3c
 2335 0328 19       		.uleb128 0x19
ARM GAS  /tmp/cc9fIDpg.s 			page 42


 2336 0329 00       		.byte	0
 2337 032a 00       		.byte	0
 2338 032b 00       		.byte	0
 2339              		.section	.debug_loc,"",%progbits
 2340              	.Ldebug_loc0:
 2341              	.LLST0:
 2342 0000 00000000 		.4byte	.LVL0
 2343 0004 24000000 		.4byte	.LVL3
 2344 0008 0100     		.2byte	0x1
 2345 000a 50       		.byte	0x50
 2346 000b 24000000 		.4byte	.LVL3
 2347 000f 34000000 		.4byte	.LVL6
 2348 0013 0300     		.2byte	0x3
 2349 0015 75       		.byte	0x75
 2350 0016 58       		.sleb128 -40
 2351 0017 9F       		.byte	0x9f
 2352 0018 34000000 		.4byte	.LVL6
 2353 001c 37000000 		.4byte	.LVL7-1
 2354 0020 0100     		.2byte	0x1
 2355 0022 50       		.byte	0x50
 2356 0023 37000000 		.4byte	.LVL7-1
 2357 0027 40000000 		.4byte	.LFE226
 2358 002b 0300     		.2byte	0x3
 2359 002d 75       		.byte	0x75
 2360 002e 58       		.sleb128 -40
 2361 002f 9F       		.byte	0x9f
 2362 0030 00000000 		.4byte	0
 2363 0034 00000000 		.4byte	0
 2364              	.LLST1:
 2365 0038 00000000 		.4byte	.LVL0
 2366 003c 24000000 		.4byte	.LVL3
 2367 0040 0100     		.2byte	0x1
 2368 0042 51       		.byte	0x51
 2369 0043 24000000 		.4byte	.LVL3
 2370 0047 2C000000 		.4byte	.LVL5
 2371 004b 0400     		.2byte	0x4
 2372 004d F3       		.byte	0xf3
 2373 004e 01       		.uleb128 0x1
 2374 004f 51       		.byte	0x51
 2375 0050 9F       		.byte	0x9f
 2376 0051 2C000000 		.4byte	.LVL5
 2377 0055 34000000 		.4byte	.LVL6
 2378 0059 0100     		.2byte	0x1
 2379 005b 50       		.byte	0x50
 2380 005c 34000000 		.4byte	.LVL6
 2381 0060 37000000 		.4byte	.LVL7-1
 2382 0064 0100     		.2byte	0x1
 2383 0066 51       		.byte	0x51
 2384 0067 37000000 		.4byte	.LVL7-1
 2385 006b 40000000 		.4byte	.LFE226
 2386 006f 0400     		.2byte	0x4
 2387 0071 F3       		.byte	0xf3
 2388 0072 01       		.uleb128 0x1
 2389 0073 51       		.byte	0x51
 2390 0074 9F       		.byte	0x9f
 2391 0075 00000000 		.4byte	0
 2392 0079 00000000 		.4byte	0
ARM GAS  /tmp/cc9fIDpg.s 			page 43


 2393              	.LLST2:
 2394 007d 2C000000 		.4byte	.LVL5
 2395 0081 34000000 		.4byte	.LVL6
 2396 0085 0200     		.2byte	0x2
 2397 0087 30       		.byte	0x30
 2398 0088 9F       		.byte	0x9f
 2399 0089 00000000 		.4byte	0
 2400 008d 00000000 		.4byte	0
 2401              	.LLST3:
 2402 0091 0C000000 		.4byte	.LVL9
 2403 0095 16000000 		.4byte	.LVL10
 2404 0099 0100     		.2byte	0x1
 2405 009b 52       		.byte	0x52
 2406 009c 28000000 		.4byte	.LVL13
 2407 00a0 2D000000 		.4byte	.LVL14-1
 2408 00a4 0100     		.2byte	0x1
 2409 00a6 52       		.byte	0x52
 2410 00a7 00000000 		.4byte	0
 2411 00ab 00000000 		.4byte	0
 2412              	.LLST4:
 2413 00af 16000000 		.4byte	.LVL10
 2414 00b3 20000000 		.4byte	.LVL11
 2415 00b7 0100     		.2byte	0x1
 2416 00b9 53       		.byte	0x53
 2417 00ba 20000000 		.4byte	.LVL11
 2418 00be 28000000 		.4byte	.LVL13
 2419 00c2 0200     		.2byte	0x2
 2420 00c4 71       		.byte	0x71
 2421 00c5 04       		.sleb128 4
 2422 00c6 00000000 		.4byte	0
 2423 00ca 00000000 		.4byte	0
 2424              	.LLST5:
 2425 00ce 16000000 		.4byte	.LVL10
 2426 00d2 28000000 		.4byte	.LVL13
 2427 00d6 0100     		.2byte	0x1
 2428 00d8 50       		.byte	0x50
 2429 00d9 00000000 		.4byte	0
 2430 00dd 00000000 		.4byte	0
 2431              	.LLST6:
 2432 00e1 22000000 		.4byte	.LVL12
 2433 00e5 28000000 		.4byte	.LVL13
 2434 00e9 0200     		.2byte	0x2
 2435 00eb 30       		.byte	0x30
 2436 00ec 9F       		.byte	0x9f
 2437 00ed 00000000 		.4byte	0
 2438 00f1 00000000 		.4byte	0
 2439              	.LLST7:
 2440 00f5 00000000 		.4byte	.LVL15
 2441 00f9 0B000000 		.4byte	.LVL17-1
 2442 00fd 0100     		.2byte	0x1
 2443 00ff 50       		.byte	0x50
 2444 0100 0B000000 		.4byte	.LVL17-1
 2445 0104 14000000 		.4byte	.LFE228
 2446 0108 0400     		.2byte	0x4
 2447 010a F3       		.byte	0xf3
 2448 010b 01       		.uleb128 0x1
 2449 010c 50       		.byte	0x50
ARM GAS  /tmp/cc9fIDpg.s 			page 44


 2450 010d 9F       		.byte	0x9f
 2451 010e 00000000 		.4byte	0
 2452 0112 00000000 		.4byte	0
 2453              	.LLST8:
 2454 0116 00000000 		.4byte	.LVL15
 2455 011a 0B000000 		.4byte	.LVL17-1
 2456 011e 0100     		.2byte	0x1
 2457 0120 51       		.byte	0x51
 2458 0121 0B000000 		.4byte	.LVL17-1
 2459 0125 14000000 		.4byte	.LFE228
 2460 0129 0400     		.2byte	0x4
 2461 012b F3       		.byte	0xf3
 2462 012c 01       		.uleb128 0x1
 2463 012d 51       		.byte	0x51
 2464 012e 9F       		.byte	0x9f
 2465 012f 00000000 		.4byte	0
 2466 0133 00000000 		.4byte	0
 2467              	.LLST9:
 2468 0137 08000000 		.4byte	.LVL16
 2469 013b 0B000000 		.4byte	.LVL17-1
 2470 013f 0100     		.2byte	0x1
 2471 0141 51       		.byte	0x51
 2472 0142 0B000000 		.4byte	.LVL17-1
 2473 0146 14000000 		.4byte	.LFE228
 2474 014a 0400     		.2byte	0x4
 2475 014c F3       		.byte	0xf3
 2476 014d 01       		.uleb128 0x1
 2477 014e 51       		.byte	0x51
 2478 014f 9F       		.byte	0x9f
 2479 0150 00000000 		.4byte	0
 2480 0154 00000000 		.4byte	0
 2481              	.LLST10:
 2482 0158 08000000 		.4byte	.LVL16
 2483 015c 0B000000 		.4byte	.LVL17-1
 2484 0160 0100     		.2byte	0x1
 2485 0162 50       		.byte	0x50
 2486 0163 0B000000 		.4byte	.LVL17-1
 2487 0167 14000000 		.4byte	.LFE228
 2488 016b 0400     		.2byte	0x4
 2489 016d F3       		.byte	0xf3
 2490 016e 01       		.uleb128 0x1
 2491 016f 50       		.byte	0x50
 2492 0170 9F       		.byte	0x9f
 2493 0171 00000000 		.4byte	0
 2494 0175 00000000 		.4byte	0
 2495              		.section	.debug_aranges,"",%progbits
 2496 0000 2C000000 		.4byte	0x2c
 2497 0004 0200     		.2byte	0x2
 2498 0006 00000000 		.4byte	.Ldebug_info0
 2499 000a 04       		.byte	0x4
 2500 000b 00       		.byte	0
 2501 000c 0000     		.2byte	0
 2502 000e 0000     		.2byte	0
 2503 0010 00000000 		.4byte	.LFB226
 2504 0014 40000000 		.4byte	.LFE226-.LFB226
 2505 0018 00000000 		.4byte	.LFB227
 2506 001c 3C000000 		.4byte	.LFE227-.LFB227
ARM GAS  /tmp/cc9fIDpg.s 			page 45


 2507 0020 00000000 		.4byte	.LFB228
 2508 0024 14000000 		.4byte	.LFE228-.LFB228
 2509 0028 00000000 		.4byte	0
 2510 002c 00000000 		.4byte	0
 2511              		.section	.debug_ranges,"",%progbits
 2512              	.Ldebug_ranges0:
 2513 0000 04000000 		.4byte	.LBB52
 2514 0004 06000000 		.4byte	.LBE52
 2515 0008 08000000 		.4byte	.LBB59
 2516 000c 0C000000 		.4byte	.LBE59
 2517 0010 00000000 		.4byte	0
 2518 0014 00000000 		.4byte	0
 2519 0018 14000000 		.4byte	.LBB60
 2520 001c 18000000 		.4byte	.LBE60
 2521 0020 1C000000 		.4byte	.LBB63
 2522 0024 22000000 		.4byte	.LBE63
 2523 0028 00000000 		.4byte	0
 2524 002c 00000000 		.4byte	0
 2525 0030 16000000 		.4byte	.LBB75
 2526 0034 1A000000 		.4byte	.LBE75
 2527 0038 1C000000 		.4byte	.LBB78
 2528 003c 1E000000 		.4byte	.LBE78
 2529 0040 00000000 		.4byte	0
 2530 0044 00000000 		.4byte	0
 2531 0048 1E000000 		.4byte	.LBB79
 2532 004c 20000000 		.4byte	.LBE79
 2533 0050 22000000 		.4byte	.LBB88
 2534 0054 26000000 		.4byte	.LBE88
 2535 0058 00000000 		.4byte	0
 2536 005c 00000000 		.4byte	0
 2537 0060 00000000 		.4byte	.LFB226
 2538 0064 40000000 		.4byte	.LFE226
 2539 0068 00000000 		.4byte	.LFB227
 2540 006c 3C000000 		.4byte	.LFE227
 2541 0070 00000000 		.4byte	.LFB228
 2542 0074 14000000 		.4byte	.LFE228
 2543 0078 00000000 		.4byte	0
 2544 007c 00000000 		.4byte	0
 2545              		.section	.debug_line,"",%progbits
 2546              	.Ldebug_line0:
 2547 0000 0F030000 		.section	.debug_str,"MS",%progbits,1
 2547      02004102 
 2547      00000201 
 2547      FB0E0D00 
 2547      01010101 
 2548              	.LASF48:
 2549 0000 72656164 		.ascii	"ready_list_t\000"
 2549      795F6C69 
 2549      73745F74 
 2549      00
 2550              	.LASF97:
 2551 000d 71756575 		.ascii	"queue_insert\000"
 2551      655F696E 
 2551      73657274 
 2551      00
 2552              	.LASF83:
 2553 001a 7264796D 		.ascii	"rdymsg\000"
ARM GAS  /tmp/cc9fIDpg.s 			page 46


 2553      736700
 2554              	.LASF16:
 2555 0021 75696E74 		.ascii	"uint64_t\000"
 2555      36345F74 
 2555      00
 2556              	.LASF5:
 2557 002a 5F5F7569 		.ascii	"__uint8_t\000"
 2557      6E74385F 
 2557      7400
 2558              	.LASF80:
 2559 0034 706F7274 		.ascii	"port_intctx\000"
 2559      5F696E74 
 2559      63747800 
 2560              	.LASF67:
 2561 0040 73797374 		.ascii	"system_debug_t\000"
 2561      656D5F64 
 2561      65627567 
 2561      5F7400
 2562              	.LASF93:
 2563 004f 706F7274 		.ascii	"port_lock\000"
 2563      5F6C6F63 
 2563      6B00
 2564              	.LASF12:
 2565 0059 6C6F6E67 		.ascii	"long long unsigned int\000"
 2565      206C6F6E 
 2565      6720756E 
 2565      7369676E 
 2565      65642069 
 2566              	.LASF84:
 2567 0070 65786974 		.ascii	"exitcode\000"
 2567      636F6465 
 2567      00
 2568              	.LASF74:
 2569 0079 6D61696E 		.ascii	"mainthread\000"
 2569      74687265 
 2569      616400
 2570              	.LASF64:
 2571 0084 76697274 		.ascii	"virtual_timers_list_t\000"
 2571      75616C5F 
 2571      74696D65 
 2571      72735F6C 
 2571      6973745F 
 2572              	.LASF107:
 2573 009a 49544D5F 		.ascii	"ITM_RxBuffer\000"
 2573      52784275 
 2573      66666572 
 2573      00
 2574              	.LASF47:
 2575 00a7 63685F74 		.ascii	"ch_threads_queue\000"
 2575      68726561 
 2575      64735F71 
 2575      75657565 
 2575      00
 2576              	.LASF28:
 2577 00b8 705F7072 		.ascii	"p_prio\000"
 2577      696F00
 2578              	.LASF10:
ARM GAS  /tmp/cc9fIDpg.s 			page 47


 2579 00bf 6C6F6E67 		.ascii	"long long int\000"
 2579      206C6F6E 
 2579      6720696E 
 2579      7400
 2580              	.LASF1:
 2581 00cd 7369676E 		.ascii	"signed char\000"
 2581      65642063 
 2581      68617200 
 2582              	.LASF42:
 2583 00d9 705F6D70 		.ascii	"p_mpool\000"
 2583      6F6F6C00 
 2584              	.LASF89:
 2585 00e1 6D5F7175 		.ascii	"m_queue\000"
 2585      65756500 
 2586              	.LASF73:
 2587 00e9 76746C69 		.ascii	"vtlist\000"
 2587      737400
 2588              	.LASF94:
 2589 00f0 706F7274 		.ascii	"port_unlock\000"
 2589      5F756E6C 
 2589      6F636B00 
 2590              	.LASF71:
 2591 00fc 63685F73 		.ascii	"ch_system\000"
 2591      79737465 
 2591      6D00
 2592              	.LASF7:
 2593 0106 6C6F6E67 		.ascii	"long int\000"
 2593      20696E74 
 2593      00
 2594              	.LASF105:
 2595 010f 63684D73 		.ascii	"chMsgSend\000"
 2595      6753656E 
 2595      6400
 2596              	.LASF19:
 2597 0119 74737461 		.ascii	"tstate_t\000"
 2597      74655F74 
 2597      00
 2598              	.LASF101:
 2599 0122 63684D73 		.ascii	"chMsgIsPendingI\000"
 2599      67497350 
 2599      656E6469 
 2599      6E674900 
 2600              	.LASF110:
 2601 0132 2F6E6673 		.ascii	"/nfs/nfs4/home/ruswang/p442-submissions/p442-submis"
 2601      2F6E6673 
 2601      342F686F 
 2601      6D652F72 
 2601      75737761 
 2602 0165 73696F6E 		.ascii	"sions/lab1\000"
 2602      732F6C61 
 2602      623100
 2603              	.LASF30:
 2604 0170 705F6E65 		.ascii	"p_newer\000"
 2604      77657200 
 2605              	.LASF53:
 2606 0178 725F6E65 		.ascii	"r_newer\000"
 2606      77657200 
ARM GAS  /tmp/cc9fIDpg.s 			page 48


 2607              	.LASF77:
 2608 0180 72656761 		.ascii	"regarm_t\000"
 2608      726D5F74 
 2608      00
 2609              	.LASF60:
 2610 0189 76745F70 		.ascii	"vt_prev\000"
 2610      72657600 
 2611              	.LASF92:
 2612 0191 6D757465 		.ascii	"mutex_t\000"
 2612      785F7400 
 2613              	.LASF98:
 2614 0199 76616C75 		.ascii	"value\000"
 2614      6500
 2615              	.LASF75:
 2616 019f 69646C65 		.ascii	"idle_thread_wa\000"
 2616      5F746872 
 2616      6561645F 
 2616      776100
 2617              	.LASF0:
 2618 01ae 756E7369 		.ascii	"unsigned int\000"
 2618      676E6564 
 2618      20696E74 
 2618      00
 2619              	.LASF59:
 2620 01bb 76745F6E 		.ascii	"vt_next\000"
 2620      65787400 
 2621              	.LASF61:
 2622 01c3 76745F64 		.ascii	"vt_delta\000"
 2622      656C7461 
 2622      00
 2623              	.LASF37:
 2624 01cc 705F6D73 		.ascii	"p_msgqueue\000"
 2624      67717565 
 2624      756500
 2625              	.LASF4:
 2626 01d7 73686F72 		.ascii	"short unsigned int\000"
 2626      7420756E 
 2626      7369676E 
 2626      65642069 
 2626      6E7400
 2627              	.LASF44:
 2628 01ea 63685F74 		.ascii	"ch_thread\000"
 2628      68726561 
 2628      6400
 2629              	.LASF114:
 2630 01f4 63685363 		.ascii	"chSchWakeupS\000"
 2630      6857616B 
 2630      65757053 
 2630      00
 2631              	.LASF22:
 2632 0201 6D73675F 		.ascii	"msg_t\000"
 2632      7400
 2633              	.LASF70:
 2634 0207 63685F73 		.ascii	"ch_system_t\000"
 2634      79737465 
 2634      6D5F7400 
 2635              	.LASF18:
ARM GAS  /tmp/cc9fIDpg.s 			page 49


 2636 0213 746D6F64 		.ascii	"tmode_t\000"
 2636      655F7400 
 2637              	.LASF49:
 2638 021b 63685F72 		.ascii	"ch_ready_list\000"
 2638      65616479 
 2638      5F6C6973 
 2638      7400
 2639              	.LASF23:
 2640 0229 6576656E 		.ascii	"eventmask_t\000"
 2640      746D6173 
 2640      6B5F7400 
 2641              	.LASF6:
 2642 0235 5F5F696E 		.ascii	"__int32_t\000"
 2642      7433325F 
 2642      7400
 2643              	.LASF78:
 2644 023f 73746B61 		.ascii	"stkalign_t\000"
 2644      6C69676E 
 2644      5F7400
 2645              	.LASF36:
 2646 024a 705F7761 		.ascii	"p_waiting\000"
 2646      6974696E 
 2646      6700
 2647              	.LASF76:
 2648 0254 73697A65 		.ascii	"sizetype\000"
 2648      74797065 
 2648      00
 2649              	.LASF65:
 2650 025d 63685F76 		.ascii	"ch_virtual_timers_list\000"
 2650      69727475 
 2650      616C5F74 
 2650      696D6572 
 2650      735F6C69 
 2651              	.LASF66:
 2652 0274 76745F6C 		.ascii	"vt_lasttime\000"
 2652      61737474 
 2652      696D6500 
 2653              	.LASF31:
 2654 0280 705F6F6C 		.ascii	"p_older\000"
 2654      64657200 
 2655              	.LASF52:
 2656 0288 725F6374 		.ascii	"r_ctx\000"
 2656      7800
 2657              	.LASF82:
 2658 028e 746D5F63 		.ascii	"tm_calibration_t\000"
 2658      616C6962 
 2658      72617469 
 2658      6F6E5F74 
 2658      00
 2659              	.LASF91:
 2660 029f 6D5F6E65 		.ascii	"m_next\000"
 2660      787400
 2661              	.LASF55:
 2662 02a6 725F6375 		.ascii	"r_current\000"
 2662      7272656E 
 2662      7400
 2663              	.LASF54:
ARM GAS  /tmp/cc9fIDpg.s 			page 50


 2664 02b0 725F6F6C 		.ascii	"r_older\000"
 2664      64657200 
 2665              	.LASF11:
 2666 02b8 5F5F7569 		.ascii	"__uint64_t\000"
 2666      6E743634 
 2666      5F7400
 2667              	.LASF20:
 2668 02c3 74726566 		.ascii	"trefs_t\000"
 2668      735F7400 
 2669              	.LASF57:
 2670 02cb 76697274 		.ascii	"virtual_timer_t\000"
 2670      75616C5F 
 2670      74696D65 
 2670      725F7400 
 2671              	.LASF27:
 2672 02db 705F7072 		.ascii	"p_prev\000"
 2672      657600
 2673              	.LASF21:
 2674 02e2 74707269 		.ascii	"tprio_t\000"
 2674      6F5F7400 
 2675              	.LASF88:
 2676 02ea 6D757465 		.ascii	"mutex\000"
 2676      7800
 2677              	.LASF68:
 2678 02f0 63685F73 		.ascii	"ch_system_debug\000"
 2678      79737465 
 2678      6D5F6465 
 2678      62756700 
 2679              	.LASF100:
 2680 0300 5F426F6F 		.ascii	"_Bool\000"
 2680      6C00
 2681              	.LASF14:
 2682 0306 696E7433 		.ascii	"int32_t\000"
 2682      325F7400 
 2683              	.LASF2:
 2684 030e 756E7369 		.ascii	"unsigned char\000"
 2684      676E6564 
 2684      20636861 
 2684      7200
 2685              	.LASF40:
 2686 031c 705F6D74 		.ascii	"p_mtxlist\000"
 2686      786C6973 
 2686      7400
 2687              	.LASF3:
 2688 0326 73686F72 		.ascii	"short int\000"
 2688      7420696E 
 2688      7400
 2689              	.LASF33:
 2690 0330 705F7374 		.ascii	"p_state\000"
 2690      61746500 
 2691              	.LASF51:
 2692 0338 725F7072 		.ascii	"r_prio\000"
 2692      696F00
 2693              	.LASF109:
 2694 033f 2E2E2F43 		.ascii	"../ChibiOS/os/rt/src/chmsg.c\000"
 2694      68696269 
 2694      4F532F6F 
ARM GAS  /tmp/cc9fIDpg.s 			page 51


 2694      732F7274 
 2694      2F737263 
 2695              	.LASF86:
 2696 035c 65776D61 		.ascii	"ewmask\000"
 2696      736B00
 2697              	.LASF26:
 2698 0363 705F6E65 		.ascii	"p_next\000"
 2698      787400
 2699              	.LASF34:
 2700 036a 705F666C 		.ascii	"p_flags\000"
 2700      61677300 
 2701              	.LASF103:
 2702 0372 5F5F6675 		.ascii	"__func__\000"
 2702      6E635F5F 
 2702      00
 2703              	.LASF95:
 2704 037b 63685379 		.ascii	"chSysLock\000"
 2704      734C6F63 
 2704      6B00
 2705              	.LASF58:
 2706 0385 63685F76 		.ascii	"ch_virtual_timer\000"
 2706      69727475 
 2706      616C5F74 
 2706      696D6572 
 2706      00
 2707              	.LASF111:
 2708 0396 63684D73 		.ascii	"chMsgRelease\000"
 2708      6752656C 
 2708      65617365 
 2708      00
 2709              	.LASF112:
 2710 03a3 63685363 		.ascii	"chSchGoSleepS\000"
 2710      68476F53 
 2710      6C656570 
 2710      5300
 2711              	.LASF39:
 2712 03b1 705F6570 		.ascii	"p_epending\000"
 2712      656E6469 
 2712      6E6700
 2713              	.LASF15:
 2714 03bc 75696E74 		.ascii	"uint32_t\000"
 2714      33325F74 
 2714      00
 2715              	.LASF50:
 2716 03c5 725F7175 		.ascii	"r_queue\000"
 2716      65756500 
 2717              	.LASF113:
 2718 03cd 63685363 		.ascii	"chSchReadyI\000"
 2718      68526561 
 2718      64794900 
 2719              	.LASF45:
 2720 03d9 63685F74 		.ascii	"ch_threads_list\000"
 2720      68726561 
 2720      64735F6C 
 2720      69737400 
 2721              	.LASF9:
 2722 03e9 6C6F6E67 		.ascii	"long unsigned int\000"
ARM GAS  /tmp/cc9fIDpg.s 			page 52


 2722      20756E73 
 2722      69676E65 
 2722      6420696E 
 2722      7400
 2723              	.LASF87:
 2724 03fb 63686172 		.ascii	"char\000"
 2724      00
 2725              	.LASF25:
 2726 0400 74687265 		.ascii	"thread_t\000"
 2726      61645F74 
 2726      00
 2727              	.LASF108:
 2728 0409 474E5520 		.ascii	"GNU C 4.8.4 20140526 (release) [ARM/embedded-4_8-br"
 2728      4320342E 
 2728      382E3420 
 2728      32303134 
 2728      30353236 
 2729 043c 616E6368 		.ascii	"anch revision 211358] -mcpu=cortex-m4 -mno-thumb-in"
 2729      20726576 
 2729      6973696F 
 2729      6E203231 
 2729      31333538 
 2730 046f 74657277 		.ascii	"terwork -mthumb -ggdb -O2 -fomit-frame-pointer -fal"
 2730      6F726B20 
 2730      2D6D7468 
 2730      756D6220 
 2730      2D676764 
 2731 04a2 69676E2D 		.ascii	"ign-functions=16 -ffunction-sections -fdata-section"
 2731      66756E63 
 2731      74696F6E 
 2731      733D3136 
 2731      202D6666 
 2732 04d5 73202D66 		.ascii	"s -fno-common\000"
 2732      6E6F2D63 
 2732      6F6D6D6F 
 2732      6E00
 2733              	.LASF102:
 2734 04e3 71756575 		.ascii	"queue_fifo_remove\000"
 2734      655F6669 
 2734      666F5F72 
 2734      656D6F76 
 2734      6500
 2735              	.LASF24:
 2736 04f5 73797374 		.ascii	"systime_t\000"
 2736      696D655F 
 2736      7400
 2737              	.LASF41:
 2738 04ff 705F7265 		.ascii	"p_realprio\000"
 2738      616C7072 
 2738      696F00
 2739              	.LASF56:
 2740 050a 76746675 		.ascii	"vtfunc_t\000"
 2740      6E635F74 
 2740      00
 2741              	.LASF8:
 2742 0513 5F5F7569 		.ascii	"__uint32_t\000"
 2742      6E743332 
ARM GAS  /tmp/cc9fIDpg.s 			page 53


 2742      5F7400
 2743              	.LASF96:
 2744 051e 5F5F7365 		.ascii	"__set_BASEPRI\000"
 2744      745F4241 
 2744      53455052 
 2744      4900
 2745              	.LASF69:
 2746 052c 70616E69 		.ascii	"panic_msg\000"
 2746      635F6D73 
 2746      6700
 2747              	.LASF81:
 2748 0536 6F666673 		.ascii	"offset\000"
 2748      657400
 2749              	.LASF79:
 2750 053d 636F6E74 		.ascii	"context\000"
 2750      65787400 
 2751              	.LASF17:
 2752 0545 7274636E 		.ascii	"rtcnt_t\000"
 2752      745F7400 
 2753              	.LASF63:
 2754 054d 76745F70 		.ascii	"vt_par\000"
 2754      617200
 2755              	.LASF106:
 2756 0554 63684D73 		.ascii	"chMsgWait\000"
 2756      67576169 
 2756      7400
 2757              	.LASF46:
 2758 055e 74687265 		.ascii	"threads_queue_t\000"
 2758      6164735F 
 2758      71756575 
 2758      655F7400 
 2759              	.LASF35:
 2760 056e 705F7265 		.ascii	"p_refs\000"
 2760      667300
 2761              	.LASF72:
 2762 0575 726C6973 		.ascii	"rlist\000"
 2762      7400
 2763              	.LASF13:
 2764 057b 75696E74 		.ascii	"uint8_t\000"
 2764      385F7400 
 2765              	.LASF85:
 2766 0583 77746F62 		.ascii	"wtobjp\000"
 2766      6A7000
 2767              	.LASF32:
 2768 058a 705F6E61 		.ascii	"p_name\000"
 2768      6D6500
 2769              	.LASF43:
 2770 0591 74687265 		.ascii	"threads_list_t\000"
 2770      6164735F 
 2770      6C697374 
 2770      5F7400
 2771              	.LASF99:
 2772 05a0 63685379 		.ascii	"chSysUnlock\000"
 2772      73556E6C 
 2772      6F636B00 
 2773              	.LASF38:
 2774 05ac 705F6D73 		.ascii	"p_msg\000"
ARM GAS  /tmp/cc9fIDpg.s 			page 54


 2774      6700
 2775              	.LASF104:
 2776 05b2 63684D73 		.ascii	"chMsgReleaseS\000"
 2776      6752656C 
 2776      65617365 
 2776      5300
 2777              	.LASF90:
 2778 05c0 6D5F6F77 		.ascii	"m_owner\000"
 2778      6E657200 
 2779              	.LASF29:
 2780 05c8 705F6374 		.ascii	"p_ctx\000"
 2780      7800
 2781              	.LASF62:
 2782 05ce 76745F66 		.ascii	"vt_func\000"
 2782      756E6300 
 2783              		.ident	"GCC: (GNU Tools for ARM Embedded Processors) 4.8.4 20140526 (release) [ARM/embedded-4_8-br
ARM GAS  /tmp/cc9fIDpg.s 			page 55


DEFINED SYMBOLS
                            *ABS*:00000000 chmsg.c
     /tmp/cc9fIDpg.s:19     .text.chMsgSend:00000000 $t
     /tmp/cc9fIDpg.s:25     .text.chMsgSend:00000000 chMsgSend
     /tmp/cc9fIDpg.s:135    .text.chMsgSend:0000003c $d
     /tmp/cc9fIDpg.s:140    .text.chMsgWait:00000000 $t
     /tmp/cc9fIDpg.s:146    .text.chMsgWait:00000000 chMsgWait
     /tmp/cc9fIDpg.s:249    .text.chMsgWait:00000038 $d
     /tmp/cc9fIDpg.s:254    .text.chMsgRelease:00000000 $t
     /tmp/cc9fIDpg.s:260    .text.chMsgRelease:00000000 chMsgRelease
                     .debug_frame:00000010 $d
     /tmp/cc9fIDpg.s:253    .text.chMsgWait:0000003c $t

UNDEFINED SYMBOLS
chSchGoSleepS
chSchReadyI
ch
chSchWakeupS
