ARM GAS  /tmp/cc9fIDpg.s 			page 1


   1              		.syntax unified
   2              		.cpu cortex-m4
   3              		.fpu softvfp
   4              		.eabi_attribute 20, 1
   5              		.eabi_attribute 21, 1
   6              		.eabi_attribute 23, 3
   7              		.eabi_attribute 24, 1
   8              		.eabi_attribute 25, 1
   9              		.eabi_attribute 26, 1
  10              		.eabi_attribute 30, 2
  11              		.eabi_attribute 34, 1
  12              		.eabi_attribute 18, 4
  13              		.thumb
  14              		.file	"chmsg.c"
  15              		.text
  16              	.Ltext0:
  17              		.cfi_sections	.debug_frame
  18              		.section	.text.chMsgSend,"ax",%progbits
  19              		.align	2
  20              		.p2align 4,,15
  21              		.global	chMsgSend
  22              		.thumb
  23              		.thumb_func
  24              		.type	chMsgSend, %function
  25              	chMsgSend:
  26              	.LFB226:
  27              		.file 1 "../ChibiOS/os/rt/src/chmsg.c"
  28              		.loc 1 87 0
  29              		.cfi_startproc
  30              		@ args = 0, pretend = 0, frame = 0
  31              		@ frame_needed = 0, uses_anonymous_args = 0
  32              	.LVL0:
  33              		.loc 1 88 0
  34 0000 0E4B     		ldr	r3, .L5
  35              		.loc 1 87 0
  36 0002 70B5     		push	{r4, r5, r6, lr}
  37              		.cfi_def_cfa_offset 16
  38              		.cfi_offset 4, -16
  39              		.cfi_offset 5, -12
  40              		.cfi_offset 6, -8
  41              		.cfi_offset 14, -4
  42              	.LBB52:
  43              	.LBB53:
  44              	.LBB54:
  45              	.LBB55:
  46              		.file 2 "../ChibiOS/os/ext/CMSIS/include/core_cmFunc.h"
  47              		.loc 2 546 0
  48 0004 2022     		movs	r2, #32
  49              	.LBE55:
  50              	.LBE54:
  51              	.LBE53:
  52              	.LBE52:
  53              		.loc 1 88 0
  54 0006 9C69     		ldr	r4, [r3, #24]
  55              	.LVL1:
  56              	.LBB59:
  57              	.LBB58:
ARM GAS  /tmp/cc9fIDpg.s 			page 2


  58              	.LBB57:
  59              	.LBB56:
  60              		.loc 2 546 0
  61              	@ 546 "../ChibiOS/os/ext/CMSIS/include/core_cmFunc.h" 1
  62 0008 82F31188 		MSR basepri, r2
  63              	@ 0 "" 2
  64              		.thumb
  65              	.LBE56:
  66              	.LBE57:
  67              	.LBE58:
  68              	.LBE59:
  69              		.loc 1 94 0
  70 000c 00F12805 		add	r5, r0, #40
  71              		.loc 1 96 0
  72 0010 067F     		ldrb	r6, [r0, #28]	@ zero_extendqisi2
  73              		.loc 1 94 0
  74 0012 2562     		str	r5, [r4, #32]
  75              	.LVL2:
  76              	.LBB60:
  77              	.LBB61:
  78              		.file 3 "../ChibiOS/os/rt/include/chschd.h"
  79              		.loc 3 633 0
  80 0014 C26A     		ldr	r2, [r0, #44]
  81 0016 6260     		str	r2, [r4, #4]
  82              	.LBE61:
  83              	.LBE60:
  84              		.loc 1 96 0
  85 0018 0E2E     		cmp	r6, #14
  86              		.loc 1 93 0
  87 001a 2163     		str	r1, [r4, #48]
  88              	.LBB63:
  89              	.LBB62:
  90              		.loc 3 632 0
  91 001c 2560     		str	r5, [r4]
  92              		.loc 3 634 0
  93 001e C462     		str	r4, [r0, #44]
  94 0020 1460     		str	r4, [r2]
  95              	.LBE62:
  96              	.LBE63:
  97              		.loc 1 96 0
  98 0022 07D0     		beq	.L4
  99              	.LVL3:
 100              	.L2:
 101              		.loc 1 98 0
 102 0024 0C20     		movs	r0, #12
 103 0026 FFF7FEFF 		bl	chSchGoSleepS
 104              	.LVL4:
 105              		.loc 1 99 0
 106 002a 206A     		ldr	r0, [r4, #32]
 107              	.LVL5:
 108              	.LBB64:
 109              	.LBB65:
 110              	.LBB66:
 111              	.LBB67:
 112              	.LBB68:
 113              		.loc 2 546 0
 114 002c 0023     		movs	r3, #0
ARM GAS  /tmp/cc9fIDpg.s 			page 3


 115              	@ 546 "../ChibiOS/os/ext/CMSIS/include/core_cmFunc.h" 1
 116 002e 83F31188 		MSR basepri, r3
 117              	@ 0 "" 2
 118              		.thumb
 119              	.LBE68:
 120              	.LBE67:
 121              	.LBE66:
 122              	.LBE65:
 123              	.LBE64:
 124              		.loc 1 102 0
 125 0032 70BD     		pop	{r4, r5, r6, pc}
 126              	.LVL6:
 127              	.L4:
 128              		.loc 1 97 0
 129 0034 FFF7FEFF 		bl	chSchReadyI
 130              	.LVL7:
 131 0038 F4E7     		b	.L2
 132              	.L6:
 133 003a 00BF     		.align	2
 134              	.L5:
 135 003c 00000000 		.word	ch
 136              		.cfi_endproc
 137              	.LFE226:
 138              		.size	chMsgSend, .-chMsgSend
 139              		.section	.text.chMsgWait,"ax",%progbits
 140              		.align	2
 141              		.p2align 4,,15
 142              		.global	chMsgWait
 143              		.thumb
 144              		.thumb_func
 145              		.type	chMsgWait, %function
 146              	chMsgWait:
 147              	.LFB227:
 148              		.loc 1 118 0
 149              		.cfi_startproc
 150              		@ args = 0, pretend = 0, frame = 0
 151              		@ frame_needed = 0, uses_anonymous_args = 0
 152              	.LVL8:
 153 0000 10B5     		push	{r4, lr}
 154              		.cfi_def_cfa_offset 8
 155              		.cfi_offset 4, -8
 156              		.cfi_offset 14, -4
 157              	.LBB69:
 158              	.LBB70:
 159              	.LBB71:
 160              	.LBB72:
 161              		.loc 2 546 0
 162 0002 2023     		movs	r3, #32
 163              	@ 546 "../ChibiOS/os/ext/CMSIS/include/core_cmFunc.h" 1
 164 0004 83F31188 		MSR basepri, r3
 165              	@ 0 "" 2
 166              		.thumb
 167              	.LBE72:
 168              	.LBE71:
 169              	.LBE70:
 170              	.LBE69:
 171              		.loc 1 122 0
ARM GAS  /tmp/cc9fIDpg.s 			page 4


 172 0008 0B4C     		ldr	r4, .L10
 173 000a A269     		ldr	r2, [r4, #24]
 174              	.LVL9:
 175              	.LBB73:
 176              	.LBB74:
 177              		.file 4 "../ChibiOS/os/rt/include/chmsg.h"
 178              		.loc 4 83 0
 179 000c 1346     		mov	r3, r2
 180 000e 53F8280F 		ldr	r0, [r3, #40]!
 181              	.LBE74:
 182              	.LBE73:
 183              		.loc 1 122 0
 184 0012 9842     		cmp	r0, r3
 185 0014 08D0     		beq	.L9
 186              	.LVL10:
 187              	.L8:
 188              	.LBB75:
 189              	.LBB76:
 190              		.loc 3 640 0
 191 0016 0168     		ldr	r1, [r0]
 192 0018 9162     		str	r1, [r2, #40]
 193              	.LBE76:
 194              	.LBE75:
 195              		.loc 1 125 0
 196 001a 0D22     		movs	r2, #13
 197              	.LBB78:
 198              	.LBB77:
 199              		.loc 3 640 0
 200 001c 4B60     		str	r3, [r1, #4]
 201              	.LBE77:
 202              	.LBE78:
 203              	.LBB79:
 204              	.LBB80:
 205              	.LBB81:
 206              	.LBB82:
 207              	.LBB83:
 208              		.loc 2 546 0
 209 001e 0023     		movs	r3, #0
 210              	.LVL11:
 211              	.LBE83:
 212              	.LBE82:
 213              	.LBE81:
 214              	.LBE80:
 215              	.LBE79:
 216              		.loc 1 125 0
 217 0020 0277     		strb	r2, [r0, #28]
 218              	.LVL12:
 219              	.LBB88:
 220              	.LBB87:
 221              	.LBB86:
 222              	.LBB85:
 223              	.LBB84:
 224              		.loc 2 546 0
 225              	@ 546 "../ChibiOS/os/ext/CMSIS/include/core_cmFunc.h" 1
 226 0022 83F31188 		MSR basepri, r3
 227              	@ 0 "" 2
 228              		.thumb
ARM GAS  /tmp/cc9fIDpg.s 			page 5


 229              	.LBE84:
 230              	.LBE85:
 231              	.LBE86:
 232              	.LBE87:
 233              	.LBE88:
 234              		.loc 1 128 0
 235 0026 10BD     		pop	{r4, pc}
 236              	.LVL13:
 237              	.L9:
 238              		.loc 1 123 0
 239 0028 0E20     		movs	r0, #14
 240 002a FFF7FEFF 		bl	chSchGoSleepS
 241              	.LVL14:
 242 002e A269     		ldr	r2, [r4, #24]
 243 0030 906A     		ldr	r0, [r2, #40]
 244 0032 02F12803 		add	r3, r2, #40
 245 0036 EEE7     		b	.L8
 246              	.L11:
 247              		.align	2
 248              	.L10:
 249 0038 00000000 		.word	ch
 250              		.cfi_endproc
 251              	.LFE227:
 252              		.size	chMsgWait, .-chMsgWait
 253 003c AFF30080 		.section	.text.chMsgRelease,"ax",%progbits
 254              		.align	2
 255              		.p2align 4,,15
 256              		.global	chMsgRelease
 257              		.thumb
 258              		.thumb_func
 259              		.type	chMsgRelease, %function
 260              	chMsgRelease:
 261              	.LFB228:
 262              		.loc 1 140 0
 263              		.cfi_startproc
 264              		@ args = 0, pretend = 0, frame = 0
 265              		@ frame_needed = 0, uses_anonymous_args = 0
 266              	.LVL15:
 267 0000 08B5     		push	{r3, lr}
 268              		.cfi_def_cfa_offset 8
 269              		.cfi_offset 3, -8
 270              		.cfi_offset 14, -4
 271              	.LBB89:
 272              	.LBB90:
 273              	.LBB91:
 274              	.LBB92:
 275              		.loc 2 546 0
 276 0002 2023     		movs	r3, #32
 277              	@ 546 "../ChibiOS/os/ext/CMSIS/include/core_cmFunc.h" 1
 278 0004 83F31188 		MSR basepri, r3
 279              	@ 0 "" 2
 280              	.LVL16:
 281              		.thumb
 282              	.LBE92:
 283              	.LBE91:
 284              	.LBE90:
 285              	.LBE89:
ARM GAS  /tmp/cc9fIDpg.s 			page 6


 286              	.LBB93:
 287              	.LBB94:
 288              		.loc 4 115 0
 289 0008 FFF7FEFF 		bl	chSchWakeupS
 290              	.LVL17:
 291              	.LBE94:
 292              	.LBE93:
 293              	.LBB95:
 294              	.LBB96:
 295              	.LBB97:
 296              	.LBB98:
 297              	.LBB99:
 298              		.loc 2 546 0
 299 000c 0023     		movs	r3, #0
 300              	@ 546 "../ChibiOS/os/ext/CMSIS/include/core_cmFunc.h" 1
 301 000e 83F31188 		MSR basepri, r3
 302              	@ 0 "" 2
 303              		.thumb
 304 0012 08BD     		pop	{r3, pc}
 305              	.LBE99:
 306              	.LBE98:
 307              	.LBE97:
 308              	.LBE96:
 309              	.LBE95:
 310              		.cfi_endproc
 311              	.LFE228:
 312              		.size	chMsgRelease, .-chMsgRelease
 313 0014 AFF30080 		.text
 313      AFF30080 
 313      AFF30080 
 314              	.Letext0:
 315              		.file 5 "/nfs/nfs5/home/research/hardware/arm2/gcc-arm-embedded/gcc-arm-none-eabi-4_8-2014q2/arm-n
 316              		.file 6 "/nfs/nfs5/home/research/hardware/arm2/gcc-arm-embedded/gcc-arm-none-eabi-4_8-2014q2/arm-n
 317              		.file 7 "../ChibiOS/os/rt/ports/ARMCMx/compilers/GCC/chtypes.h"
 318              		.file 8 "../ChibiOS/os/rt/include/chsystypes.h"
 319              		.file 9 "../ChibiOS/os/rt/ports/ARMCMx/chcore.h"
 320              		.file 10 "../ChibiOS/os/rt/ports/ARMCMx/chcore_v7m.h"
 321              		.file 11 "../ChibiOS/os/rt/include/chtm.h"
 322              		.file 12 "../ChibiOS/os/rt/include/chmtx.h"
 323              		.file 13 "../ChibiOS/os/rt/include/chsys.h"
 324              		.file 14 "../ChibiOS/os/ext/CMSIS/include/core_cm4.h"