ARM GAS  /tmp/ccgDH5PG.s 			page 1


   1              		.syntax unified
   2              		.cpu cortex-m4
   3              		.fpu softvfp
   4              		.eabi_attribute 20, 1
   5              		.eabi_attribute 21, 1
   6              		.eabi_attribute 23, 3
   7              		.eabi_attribute 24, 1
   8              		.eabi_attribute 25, 1
   9              		.eabi_attribute 26, 1
  10              		.eabi_attribute 30, 2
  11              		.eabi_attribute 34, 1
  12              		.eabi_attribute 18, 4
  13              		.thumb
  14              		.file	"chmtx.c"
  15              		.text
  16              	.Ltext0:
  17              		.cfi_sections	.debug_frame
  18              		.section	.text.chMtxObjectInit,"ax",%progbits
  19              		.align	2
  20              		.p2align 4,,15
  21              		.global	chMtxObjectInit
  22              		.thumb
  23              		.thumb_func
  24              		.type	chMtxObjectInit, %function
  25              	chMtxObjectInit:
  26              	.LFB226:
  27              		.file 1 "../ChibiOS/os/rt/src/chmtx.c"
  28              		.loc 1 103 0
  29              		.cfi_startproc
  30              		@ args = 0, pretend = 0, frame = 0
  31              		@ frame_needed = 0, uses_anonymous_args = 0
  32              		@ link register save eliminated.
  33              	.LVL0:
  34              		.loc 1 108 0
  35 0000 0023     		movs	r3, #0
  36              	.LBB103:
  37              	.LBB104:
  38              		.file 2 "../ChibiOS/os/rt/include/chschd.h"
  39              		.loc 2 574 0
  40 0002 4060     		str	r0, [r0, #4]
  41 0004 0060     		str	r0, [r0]
  42              	.LBE104:
  43              	.LBE103:
  44              		.loc 1 108 0
  45 0006 8360     		str	r3, [r0, #8]
  46 0008 7047     		bx	lr
  47              		.cfi_endproc
  48              	.LFE226:
  49              		.size	chMtxObjectInit, .-chMtxObjectInit
  50 000a 00BFAFF3 		.section	.text.chMtxLockS,"ax",%progbits
  50      0080
  51              		.align	2
  52              		.p2align 4,,15
  53              		.global	chMtxLockS
  54              		.thumb
  55              		.thumb_func
  56              		.type	chMtxLockS, %function
ARM GAS  /tmp/ccgDH5PG.s 			page 2


  57              	chMtxLockS:
  58              	.LFB228:
  59              		.loc 1 141 0
  60              		.cfi_startproc
  61              		@ args = 0, pretend = 0, frame = 0
  62              		@ frame_needed = 0, uses_anonymous_args = 0
  63              	.LVL1:
  64 0000 70B5     		push	{r4, r5, r6, lr}
  65              		.cfi_def_cfa_offset 16
  66              		.cfi_offset 4, -16
  67              		.cfi_offset 5, -12
  68              		.cfi_offset 6, -8
  69              		.cfi_offset 14, -4
  70              		.loc 1 142 0
  71 0002 2F4B     		ldr	r3, .L23
  72              		.loc 1 141 0
  73 0004 0546     		mov	r5, r0
  74              		.loc 1 148 0
  75 0006 8068     		ldr	r0, [r0, #8]
  76              	.LVL2:
  77              		.loc 1 142 0
  78 0008 9C69     		ldr	r4, [r3, #24]
  79              	.LVL3:
  80              		.loc 1 148 0
  81 000a 0028     		cmp	r0, #0
  82 000c 53D0     		beq	.L3
  83              	.LVL4:
  84              	.LBB105:
  85              		.loc 1 166 0 discriminator 1
  86 000e A268     		ldr	r2, [r4, #8]
  87 0010 8368     		ldr	r3, [r0, #8]
  88 0012 9A42     		cmp	r2, r3
  89 0014 06D9     		bls	.L5
  90              	.L14:
  91              		.loc 1 171 0
  92 0016 037F     		ldrb	r3, [r0, #28]	@ zero_extendqisi2
  93              		.loc 1 168 0
  94 0018 8260     		str	r2, [r0, #8]
  95              		.loc 1 171 0
  96 001a 062B     		cmp	r3, #6
  97 001c 32D0     		beq	.L6
  98 001e 072B     		cmp	r3, #7
  99 0020 1CD0     		beq	.L7
 100 0022 9BB1     		cbz	r3, .L22
 101              	.LVL5:
 102              	.L5:
 103              	.LBB106:
 104              	.LBB107:
 105              		.loc 2 621 0
 106 0024 2B46     		mov	r3, r5
 107 0026 03E0     		b	.L20
 108              	.LVL6:
 109              	.L18:
 110              		.loc 2 624 0
 111 0028 9968     		ldr	r1, [r3, #8]
 112 002a A268     		ldr	r2, [r4, #8]
 113 002c 9142     		cmp	r1, r2
ARM GAS  /tmp/ccgDH5PG.s 			page 3


 114 002e 02D3     		bcc	.L19
 115              	.L20:
 116              		.loc 2 623 0
 117 0030 1B68     		ldr	r3, [r3]
 118              	.LVL7:
 119              		.loc 2 624 0
 120 0032 9D42     		cmp	r5, r3
 121 0034 F8D1     		bne	.L18
 122              	.L19:
 123              		.loc 2 626 0
 124 0036 5A68     		ldr	r2, [r3, #4]
 125 0038 6260     		str	r2, [r4, #4]
 126              		.loc 2 625 0
 127 003a 2360     		str	r3, [r4]
 128              		.loc 2 627 0
 129 003c 5C60     		str	r4, [r3, #4]
 130 003e 1460     		str	r4, [r2]
 131              	.LBE107:
 132              	.LBE106:
 133              		.loc 1 209 0
 134 0040 2562     		str	r5, [r4, #32]
 135              		.loc 1 210 0
 136 0042 0620     		movs	r0, #6
 137              	.LBE105:
 138              		.loc 1 232 0
 139 0044 BDE87040 		pop	{r4, r5, r6, lr}
 140              	.LVL8:
 141              	.LBB122:
 142              		.loc 1 210 0
 143 0048 FFF7FEBF 		b	chSchGoSleepS
 144              	.LVL9:
 145              	.L22:
 146              	.LBB108:
 147              	.LBB109:
 148              		.loc 2 653 0
 149 004c 90E80C00 		ldmia	r0, {r2, r3}
 150 0050 1A60     		str	r2, [r3]
 151              		.loc 2 654 0
 152 0052 0268     		ldr	r2, [r0]
 153 0054 5360     		str	r3, [r2, #4]
 154              	.LBE109:
 155              	.LBE108:
 156              		.loc 1 201 0
 157 0056 FFF7FEFF 		bl	chSchReadyI
 158              	.LVL10:
 159              		.loc 1 202 0
 160 005a E3E7     		b	.L5
 161              	.LVL11:
 162              	.L7:
 163              	.LBB110:
 164              	.LBB111:
 165              		.loc 2 653 0
 166 005c 90E80A00 		ldmia	r0, {r1, r3}
 167 0060 1960     		str	r1, [r3]
 168              	.LBE111:
 169              	.LBE110:
 170              		.loc 1 192 0
ARM GAS  /tmp/ccgDH5PG.s 			page 4


 171 0062 066A     		ldr	r6, [r0, #32]
 172              	.LVL12:
 173              	.LBB113:
 174              	.LBB112:
 175              		.loc 2 654 0
 176 0064 0168     		ldr	r1, [r0]
 177 0066 4B60     		str	r3, [r1, #4]
 178              	.LBE112:
 179              	.LBE113:
 180              	.LBB114:
 181              	.LBB115:
 182              		.loc 2 621 0
 183 0068 3346     		mov	r3, r6
 184 006a 02E0     		b	.L17
 185              	.LVL13:
 186              	.L15:
 187              		.loc 2 624 0
 188 006c 9968     		ldr	r1, [r3, #8]
 189 006e 8A42     		cmp	r2, r1
 190 0070 02D8     		bhi	.L16
 191              	.L17:
 192              		.loc 2 623 0
 193 0072 1B68     		ldr	r3, [r3]
 194              	.LVL14:
 195              		.loc 2 624 0
 196 0074 9E42     		cmp	r6, r3
 197 0076 F9D1     		bne	.L15
 198              	.L16:
 199              		.loc 2 626 0
 200 0078 5A68     		ldr	r2, [r3, #4]
 201 007a 4260     		str	r2, [r0, #4]
 202              		.loc 2 625 0
 203 007c 0360     		str	r3, [r0]
 204              		.loc 2 627 0
 205 007e 5860     		str	r0, [r3, #4]
 206 0080 1060     		str	r0, [r2]
 207 0082 CFE7     		b	.L5
 208              	.LVL15:
 209              	.L6:
 210              	.LBE115:
 211              	.LBE114:
 212              	.LBB116:
 213              	.LBB117:
 214              		.loc 2 653 0
 215 0084 90E80A00 		ldmia	r0, {r1, r3}
 216 0088 1960     		str	r1, [r3]
 217              	.LBE117:
 218              	.LBE116:
 219              		.loc 1 175 0
 220 008a 066A     		ldr	r6, [r0, #32]
 221              	.LVL16:
 222              	.LBB119:
 223              	.LBB118:
 224              		.loc 2 654 0
 225 008c 0168     		ldr	r1, [r0]
 226 008e 4B60     		str	r3, [r1, #4]
 227              	.LBE118:
ARM GAS  /tmp/ccgDH5PG.s 			page 5


 228              	.LBE119:
 229              		.loc 1 175 0
 230 0090 3346     		mov	r3, r6
 231 0092 02E0     		b	.L13
 232              	.LVL17:
 233              	.L9:
 234              	.LBB120:
 235              	.LBB121:
 236              		.loc 2 624 0
 237 0094 9968     		ldr	r1, [r3, #8]
 238 0096 9142     		cmp	r1, r2
 239 0098 02D3     		bcc	.L12
 240              	.L13:
 241              		.loc 2 623 0
 242 009a 1B68     		ldr	r3, [r3]
 243              	.LVL18:
 244              		.loc 2 624 0
 245 009c 9E42     		cmp	r6, r3
 246 009e F9D1     		bne	.L9
 247              	.L12:
 248              		.loc 2 626 0
 249 00a0 5A68     		ldr	r2, [r3, #4]
 250 00a2 4260     		str	r2, [r0, #4]
 251              		.loc 2 625 0
 252 00a4 0360     		str	r3, [r0]
 253              		.loc 2 627 0
 254 00a6 5860     		str	r0, [r3, #4]
 255 00a8 1060     		str	r0, [r2]
 256              	.LBE121:
 257              	.LBE120:
 258              		.loc 1 176 0
 259 00aa B068     		ldr	r0, [r6, #8]
 260              	.LVL19:
 261              		.loc 1 166 0
 262 00ac A268     		ldr	r2, [r4, #8]
 263 00ae 8368     		ldr	r3, [r0, #8]
 264              	.LVL20:
 265 00b0 9342     		cmp	r3, r2
 266 00b2 B0D3     		bcc	.L14
 267 00b4 B6E7     		b	.L5
 268              	.LVL21:
 269              	.L3:
 270              	.LBE122:
 271              		.loc 1 229 0
 272 00b6 A36B     		ldr	r3, [r4, #56]
 273 00b8 EB60     		str	r3, [r5, #12]
 274              		.loc 1 228 0
 275 00ba AC60     		str	r4, [r5, #8]
 276              		.loc 1 230 0
 277 00bc A563     		str	r5, [r4, #56]
 278 00be 70BD     		pop	{r4, r5, r6, pc}
 279              	.LVL22:
 280              	.L24:
 281              		.align	2
 282              	.L23:
 283 00c0 00000000 		.word	ch
 284              		.cfi_endproc
ARM GAS  /tmp/ccgDH5PG.s 			page 6


 285              	.LFE228:
 286              		.size	chMtxLockS, .-chMtxLockS
 287 00c4 AFF30080 		.section	.text.chMtxLock,"ax",%progbits
 287      AFF30080 
 287      AFF30080 
 288              		.align	2
 289              		.p2align 4,,15
 290              		.global	chMtxLock
 291              		.thumb
 292              		.thumb_func
 293              		.type	chMtxLock, %function
 294              	chMtxLock:
 295              	.LFB227:
 296              		.loc 1 123 0
 297              		.cfi_startproc
 298              		@ args = 0, pretend = 0, frame = 0
 299              		@ frame_needed = 0, uses_anonymous_args = 0
 300              	.LVL23:
 301 0000 08B5     		push	{r3, lr}
 302              		.cfi_def_cfa_offset 8
 303              		.cfi_offset 3, -8
 304              		.cfi_offset 14, -4
 305              	.LBB123:
 306              	.LBB124:
 307              	.LBB125:
 308              	.LBB126:
 309              		.file 3 "../ChibiOS/os/ext/CMSIS/include/core_cmFunc.h"
 310              		.loc 3 546 0
 311 0002 2023     		movs	r3, #32
 312              	@ 546 "../ChibiOS/os/ext/CMSIS/include/core_cmFunc.h" 1
 313 0004 83F31188 		MSR basepri, r3
 314              	@ 0 "" 2
 315              		.thumb
 316              	.LBE126:
 317              	.LBE125:
 318              	.LBE124:
 319              	.LBE123:
 320              		.loc 1 127 0
 321 0008 FFF7FEFF 		bl	chMtxLockS
 322              	.LVL24:
 323              	.LBB127:
 324              	.LBB128:
 325              	.LBB129:
 326              	.LBB130:
 327              	.LBB131:
 328              		.loc 3 546 0
 329 000c 0023     		movs	r3, #0
 330              	@ 546 "../ChibiOS/os/ext/CMSIS/include/core_cmFunc.h" 1
 331 000e 83F31188 		MSR basepri, r3
 332              	@ 0 "" 2
 333              		.thumb
 334 0012 08BD     		pop	{r3, pc}
 335              	.LBE131:
 336              	.LBE130:
 337              	.LBE129:
 338              	.LBE128:
 339              	.LBE127:
ARM GAS  /tmp/ccgDH5PG.s 			page 7


 340              		.cfi_endproc
 341              	.LFE227:
 342              		.size	chMtxLock, .-chMtxLock
 343 0014 AFF30080 		.section	.text.chMtxTryLock,"ax",%progbits
 343      AFF30080 
 343      AFF30080 
 344              		.align	2
 345              		.p2align 4,,15
 346              		.global	chMtxTryLock
 347              		.thumb
 348              		.thumb_func
 349              		.type	chMtxTryLock, %function
 350              	chMtxTryLock:
 351              	.LFB229:
 352              		.loc 1 251 0
 353              		.cfi_startproc
 354              		@ args = 0, pretend = 0, frame = 0
 355              		@ frame_needed = 0, uses_anonymous_args = 0
 356              		@ link register save eliminated.
 357              	.LVL25:
 358              		.loc 1 251 0
 359 0000 0346     		mov	r3, r0
 360              	.LBB132:
 361              	.LBB133:
 362              	.LBB134:
 363              	.LBB135:
 364              		.loc 3 546 0
 365 0002 2022     		movs	r2, #32
 366              	@ 546 "../ChibiOS/os/ext/CMSIS/include/core_cmFunc.h" 1
 367 0004 82F31188 		MSR basepri, r2
 368              	@ 0 "" 2
 369              	.LVL26:
 370              		.thumb
 371              	.LBE135:
 372              	.LBE134:
 373              	.LBE133:
 374              	.LBE132:
 375              	.LBB136:
 376              	.LBB137:
 377              		.loc 1 284 0
 378 0008 8268     		ldr	r2, [r0, #8]
 379 000a 22B1     		cbz	r2, .L29
 380              		.loc 1 294 0
 381 000c 0020     		movs	r0, #0
 382              	.LVL27:
 383              	.LBE137:
 384              	.LBE136:
 385              	.LBB139:
 386              	.LBB140:
 387              	.LBB141:
 388              	.LBB142:
 389              	.LBB143:
 390              		.loc 3 546 0
 391 000e 0023     		movs	r3, #0
 392              	.LVL28:
 393              	@ 546 "../ChibiOS/os/ext/CMSIS/include/core_cmFunc.h" 1
 394 0010 83F31188 		MSR basepri, r3
ARM GAS  /tmp/ccgDH5PG.s 			page 8


 395              	@ 0 "" 2
 396              		.thumb
 397              	.LBE143:
 398              	.LBE142:
 399              	.LBE141:
 400              	.LBE140:
 401              	.LBE139:
 402              		.loc 1 260 0
 403 0014 7047     		bx	lr
 404              	.LVL29:
 405              	.L29:
 406              	.LBB148:
 407              	.LBB138:
 408              		.loc 1 302 0
 409 0016 054A     		ldr	r2, .L30
 410 0018 9269     		ldr	r2, [r2, #24]
 411 001a 8260     		str	r2, [r0, #8]
 412              		.loc 1 303 0
 413 001c 916B     		ldr	r1, [r2, #56]
 414 001e C160     		str	r1, [r0, #12]
 415              		.loc 1 304 0
 416 0020 9363     		str	r3, [r2, #56]
 417              	.LVL30:
 418              		.loc 1 305 0
 419 0022 0120     		movs	r0, #1
 420              	.LVL31:
 421              	.LBE138:
 422              	.LBE148:
 423              	.LBB149:
 424              	.LBB147:
 425              	.LBB146:
 426              	.LBB145:
 427              	.LBB144:
 428              		.loc 3 546 0
 429 0024 0023     		movs	r3, #0
 430              	.LVL32:
 431              	@ 546 "../ChibiOS/os/ext/CMSIS/include/core_cmFunc.h" 1
 432 0026 83F31188 		MSR basepri, r3
 433              	@ 0 "" 2
 434              		.thumb
 435              	.LBE144:
 436              	.LBE145:
 437              	.LBE146:
 438              	.LBE147:
 439              	.LBE149:
 440              		.loc 1 260 0
 441 002a 7047     		bx	lr
 442              	.L31:
 443              		.align	2
 444              	.L30:
 445 002c 00000000 		.word	ch
 446              		.cfi_endproc
 447              	.LFE229:
 448              		.size	chMtxTryLock, .-chMtxTryLock
 449              		.section	.text.chMtxTryLockS,"ax",%progbits
 450              		.align	2
 451              		.p2align 4,,15
ARM GAS  /tmp/ccgDH5PG.s 			page 9


 452              		.global	chMtxTryLockS
 453              		.thumb
 454              		.thumb_func
 455              		.type	chMtxTryLockS, %function
 456              	chMtxTryLockS:
 457              	.LFB230:
 458              		.loc 1 279 0
 459              		.cfi_startproc
 460              		@ args = 0, pretend = 0, frame = 0
 461              		@ frame_needed = 0, uses_anonymous_args = 0
 462              		@ link register save eliminated.
 463              	.LVL33:
 464              		.loc 1 284 0
 465 0000 8268     		ldr	r2, [r0, #8]
 466              		.loc 1 279 0
 467 0002 0346     		mov	r3, r0
 468              		.loc 1 284 0
 469 0004 0AB1     		cbz	r2, .L35
 470              		.loc 1 294 0
 471 0006 0020     		movs	r0, #0
 472              	.LVL34:
 473              		.loc 1 306 0
 474 0008 7047     		bx	lr
 475              	.LVL35:
 476              	.L35:
 477              		.loc 1 302 0
 478 000a 044A     		ldr	r2, .L36
 479 000c 9269     		ldr	r2, [r2, #24]
 480 000e 8260     		str	r2, [r0, #8]
 481              		.loc 1 303 0
 482 0010 916B     		ldr	r1, [r2, #56]
 483 0012 C160     		str	r1, [r0, #12]
 484              		.loc 1 305 0
 485 0014 0120     		movs	r0, #1
 486              	.LVL36:
 487              		.loc 1 304 0
 488 0016 9363     		str	r3, [r2, #56]
 489              		.loc 1 305 0
 490 0018 7047     		bx	lr
 491              	.L37:
 492 001a 00BF     		.align	2
 493              	.L36:
 494 001c 00000000 		.word	ch
 495              		.cfi_endproc
 496              	.LFE230:
 497              		.size	chMtxTryLockS, .-chMtxTryLockS
 498              		.section	.text.chMtxUnlock,"ax",%progbits
 499              		.align	2
 500              		.p2align 4,,15
 501              		.global	chMtxUnlock
 502              		.thumb
 503              		.thumb_func
 504              		.type	chMtxUnlock, %function
 505              	chMtxUnlock:
 506              	.LFB231:
 507              		.loc 1 320 0
 508              		.cfi_startproc
ARM GAS  /tmp/ccgDH5PG.s 			page 10


 509              		@ args = 0, pretend = 0, frame = 0
 510              		@ frame_needed = 0, uses_anonymous_args = 0
 511              	.LVL37:
 512 0000 38B5     		push	{r3, r4, r5, lr}
 513              		.cfi_def_cfa_offset 16
 514              		.cfi_offset 3, -16
 515              		.cfi_offset 4, -12
 516              		.cfi_offset 5, -8
 517              		.cfi_offset 14, -4
 518              		.loc 1 321 0
 519 0002 164B     		ldr	r3, .L50
 520              		.loc 1 320 0
 521 0004 0446     		mov	r4, r0
 522              		.loc 1 321 0
 523 0006 9869     		ldr	r0, [r3, #24]
 524              	.LVL38:
 525              	.LBB150:
 526              	.LBB151:
 527              	.LBB152:
 528              	.LBB153:
 529              		.loc 3 546 0
 530 0008 2023     		movs	r3, #32
 531              	@ 546 "../ChibiOS/os/ext/CMSIS/include/core_cmFunc.h" 1
 532 000a 83F31188 		MSR basepri, r3
 533              	@ 0 "" 2
 534              		.thumb
 535              	.LBE153:
 536              	.LBE152:
 537              	.LBE151:
 538              	.LBE150:
 539              	.LBB154:
 540              	.LBB155:
 541              	.LBB156:
 542              	.LBB157:
 543              		.loc 2 600 0
 544 000e 2568     		ldr	r5, [r4]
 545              	.LBE157:
 546              	.LBE156:
 547              	.LBE155:
 548              	.LBE154:
 549              		.loc 1 341 0
 550 0010 E368     		ldr	r3, [r4, #12]
 551 0012 8363     		str	r3, [r0, #56]
 552              	.LVL39:
 553              		.loc 1 344 0
 554 0014 AC42     		cmp	r4, r5
 555 0016 1BD0     		beq	.L39
 556              	.LBB158:
 557              		.loc 1 349 0
 558 0018 C16B     		ldr	r1, [r0, #60]
 559              	.LVL40:
 560              		.loc 1 351 0
 561 001a 4BB1     		cbz	r3, .L40
 562              	.L42:
 563              	.LVL41:
 564              	.LBB159:
 565              	.LBB160:
ARM GAS  /tmp/ccgDH5PG.s 			page 11


 566              	.LBB161:
 567              	.LBB162:
 568              		.loc 2 600 0
 569 001c 1A68     		ldr	r2, [r3]
 570              	.LBE162:
 571              	.LBE161:
 572              	.LBE160:
 573              	.LBE159:
 574              		.loc 1 355 0
 575 001e 9342     		cmp	r3, r2
 576 0020 03D0     		beq	.L41
 577              		.loc 1 355 0 is_stmt 0 discriminator 1
 578 0022 9268     		ldr	r2, [r2, #8]
 579 0024 9142     		cmp	r1, r2
 580 0026 38BF     		it	cc
 581 0028 1146     		movcc	r1, r2
 582              	.LVL42:
 583              	.L41:
 584              		.loc 1 357 0 is_stmt 1
 585 002a DB68     		ldr	r3, [r3, #12]
 586              	.LVL43:
 587              		.loc 1 351 0
 588 002c 002B     		cmp	r3, #0
 589 002e F5D1     		bne	.L42
 590              	.L40:
 591              	.LBB163:
 592              	.LBB164:
 593              		.loc 2 640 0
 594 0030 2B68     		ldr	r3, [r5]
 595              	.LVL44:
 596              	.LBE164:
 597              	.LBE163:
 598              		.loc 1 371 0
 599 0032 AA6B     		ldr	r2, [r5, #56]
 600              		.loc 1 362 0
 601 0034 8160     		str	r1, [r0, #8]
 602              	.LVL45:
 603              	.LBB167:
 604              	.LBB165:
 605              		.loc 2 640 0
 606 0036 2360     		str	r3, [r4]
 607              	.LBE165:
 608              	.LBE167:
 609              		.loc 1 373 0
 610 0038 2846     		mov	r0, r5
 611              	.LVL46:
 612              	.LBB168:
 613              	.LBB166:
 614              		.loc 2 640 0
 615 003a 5C60     		str	r4, [r3, #4]
 616              	.LBE166:
 617              	.LBE168:
 618              		.loc 1 373 0
 619 003c 0021     		movs	r1, #0
 620              	.LVL47:
 621              		.loc 1 370 0
 622 003e A560     		str	r5, [r4, #8]
ARM GAS  /tmp/ccgDH5PG.s 			page 12


 623              		.loc 1 371 0
 624 0040 E260     		str	r2, [r4, #12]
 625              		.loc 1 372 0
 626 0042 AC63     		str	r4, [r5, #56]
 627              		.loc 1 373 0
 628 0044 FFF7FEFF 		bl	chSchWakeupS
 629              	.LVL48:
 630              	.LBE158:
 631              	.LBB169:
 632              	.LBB170:
 633              	.LBB171:
 634              	.LBB172:
 635              	.LBB173:
 636              		.loc 3 546 0
 637 0048 0023     		movs	r3, #0
 638              	@ 546 "../ChibiOS/os/ext/CMSIS/include/core_cmFunc.h" 1
 639 004a 83F31188 		MSR basepri, r3
 640              	@ 0 "" 2
 641              		.thumb
 642 004e 38BD     		pop	{r3, r4, r5, pc}
 643              	.LVL49:
 644              	.L39:
 645              	.LBE173:
 646              	.LBE172:
 647              	.LBE171:
 648              	.LBE170:
 649              	.LBE169:
 650              		.loc 1 376 0
 651 0050 0023     		movs	r3, #0
 652 0052 A360     		str	r3, [r4, #8]
 653              	.LVL50:
 654              	.LBB178:
 655              	.LBB177:
 656              	.LBB176:
 657              	.LBB175:
 658              	.LBB174:
 659              		.loc 3 546 0
 660 0054 0023     		movs	r3, #0
 661              	@ 546 "../ChibiOS/os/ext/CMSIS/include/core_cmFunc.h" 1
 662 0056 83F31188 		MSR basepri, r3
 663              	@ 0 "" 2
 664              		.thumb
 665 005a 38BD     		pop	{r3, r4, r5, pc}
 666              	.LVL51:
 667              	.L51:
 668              		.align	2
 669              	.L50:
 670 005c 00000000 		.word	ch
 671              	.LBE174:
 672              	.LBE175:
 673              	.LBE176:
 674              	.LBE177:
 675              	.LBE178:
 676              		.cfi_endproc
 677              	.LFE231:
 678              		.size	chMtxUnlock, .-chMtxUnlock
 679              		.section	.text.chMtxUnlockS,"ax",%progbits
ARM GAS  /tmp/ccgDH5PG.s 			page 13


 680              		.align	2
 681              		.p2align 4,,15
 682              		.global	chMtxUnlockS
 683              		.thumb
 684              		.thumb_func
 685              		.type	chMtxUnlockS, %function
 686              	chMtxUnlockS:
 687              	.LFB232:
 688              		.loc 1 398 0
 689              		.cfi_startproc
 690              		@ args = 0, pretend = 0, frame = 0
 691              		@ frame_needed = 0, uses_anonymous_args = 0
 692              		@ link register save eliminated.
 693              	.LVL52:
 694              		.loc 1 399 0
 695 0000 124B     		ldr	r3, .L63
 696              		.loc 1 398 0
 697 0002 30B4     		push	{r4, r5}
 698              		.cfi_def_cfa_offset 8
 699              		.cfi_offset 4, -8
 700              		.cfi_offset 5, -4
 701              		.loc 1 398 0
 702 0004 0446     		mov	r4, r0
 703              	.LBB179:
 704              	.LBB180:
 705              	.LBB181:
 706              	.LBB182:
 707              		.loc 2 600 0
 708 0006 0568     		ldr	r5, [r0]
 709              	.LBE182:
 710              	.LBE181:
 711              	.LBE180:
 712              	.LBE179:
 713              		.loc 1 399 0
 714 0008 9869     		ldr	r0, [r3, #24]
 715              	.LVL53:
 716              		.loc 1 418 0
 717 000a E368     		ldr	r3, [r4, #12]
 718 000c 8363     		str	r3, [r0, #56]
 719              	.LVL54:
 720              		.loc 1 421 0
 721 000e AC42     		cmp	r4, r5
 722 0010 17D0     		beq	.L53
 723              	.LBB183:
 724              		.loc 1 426 0
 725 0012 C16B     		ldr	r1, [r0, #60]
 726              	.LVL55:
 727              		.loc 1 428 0
 728 0014 4BB1     		cbz	r3, .L54
 729              	.L56:
 730              	.LVL56:
 731              	.LBB184:
 732              	.LBB185:
 733              	.LBB186:
 734              	.LBB187:
 735              		.loc 2 600 0
 736 0016 1A68     		ldr	r2, [r3]
ARM GAS  /tmp/ccgDH5PG.s 			page 14


 737              	.LBE187:
 738              	.LBE186:
 739              	.LBE185:
 740              	.LBE184:
 741              		.loc 1 432 0
 742 0018 9342     		cmp	r3, r2
 743 001a 03D0     		beq	.L55
 744              		.loc 1 432 0 is_stmt 0 discriminator 1
 745 001c 9268     		ldr	r2, [r2, #8]
 746 001e 9142     		cmp	r1, r2
 747 0020 38BF     		it	cc
 748 0022 1146     		movcc	r1, r2
 749              	.LVL57:
 750              	.L55:
 751              		.loc 1 434 0 is_stmt 1
 752 0024 DB68     		ldr	r3, [r3, #12]
 753              	.LVL58:
 754              		.loc 1 428 0
 755 0026 002B     		cmp	r3, #0
 756 0028 F5D1     		bne	.L56
 757              	.L54:
 758              	.LBB188:
 759              	.LBB189:
 760              		.loc 2 640 0
 761 002a 2B68     		ldr	r3, [r5]
 762              	.LVL59:
 763              	.LBE189:
 764              	.LBE188:
 765              		.loc 1 448 0
 766 002c AA6B     		ldr	r2, [r5, #56]
 767              		.loc 1 439 0
 768 002e 8160     		str	r1, [r0, #8]
 769              	.LVL60:
 770              	.LBB192:
 771              	.LBB190:
 772              		.loc 2 640 0
 773 0030 2360     		str	r3, [r4]
 774              	.LBE190:
 775              	.LBE192:
 776              		.loc 1 450 0
 777 0032 2846     		mov	r0, r5
 778              	.LVL61:
 779              	.LBB193:
 780              	.LBB191:
 781              		.loc 2 640 0
 782 0034 5C60     		str	r4, [r3, #4]
 783              	.LBE191:
 784              	.LBE193:
 785              		.loc 1 447 0
 786 0036 A560     		str	r5, [r4, #8]
 787              		.loc 1 448 0
 788 0038 E260     		str	r2, [r4, #12]
 789              		.loc 1 449 0
 790 003a AC63     		str	r4, [r5, #56]
 791              	.LBE183:
 792              		.loc 1 457 0
 793 003c 30BC     		pop	{r4, r5}
ARM GAS  /tmp/ccgDH5PG.s 			page 15


 794              	.LVL62:
 795              	.LBB194:
 796              		.loc 1 450 0
 797 003e FFF7FEBF 		b	chSchReadyI
 798              	.LVL63:
 799              	.L53:
 800              	.LBE194:
 801              		.loc 1 453 0
 802 0042 0023     		movs	r3, #0
 803 0044 A360     		str	r3, [r4, #8]
 804              		.loc 1 457 0
 805 0046 30BC     		pop	{r4, r5}
 806              	.LVL64:
 807 0048 7047     		bx	lr
 808              	.L64:
 809 004a 00BF     		.align	2
 810              	.L63:
 811 004c 00000000 		.word	ch
 812              		.cfi_endproc
 813              	.LFE232:
 814              		.size	chMtxUnlockS, .-chMtxUnlockS
 815              		.section	.text.chMtxUnlockAll,"ax",%progbits
 816              		.align	2
 817              		.p2align 4,,15
 818              		.global	chMtxUnlockAll
 819              		.thumb
 820              		.thumb_func
 821              		.type	chMtxUnlockAll, %function
 822              	chMtxUnlockAll:
 823              	.LFB233:
 824              		.loc 1 470 0
 825              		.cfi_startproc
 826              		@ args = 0, pretend = 0, frame = 0
 827              		@ frame_needed = 0, uses_anonymous_args = 0
 828              		.loc 1 471 0
 829 0000 134A     		ldr	r2, .L76
 830              		.loc 1 470 0
 831 0002 70B5     		push	{r4, r5, r6, lr}
 832              		.cfi_def_cfa_offset 16
 833              		.cfi_offset 4, -16
 834              		.cfi_offset 5, -12
 835              		.cfi_offset 6, -8
 836              		.cfi_offset 14, -4
 837              	.LBB195:
 838              	.LBB196:
 839              	.LBB197:
 840              	.LBB198:
 841              		.loc 3 546 0
 842 0004 2023     		movs	r3, #32
 843              	.LBE198:
 844              	.LBE197:
 845              	.LBE196:
 846              	.LBE195:
 847              		.loc 1 471 0
 848 0006 9469     		ldr	r4, [r2, #24]
 849              	.LVL65:
 850              	.LBB202:
ARM GAS  /tmp/ccgDH5PG.s 			page 16


 851              	.LBB201:
 852              	.LBB200:
 853              	.LBB199:
 854              		.loc 3 546 0
 855              	@ 546 "../ChibiOS/os/ext/CMSIS/include/core_cmFunc.h" 1
 856 0008 83F31188 		MSR basepri, r3
 857              	@ 0 "" 2
 858              		.thumb
 859              	.LBE199:
 860              	.LBE200:
 861              	.LBE201:
 862              	.LBE202:
 863              		.loc 1 474 0
 864 000c A36B     		ldr	r3, [r4, #56]
 865 000e D3B1     		cbz	r3, .L66
 866              	.LBB203:
 867              		.loc 1 492 0
 868 0010 0026     		movs	r6, #0
 869 0012 0BE0     		b	.L70
 870              	.LVL66:
 871              	.L75:
 872              	.LBB204:
 873              	.LBB205:
 874              	.LBB206:
 875              		.loc 2 640 0
 876 0014 1168     		ldr	r1, [r2]
 877              	.LBE206:
 878              	.LBE205:
 879              		.loc 1 484 0
 880 0016 956B     		ldr	r5, [r2, #56]
 881              	.LBB209:
 882              	.LBB207:
 883              		.loc 2 640 0
 884 0018 1960     		str	r1, [r3]
 885              	.LBE207:
 886              	.LBE209:
 887              		.loc 1 486 0
 888 001a 1046     		mov	r0, r2
 889              	.LBB210:
 890              	.LBB208:
 891              		.loc 2 640 0
 892 001c 4B60     		str	r3, [r1, #4]
 893              	.LBE208:
 894              	.LBE210:
 895              		.loc 1 483 0
 896 001e 9A60     		str	r2, [r3, #8]
 897              		.loc 1 484 0
 898 0020 DD60     		str	r5, [r3, #12]
 899              		.loc 1 485 0
 900 0022 9363     		str	r3, [r2, #56]
 901              		.loc 1 486 0
 902 0024 FFF7FEFF 		bl	chSchReadyI
 903              	.LVL67:
 904              	.LBE204:
 905              	.LBE203:
 906              		.loc 1 494 0
 907 0028 A36B     		ldr	r3, [r4, #56]
ARM GAS  /tmp/ccgDH5PG.s 			page 17


 908 002a 43B1     		cbz	r3, .L74
 909              	.L70:
 910              	.LVL68:
 911              	.LBB215:
 912              	.LBB211:
 913              	.LBB212:
 914              	.LBB213:
 915              	.LBB214:
 916              		.loc 2 600 0
 917 002c 1A68     		ldr	r2, [r3]
 918              	.LVL69:
 919              	.LBE214:
 920              	.LBE213:
 921              	.LBE212:
 922              	.LBE211:
 923              		.loc 1 477 0
 924 002e D968     		ldr	r1, [r3, #12]
 925 0030 A163     		str	r1, [r4, #56]
 926              	.LVL70:
 927              		.loc 1 478 0
 928 0032 9342     		cmp	r3, r2
 929 0034 EED1     		bne	.L75
 930              		.loc 1 492 0
 931 0036 9E60     		str	r6, [r3, #8]
 932              	.LBE215:
 933              		.loc 1 494 0
 934 0038 A36B     		ldr	r3, [r4, #56]
 935              	.LVL71:
 936 003a 002B     		cmp	r3, #0
 937 003c F6D1     		bne	.L70
 938              	.LVL72:
 939              	.L74:
 940              		.loc 1 495 0
 941 003e E36B     		ldr	r3, [r4, #60]
 942 0040 A360     		str	r3, [r4, #8]
 943              		.loc 1 496 0
 944 0042 FFF7FEFF 		bl	chSchRescheduleS
 945              	.LVL73:
 946              	.L66:
 947              	.LBB216:
 948              	.LBB217:
 949              	.LBB218:
 950              	.LBB219:
 951              	.LBB220:
 952              		.loc 3 546 0
 953 0046 0023     		movs	r3, #0
 954              	@ 546 "../ChibiOS/os/ext/CMSIS/include/core_cmFunc.h" 1
 955 0048 83F31188 		MSR basepri, r3
 956              	@ 0 "" 2
 957              		.thumb
 958 004c 70BD     		pop	{r4, r5, r6, pc}
 959              	.LVL74:
 960              	.L77:
 961 004e 00BF     		.align	2
 962              	.L76:
 963 0050 00000000 		.word	ch
 964              	.LBE220:
ARM GAS  /tmp/ccgDH5PG.s 			page 18


 965              	.LBE219:
 966              	.LBE218:
 967              	.LBE217:
 968              	.LBE216:
 969              		.cfi_endproc
 970              	.LFE233:
 971              		.size	chMtxUnlockAll, .-chMtxUnlockAll
 972 0054 AFF30080 		.text
 972      AFF30080 
 972      AFF30080 
 973              	.Letext0:
 974              		.file 4 "/nfs/nfs5/home/research/hardware/arm2/gcc-arm-embedded/gcc-arm-none-eabi-4_8-2014q2/arm-n
 975              		.file 5 "/nfs/nfs5/home/research/hardware/arm2/gcc-arm-embedded/gcc-arm-none-eabi-4_8-2014q2/arm-n
 976              		.file 6 "../ChibiOS/os/rt/ports/ARMCMx/compilers/GCC/chtypes.h"
 977              		.file 7 "../ChibiOS/os/rt/include/chsystypes.h"
 978              		.file 8 "../ChibiOS/os/rt/ports/ARMCMx/chcore.h"
 979              		.file 9 "../ChibiOS/os/rt/ports/ARMCMx/chcore_v7m.h"
 980              		.file 10 "../ChibiOS/os/rt/include/chtm.h"
 981              		.file 11 "../ChibiOS/os/rt/include/chmtx.h"
 982              		.file 12 "../ChibiOS/os/rt/include/chsys.h"
 983              		.file 13 "../ChibiOS/os/ext/CMSIS/include/core_cm4.h"