ARM GAS  /tmp/ccgDH5PG.s 			page 1


   1              		.syntax unified
   2              		.cpu cortex-m4
   3              		.fpu softvfp
   4              		.eabi_attribute 20, 1
   5              		.eabi_attribute 21, 1
   6              		.eabi_attribute 23, 3
   7              		.eabi_attribute 24, 1
   8              		.eabi_attribute 25, 1
   9              		.eabi_attribute 26, 1
  10              		.eabi_attribute 30, 2
  11              		.eabi_attribute 34, 1
  12              		.eabi_attribute 18, 4
  13              		.thumb
  14              		.file	"chmtx.c"
  15              		.text
  16              	.Ltext0:
  17              		.cfi_sections	.debug_frame
  18              		.section	.text.chMtxObjectInit,"ax",%progbits
  19              		.align	2
  20              		.p2align 4,,15
  21              		.global	chMtxObjectInit
  22              		.thumb
  23              		.thumb_func
  24              		.type	chMtxObjectInit, %function
  25              	chMtxObjectInit:
  26              	.LFB226:
  27              		.file 1 "../ChibiOS/os/rt/src/chmtx.c"
  28              		.loc 1 103 0
  29              		.cfi_startproc
  30              		@ args = 0, pretend = 0, frame = 0
  31              		@ frame_needed = 0, uses_anonymous_args = 0
  32              		@ link register save eliminated.
  33              	.LVL0:
  34              		.loc 1 108 0
  35 0000 0023     		movs	r3, #0
  36              	.LBB103:
  37              	.LBB104:
  38              		.file 2 "../ChibiOS/os/rt/include/chschd.h"
  39              		.loc 2 574 0
  40 0002 4060     		str	r0, [r0, #4]
  41 0004 0060     		str	r0, [r0]
  42              	.LBE104:
  43              	.LBE103:
  44              		.loc 1 108 0
  45 0006 8360     		str	r3, [r0, #8]
  46 0008 7047     		bx	lr
  47              		.cfi_endproc
  48              	.LFE226:
  49              		.size	chMtxObjectInit, .-chMtxObjectInit
  50 000a 00BFAFF3 		.section	.text.chMtxLockS,"ax",%progbits
  50      0080
  51              		.align	2
  52              		.p2align 4,,15
  53              		.global	chMtxLockS
  54              		.thumb
  55              		.thumb_func
  56              		.type	chMtxLockS, %function
ARM GAS  /tmp/ccgDH5PG.s 			page 2


  57              	chMtxLockS:
  58              	.LFB228:
  59              		.loc 1 141 0
  60              		.cfi_startproc
  61              		@ args = 0, pretend = 0, frame = 0
  62              		@ frame_needed = 0, uses_anonymous_args = 0
  63              	.LVL1:
  64 0000 70B5     		push	{r4, r5, r6, lr}
  65              		.cfi_def_cfa_offset 16
  66              		.cfi_offset 4, -16
  67              		.cfi_offset 5, -12
  68              		.cfi_offset 6, -8
  69              		.cfi_offset 14, -4
  70              		.loc 1 142 0
  71 0002 2F4B     		ldr	r3, .L23
  72              		.loc 1 141 0
  73 0004 0546     		mov	r5, r0
  74              		.loc 1 148 0
  75 0006 8068     		ldr	r0, [r0, #8]
  76              	.LVL2:
  77              		.loc 1 142 0
  78 0008 9C69     		ldr	r4, [r3, #24]
  79              	.LVL3:
  80              		.loc 1 148 0
  81 000a 0028     		cmp	r0, #0
  82 000c 53D0     		beq	.L3
  83              	.LVL4:
  84              	.LBB105:
  85              		.loc 1 166 0 discriminator 1
  86 000e A268     		ldr	r2, [r4, #8]
  87 0010 8368     		ldr	r3, [r0, #8]
  88 0012 9A42     		cmp	r2, r3
  89 0014 06D9     		bls	.L5
  90              	.L14:
  91              		.loc 1 171 0
  92 0016 037F     		ldrb	r3, [r0, #28]	@ zero_extendqisi2
  93              		.loc 1 168 0
  94 0018 8260     		str	r2, [r0, #8]
  95              		.loc 1 171 0
  96 001a 062B     		cmp	r3, #6
  97 001c 32D0     		beq	.L6
  98 001e 072B     		cmp	r3, #7
  99 0020 1CD0     		beq	.L7
 100 0022 9BB1     		cbz	r3, .L22
 101              	.LVL5:
 102              	.L5:
 103              	.LBB106:
 104              	.LBB107:
 105              		.loc 2 621 0
 106 0024 2B46     		mov	r3, r5
 107 0026 03E0     		b	.L20
 108              	.LVL6:
 109              	.L18:
 110              		.loc 2 624 0
 111 0028 9968     		ldr	r1, [r3, #8]
 112 002a A268     		ldr	r2, [r4, #8]
 113 002c 9142     		cmp	r1, r2
ARM GAS  /tmp/ccgDH5PG.s 			page 3


 114 002e 02D3     		bcc	.L19
 115              	.L20:
 116              		.loc 2 623 0
 117 0030 1B68     		ldr	r3, [r3]
 118              	.LVL7:
 119              		.loc 2 624 0
 120 0032 9D42     		cmp	r5, r3
 121 0034 F8D1     		bne	.L18
 122              	.L19:
 123              		.loc 2 626 0
 124 0036 5A68     		ldr	r2, [r3, #4]
 125 0038 6260     		str	r2, [r4, #4]
 126              		.loc 2 625 0
 127 003a 2360     		str	r3, [r4]
 128              		.loc 2 627 0
 129 003c 5C60     		str	r4, [r3, #4]
 130 003e 1460     		str	r4, [r2]
 131              	.LBE107:
 132              	.LBE106:
 133              		.loc 1 209 0
 134 0040 2562     		str	r5, [r4, #32]
 135              		.loc 1 210 0
 136 0042 0620     		movs	r0, #6
 137              	.LBE105:
 138              		.loc 1 232 0
 139 0044 BDE87040 		pop	{r4, r5, r6, lr}
 140              	.LVL8:
 141              	.LBB122:
 142              		.loc 1 210 0
 143 0048 FFF7FEBF 		b	chSchGoSleepS
 144              	.LVL9:
 145              	.L22:
 146              	.LBB108:
 147              	.LBB109:
 148              		.loc 2 653 0
 149 004c 90E80C00 		ldmia	r0, {r2, r3}
 150 0050 1A60     		str	r2, [r3]
 151              		.loc 2 654 0
 152 0052 0268     		ldr	r2, [r0]
 153 0054 5360     		str	r3, [r2, #4]
 154              	.LBE109:
 155              	.LBE108:
 156              		.loc 1 201 0
 157 0056 FFF7FEFF 		bl	chSchReadyI
 158              	.LVL10:
 159              		.loc 1 202 0
 160 005a E3E7     		b	.L5
 161              	.LVL11:
 162              	.L7:
 163              	.LBB110:
 164              	.LBB111:
 165              		.loc 2 653 0
 166 005c 90E80A00 		ldmia	r0, {r1, r3}
 167 0060 1960     		str	r1, [r3]
 168              	.LBE111:
 169              	.LBE110:
 170              		.loc 1 192 0
ARM GAS  /tmp/ccgDH5PG.s 			page 4


 171 0062 066A     		ldr	r6, [r0, #32]
 172              	.LVL12:
 173              	.LBB113:
 174              	.LBB112:
 175              		.loc 2 654 0
 176 0064 0168     		ldr	r1, [r0]
 177 0066 4B60     		str	r3, [r1, #4]
 178              	.LBE112:
 179              	.LBE113:
 180              	.LBB114:
 181              	.LBB115:
 182              		.loc 2 621 0
 183 0068 3346     		mov	r3, r6
 184 006a 02E0     		b	.L17
 185              	.LVL13:
 186              	.L15:
 187              		.loc 2 624 0
 188 006c 9968     		ldr	r1, [r3, #8]
 189 006e 8A42     		cmp	r2, r1
 190 0070 02D8     		bhi	.L16
 191              	.L17:
 192              		.loc 2 623 0
 193 0072 1B68     		ldr	r3, [r3]
 194              	.LVL14:
 195              		.loc 2 624 0
 196 0074 9E42     		cmp	r6, r3
 197 0076 F9D1     		bne	.L15
 198              	.L16:
 199              		.loc 2 626 0
 200 0078 5A68     		ldr	r2, [r3, #4]
 201 007a 4260     		str	r2, [r0, #4]
 202              		.loc 2 625 0
 203 007c 0360     		str	r3, [r0]
 204              		.loc 2 627 0
 205 007e 5860     		str	r0, [r3, #4]
 206 0080 1060     		str	r0, [r2]
 207 0082 CFE7     		b	.L5
 208              	.LVL15:
 209              	.L6:
 210              	.LBE115:
 211              	.LBE114:
 212              	.LBB116:
 213              	.LBB117:
 214              		.loc 2 653 0
 215 0084 90E80A00 		ldmia	r0, {r1, r3}
 216 0088 1960     		str	r1, [r3]
 217              	.LBE117:
 218              	.LBE116:
 219              		.loc 1 175 0
 220 008a 066A     		ldr	r6, [r0, #32]
 221              	.LVL16:
 222              	.LBB119:
 223              	.LBB118:
 224              		.loc 2 654 0
 225 008c 0168     		ldr	r1, [r0]
 226 008e 4B60     		str	r3, [r1, #4]
 227              	.LBE118:
ARM GAS  /tmp/ccgDH5PG.s 			page 5


 228              	.LBE119:
 229              		.loc 1 175 0
 230 0090 3346     		mov	r3, r6
 231 0092 02E0     		b	.L13
 232              	.LVL17:
 233              	.L9:
 234              	.LBB120:
 235              	.LBB121:
 236              		.loc 2 624 0
 237 0094 9968     		ldr	r1, [r3, #8]
 238 0096 9142     		cmp	r1, r2
 239 0098 02D3     		bcc	.L12
 240              	.L13:
 241              		.loc 2 623 0
 242 009a 1B68     		ldr	r3, [r3]
 243              	.LVL18:
 244              		.loc 2 624 0
 245 009c 9E42     		cmp	r6, r3
 246 009e F9D1     		bne	.L9
 247              	.L12:
 248              		.loc 2 626 0
 249 00a0 5A68     		ldr	r2, [r3, #4]
 250 00a2 4260     		str	r2, [r0, #4]
 251              		.loc 2 625 0
 252 00a4 0360     		str	r3, [r0]
 253              		.loc 2 627 0
 254 00a6 5860     		str	r0, [r3, #4]
 255 00a8 1060     		str	r0, [r2]
 256              	.LBE121:
 257              	.LBE120:
 258              		.loc 1 176 0
 259 00aa B068     		ldr	r0, [r6, #8]
 260              	.LVL19:
 261              		.loc 1 166 0
 262 00ac A268     		ldr	r2, [r4, #8]
 263 00ae 8368     		ldr	r3, [r0, #8]
 264              	.LVL20:
 265 00b0 9342     		cmp	r3, r2
 266 00b2 B0D3     		bcc	.L14
 267 00b4 B6E7     		b	.L5
 268              	.LVL21:
 269              	.L3:
 270              	.LBE122:
 271              		.loc 1 229 0
 272 00b6 A36B     		ldr	r3, [r4, #56]
 273 00b8 EB60     		str	r3, [r5, #12]
 274              		.loc 1 228 0
 275 00ba AC60     		str	r4, [r5, #8]
 276              		.loc 1 230 0
 277 00bc A563     		str	r5, [r4, #56]
 278 00be 70BD     		pop	{r4, r5, r6, pc}
 279              	.LVL22:
 280              	.L24:
 281              		.align	2
 282              	.L23:
 283 00c0 00000000 		.word	ch
 284              		.cfi_endproc
ARM GAS  /tmp/ccgDH5PG.s 			page 6


 285              	.LFE228:
 286              		.size	chMtxLockS, .-chMtxLockS
 287 00c4 AFF30080 		.section	.text.chMtxLock,"ax",%progbits
 287      AFF30080 
 287      AFF30080 
 288              		.align	2
 289              		.p2align 4,,15
 290              		.global	chMtxLock
 291              		.thumb
 292              		.thumb_func
 293              		.type	chMtxLock, %function
 294              	chMtxLock:
 295              	.LFB227:
 296              		.loc 1 123 0
 297              		.cfi_startproc
 298              		@ args = 0, pretend = 0, frame = 0
 299              		@ frame_needed = 0, uses_anonymous_args = 0
 300              	.LVL23:
 301 0000 08B5     		push	{r3, lr}
 302              		.cfi_def_cfa_offset 8
 303              		.cfi_offset 3, -8
 304              		.cfi_offset 14, -4
 305              	.LBB123:
 306              	.LBB124:
 307              	.LBB125:
 308              	.LBB126:
 309              		.file 3 "../ChibiOS/os/ext/CMSIS/include/core_cmFunc.h"
 310              		.loc 3 546 0
 311 0002 2023     		movs	r3, #32
 312              	@ 546 "../ChibiOS/os/ext/CMSIS/include/core_cmFunc.h" 1
 313 0004 83F31188 		MSR basepri, r3
 314              	@ 0 "" 2
 315              		.thumb
 316              	.LBE126:
 317              	.LBE125:
 318              	.LBE124:
 319              	.LBE123:
 320              		.loc 1 127 0
 321 0008 FFF7FEFF 		bl	chMtxLockS
 322              	.LVL24:
 323              	.LBB127:
 324              	.LBB128:
 325              	.LBB129:
 326              	.LBB130:
 327              	.LBB131:
 328              		.loc 3 546 0
 329 000c 0023     		movs	r3, #0
 330              	@ 546 "../ChibiOS/os/ext/CMSIS/include/core_cmFunc.h" 1
 331 000e 83F31188 		MSR basepri, r3
 332              	@ 0 "" 2
 333              		.thumb
 334 0012 08BD     		pop	{r3, pc}
 335              	.LBE131:
 336              	.LBE130:
 337              	.LBE129:
 338              	.LBE128:
 339              	.LBE127:
ARM GAS  /tmp/ccgDH5PG.s 			page 7


 340              		.cfi_endproc
 341              	.LFE227:
 342              		.size	chMtxLock, .-chMtxLock
 343 0014 AFF30080 		.section	.text.chMtxTryLock,"ax",%progbits
 343      AFF30080 
 343      AFF30080 
 344              		.align	2
 345              		.p2align 4,,15
 346              		.global	chMtxTryLock
 347              		.thumb
 348              		.thumb_func
 349              		.type	chMtxTryLock, %function
 350              	chMtxTryLock:
 351              	.LFB229:
 352              		.loc 1 251 0
 353              		.cfi_startproc
 354              		@ args = 0, pretend = 0, frame = 0
 355              		@ frame_needed = 0, uses_anonymous_args = 0
 356              		@ link register save eliminated.
 357              	.LVL25:
 358              		.loc 1 251 0
 359 0000 0346     		mov	r3, r0
 360              	.LBB132:
 361              	.LBB133:
 362              	.LBB134:
 363              	.LBB135:
 364              		.loc 3 546 0
 365 0002 2022     		movs	r2, #32
 366              	@ 546 "../ChibiOS/os/ext/CMSIS/include/core_cmFunc.h" 1
 367 0004 82F31188 		MSR basepri, r2
 368              	@ 0 "" 2
 369              	.LVL26:
 370              		.thumb
 371              	.LBE135:
 372              	.LBE134:
 373              	.LBE133:
 374              	.LBE132:
 375              	.LBB136:
 376              	.LBB137:
 377              		.loc 1 284 0
 378 0008 8268     		ldr	r2, [r0, #8]
 379 000a 22B1     		cbz	r2, .L29
 380              		.loc 1 294 0
 381 000c 0020     		movs	r0, #0
 382              	.LVL27:
 383              	.LBE137:
 384              	.LBE136:
 385              	.LBB139:
 386              	.LBB140:
 387              	.LBB141:
 388              	.LBB142:
 389              	.LBB143:
 390              		.loc 3 546 0
 391 000e 0023     		movs	r3, #0
 392              	.LVL28:
 393              	@ 546 "../ChibiOS/os/ext/CMSIS/include/core_cmFunc.h" 1
 394 0010 83F31188 		MSR basepri, r3
ARM GAS  /tmp/ccgDH5PG.s 			page 8


 395              	@ 0 "" 2
 396              		.thumb
 397              	.LBE143:
 398              	.LBE142:
 399              	.LBE141:
 400              	.LBE140:
 401              	.LBE139:
 402              		.loc 1 260 0
 403 0014 7047     		bx	lr
 404              	.LVL29:
 405              	.L29:
 406              	.LBB148:
 407              	.LBB138:
 408              		.loc 1 302 0
 409 0016 054A     		ldr	r2, .L30
 410 0018 9269     		ldr	r2, [r2, #24]
 411 001a 8260     		str	r2, [r0, #8]
 412              		.loc 1 303 0
 413 001c 916B     		ldr	r1, [r2, #56]
 414 001e C160     		str	r1, [r0, #12]
 415              		.loc 1 304 0
 416 0020 9363     		str	r3, [r2, #56]
 417              	.LVL30:
 418              		.loc 1 305 0
 419 0022 0120     		movs	r0, #1
 420              	.LVL31:
 421              	.LBE138:
 422              	.LBE148:
 423              	.LBB149:
 424              	.LBB147:
 425              	.LBB146:
 426              	.LBB145:
 427              	.LBB144:
 428              		.loc 3 546 0
 429 0024 0023     		movs	r3, #0
 430              	.LVL32:
 431              	@ 546 "../ChibiOS/os/ext/CMSIS/include/core_cmFunc.h" 1
 432 0026 83F31188 		MSR basepri, r3
 433              	@ 0 "" 2
 434              		.thumb
 435              	.LBE144:
 436              	.LBE145:
 437              	.LBE146:
 438              	.LBE147:
 439              	.LBE149:
 440              		.loc 1 260 0
 441 002a 7047     		bx	lr
 442              	.L31:
 443              		.align	2
 444              	.L30:
 445 002c 00000000 		.word	ch
 446              		.cfi_endproc
 447              	.LFE229:
 448              		.size	chMtxTryLock, .-chMtxTryLock
 449              		.section	.text.chMtxTryLockS,"ax",%progbits
 450              		.align	2
 451              		.p2align 4,,15
ARM GAS  /tmp/ccgDH5PG.s 			page 9


 452              		.global	chMtxTryLockS
 453              		.thumb
 454              		.thumb_func
 455              		.type	chMtxTryLockS, %function
 456              	chMtxTryLockS:
 457              	.LFB230:
 458              		.loc 1 279 0
 459              		.cfi_startproc
 460              		@ args = 0, pretend = 0, frame = 0
 461              		@ frame_needed = 0, uses_anonymous_args = 0
 462              		@ link register save eliminated.
 463              	.LVL33:
 464              		.loc 1 284 0
 465 0000 8268     		ldr	r2, [r0, #8]
 466              		.loc 1 279 0
 467 0002 0346     		mov	r3, r0
 468              		.loc 1 284 0
 469 0004 0AB1     		cbz	r2, .L35
 470              		.loc 1 294 0
 471 0006 0020     		movs	r0, #0
 472              	.LVL34:
 473              		.loc 1 306 0
 474 0008 7047     		bx	lr
 475              	.LVL35:
 476              	.L35:
 477              		.loc 1 302 0
 478 000a 044A     		ldr	r2, .L36
 479 000c 9269     		ldr	r2, [r2, #24]
 480 000e 8260     		str	r2, [r0, #8]
 481              		.loc 1 303 0
 482 0010 916B     		ldr	r1, [r2, #56]
 483 0012 C160     		str	r1, [r0, #12]
 484              		.loc 1 305 0
 485 0014 0120     		movs	r0, #1
 486              	.LVL36:
 487              		.loc 1 304 0
 488 0016 9363     		str	r3, [r2, #56]
 489              		.loc 1 305 0
 490 0018 7047     		bx	lr
 491              	.L37:
 492 001a 00BF     		.align	2
 493              	.L36:
 494 001c 00000000 		.word	ch
 495              		.cfi_endproc
 496              	.LFE230:
 497              		.size	chMtxTryLockS, .-chMtxTryLockS
 498              		.section	.text.chMtxUnlock,"ax",%progbits
 499              		.align	2
 500              		.p2align 4,,15
 501              		.global	chMtxUnlock
 502              		.thumb
 503              		.thumb_func
 504              		.type	chMtxUnlock, %function
 505              	chMtxUnlock:
 506              	.LFB231:
 507              		.loc 1 320 0
 508              		.cfi_startproc
ARM GAS  /tmp/ccgDH5PG.s 			page 10


 509              		@ args = 0, pretend = 0, frame = 0
 510              		@ frame_needed = 0, uses_anonymous_args = 0
 511              	.LVL37:
 512 0000 38B5     		push	{r3, r4, r5, lr}
 513              		.cfi_def_cfa_offset 16
 514              		.cfi_offset 3, -16
 515              		.cfi_offset 4, -12
 516              		.cfi_offset 5, -8
 517              		.cfi_offset 14, -4
 518              		.loc 1 321 0
 519 0002 164B     		ldr	r3, .L50
 520              		.loc 1 320 0
 521 0004 0446     		mov	r4, r0
 522              		.loc 1 321 0
 523 0006 9869     		ldr	r0, [r3, #24]
 524              	.LVL38:
 525              	.LBB150:
 526              	.LBB151:
 527              	.LBB152:
 528              	.LBB153:
 529              		.loc 3 546 0
 530 0008 2023     		movs	r3, #32
 531              	@ 546 "../ChibiOS/os/ext/CMSIS/include/core_cmFunc.h" 1
 532 000a 83F31188 		MSR basepri, r3
 533              	@ 0 "" 2
 534              		.thumb
 535              	.LBE153:
 536              	.LBE152:
 537              	.LBE151:
 538              	.LBE150:
 539              	.LBB154:
 540              	.LBB155:
 541              	.LBB156:
 542              	.LBB157:
 543              		.loc 2 600 0
 544 000e 2568     		ldr	r5, [r4]
 545              	.LBE157:
 546              	.LBE156:
 547              	.LBE155:
 548              	.LBE154:
 549              		.loc 1 341 0
 550 0010 E368     		ldr	r3, [r4, #12]
 551 0012 8363     		str	r3, [r0, #56]
 552              	.LVL39:
 553              		.loc 1 344 0
 554 0014 AC42     		cmp	r4, r5
 555 0016 1BD0     		beq	.L39
 556              	.LBB158:
 557              		.loc 1 349 0
 558 0018 C16B     		ldr	r1, [r0, #60]
 559              	.LVL40:
 560              		.loc 1 351 0
 561 001a 4BB1     		cbz	r3, .L40
 562              	.L42:
 563              	.LVL41:
 564              	.LBB159:
 565              	.LBB160:
ARM GAS  /tmp/ccgDH5PG.s 			page 11


 566              	.LBB161:
 567              	.LBB162:
 568              		.loc 2 600 0
 569 001c 1A68     		ldr	r2, [r3]
 570              	.LBE162:
 571              	.LBE161:
 572              	.LBE160:
 573              	.LBE159:
 574              		.loc 1 355 0
 575 001e 9342     		cmp	r3, r2
 576 0020 03D0     		beq	.L41
 577              		.loc 1 355 0 is_stmt 0 discriminator 1
 578 0022 9268     		ldr	r2, [r2, #8]
 579 0024 9142     		cmp	r1, r2
 580 0026 38BF     		it	cc
 581 0028 1146     		movcc	r1, r2
 582              	.LVL42:
 583              	.L41:
 584              		.loc 1 357 0 is_stmt 1
 585 002a DB68     		ldr	r3, [r3, #12]
 586              	.LVL43:
 587              		.loc 1 351 0
 588 002c 002B     		cmp	r3, #0
 589 002e F5D1     		bne	.L42
 590              	.L40:
 591              	.LBB163:
 592              	.LBB164:
 593              		.loc 2 640 0
 594 0030 2B68     		ldr	r3, [r5]
 595              	.LVL44:
 596              	.LBE164:
 597              	.LBE163:
 598              		.loc 1 371 0
 599 0032 AA6B     		ldr	r2, [r5, #56]
 600              		.loc 1 362 0
 601 0034 8160     		str	r1, [r0, #8]
 602              	.LVL45:
 603              	.LBB167:
 604              	.LBB165:
 605              		.loc 2 640 0
 606 0036 2360     		str	r3, [r4]
 607              	.LBE165:
 608              	.LBE167:
 609              		.loc 1 373 0
 610 0038 2846     		mov	r0, r5
 611              	.LVL46:
 612              	.LBB168:
 613              	.LBB166:
 614              		.loc 2 640 0
 615 003a 5C60     		str	r4, [r3, #4]
 616              	.LBE166:
 617              	.LBE168:
 618              		.loc 1 373 0
 619 003c 0021     		movs	r1, #0
 620              	.LVL47:
 621              		.loc 1 370 0
 622 003e A560     		str	r5, [r4, #8]
ARM GAS  /tmp/ccgDH5PG.s 			page 12


 623              		.loc 1 371 0
 624 0040 E260     		str	r2, [r4, #12]
 625              		.loc 1 372 0
 626 0042 AC63     		str	r4, [r5, #56]
 627              		.loc 1 373 0
 628 0044 FFF7FEFF 		bl	chSchWakeupS
 629              	.LVL48:
 630              	.LBE158:
 631              	.LBB169:
 632              	.LBB170:
 633              	.LBB171:
 634              	.LBB172:
 635              	.LBB173:
 636              		.loc 3 546 0
 637 0048 0023     		movs	r3, #0
 638              	@ 546 "../ChibiOS/os/ext/CMSIS/include/core_cmFunc.h" 1
 639 004a 83F31188 		MSR basepri, r3
 640              	@ 0 "" 2
 641              		.thumb
 642 004e 38BD     		pop	{r3, r4, r5, pc}
 643              	.LVL49:
 644              	.L39:
 645              	.LBE173:
 646              	.LBE172:
 647              	.LBE171:
 648              	.LBE170:
 649              	.LBE169:
 650              		.loc 1 376 0
 651 0050 0023     		movs	r3, #0
 652 0052 A360     		str	r3, [r4, #8]
 653              	.LVL50:
 654              	.LBB178:
 655              	.LBB177:
 656              	.LBB176:
 657              	.LBB175:
 658              	.LBB174:
 659              		.loc 3 546 0
 660 0054 0023     		movs	r3, #0
 661              	@ 546 "../ChibiOS/os/ext/CMSIS/include/core_cmFunc.h" 1
 662 0056 83F31188 		MSR basepri, r3
 663              	@ 0 "" 2
 664              		.thumb
 665 005a 38BD     		pop	{r3, r4, r5, pc}
 666              	.LVL51:
 667              	.L51:
 668              		.align	2
 669              	.L50:
 670 005c 00000000 		.word	ch
 671              	.LBE174:
 672              	.LBE175:
 673              	.LBE176:
 674              	.LBE177:
 675              	.LBE178:
 676              		.cfi_endproc
 677              	.LFE231:
 678              		.size	chMtxUnlock, .-chMtxUnlock
 679              		.section	.text.chMtxUnlockS,"ax",%progbits
ARM GAS  /tmp/ccgDH5PG.s 			page 13


 680              		.align	2
 681              		.p2align 4,,15
 682              		.global	chMtxUnlockS
 683              		.thumb
 684              		.thumb_func
 685              		.type	chMtxUnlockS, %function
 686              	chMtxUnlockS:
 687              	.LFB232:
 688              		.loc 1 398 0
 689              		.cfi_startproc
 690              		@ args = 0, pretend = 0, frame = 0
 691              		@ frame_needed = 0, uses_anonymous_args = 0
 692              		@ link register save eliminated.
 693              	.LVL52:
 694              		.loc 1 399 0
 695 0000 124B     		ldr	r3, .L63
 696              		.loc 1 398 0
 697 0002 30B4     		push	{r4, r5}
 698              		.cfi_def_cfa_offset 8
 699              		.cfi_offset 4, -8
 700              		.cfi_offset 5, -4
 701              		.loc 1 398 0
 702 0004 0446     		mov	r4, r0
 703              	.LBB179:
 704              	.LBB180:
 705              	.LBB181:
 706              	.LBB182:
 707              		.loc 2 600 0
 708 0006 0568     		ldr	r5, [r0]
 709              	.LBE182:
 710              	.LBE181:
 711              	.LBE180:
 712              	.LBE179:
 713              		.loc 1 399 0
 714 0008 9869     		ldr	r0, [r3, #24]
 715              	.LVL53:
 716              		.loc 1 418 0
 717 000a E368     		ldr	r3, [r4, #12]
 718 000c 8363     		str	r3, [r0, #56]
 719              	.LVL54:
 720              		.loc 1 421 0
 721 000e AC42     		cmp	r4, r5
 722 0010 17D0     		beq	.L53
 723              	.LBB183:
 724              		.loc 1 426 0
 725 0012 C16B     		ldr	r1, [r0, #60]
 726              	.LVL55:
 727              		.loc 1 428 0
 728 0014 4BB1     		cbz	r3, .L54
 729              	.L56:
 730              	.LVL56:
 731              	.LBB184:
 732              	.LBB185:
 733              	.LBB186:
 734              	.LBB187:
 735              		.loc 2 600 0
 736 0016 1A68     		ldr	r2, [r3]
ARM GAS  /tmp/ccgDH5PG.s 			page 14


 737              	.LBE187:
 738              	.LBE186:
 739              	.LBE185:
 740              	.LBE184:
 741              		.loc 1 432 0
 742 0018 9342     		cmp	r3, r2
 743 001a 03D0     		beq	.L55
 744              		.loc 1 432 0 is_stmt 0 discriminator 1
 745 001c 9268     		ldr	r2, [r2, #8]
 746 001e 9142     		cmp	r1, r2
 747 0020 38BF     		it	cc
 748 0022 1146     		movcc	r1, r2
 749              	.LVL57:
 750              	.L55:
 751              		.loc 1 434 0 is_stmt 1
 752 0024 DB68     		ldr	r3, [r3, #12]
 753              	.LVL58:
 754              		.loc 1 428 0
 755 0026 002B     		cmp	r3, #0
 756 0028 F5D1     		bne	.L56
 757              	.L54:
 758              	.LBB188:
 759              	.LBB189:
 760              		.loc 2 640 0
 761 002a 2B68     		ldr	r3, [r5]
 762              	.LVL59:
 763              	.LBE189:
 764              	.LBE188:
 765              		.loc 1 448 0
 766 002c AA6B     		ldr	r2, [r5, #56]
 767              		.loc 1 439 0
 768 002e 8160     		str	r1, [r0, #8]
 769              	.LVL60:
 770              	.LBB192:
 771              	.LBB190:
 772              		.loc 2 640 0
 773 0030 2360     		str	r3, [r4]
 774              	.LBE190:
 775              	.LBE192:
 776              		.loc 1 450 0
 777 0032 2846     		mov	r0, r5
 778              	.LVL61:
 779              	.LBB193:
 780              	.LBB191:
 781              		.loc 2 640 0
 782 0034 5C60     		str	r4, [r3, #4]
 783              	.LBE191:
 784              	.LBE193:
 785              		.loc 1 447 0
 786 0036 A560     		str	r5, [r4, #8]
 787              		.loc 1 448 0
 788 0038 E260     		str	r2, [r4, #12]
 789              		.loc 1 449 0
 790 003a AC63     		str	r4, [r5, #56]
 791              	.LBE183:
 792              		.loc 1 457 0
 793 003c 30BC     		pop	{r4, r5}
ARM GAS  /tmp/ccgDH5PG.s 			page 15


 794              	.LVL62:
 795              	.LBB194:
 796              		.loc 1 450 0
 797 003e FFF7FEBF 		b	chSchReadyI
 798              	.LVL63:
 799              	.L53:
 800              	.LBE194:
 801              		.loc 1 453 0
 802 0042 0023     		movs	r3, #0
 803 0044 A360     		str	r3, [r4, #8]
 804              		.loc 1 457 0
 805 0046 30BC     		pop	{r4, r5}
 806              	.LVL64:
 807 0048 7047     		bx	lr
 808              	.L64:
 809 004a 00BF     		.align	2
 810              	.L63:
 811 004c 00000000 		.word	ch
 812              		.cfi_endproc
 813              	.LFE232:
 814              		.size	chMtxUnlockS, .-chMtxUnlockS
 815              		.section	.text.chMtxUnlockAll,"ax",%progbits
 816              		.align	2
 817              		.p2align 4,,15
 818              		.global	chMtxUnlockAll
 819              		.thumb
 820              		.thumb_func
 821              		.type	chMtxUnlockAll, %function
 822              	chMtxUnlockAll:
 823              	.LFB233:
 824              		.loc 1 470 0
 825              		.cfi_startproc
 826              		@ args = 0, pretend = 0, frame = 0
 827              		@ frame_needed = 0, uses_anonymous_args = 0
 828              		.loc 1 471 0
 829 0000 134A     		ldr	r2, .L76
 830              		.loc 1 470 0
 831 0002 70B5     		push	{r4, r5, r6, lr}
 832              		.cfi_def_cfa_offset 16
 833              		.cfi_offset 4, -16
 834              		.cfi_offset 5, -12
 835              		.cfi_offset 6, -8
 836              		.cfi_offset 14, -4
 837              	.LBB195:
 838              	.LBB196:
 839              	.LBB197:
 840              	.LBB198:
 841              		.loc 3 546 0
 842 0004 2023     		movs	r3, #32
 843              	.LBE198:
 844              	.LBE197:
 845              	.LBE196:
 846              	.LBE195:
 847              		.loc 1 471 0
 848 0006 9469     		ldr	r4, [r2, #24]
 849              	.LVL65:
 850              	.LBB202:
ARM GAS  /tmp/ccgDH5PG.s 			page 16


 851              	.LBB201:
 852              	.LBB200:
 853              	.LBB199:
 854              		.loc 3 546 0
 855              	@ 546 "../ChibiOS/os/ext/CMSIS/include/core_cmFunc.h" 1
 856 0008 83F31188 		MSR basepri, r3
 857              	@ 0 "" 2
 858              		.thumb
 859              	.LBE199:
 860              	.LBE200:
 861              	.LBE201:
 862              	.LBE202:
 863              		.loc 1 474 0
 864 000c A36B     		ldr	r3, [r4, #56]
 865 000e D3B1     		cbz	r3, .L66
 866              	.LBB203:
 867              		.loc 1 492 0
 868 0010 0026     		movs	r6, #0
 869 0012 0BE0     		b	.L70
 870              	.LVL66:
 871              	.L75:
 872              	.LBB204:
 873              	.LBB205:
 874              	.LBB206:
 875              		.loc 2 640 0
 876 0014 1168     		ldr	r1, [r2]
 877              	.LBE206:
 878              	.LBE205:
 879              		.loc 1 484 0
 880 0016 956B     		ldr	r5, [r2, #56]
 881              	.LBB209:
 882              	.LBB207:
 883              		.loc 2 640 0
 884 0018 1960     		str	r1, [r3]
 885              	.LBE207:
 886              	.LBE209:
 887              		.loc 1 486 0
 888 001a 1046     		mov	r0, r2
 889              	.LBB210:
 890              	.LBB208:
 891              		.loc 2 640 0
 892 001c 4B60     		str	r3, [r1, #4]
 893              	.LBE208:
 894              	.LBE210:
 895              		.loc 1 483 0
 896 001e 9A60     		str	r2, [r3, #8]
 897              		.loc 1 484 0
 898 0020 DD60     		str	r5, [r3, #12]
 899              		.loc 1 485 0
 900 0022 9363     		str	r3, [r2, #56]
 901              		.loc 1 486 0
 902 0024 FFF7FEFF 		bl	chSchReadyI
 903              	.LVL67:
 904              	.LBE204:
 905              	.LBE203:
 906              		.loc 1 494 0
 907 0028 A36B     		ldr	r3, [r4, #56]
ARM GAS  /tmp/ccgDH5PG.s 			page 17


 908 002a 43B1     		cbz	r3, .L74
 909              	.L70:
 910              	.LVL68:
 911              	.LBB215:
 912              	.LBB211:
 913              	.LBB212:
 914              	.LBB213:
 915              	.LBB214:
 916              		.loc 2 600 0
 917 002c 1A68     		ldr	r2, [r3]
 918              	.LVL69:
 919              	.LBE214:
 920              	.LBE213:
 921              	.LBE212:
 922              	.LBE211:
 923              		.loc 1 477 0
 924 002e D968     		ldr	r1, [r3, #12]
 925 0030 A163     		str	r1, [r4, #56]
 926              	.LVL70:
 927              		.loc 1 478 0
 928 0032 9342     		cmp	r3, r2
 929 0034 EED1     		bne	.L75
 930              		.loc 1 492 0
 931 0036 9E60     		str	r6, [r3, #8]
 932              	.LBE215:
 933              		.loc 1 494 0
 934 0038 A36B     		ldr	r3, [r4, #56]
 935              	.LVL71:
 936 003a 002B     		cmp	r3, #0
 937 003c F6D1     		bne	.L70
 938              	.LVL72:
 939              	.L74:
 940              		.loc 1 495 0
 941 003e E36B     		ldr	r3, [r4, #60]
 942 0040 A360     		str	r3, [r4, #8]
 943              		.loc 1 496 0
 944 0042 FFF7FEFF 		bl	chSchRescheduleS
 945              	.LVL73:
 946              	.L66:
 947              	.LBB216:
 948              	.LBB217:
 949              	.LBB218:
 950              	.LBB219:
 951              	.LBB220:
 952              		.loc 3 546 0
 953 0046 0023     		movs	r3, #0
 954              	@ 546 "../ChibiOS/os/ext/CMSIS/include/core_cmFunc.h" 1
 955 0048 83F31188 		MSR basepri, r3
 956              	@ 0 "" 2
 957              		.thumb
 958 004c 70BD     		pop	{r4, r5, r6, pc}
 959              	.LVL74:
 960              	.L77:
 961 004e 00BF     		.align	2
 962              	.L76:
 963 0050 00000000 		.word	ch
 964              	.LBE220:
ARM GAS  /tmp/ccgDH5PG.s 			page 18


 965              	.LBE219:
 966              	.LBE218:
 967              	.LBE217:
 968              	.LBE216:
 969              		.cfi_endproc
 970              	.LFE233:
 971              		.size	chMtxUnlockAll, .-chMtxUnlockAll
 972 0054 AFF30080 		.text
 972      AFF30080 
 972      AFF30080 
 973              	.Letext0:
 974              		.file 4 "/nfs/nfs5/home/research/hardware/arm2/gcc-arm-embedded/gcc-arm-none-eabi-4_8-2014q2/arm-n
 975              		.file 5 "/nfs/nfs5/home/research/hardware/arm2/gcc-arm-embedded/gcc-arm-none-eabi-4_8-2014q2/arm-n
 976              		.file 6 "../ChibiOS/os/rt/ports/ARMCMx/compilers/GCC/chtypes.h"
 977              		.file 7 "../ChibiOS/os/rt/include/chsystypes.h"
 978              		.file 8 "../ChibiOS/os/rt/ports/ARMCMx/chcore.h"
 979              		.file 9 "../ChibiOS/os/rt/ports/ARMCMx/chcore_v7m.h"
 980              		.file 10 "../ChibiOS/os/rt/include/chtm.h"
 981              		.file 11 "../ChibiOS/os/rt/include/chmtx.h"
 982              		.file 12 "../ChibiOS/os/rt/include/chsys.h"
 983              		.file 13 "../ChibiOS/os/ext/CMSIS/include/core_cm4.h"
 984              		.section	.debug_info,"",%progbits
 985              	.Ldebug_info0:
 986 0000 470F0000 		.4byte	0xf47
 987 0004 0400     		.2byte	0x4
 988 0006 00000000 		.4byte	.Ldebug_abbrev0
 989 000a 04       		.byte	0x4
 990 000b 01       		.uleb128 0x1
 991 000c 8C040000 		.4byte	.LASF119
 992 0010 01       		.byte	0x1
 993 0011 A7020000 		.4byte	.LASF120
 994 0015 58010000 		.4byte	.LASF121
 995 0019 38010000 		.4byte	.Ldebug_ranges0+0x138
 996 001d 00000000 		.4byte	0
 997 0021 00000000 		.4byte	.Ldebug_line0
 998 0025 02       		.uleb128 0x2
 999 0026 04       		.byte	0x4
 1000 0027 05       		.byte	0x5
 1001 0028 696E7400 		.ascii	"int\000"
 1002 002c 03       		.uleb128 0x3
 1003 002d 04       		.byte	0x4
 1004 002e 07       		.byte	0x7
 1005 002f F2010000 		.4byte	.LASF0
 1006 0033 03       		.uleb128 0x3
 1007 0034 01       		.byte	0x1
 1008 0035 06       		.byte	0x6
 1009 0036 C9000000 		.4byte	.LASF1
 1010 003a 04       		.uleb128 0x4
 1011 003b 1D000000 		.4byte	.LASF5
 1012 003f 04       		.byte	0x4
 1013 0040 1C       		.byte	0x1c
 1014 0041 45000000 		.4byte	0x45
 1015 0045 03       		.uleb128 0x3
 1016 0046 01       		.byte	0x1
 1017 0047 08       		.byte	0x8
 1018 0048 BB030000 		.4byte	.LASF2
 1019 004c 03       		.uleb128 0x3
ARM GAS  /tmp/ccgDH5PG.s 			page 19


 1020 004d 02       		.byte	0x2
 1021 004e 05       		.byte	0x5
 1022 004f DB030000 		.4byte	.LASF3
 1023 0053 03       		.uleb128 0x3
 1024 0054 02       		.byte	0x2
 1025 0055 07       		.byte	0x7
 1026 0056 1B020000 		.4byte	.LASF4
 1027 005a 04       		.uleb128 0x4
 1028 005b 9D020000 		.4byte	.LASF6
 1029 005f 04       		.byte	0x4
 1030 0060 37       		.byte	0x37
 1031 0061 65000000 		.4byte	0x65
 1032 0065 03       		.uleb128 0x3
 1033 0066 04       		.byte	0x4
 1034 0067 05       		.byte	0x5
 1035 0068 02010000 		.4byte	.LASF7
 1036 006c 04       		.uleb128 0x4
 1037 006d 96050000 		.4byte	.LASF8
 1038 0071 04       		.byte	0x4
 1039 0072 38       		.byte	0x38
 1040 0073 77000000 		.4byte	0x77
 1041 0077 03       		.uleb128 0x3
 1042 0078 04       		.byte	0x4
 1043 0079 07       		.byte	0x7
 1044 007a 6C040000 		.4byte	.LASF9
 1045 007e 03       		.uleb128 0x3
 1046 007f 08       		.byte	0x8
 1047 0080 05       		.byte	0x5
 1048 0081 31010000 		.4byte	.LASF10
 1049 0085 04       		.uleb128 0x4
 1050 0086 55030000 		.4byte	.LASF11
 1051 008a 04       		.byte	0x4
 1052 008b 4E       		.byte	0x4e
 1053 008c 90000000 		.4byte	0x90
 1054 0090 03       		.uleb128 0x3
 1055 0091 08       		.byte	0x8
 1056 0092 07       		.byte	0x7
 1057 0093 57000000 		.4byte	.LASF12
 1058 0097 04       		.uleb128 0x4
 1059 0098 FA050000 		.4byte	.LASF13
 1060 009c 05       		.byte	0x5
 1061 009d 2A       		.byte	0x2a
 1062 009e 3A000000 		.4byte	0x3a
 1063 00a2 04       		.uleb128 0x4
 1064 00a3 B3030000 		.4byte	.LASF14
 1065 00a7 05       		.byte	0x5
 1066 00a8 41       		.byte	0x41
 1067 00a9 5A000000 		.4byte	0x5a
 1068 00ad 04       		.uleb128 0x4
 1069 00ae 3F040000 		.4byte	.LASF15
 1070 00b2 05       		.byte	0x5
 1071 00b3 42       		.byte	0x42
 1072 00b4 6C000000 		.4byte	0x6c
 1073 00b8 04       		.uleb128 0x4
 1074 00b9 14000000 		.4byte	.LASF16
 1075 00bd 05       		.byte	0x5
 1076 00be 4E       		.byte	0x4e
ARM GAS  /tmp/ccgDH5PG.s 			page 20


 1077 00bf 85000000 		.4byte	0x85
 1078 00c3 05       		.uleb128 0x5
 1079 00c4 A2000000 		.4byte	0xa2
 1080 00c8 04       		.uleb128 0x4
 1081 00c9 CE050000 		.4byte	.LASF17
 1082 00cd 06       		.byte	0x6
 1083 00ce 45       		.byte	0x45
 1084 00cf AD000000 		.4byte	0xad
 1085 00d3 04       		.uleb128 0x4
 1086 00d4 6E020000 		.4byte	.LASF18
 1087 00d8 06       		.byte	0x6
 1088 00d9 48       		.byte	0x48
 1089 00da 97000000 		.4byte	0x97
 1090 00de 04       		.uleb128 0x4
 1091 00df 19010000 		.4byte	.LASF19
 1092 00e3 06       		.byte	0x6
 1093 00e4 49       		.byte	0x49
 1094 00e5 97000000 		.4byte	0x97
 1095 00e9 04       		.uleb128 0x4
 1096 00ea 60030000 		.4byte	.LASF20
 1097 00ee 06       		.byte	0x6
 1098 00ef 4A       		.byte	0x4a
 1099 00f0 97000000 		.4byte	0x97
 1100 00f4 04       		.uleb128 0x4
 1101 00f5 7F030000 		.4byte	.LASF21
 1102 00f9 06       		.byte	0x6
 1103 00fa 4C       		.byte	0x4c
 1104 00fb AD000000 		.4byte	0xad
 1105 00ff 04       		.uleb128 0x4
 1106 0100 45020000 		.4byte	.LASF22
 1107 0104 06       		.byte	0x6
 1108 0105 4D       		.byte	0x4d
 1109 0106 A2000000 		.4byte	0xa2
 1110 010a 04       		.uleb128 0x4
 1111 010b 84020000 		.4byte	.LASF23
 1112 010f 06       		.byte	0x6
 1113 0110 4F       		.byte	0x4f
 1114 0111 AD000000 		.4byte	0xad
 1115 0115 04       		.uleb128 0x4
 1116 0116 78050000 		.4byte	.LASF24
 1117 011a 07       		.byte	0x7
 1118 011b 33       		.byte	0x33
 1119 011c AD000000 		.4byte	0xad
 1120 0120 04       		.uleb128 0x4
 1121 0121 83040000 		.4byte	.LASF25
 1122 0125 07       		.byte	0x7
 1123 0126 3F       		.byte	0x3f
 1124 0127 2B010000 		.4byte	0x12b
 1125 012b 06       		.uleb128 0x6
 1126 012c 2E020000 		.4byte	.LASF44
 1127 0130 44       		.byte	0x44
 1128 0131 02       		.byte	0x2
 1129 0132 BE       		.byte	0xbe
 1130 0133 18020000 		.4byte	0x218
 1131 0137 07       		.uleb128 0x7
 1132 0138 F3030000 		.4byte	.LASF26
 1133 013c 02       		.byte	0x2
ARM GAS  /tmp/ccgDH5PG.s 			page 21


 1134 013d BF       		.byte	0xbf
 1135 013e FC040000 		.4byte	0x4fc
 1136 0142 00       		.byte	0
 1137 0143 07       		.uleb128 0x7
 1138 0144 78030000 		.4byte	.LASF27
 1139 0148 02       		.byte	0x2
 1140 0149 C1       		.byte	0xc1
 1141 014a FC040000 		.4byte	0x4fc
 1142 014e 04       		.byte	0x4
 1143 014f 07       		.uleb128 0x7
 1144 0150 B6000000 		.4byte	.LASF28
 1145 0154 02       		.byte	0x2
 1146 0155 C3       		.byte	0xc3
 1147 0156 F4000000 		.4byte	0xf4
 1148 015a 08       		.byte	0x8
 1149 015b 07       		.uleb128 0x7
 1150 015c 4B060000 		.4byte	.LASF29
 1151 0160 02       		.byte	0x2
 1152 0161 C4       		.byte	0xc4
 1153 0162 42040000 		.4byte	0x442
 1154 0166 0C       		.byte	0xc
 1155 0167 07       		.uleb128 0x7
 1156 0168 96010000 		.4byte	.LASF30
 1157 016c 02       		.byte	0x2
 1158 016d C6       		.byte	0xc6
 1159 016e FC040000 		.4byte	0x4fc
 1160 0172 10       		.byte	0x10
 1161 0173 07       		.uleb128 0x7
 1162 0174 1D030000 		.4byte	.LASF31
 1163 0178 02       		.byte	0x2
 1164 0179 C7       		.byte	0xc7
 1165 017a FC040000 		.4byte	0x4fc
 1166 017e 14       		.byte	0x14
 1167 017f 07       		.uleb128 0x7
 1168 0180 09060000 		.4byte	.LASF32
 1169 0184 02       		.byte	0x2
 1170 0185 CE       		.byte	0xce
 1171 0186 3A050000 		.4byte	0x53a
 1172 018a 18       		.byte	0x18
 1173 018b 07       		.uleb128 0x7
 1174 018c C9030000 		.4byte	.LASF33
 1175 0190 02       		.byte	0x2
 1176 0191 D9       		.byte	0xd9
 1177 0192 DE000000 		.4byte	0xde
 1178 0196 1C       		.byte	0x1c
 1179 0197 07       		.uleb128 0x7
 1180 0198 FA030000 		.4byte	.LASF34
 1181 019c 02       		.byte	0x2
 1182 019d DD       		.byte	0xdd
 1183 019e D3000000 		.4byte	0xd3
 1184 01a2 1D       		.byte	0x1d
 1185 01a3 07       		.uleb128 0x7
 1186 01a4 ED050000 		.4byte	.LASF35
 1187 01a8 02       		.byte	0x2
 1188 01a9 E2       		.byte	0xe2
 1189 01aa E9000000 		.4byte	0xe9
 1190 01ae 1E       		.byte	0x1e
ARM GAS  /tmp/ccgDH5PG.s 			page 22


 1191 01af 08       		.uleb128 0x8
 1192 01b0 705F7500 		.ascii	"p_u\000"
 1193 01b4 02       		.byte	0x2
 1194 01b5 1401     		.2byte	0x114
 1195 01b7 02050000 		.4byte	0x502
 1196 01bb 20       		.byte	0x20
 1197 01bc 09       		.uleb128 0x9
 1198 01bd CF020000 		.4byte	.LASF36
 1199 01c1 02       		.byte	0x2
 1200 01c2 1901     		.2byte	0x119
 1201 01c4 18020000 		.4byte	0x218
 1202 01c8 24       		.byte	0x24
 1203 01c9 09       		.uleb128 0x9
 1204 01ca 10020000 		.4byte	.LASF37
 1205 01ce 02       		.byte	0x2
 1206 01cf 1F01     		.2byte	0x11f
 1207 01d1 3C020000 		.4byte	0x23c
 1208 01d5 28       		.byte	0x28
 1209 01d6 09       		.uleb128 0x9
 1210 01d7 2B060000 		.4byte	.LASF38
 1211 01db 02       		.byte	0x2
 1212 01dc 2301     		.2byte	0x123
 1213 01de FF000000 		.4byte	0xff
 1214 01e2 30       		.byte	0x30
 1215 01e3 09       		.uleb128 0x9
 1216 01e4 34040000 		.4byte	.LASF39
 1217 01e8 02       		.byte	0x2
 1218 01e9 2901     		.2byte	0x129
 1219 01eb 0A010000 		.4byte	0x10a
 1220 01ef 34       		.byte	0x34
 1221 01f0 09       		.uleb128 0x9
 1222 01f1 D1030000 		.4byte	.LASF40
 1223 01f5 02       		.byte	0x2
 1224 01f6 3001     		.2byte	0x130
 1225 01f8 7D050000 		.4byte	0x57d
 1226 01fc 38       		.byte	0x38
 1227 01fd 09       		.uleb128 0x9
 1228 01fe 82050000 		.4byte	.LASF41
 1229 0202 02       		.byte	0x2
 1230 0203 3401     		.2byte	0x134
 1231 0205 F4000000 		.4byte	0xf4
 1232 0209 3C       		.byte	0x3c
 1233 020a 09       		.uleb128 0x9
 1234 020b D5000000 		.4byte	.LASF42
 1235 020f 02       		.byte	0x2
 1236 0210 3A01     		.2byte	0x13a
 1237 0212 EF020000 		.4byte	0x2ef
 1238 0216 40       		.byte	0x40
 1239 0217 00       		.byte	0
 1240 0218 04       		.uleb128 0x4
 1241 0219 10060000 		.4byte	.LASF43
 1242 021d 07       		.byte	0x7
 1243 021e 44       		.byte	0x44
 1244 021f 23020000 		.4byte	0x223
 1245 0223 06       		.uleb128 0x6
 1246 0224 5C040000 		.4byte	.LASF45
 1247 0228 04       		.byte	0x4
ARM GAS  /tmp/ccgDH5PG.s 			page 23


 1248 0229 02       		.byte	0x2
 1249 022a AC       		.byte	0xac
 1250 022b 3C020000 		.4byte	0x23c
 1251 022f 07       		.uleb128 0x7
 1252 0230 F3030000 		.4byte	.LASF26
 1253 0234 02       		.byte	0x2
 1254 0235 AD       		.byte	0xad
 1255 0236 FC040000 		.4byte	0x4fc
 1256 023a 00       		.byte	0
 1257 023b 00       		.byte	0
 1258 023c 04       		.uleb128 0x4
 1259 023d DD050000 		.4byte	.LASF46
 1260 0241 07       		.byte	0x7
 1261 0242 4B       		.byte	0x4b
 1262 0243 47020000 		.4byte	0x247
 1263 0247 06       		.uleb128 0x6
 1264 0248 A5000000 		.4byte	.LASF47
 1265 024c 08       		.byte	0x8
 1266 024d 02       		.byte	0x2
 1267 024e B3       		.byte	0xb3
 1268 024f 6C020000 		.4byte	0x26c
 1269 0253 07       		.uleb128 0x7
 1270 0254 F3030000 		.4byte	.LASF26
 1271 0258 02       		.byte	0x2
 1272 0259 B4       		.byte	0xb4
 1273 025a FC040000 		.4byte	0x4fc
 1274 025e 00       		.byte	0
 1275 025f 07       		.uleb128 0x7
 1276 0260 78030000 		.4byte	.LASF27
 1277 0264 02       		.byte	0x2
 1278 0265 B5       		.byte	0xb5
 1279 0266 FC040000 		.4byte	0x4fc
 1280 026a 04       		.byte	0x4
 1281 026b 00       		.byte	0
 1282 026c 04       		.uleb128 0x4
 1283 026d 00000000 		.4byte	.LASF48
 1284 0271 07       		.byte	0x7
 1285 0272 52       		.byte	0x52
 1286 0273 77020000 		.4byte	0x277
 1287 0277 0A       		.uleb128 0xa
 1288 0278 76020000 		.4byte	.LASF49
 1289 027c 1C       		.byte	0x1c
 1290 027d 02       		.byte	0x2
 1291 027e 7201     		.2byte	0x172
 1292 0280 D3020000 		.4byte	0x2d3
 1293 0284 09       		.uleb128 0x9
 1294 0285 48040000 		.4byte	.LASF50
 1295 0289 02       		.byte	0x2
 1296 028a 7301     		.2byte	0x173
 1297 028c 3C020000 		.4byte	0x23c
 1298 0290 00       		.byte	0
 1299 0291 09       		.uleb128 0x9
 1300 0292 E5030000 		.4byte	.LASF51
 1301 0296 02       		.byte	0x2
 1302 0297 7401     		.2byte	0x174
 1303 0299 F4000000 		.4byte	0xf4
 1304 029d 08       		.byte	0x8
ARM GAS  /tmp/ccgDH5PG.s 			page 24


 1305 029e 09       		.uleb128 0x9
 1306 029f 25030000 		.4byte	.LASF52
 1307 02a3 02       		.byte	0x2
 1308 02a4 7601     		.2byte	0x176
 1309 02a6 42040000 		.4byte	0x442
 1310 02aa 0C       		.byte	0xc
 1311 02ab 09       		.uleb128 0x9
 1312 02ac AF010000 		.4byte	.LASF53
 1313 02b0 02       		.byte	0x2
 1314 02b1 7901     		.2byte	0x179
 1315 02b3 FC040000 		.4byte	0x4fc
 1316 02b7 10       		.byte	0x10
 1317 02b8 09       		.uleb128 0x9
 1318 02b9 4D030000 		.4byte	.LASF54
 1319 02bd 02       		.byte	0x2
 1320 02be 7A01     		.2byte	0x17a
 1321 02c0 FC040000 		.4byte	0x4fc
 1322 02c4 14       		.byte	0x14
 1323 02c5 09       		.uleb128 0x9
 1324 02c6 43030000 		.4byte	.LASF55
 1325 02ca 02       		.byte	0x2
 1326 02cb 7D01     		.2byte	0x17d
 1327 02cd FC040000 		.4byte	0x4fc
 1328 02d1 18       		.byte	0x18
 1329 02d2 00       		.byte	0
 1330 02d3 04       		.uleb128 0x4
 1331 02d4 8D050000 		.4byte	.LASF56
 1332 02d8 07       		.byte	0x7
 1333 02d9 57       		.byte	0x57
 1334 02da DE020000 		.4byte	0x2de
 1335 02de 0B       		.uleb128 0xb
 1336 02df 04       		.byte	0x4
 1337 02e0 E4020000 		.4byte	0x2e4
 1338 02e4 0C       		.uleb128 0xc
 1339 02e5 EF020000 		.4byte	0x2ef
 1340 02e9 0D       		.uleb128 0xd
 1341 02ea EF020000 		.4byte	0x2ef
 1342 02ee 00       		.byte	0
 1343 02ef 0E       		.uleb128 0xe
 1344 02f0 04       		.byte	0x4
 1345 02f1 04       		.uleb128 0x4
 1346 02f2 68030000 		.4byte	.LASF57
 1347 02f6 07       		.byte	0x7
 1348 02f7 5C       		.byte	0x5c
 1349 02f8 FC020000 		.4byte	0x2fc
 1350 02fc 0A       		.uleb128 0xa
 1351 02fd 15040000 		.4byte	.LASF58
 1352 0301 14       		.byte	0x14
 1353 0302 02       		.byte	0x2
 1354 0303 4D01     		.2byte	0x14d
 1355 0305 4B030000 		.4byte	0x34b
 1356 0309 09       		.uleb128 0x9
 1357 030a FF010000 		.4byte	.LASF59
 1358 030e 02       		.byte	0x2
 1359 030f 4E01     		.2byte	0x14e
 1360 0311 83050000 		.4byte	0x583
 1361 0315 00       		.byte	0
ARM GAS  /tmp/ccgDH5PG.s 			page 25


 1362 0316 09       		.uleb128 0x9
 1363 0317 C0010000 		.4byte	.LASF60
 1364 031b 02       		.byte	0x2
 1365 031c 4F01     		.2byte	0x14f
 1366 031e 83050000 		.4byte	0x583
 1367 0322 04       		.byte	0x4
 1368 0323 09       		.uleb128 0x9
 1369 0324 07020000 		.4byte	.LASF61
 1370 0328 02       		.byte	0x2
 1371 0329 5001     		.2byte	0x150
 1372 032b 15010000 		.4byte	0x115
 1373 032f 08       		.byte	0x8
 1374 0330 09       		.uleb128 0x9
 1375 0331 51060000 		.4byte	.LASF62
 1376 0335 02       		.byte	0x2
 1377 0336 5101     		.2byte	0x151
 1378 0338 D3020000 		.4byte	0x2d3
 1379 033c 0C       		.byte	0xc
 1380 033d 09       		.uleb128 0x9
 1381 033e D6050000 		.4byte	.LASF63
 1382 0342 02       		.byte	0x2
 1383 0343 5301     		.2byte	0x153
 1384 0345 EF020000 		.4byte	0x2ef
 1385 0349 10       		.byte	0x10
 1386 034a 00       		.byte	0
 1387 034b 04       		.uleb128 0x4
 1388 034c 82000000 		.4byte	.LASF64
 1389 0350 07       		.byte	0x7
 1390 0351 61       		.byte	0x61
 1391 0352 56030000 		.4byte	0x356
 1392 0356 0A       		.uleb128 0xa
 1393 0357 E2020000 		.4byte	.LASF65
 1394 035b 10       		.byte	0x10
 1395 035c 02       		.byte	0x2
 1396 035d 5D01     		.2byte	0x15d
 1397 035f 98030000 		.4byte	0x398
 1398 0363 09       		.uleb128 0x9
 1399 0364 FF010000 		.4byte	.LASF59
 1400 0368 02       		.byte	0x2
 1401 0369 5E01     		.2byte	0x15e
 1402 036b 83050000 		.4byte	0x583
 1403 036f 00       		.byte	0
 1404 0370 09       		.uleb128 0x9
 1405 0371 C0010000 		.4byte	.LASF60
 1406 0375 02       		.byte	0x2
 1407 0376 6001     		.2byte	0x160
 1408 0378 83050000 		.4byte	0x583
 1409 037c 04       		.byte	0x4
 1410 037d 09       		.uleb128 0x9
 1411 037e 07020000 		.4byte	.LASF61
 1412 0382 02       		.byte	0x2
 1413 0383 6201     		.2byte	0x162
 1414 0385 15010000 		.4byte	0x115
 1415 0389 08       		.byte	0x8
 1416 038a 09       		.uleb128 0x9
 1417 038b 07030000 		.4byte	.LASF66
 1418 038f 02       		.byte	0x2
ARM GAS  /tmp/ccgDH5PG.s 			page 26


 1419 0390 6A01     		.2byte	0x16a
 1420 0392 15010000 		.4byte	0x115
 1421 0396 0C       		.byte	0xc
 1422 0397 00       		.byte	0
 1423 0398 04       		.uleb128 0x4
 1424 0399 33000000 		.4byte	.LASF67
 1425 039d 07       		.byte	0x7
 1426 039e 66       		.byte	0x66
 1427 039f A3030000 		.4byte	0x3a3
 1428 03a3 0A       		.uleb128 0xa
 1429 03a4 9D030000 		.4byte	.LASF68
 1430 03a8 04       		.byte	0x4
 1431 03a9 02       		.byte	0x2
 1432 03aa 8401     		.2byte	0x184
 1433 03ac BE030000 		.4byte	0x3be
 1434 03b0 09       		.uleb128 0x9
 1435 03b1 B5050000 		.4byte	.LASF69
 1436 03b5 02       		.byte	0x2
 1437 03b6 8C01     		.2byte	0x18c
 1438 03b8 89050000 		.4byte	0x589
 1439 03bc 00       		.byte	0
 1440 03bd 00       		.byte	0
 1441 03be 04       		.uleb128 0x4
 1442 03bf 4B020000 		.4byte	.LASF70
 1443 03c3 07       		.byte	0x7
 1444 03c4 6B       		.byte	0x6b
 1445 03c5 C9030000 		.4byte	0x3c9
 1446 03c9 0F       		.uleb128 0xf
 1447 03ca F8000000 		.4byte	.LASF71
 1448 03ce 5001     		.2byte	0x150
 1449 03d0 02       		.byte	0x2
 1450 03d1 A401     		.2byte	0x1a4
 1451 03d3 25040000 		.4byte	0x425
 1452 03d7 09       		.uleb128 0x9
 1453 03d8 F4050000 		.4byte	.LASF72
 1454 03dc 02       		.byte	0x2
 1455 03dd A801     		.2byte	0x1a8
 1456 03df 6C020000 		.4byte	0x26c
 1457 03e3 00       		.byte	0
 1458 03e4 09       		.uleb128 0x9
 1459 03e5 E5000000 		.4byte	.LASF73
 1460 03e9 02       		.byte	0x2
 1461 03ea AC01     		.2byte	0x1ac
 1462 03ec 4B030000 		.4byte	0x34b
 1463 03f0 1C       		.byte	0x1c
 1464 03f1 08       		.uleb128 0x8
 1465 03f2 64626700 		.ascii	"dbg\000"
 1466 03f6 02       		.byte	0x2
 1467 03f7 B001     		.2byte	0x1b0
 1468 03f9 98030000 		.4byte	0x398
 1469 03fd 2C       		.byte	0x2c
 1470 03fe 09       		.uleb128 0x9
 1471 03ff 77000000 		.4byte	.LASF74
 1472 0403 02       		.byte	0x2
 1473 0404 B401     		.2byte	0x1b4
 1474 0406 20010000 		.4byte	0x120
 1475 040a 30       		.byte	0x30
ARM GAS  /tmp/ccgDH5PG.s 			page 27


 1476 040b 08       		.uleb128 0x8
 1477 040c 746D00   		.ascii	"tm\000"
 1478 040f 02       		.byte	0x2
 1479 0410 B901     		.2byte	0x1b9
 1480 0412 F1040000 		.4byte	0x4f1
 1481 0416 74       		.byte	0x74
 1482 0417 09       		.uleb128 0x9
 1483 0418 D6010000 		.4byte	.LASF75
 1484 041c 02       		.byte	0x2
 1485 041d C501     		.2byte	0x1c5
 1486 041f 8E050000 		.4byte	0x58e
 1487 0423 78       		.byte	0x78
 1488 0424 00       		.byte	0
 1489 0425 03       		.uleb128 0x3
 1490 0426 04       		.byte	0x4
 1491 0427 07       		.byte	0x7
 1492 0428 D9020000 		.4byte	.LASF76
 1493 042c 04       		.uleb128 0x4
 1494 042d B7010000 		.4byte	.LASF77
 1495 0431 08       		.byte	0x8
 1496 0432 85       		.byte	0x85
 1497 0433 EF020000 		.4byte	0x2ef
 1498 0437 04       		.uleb128 0x4
 1499 0438 C4020000 		.4byte	.LASF78
 1500 043c 08       		.byte	0x8
 1501 043d 8D       		.byte	0x8d
 1502 043e B8000000 		.4byte	0xb8
 1503 0442 06       		.uleb128 0x6
 1504 0443 C6050000 		.4byte	.LASF79
 1505 0447 04       		.byte	0x4
 1506 0448 08       		.byte	0x8
 1507 0449 A9       		.byte	0xa9
 1508 044a 5B040000 		.4byte	0x45b
 1509 044e 10       		.uleb128 0x10
 1510 044f 72313300 		.ascii	"r13\000"
 1511 0453 08       		.byte	0x8
 1512 0454 AA       		.byte	0xaa
 1513 0455 D6040000 		.4byte	0x4d6
 1514 0459 00       		.byte	0
 1515 045a 00       		.byte	0
 1516 045b 06       		.uleb128 0x6
 1517 045c 27000000 		.4byte	.LASF80
 1518 0460 24       		.byte	0x24
 1519 0461 09       		.byte	0x9
 1520 0462 F4       		.byte	0xf4
 1521 0463 D6040000 		.4byte	0x4d6
 1522 0467 08       		.uleb128 0x8
 1523 0468 723400   		.ascii	"r4\000"
 1524 046b 09       		.byte	0x9
 1525 046c 0701     		.2byte	0x107
 1526 046e 2C040000 		.4byte	0x42c
 1527 0472 00       		.byte	0
 1528 0473 08       		.uleb128 0x8
 1529 0474 723500   		.ascii	"r5\000"
 1530 0477 09       		.byte	0x9
 1531 0478 0801     		.2byte	0x108
 1532 047a 2C040000 		.4byte	0x42c
ARM GAS  /tmp/ccgDH5PG.s 			page 28


 1533 047e 04       		.byte	0x4
 1534 047f 08       		.uleb128 0x8
 1535 0480 723600   		.ascii	"r6\000"
 1536 0483 09       		.byte	0x9
 1537 0484 0901     		.2byte	0x109
 1538 0486 2C040000 		.4byte	0x42c
 1539 048a 08       		.byte	0x8
 1540 048b 08       		.uleb128 0x8
 1541 048c 723700   		.ascii	"r7\000"
 1542 048f 09       		.byte	0x9
 1543 0490 0A01     		.2byte	0x10a
 1544 0492 2C040000 		.4byte	0x42c
 1545 0496 0C       		.byte	0xc
 1546 0497 08       		.uleb128 0x8
 1547 0498 723800   		.ascii	"r8\000"
 1548 049b 09       		.byte	0x9
 1549 049c 0B01     		.2byte	0x10b
 1550 049e 2C040000 		.4byte	0x42c
 1551 04a2 10       		.byte	0x10
 1552 04a3 08       		.uleb128 0x8
 1553 04a4 723900   		.ascii	"r9\000"
 1554 04a7 09       		.byte	0x9
 1555 04a8 0C01     		.2byte	0x10c
 1556 04aa 2C040000 		.4byte	0x42c
 1557 04ae 14       		.byte	0x14
 1558 04af 08       		.uleb128 0x8
 1559 04b0 72313000 		.ascii	"r10\000"
 1560 04b4 09       		.byte	0x9
 1561 04b5 0D01     		.2byte	0x10d
 1562 04b7 2C040000 		.4byte	0x42c
 1563 04bb 18       		.byte	0x18
 1564 04bc 08       		.uleb128 0x8
 1565 04bd 72313100 		.ascii	"r11\000"
 1566 04c1 09       		.byte	0x9
 1567 04c2 0E01     		.2byte	0x10e
 1568 04c4 2C040000 		.4byte	0x42c
 1569 04c8 1C       		.byte	0x1c
 1570 04c9 08       		.uleb128 0x8
 1571 04ca 6C7200   		.ascii	"lr\000"
 1572 04cd 09       		.byte	0x9
 1573 04ce 0F01     		.2byte	0x10f
 1574 04d0 2C040000 		.4byte	0x42c
 1575 04d4 20       		.byte	0x20
 1576 04d5 00       		.byte	0
 1577 04d6 0B       		.uleb128 0xb
 1578 04d7 04       		.byte	0x4
 1579 04d8 5B040000 		.4byte	0x45b
 1580 04dc 11       		.uleb128 0x11
 1581 04dd 04       		.byte	0x4
 1582 04de 0A       		.byte	0xa
 1583 04df 38       		.byte	0x38
 1584 04e0 F1040000 		.4byte	0x4f1
 1585 04e4 07       		.uleb128 0x7
 1586 04e5 BF050000 		.4byte	.LASF81
 1587 04e9 0A       		.byte	0xa
 1588 04ea 3C       		.byte	0x3c
 1589 04eb C8000000 		.4byte	0xc8
ARM GAS  /tmp/ccgDH5PG.s 			page 29


 1590 04ef 00       		.byte	0
 1591 04f0 00       		.byte	0
 1592 04f1 04       		.uleb128 0x4
 1593 04f2 2B030000 		.4byte	.LASF82
 1594 04f6 0A       		.byte	0xa
 1595 04f7 3D       		.byte	0x3d
 1596 04f8 DC040000 		.4byte	0x4dc
 1597 04fc 0B       		.uleb128 0xb
 1598 04fd 04       		.byte	0x4
 1599 04fe 20010000 		.4byte	0x120
 1600 0502 12       		.uleb128 0x12
 1601 0503 04       		.byte	0x4
 1602 0504 02       		.byte	0x2
 1603 0505 F6       		.byte	0xf6
 1604 0506 3A050000 		.4byte	0x53a
 1605 050a 13       		.uleb128 0x13
 1606 050b 0D000000 		.4byte	.LASF83
 1607 050f 02       		.byte	0x2
 1608 0510 FD       		.byte	0xfd
 1609 0511 FF000000 		.4byte	0xff
 1610 0515 14       		.uleb128 0x14
 1611 0516 6E000000 		.4byte	.LASF84
 1612 051a 02       		.byte	0x2
 1613 051b 0401     		.2byte	0x104
 1614 051d FF000000 		.4byte	0xff
 1615 0521 14       		.uleb128 0x14
 1616 0522 02060000 		.4byte	.LASF85
 1617 0526 02       		.byte	0x2
 1618 0527 0B01     		.2byte	0x10b
 1619 0529 EF020000 		.4byte	0x2ef
 1620 052d 14       		.uleb128 0x14
 1621 052e EC030000 		.4byte	.LASF86
 1622 0532 02       		.byte	0x2
 1623 0533 1201     		.2byte	0x112
 1624 0535 0A010000 		.4byte	0x10a
 1625 0539 00       		.byte	0
 1626 053a 0B       		.uleb128 0xb
 1627 053b 04       		.byte	0x4
 1628 053c 40050000 		.4byte	0x540
 1629 0540 15       		.uleb128 0x15
 1630 0541 45050000 		.4byte	0x545
 1631 0545 03       		.uleb128 0x3
 1632 0546 01       		.byte	0x1
 1633 0547 08       		.byte	0x8
 1634 0548 7E040000 		.4byte	.LASF87
 1635 054c 06       		.uleb128 0x6
 1636 054d 87030000 		.4byte	.LASF88
 1637 0551 10       		.byte	0x10
 1638 0552 0B       		.byte	0xb
 1639 0553 39       		.byte	0x39
 1640 0554 7D050000 		.4byte	0x57d
 1641 0558 07       		.uleb128 0x7
 1642 0559 DD000000 		.4byte	.LASF89
 1643 055d 0B       		.byte	0xb
 1644 055e 3A       		.byte	0x3a
 1645 055f 3C020000 		.4byte	0x23c
 1646 0563 00       		.byte	0
ARM GAS  /tmp/ccgDH5PG.s 			page 30


 1647 0564 07       		.uleb128 0x7
 1648 0565 43060000 		.4byte	.LASF90
 1649 0569 0B       		.byte	0xb
 1650 056a 3C       		.byte	0x3c
 1651 056b FC040000 		.4byte	0x4fc
 1652 056f 08       		.byte	0x8
 1653 0570 07       		.uleb128 0x7
 1654 0571 3C030000 		.4byte	.LASF91
 1655 0575 0B       		.byte	0xb
 1656 0576 3E       		.byte	0x3e
 1657 0577 A9050000 		.4byte	0x5a9
 1658 057b 0C       		.byte	0xc
 1659 057c 00       		.byte	0
 1660 057d 0B       		.uleb128 0xb
 1661 057e 04       		.byte	0x4
 1662 057f 4C050000 		.4byte	0x54c
 1663 0583 0B       		.uleb128 0xb
 1664 0584 04       		.byte	0x4
 1665 0585 F1020000 		.4byte	0x2f1
 1666 0589 05       		.uleb128 0x5
 1667 058a 3A050000 		.4byte	0x53a
 1668 058e 16       		.uleb128 0x16
 1669 058f 37040000 		.4byte	0x437
 1670 0593 9E050000 		.4byte	0x59e
 1671 0597 17       		.uleb128 0x17
 1672 0598 25040000 		.4byte	0x425
 1673 059c 1A       		.byte	0x1a
 1674 059d 00       		.byte	0
 1675 059e 04       		.uleb128 0x4
 1676 059f C8010000 		.4byte	.LASF92
 1677 05a3 0B       		.byte	0xb
 1678 05a4 34       		.byte	0x34
 1679 05a5 4C050000 		.4byte	0x54c
 1680 05a9 0B       		.uleb128 0xb
 1681 05aa 04       		.byte	0x4
 1682 05ab 9E050000 		.4byte	0x59e
 1683 05af 18       		.uleb128 0x18
 1684 05b0 F9020000 		.4byte	.LASF97
 1685 05b4 03       		.byte	0x3
 1686 05b5 2002     		.2byte	0x220
 1687 05b7 03       		.byte	0x3
 1688 05b8 C9050000 		.4byte	0x5c9
 1689 05bc 19       		.uleb128 0x19
 1690 05bd D0010000 		.4byte	.LASF95
 1691 05c1 03       		.byte	0x3
 1692 05c2 2002     		.2byte	0x220
 1693 05c4 AD000000 		.4byte	0xad
 1694 05c8 00       		.byte	0
 1695 05c9 1A       		.uleb128 0x1a
 1696 05ca 4D000000 		.4byte	.LASF93
 1697 05ce 09       		.byte	0x9
 1698 05cf BB01     		.2byte	0x1bb
 1699 05d1 03       		.byte	0x3
 1700 05d2 1A       		.uleb128 0x1a
 1701 05d3 EC000000 		.4byte	.LASF94
 1702 05d7 09       		.byte	0x9
 1703 05d8 C901     		.2byte	0x1c9
ARM GAS  /tmp/ccgDH5PG.s 			page 31


 1704 05da 03       		.byte	0x3
 1705 05db 1B       		.uleb128 0x1b
 1706 05dc 22010000 		.4byte	.LASF99
 1707 05e0 02       		.byte	0x2
 1708 05e1 5602     		.2byte	0x256
 1709 05e3 F9050000 		.4byte	0x5f9
 1710 05e7 03       		.byte	0x3
 1711 05e8 F9050000 		.4byte	0x5f9
 1712 05ec 1C       		.uleb128 0x1c
 1713 05ed 74717000 		.ascii	"tqp\000"
 1714 05f1 02       		.byte	0x2
 1715 05f2 5602     		.2byte	0x256
 1716 05f4 00060000 		.4byte	0x600
 1717 05f8 00       		.byte	0
 1718 05f9 03       		.uleb128 0x3
 1719 05fa 01       		.byte	0x1
 1720 05fb 02       		.byte	0x2
 1721 05fc AD030000 		.4byte	.LASF96
 1722 0600 0B       		.uleb128 0xb
 1723 0601 04       		.byte	0x4
 1724 0602 3C020000 		.4byte	0x23c
 1725 0606 18       		.uleb128 0x18
 1726 0607 42000000 		.4byte	.LASF98
 1727 060b 02       		.byte	0x2
 1728 060c 3C02     		.2byte	0x23c
 1729 060e 03       		.byte	0x3
 1730 060f 20060000 		.4byte	0x620
 1731 0613 1C       		.uleb128 0x1c
 1732 0614 74717000 		.ascii	"tqp\000"
 1733 0618 02       		.byte	0x2
 1734 0619 3C02     		.2byte	0x23c
 1735 061b 00060000 		.4byte	0x600
 1736 061f 00       		.byte	0
 1737 0620 1B       		.uleb128 0x1b
 1738 0621 0B010000 		.4byte	.LASF100
 1739 0625 02       		.byte	0x2
 1740 0626 8B02     		.2byte	0x28b
 1741 0628 FC040000 		.4byte	0x4fc
 1742 062c 03       		.byte	0x3
 1743 062d 3D060000 		.4byte	0x63d
 1744 0631 1C       		.uleb128 0x1c
 1745 0632 747000   		.ascii	"tp\000"
 1746 0635 02       		.byte	0x2
 1747 0636 8B02     		.2byte	0x28b
 1748 0638 FC040000 		.4byte	0x4fc
 1749 063c 00       		.byte	0
 1750 063d 18       		.uleb128 0x18
 1751 063e 31060000 		.4byte	.LASF101
 1752 0642 02       		.byte	0x2
 1753 0643 6B02     		.2byte	0x26b
 1754 0645 03       		.byte	0x3
 1755 0646 6D060000 		.4byte	0x66d
 1756 064a 1C       		.uleb128 0x1c
 1757 064b 747000   		.ascii	"tp\000"
 1758 064e 02       		.byte	0x2
 1759 064f 6B02     		.2byte	0x26b
 1760 0651 FC040000 		.4byte	0x4fc
ARM GAS  /tmp/ccgDH5PG.s 			page 32


 1761 0655 1C       		.uleb128 0x1c
 1762 0656 74717000 		.ascii	"tqp\000"
 1763 065a 02       		.byte	0x2
 1764 065b 6B02     		.2byte	0x26b
 1765 065d 00060000 		.4byte	0x600
 1766 0661 1D       		.uleb128 0x1d
 1767 0662 637000   		.ascii	"cp\000"
 1768 0665 02       		.byte	0x2
 1769 0666 6D02     		.2byte	0x26d
 1770 0668 FC040000 		.4byte	0x4fc
 1771 066c 00       		.byte	0
 1772 066d 1A       		.uleb128 0x1a
 1773 066e 0B040000 		.4byte	.LASF102
 1774 0672 0C       		.byte	0xc
 1775 0673 2901     		.2byte	0x129
 1776 0675 03       		.byte	0x3
 1777 0676 18       		.uleb128 0x18
 1778 0677 1F060000 		.4byte	.LASF103
 1779 067b 0C       		.byte	0xc
 1780 067c 3501     		.2byte	0x135
 1781 067e 03       		.byte	0x3
 1782 067f 91060000 		.4byte	0x691
 1783 0683 1E       		.uleb128 0x1e
 1784 0684 02040000 		.4byte	.LASF104
 1785 0688 A1060000 		.4byte	0x6a1
 1786 068c 1F060000 		.4byte	.LASF103
 1787 0690 00       		.byte	0
 1788 0691 16       		.uleb128 0x16
 1789 0692 45050000 		.4byte	0x545
 1790 0696 A1060000 		.4byte	0x6a1
 1791 069a 17       		.uleb128 0x17
 1792 069b 25040000 		.4byte	0x425
 1793 069f 0B       		.byte	0xb
 1794 06a0 00       		.byte	0
 1795 06a1 15       		.uleb128 0x15
 1796 06a2 91060000 		.4byte	0x691
 1797 06a6 1F       		.uleb128 0x1f
 1798 06a7 4A010000 		.4byte	.LASF105
 1799 06ab 01       		.byte	0x1
 1800 06ac 1701     		.2byte	0x117
 1801 06ae F9050000 		.4byte	0x5f9
 1802 06b2 01       		.byte	0x1
 1803 06b3 D0060000 		.4byte	0x6d0
 1804 06b7 1C       		.uleb128 0x1c
 1805 06b8 6D7000   		.ascii	"mp\000"
 1806 06bb 01       		.byte	0x1
 1807 06bc 1701     		.2byte	0x117
 1808 06be A9050000 		.4byte	0x5a9
 1809 06c2 1E       		.uleb128 0x1e
 1810 06c3 02040000 		.4byte	.LASF104
 1811 06c7 E0060000 		.4byte	0x6e0
 1812 06cb 4A010000 		.4byte	.LASF105
 1813 06cf 00       		.byte	0
 1814 06d0 16       		.uleb128 0x16
 1815 06d1 45050000 		.4byte	0x545
 1816 06d5 E0060000 		.4byte	0x6e0
 1817 06d9 17       		.uleb128 0x17
ARM GAS  /tmp/ccgDH5PG.s 			page 33


 1818 06da 25040000 		.4byte	0x425
 1819 06de 0D       		.byte	0xd
 1820 06df 00       		.byte	0
 1821 06e0 15       		.uleb128 0x15
 1822 06e1 D0060000 		.4byte	0x6d0
 1823 06e5 20       		.uleb128 0x20
 1824 06e6 A1050000 		.4byte	.LASF106
 1825 06ea 0B       		.byte	0xb
 1826 06eb 81       		.byte	0x81
 1827 06ec F9050000 		.4byte	0x5f9
 1828 06f0 03       		.byte	0x3
 1829 06f1 00070000 		.4byte	0x700
 1830 06f5 21       		.uleb128 0x21
 1831 06f6 6D7000   		.ascii	"mp\000"
 1832 06f9 0B       		.byte	0xb
 1833 06fa 81       		.byte	0x81
 1834 06fb A9050000 		.4byte	0x5a9
 1835 06ff 00       		.byte	0
 1836 0700 1B       		.uleb128 0x1b
 1837 0701 66050000 		.4byte	.LASF107
 1838 0705 02       		.byte	0x2
 1839 0706 7D02     		.2byte	0x27d
 1840 0708 FC040000 		.4byte	0x4fc
 1841 070c 03       		.byte	0x3
 1842 070d 29070000 		.4byte	0x729
 1843 0711 1C       		.uleb128 0x1c
 1844 0712 74717000 		.ascii	"tqp\000"
 1845 0716 02       		.byte	0x2
 1846 0717 7D02     		.2byte	0x27d
 1847 0719 00060000 		.4byte	0x600
 1848 071d 1D       		.uleb128 0x1d
 1849 071e 747000   		.ascii	"tp\000"
 1850 0721 02       		.byte	0x2
 1851 0722 7E02     		.2byte	0x27e
 1852 0724 FC040000 		.4byte	0x4fc
 1853 0728 00       		.byte	0
 1854 0729 22       		.uleb128 0x22
 1855 072a 8D030000 		.4byte	.LASF108
 1856 072e 01       		.byte	0x1
 1857 072f 67       		.byte	0x67
 1858 0730 00000000 		.4byte	.LFB226
 1859 0734 0A000000 		.4byte	.LFE226-.LFB226
 1860 0738 01       		.uleb128 0x1
 1861 0739 9C       		.byte	0x9c
 1862 073a 6B070000 		.4byte	0x76b
 1863 073e 23       		.uleb128 0x23
 1864 073f 6D7000   		.ascii	"mp\000"
 1865 0742 01       		.byte	0x1
 1866 0743 67       		.byte	0x67
 1867 0744 A9050000 		.4byte	0x5a9
 1868 0748 01       		.uleb128 0x1
 1869 0749 50       		.byte	0x50
 1870 074a 24       		.uleb128 0x24
 1871 074b 02040000 		.4byte	.LASF104
 1872 074f 7B070000 		.4byte	0x77b
 1873 0753 25       		.uleb128 0x25
 1874 0754 06060000 		.4byte	0x606
ARM GAS  /tmp/ccgDH5PG.s 			page 34


 1875 0758 02000000 		.4byte	.LBB103
 1876 075c 04000000 		.4byte	.LBE103-.LBB103
 1877 0760 01       		.byte	0x1
 1878 0761 6B       		.byte	0x6b
 1879 0762 26       		.uleb128 0x26
 1880 0763 13060000 		.4byte	0x613
 1881 0767 01       		.uleb128 0x1
 1882 0768 50       		.byte	0x50
 1883 0769 00       		.byte	0
 1884 076a 00       		.byte	0
 1885 076b 16       		.uleb128 0x16
 1886 076c 45050000 		.4byte	0x545
 1887 0770 7B070000 		.4byte	0x77b
 1888 0774 17       		.uleb128 0x17
 1889 0775 25040000 		.4byte	0x425
 1890 0779 0F       		.byte	0xf
 1891 077a 00       		.byte	0
 1892 077b 15       		.uleb128 0x15
 1893 077c 6B070000 		.4byte	0x76b
 1894 0780 22       		.uleb128 0x22
 1895 0781 3F010000 		.4byte	.LASF109
 1896 0785 01       		.byte	0x1
 1897 0786 8D       		.byte	0x8d
 1898 0787 00000000 		.4byte	.LFB228
 1899 078b C4000000 		.4byte	.LFE228-.LFB228
 1900 078f 01       		.uleb128 0x1
 1901 0790 9C       		.byte	0x9c
 1902 0791 EE080000 		.4byte	0x8ee
 1903 0795 27       		.uleb128 0x27
 1904 0796 6D7000   		.ascii	"mp\000"
 1905 0799 01       		.byte	0x1
 1906 079a 8D       		.byte	0x8d
 1907 079b A9050000 		.4byte	0x5a9
 1908 079f 00000000 		.4byte	.LLST0
 1909 07a3 28       		.uleb128 0x28
 1910 07a4 63747000 		.ascii	"ctp\000"
 1911 07a8 01       		.byte	0x1
 1912 07a9 8E       		.byte	0x8e
 1913 07aa FC040000 		.4byte	0x4fc
 1914 07ae 46000000 		.4byte	.LLST1
 1915 07b2 24       		.uleb128 0x24
 1916 07b3 02040000 		.4byte	.LASF104
 1917 07b7 FE080000 		.4byte	0x8fe
 1918 07bb 29       		.uleb128 0x29
 1919 07bc 00000000 		.4byte	.Ldebug_ranges0+0
 1920 07c0 28       		.uleb128 0x28
 1921 07c1 747000   		.ascii	"tp\000"
 1922 07c4 01       		.byte	0x1
 1923 07c5 A2       		.byte	0xa2
 1924 07c6 FC040000 		.4byte	0x4fc
 1925 07ca 70000000 		.4byte	.LLST2
 1926 07ce 2A       		.uleb128 0x2a
 1927 07cf 3D060000 		.4byte	0x63d
 1928 07d3 24000000 		.4byte	.LBB106
 1929 07d7 1C000000 		.4byte	.LBE106-.LBB106
 1930 07db 01       		.byte	0x1
 1931 07dc D0       		.byte	0xd0
ARM GAS  /tmp/ccgDH5PG.s 			page 35


 1932 07dd 07080000 		.4byte	0x807
 1933 07e1 2B       		.uleb128 0x2b
 1934 07e2 55060000 		.4byte	0x655
 1935 07e6 99000000 		.4byte	.LLST3
 1936 07ea 2B       		.uleb128 0x2b
 1937 07eb 4A060000 		.4byte	0x64a
 1938 07ef C9000000 		.4byte	.LLST4
 1939 07f3 2C       		.uleb128 0x2c
 1940 07f4 24000000 		.4byte	.LBB107
 1941 07f8 1C000000 		.4byte	.LBE107-.LBB107
 1942 07fc 2D       		.uleb128 0x2d
 1943 07fd 61060000 		.4byte	0x661
 1944 0801 E8000000 		.4byte	.LLST5
 1945 0805 00       		.byte	0
 1946 0806 00       		.byte	0
 1947 0807 2A       		.uleb128 0x2a
 1948 0808 20060000 		.4byte	0x620
 1949 080c 4C000000 		.4byte	.LBB108
 1950 0810 0A000000 		.4byte	.LBE108-.LBB108
 1951 0814 01       		.byte	0x1
 1952 0815 C9       		.byte	0xc9
 1953 0816 24080000 		.4byte	0x824
 1954 081a 2B       		.uleb128 0x2b
 1955 081b 31060000 		.4byte	0x631
 1956 081f 06010000 		.4byte	.LLST6
 1957 0823 00       		.byte	0
 1958 0824 2E       		.uleb128 0x2e
 1959 0825 20060000 		.4byte	0x620
 1960 0829 5C000000 		.4byte	.LBB110
 1961 082d 18000000 		.4byte	.Ldebug_ranges0+0x18
 1962 0831 01       		.byte	0x1
 1963 0832 BF       		.byte	0xbf
 1964 0833 41080000 		.4byte	0x841
 1965 0837 2B       		.uleb128 0x2b
 1966 0838 31060000 		.4byte	0x631
 1967 083c 19010000 		.4byte	.LLST7
 1968 0840 00       		.byte	0
 1969 0841 2A       		.uleb128 0x2a
 1970 0842 3D060000 		.4byte	0x63d
 1971 0846 68000000 		.4byte	.LBB114
 1972 084a 1C000000 		.4byte	.LBE114-.LBB114
 1973 084e 01       		.byte	0x1
 1974 084f BF       		.byte	0xbf
 1975 0850 7A080000 		.4byte	0x87a
 1976 0854 2B       		.uleb128 0x2b
 1977 0855 55060000 		.4byte	0x655
 1978 0859 2C010000 		.4byte	.LLST8
 1979 085d 2B       		.uleb128 0x2b
 1980 085e 4A060000 		.4byte	0x64a
 1981 0862 3F010000 		.4byte	.LLST9
 1982 0866 2C       		.uleb128 0x2c
 1983 0867 68000000 		.4byte	.LBB115
 1984 086b 1C000000 		.4byte	.LBE115-.LBB115
 1985 086f 2D       		.uleb128 0x2d
 1986 0870 61060000 		.4byte	0x661
 1987 0874 52010000 		.4byte	.LLST10
 1988 0878 00       		.byte	0
ARM GAS  /tmp/ccgDH5PG.s 			page 36


 1989 0879 00       		.byte	0
 1990 087a 2E       		.uleb128 0x2e
 1991 087b 20060000 		.4byte	0x620
 1992 087f 84000000 		.4byte	.LBB116
 1993 0883 30000000 		.4byte	.Ldebug_ranges0+0x30
 1994 0887 01       		.byte	0x1
 1995 0888 AE       		.byte	0xae
 1996 0889 97080000 		.4byte	0x897
 1997 088d 2B       		.uleb128 0x2b
 1998 088e 31060000 		.4byte	0x631
 1999 0892 70010000 		.4byte	.LLST11
 2000 0896 00       		.byte	0
 2001 0897 2A       		.uleb128 0x2a
 2002 0898 3D060000 		.4byte	0x63d
 2003 089c 94000000 		.4byte	.LBB120
 2004 08a0 16000000 		.4byte	.LBE120-.LBB120
 2005 08a4 01       		.byte	0x1
 2006 08a5 AE       		.byte	0xae
 2007 08a6 D0080000 		.4byte	0x8d0
 2008 08aa 2B       		.uleb128 0x2b
 2009 08ab 55060000 		.4byte	0x655
 2010 08af 8F010000 		.4byte	.LLST12
 2011 08b3 2B       		.uleb128 0x2b
 2012 08b4 4A060000 		.4byte	0x64a
 2013 08b8 A2010000 		.4byte	.LLST13
 2014 08bc 2C       		.uleb128 0x2c
 2015 08bd 94000000 		.4byte	.LBB121
 2016 08c1 16000000 		.4byte	.LBE121-.LBB121
 2017 08c5 2D       		.uleb128 0x2d
 2018 08c6 61060000 		.4byte	0x661
 2019 08ca C1010000 		.4byte	.LLST14
 2020 08ce 00       		.byte	0
 2021 08cf 00       		.byte	0
 2022 08d0 2F       		.uleb128 0x2f
 2023 08d1 4C000000 		.4byte	.LVL9
 2024 08d5 030F0000 		.4byte	0xf03
 2025 08d9 E3080000 		.4byte	0x8e3
 2026 08dd 30       		.uleb128 0x30
 2027 08de 01       		.uleb128 0x1
 2028 08df 50       		.byte	0x50
 2029 08e0 01       		.uleb128 0x1
 2030 08e1 36       		.byte	0x36
 2031 08e2 00       		.byte	0
 2032 08e3 31       		.uleb128 0x31
 2033 08e4 5A000000 		.4byte	.LVL10
 2034 08e8 150F0000 		.4byte	0xf15
 2035 08ec 00       		.byte	0
 2036 08ed 00       		.byte	0
 2037 08ee 16       		.uleb128 0x16
 2038 08ef 45050000 		.4byte	0x545
 2039 08f3 FE080000 		.4byte	0x8fe
 2040 08f7 17       		.uleb128 0x17
 2041 08f8 25040000 		.4byte	0x425
 2042 08fc 0A       		.byte	0xa
 2043 08fd 00       		.byte	0
 2044 08fe 15       		.uleb128 0x15
 2045 08ff EE080000 		.4byte	0x8ee
ARM GAS  /tmp/ccgDH5PG.s 			page 37


 2046 0903 22       		.uleb128 0x22
 2047 0904 13030000 		.4byte	.LASF110
 2048 0908 01       		.byte	0x1
 2049 0909 7B       		.byte	0x7b
 2050 090a 00000000 		.4byte	.LFB227
 2051 090e 14000000 		.4byte	.LFE227-.LFB227
 2052 0912 01       		.uleb128 0x1
 2053 0913 9C       		.byte	0x9c
 2054 0914 BF090000 		.4byte	0x9bf
 2055 0918 27       		.uleb128 0x27
 2056 0919 6D7000   		.ascii	"mp\000"
 2057 091c 01       		.byte	0x1
 2058 091d 7B       		.byte	0x7b
 2059 091e A9050000 		.4byte	0x5a9
 2060 0922 DF010000 		.4byte	.LLST15
 2061 0926 2A       		.uleb128 0x2a
 2062 0927 6D060000 		.4byte	0x66d
 2063 092b 02000000 		.4byte	.LBB123
 2064 092f 06000000 		.4byte	.LBE123-.LBB123
 2065 0933 01       		.byte	0x1
 2066 0934 7D       		.byte	0x7d
 2067 0935 62090000 		.4byte	0x962
 2068 0939 32       		.uleb128 0x32
 2069 093a C9050000 		.4byte	0x5c9
 2070 093e 02000000 		.4byte	.LBB124
 2071 0942 06000000 		.4byte	.LBE124-.LBB124
 2072 0946 0C       		.byte	0xc
 2073 0947 2B01     		.2byte	0x12b
 2074 0949 32       		.uleb128 0x32
 2075 094a AF050000 		.4byte	0x5af
 2076 094e 02000000 		.4byte	.LBB125
 2077 0952 06000000 		.4byte	.LBE125-.LBB125
 2078 0956 09       		.byte	0x9
 2079 0957 BE01     		.2byte	0x1be
 2080 0959 33       		.uleb128 0x33
 2081 095a BC050000 		.4byte	0x5bc
 2082 095e 20       		.byte	0x20
 2083 095f 00       		.byte	0
 2084 0960 00       		.byte	0
 2085 0961 00       		.byte	0
 2086 0962 2A       		.uleb128 0x2a
 2087 0963 76060000 		.4byte	0x676
 2088 0967 0C000000 		.4byte	.LBB127
 2089 096b 08000000 		.4byte	.LBE127-.LBB127
 2090 096f 01       		.byte	0x1
 2091 0970 81       		.byte	0x81
 2092 0971 AD090000 		.4byte	0x9ad
 2093 0975 2C       		.uleb128 0x2c
 2094 0976 0C000000 		.4byte	.LBB128
 2095 097a 08000000 		.4byte	.LBE128-.LBB128
 2096 097e 34       		.uleb128 0x34
 2097 097f 83060000 		.4byte	0x683
 2098 0983 32       		.uleb128 0x32
 2099 0984 D2050000 		.4byte	0x5d2
 2100 0988 0C000000 		.4byte	.LBB129
 2101 098c 08000000 		.4byte	.LBE129-.LBB129
 2102 0990 0C       		.byte	0xc
ARM GAS  /tmp/ccgDH5PG.s 			page 38


 2103 0991 4101     		.2byte	0x141
 2104 0993 32       		.uleb128 0x32
 2105 0994 AF050000 		.4byte	0x5af
 2106 0998 0C000000 		.4byte	.LBB130
 2107 099c 08000000 		.4byte	.LBE130-.LBB130
 2108 09a0 09       		.byte	0x9
 2109 09a1 CC01     		.2byte	0x1cc
 2110 09a3 33       		.uleb128 0x33
 2111 09a4 BC050000 		.4byte	0x5bc
 2112 09a8 00       		.byte	0
 2113 09a9 00       		.byte	0
 2114 09aa 00       		.byte	0
 2115 09ab 00       		.byte	0
 2116 09ac 00       		.byte	0
 2117 09ad 35       		.uleb128 0x35
 2118 09ae 0C000000 		.4byte	.LVL24
 2119 09b2 80070000 		.4byte	0x780
 2120 09b6 30       		.uleb128 0x30
 2121 09b7 01       		.uleb128 0x1
 2122 09b8 50       		.byte	0x50
 2123 09b9 03       		.uleb128 0x3
 2124 09ba F3       		.byte	0xf3
 2125 09bb 01       		.uleb128 0x1
 2126 09bc 50       		.byte	0x50
 2127 09bd 00       		.byte	0
 2128 09be 00       		.byte	0
 2129 09bf 36       		.uleb128 0x36
 2130 09c0 90020000 		.4byte	.LASF122
 2131 09c4 01       		.byte	0x1
 2132 09c5 FB       		.byte	0xfb
 2133 09c6 F9050000 		.4byte	0x5f9
 2134 09ca 00000000 		.4byte	.LFB229
 2135 09ce 30000000 		.4byte	.LFE229-.LFB229
 2136 09d2 01       		.uleb128 0x1
 2137 09d3 9C       		.byte	0x9c
 2138 09d4 9C0A0000 		.4byte	0xa9c
 2139 09d8 27       		.uleb128 0x27
 2140 09d9 6D7000   		.ascii	"mp\000"
 2141 09dc 01       		.byte	0x1
 2142 09dd FB       		.byte	0xfb
 2143 09de A9050000 		.4byte	0x5a9
 2144 09e2 00020000 		.4byte	.LLST16
 2145 09e6 37       		.uleb128 0x37
 2146 09e7 6200     		.ascii	"b\000"
 2147 09e9 01       		.byte	0x1
 2148 09ea FC       		.byte	0xfc
 2149 09eb F9050000 		.4byte	0x5f9
 2150 09ef 2A       		.uleb128 0x2a
 2151 09f0 6D060000 		.4byte	0x66d
 2152 09f4 02000000 		.4byte	.LBB132
 2153 09f8 06000000 		.4byte	.LBE132-.LBB132
 2154 09fc 01       		.byte	0x1
 2155 09fd FE       		.byte	0xfe
 2156 09fe 2B0A0000 		.4byte	0xa2b
 2157 0a02 32       		.uleb128 0x32
 2158 0a03 C9050000 		.4byte	0x5c9
 2159 0a07 02000000 		.4byte	.LBB133
ARM GAS  /tmp/ccgDH5PG.s 			page 39


 2160 0a0b 06000000 		.4byte	.LBE133-.LBB133
 2161 0a0f 0C       		.byte	0xc
 2162 0a10 2B01     		.2byte	0x12b
 2163 0a12 32       		.uleb128 0x32
 2164 0a13 AF050000 		.4byte	0x5af
 2165 0a17 02000000 		.4byte	.LBB134
 2166 0a1b 06000000 		.4byte	.LBE134-.LBB134
 2167 0a1f 09       		.byte	0x9
 2168 0a20 BE01     		.2byte	0x1be
 2169 0a22 33       		.uleb128 0x33
 2170 0a23 BC050000 		.4byte	0x5bc
 2171 0a27 20       		.byte	0x20
 2172 0a28 00       		.byte	0
 2173 0a29 00       		.byte	0
 2174 0a2a 00       		.byte	0
 2175 0a2b 38       		.uleb128 0x38
 2176 0a2c A6060000 		.4byte	0x6a6
 2177 0a30 08000000 		.4byte	.LBB136
 2178 0a34 48000000 		.4byte	.Ldebug_ranges0+0x48
 2179 0a38 01       		.byte	0x1
 2180 0a39 0001     		.2byte	0x100
 2181 0a3b 540A0000 		.4byte	0xa54
 2182 0a3f 2B       		.uleb128 0x2b
 2183 0a40 B7060000 		.4byte	0x6b7
 2184 0a44 4E020000 		.4byte	.LLST17
 2185 0a48 29       		.uleb128 0x29
 2186 0a49 48000000 		.4byte	.Ldebug_ranges0+0x48
 2187 0a4d 34       		.uleb128 0x34
 2188 0a4e C2060000 		.4byte	0x6c2
 2189 0a52 00       		.byte	0
 2190 0a53 00       		.byte	0
 2191 0a54 39       		.uleb128 0x39
 2192 0a55 76060000 		.4byte	0x676
 2193 0a59 0E000000 		.4byte	.LBB139
 2194 0a5d 60000000 		.4byte	.Ldebug_ranges0+0x60
 2195 0a61 01       		.byte	0x1
 2196 0a62 0201     		.2byte	0x102
 2197 0a64 29       		.uleb128 0x29
 2198 0a65 60000000 		.4byte	.Ldebug_ranges0+0x60
 2199 0a69 34       		.uleb128 0x34
 2200 0a6a 83060000 		.4byte	0x683
 2201 0a6e 39       		.uleb128 0x39
 2202 0a6f D2050000 		.4byte	0x5d2
 2203 0a73 0E000000 		.4byte	.LBB141
 2204 0a77 60000000 		.4byte	.Ldebug_ranges0+0x60
 2205 0a7b 0C       		.byte	0xc
 2206 0a7c 4101     		.2byte	0x141
 2207 0a7e 39       		.uleb128 0x39
 2208 0a7f AF050000 		.4byte	0x5af
 2209 0a83 0E000000 		.4byte	.LBB142
 2210 0a87 60000000 		.4byte	.Ldebug_ranges0+0x60
 2211 0a8b 09       		.byte	0x9
 2212 0a8c CC01     		.2byte	0x1cc
 2213 0a8e 2B       		.uleb128 0x2b
 2214 0a8f BC050000 		.4byte	0x5bc
 2215 0a93 9C020000 		.4byte	.LLST18
 2216 0a97 00       		.byte	0
ARM GAS  /tmp/ccgDH5PG.s 			page 40


 2217 0a98 00       		.byte	0
 2218 0a99 00       		.byte	0
 2219 0a9a 00       		.byte	0
 2220 0a9b 00       		.byte	0
 2221 0a9c 3A       		.uleb128 0x3a
 2222 0a9d A6060000 		.4byte	0x6a6
 2223 0aa1 00000000 		.4byte	.LFB230
 2224 0aa5 20000000 		.4byte	.LFE230-.LFB230
 2225 0aa9 01       		.uleb128 0x1
 2226 0aaa 9C       		.byte	0x9c
 2227 0aab BE0A0000 		.4byte	0xabe
 2228 0aaf 2B       		.uleb128 0x2b
 2229 0ab0 B7060000 		.4byte	0x6b7
 2230 0ab4 BC020000 		.4byte	.LLST19
 2231 0ab8 34       		.uleb128 0x34
 2232 0ab9 C2060000 		.4byte	0x6c2
 2233 0abd 00       		.byte	0
 2234 0abe 3B       		.uleb128 0x3b
 2235 0abf BD000000 		.4byte	.LASF111
 2236 0ac3 01       		.byte	0x1
 2237 0ac4 4001     		.2byte	0x140
 2238 0ac6 00000000 		.4byte	.LFB231
 2239 0aca 60000000 		.4byte	.LFE231-.LFB231
 2240 0ace 01       		.uleb128 0x1
 2241 0acf 9C       		.byte	0x9c
 2242 0ad0 6A0C0000 		.4byte	0xc6a
 2243 0ad4 3C       		.uleb128 0x3c
 2244 0ad5 6D7000   		.ascii	"mp\000"
 2245 0ad8 01       		.byte	0x1
 2246 0ad9 4001     		.2byte	0x140
 2247 0adb A9050000 		.4byte	0x5a9
 2248 0adf F0020000 		.4byte	.LLST20
 2249 0ae3 3D       		.uleb128 0x3d
 2250 0ae4 63747000 		.ascii	"ctp\000"
 2251 0ae8 01       		.byte	0x1
 2252 0ae9 4101     		.2byte	0x141
 2253 0aeb FC040000 		.4byte	0x4fc
 2254 0aef 1C030000 		.4byte	.LLST21
 2255 0af3 3D       		.uleb128 0x3d
 2256 0af4 6C6D7000 		.ascii	"lmp\000"
 2257 0af8 01       		.byte	0x1
 2258 0af9 4201     		.2byte	0x142
 2259 0afb A9050000 		.4byte	0x5a9
 2260 0aff 3A030000 		.4byte	.LLST22
 2261 0b03 24       		.uleb128 0x24
 2262 0b04 02040000 		.4byte	.LASF104
 2263 0b08 6A0C0000 		.4byte	0xc6a
 2264 0b0c 3E       		.uleb128 0x3e
 2265 0b0d 6D060000 		.4byte	0x66d
 2266 0b11 08000000 		.4byte	.LBB150
 2267 0b15 06000000 		.4byte	.LBE150-.LBB150
 2268 0b19 01       		.byte	0x1
 2269 0b1a 4601     		.2byte	0x146
 2270 0b1c 490B0000 		.4byte	0xb49
 2271 0b20 32       		.uleb128 0x32
 2272 0b21 C9050000 		.4byte	0x5c9
 2273 0b25 08000000 		.4byte	.LBB151
ARM GAS  /tmp/ccgDH5PG.s 			page 41


 2274 0b29 06000000 		.4byte	.LBE151-.LBB151
 2275 0b2d 0C       		.byte	0xc
 2276 0b2e 2B01     		.2byte	0x12b
 2277 0b30 32       		.uleb128 0x32
 2278 0b31 AF050000 		.4byte	0x5af
 2279 0b35 08000000 		.4byte	.LBB152
 2280 0b39 06000000 		.4byte	.LBE152-.LBB152
 2281 0b3d 09       		.byte	0x9
 2282 0b3e BE01     		.2byte	0x1be
 2283 0b40 33       		.uleb128 0x33
 2284 0b41 BC050000 		.4byte	0x5bc
 2285 0b45 20       		.byte	0x20
 2286 0b46 00       		.byte	0
 2287 0b47 00       		.byte	0
 2288 0b48 00       		.byte	0
 2289 0b49 3E       		.uleb128 0x3e
 2290 0b4a E5060000 		.4byte	0x6e5
 2291 0b4e 0E000000 		.4byte	.LBB154
 2292 0b52 02000000 		.4byte	.LBE154-.LBB154
 2293 0b56 01       		.byte	0x1
 2294 0b57 5801     		.2byte	0x158
 2295 0b59 800B0000 		.4byte	0xb80
 2296 0b5d 2B       		.uleb128 0x2b
 2297 0b5e F5060000 		.4byte	0x6f5
 2298 0b62 4D030000 		.4byte	.LLST23
 2299 0b66 25       		.uleb128 0x25
 2300 0b67 DB050000 		.4byte	0x5db
 2301 0b6b 0E000000 		.4byte	.LBB156
 2302 0b6f 02000000 		.4byte	.LBE156-.LBB156
 2303 0b73 0B       		.byte	0xb
 2304 0b74 85       		.byte	0x85
 2305 0b75 2B       		.uleb128 0x2b
 2306 0b76 EC050000 		.4byte	0x5ec
 2307 0b7a 4D030000 		.4byte	.LLST23
 2308 0b7e 00       		.byte	0
 2309 0b7f 00       		.byte	0
 2310 0b80 3F       		.uleb128 0x3f
 2311 0b81 18000000 		.4byte	.LBB158
 2312 0b85 30000000 		.4byte	.LBE158-.LBB158
 2313 0b89 220C0000 		.4byte	0xc22
 2314 0b8d 1D       		.uleb128 0x1d
 2315 0b8e 747000   		.ascii	"tp\000"
 2316 0b91 01       		.byte	0x1
 2317 0b92 5901     		.2byte	0x159
 2318 0b94 FC040000 		.4byte	0x4fc
 2319 0b98 40       		.uleb128 0x40
 2320 0b99 66020000 		.4byte	.LASF112
 2321 0b9d 01       		.byte	0x1
 2322 0b9e 5D01     		.2byte	0x15d
 2323 0ba0 F4000000 		.4byte	0xf4
 2324 0ba4 6E030000 		.4byte	.LLST25
 2325 0ba8 3E       		.uleb128 0x3e
 2326 0ba9 E5060000 		.4byte	0x6e5
 2327 0bad 1C000000 		.4byte	.LBB159
 2328 0bb1 02000000 		.4byte	.LBE159-.LBB159
 2329 0bb5 01       		.byte	0x1
 2330 0bb6 6301     		.2byte	0x163
ARM GAS  /tmp/ccgDH5PG.s 			page 42


 2331 0bb8 DF0B0000 		.4byte	0xbdf
 2332 0bbc 2B       		.uleb128 0x2b
 2333 0bbd F5060000 		.4byte	0x6f5
 2334 0bc1 81030000 		.4byte	.LLST26
 2335 0bc5 25       		.uleb128 0x25
 2336 0bc6 DB050000 		.4byte	0x5db
 2337 0bca 1C000000 		.4byte	.LBB161
 2338 0bce 02000000 		.4byte	.LBE161-.LBB161
 2339 0bd2 0B       		.byte	0xb
 2340 0bd3 85       		.byte	0x85
 2341 0bd4 2B       		.uleb128 0x2b
 2342 0bd5 EC050000 		.4byte	0x5ec
 2343 0bd9 81030000 		.4byte	.LLST26
 2344 0bdd 00       		.byte	0
 2345 0bde 00       		.byte	0
 2346 0bdf 38       		.uleb128 0x38
 2347 0be0 00070000 		.4byte	0x700
 2348 0be4 30000000 		.4byte	.LBB163
 2349 0be8 78000000 		.4byte	.Ldebug_ranges0+0x78
 2350 0bec 01       		.byte	0x1
 2351 0bed 7101     		.2byte	0x171
 2352 0bef 0C0C0000 		.4byte	0xc0c
 2353 0bf3 2B       		.uleb128 0x2b
 2354 0bf4 11070000 		.4byte	0x711
 2355 0bf8 94030000 		.4byte	.LLST28
 2356 0bfc 29       		.uleb128 0x29
 2357 0bfd 78000000 		.4byte	.Ldebug_ranges0+0x78
 2358 0c01 2D       		.uleb128 0x2d
 2359 0c02 1D070000 		.4byte	0x71d
 2360 0c06 A7030000 		.4byte	.LLST29
 2361 0c0a 00       		.byte	0
 2362 0c0b 00       		.byte	0
 2363 0c0c 35       		.uleb128 0x35
 2364 0c0d 48000000 		.4byte	.LVL48
 2365 0c11 2B0F0000 		.4byte	0xf2b
 2366 0c15 30       		.uleb128 0x30
 2367 0c16 01       		.uleb128 0x1
 2368 0c17 51       		.byte	0x51
 2369 0c18 01       		.uleb128 0x1
 2370 0c19 30       		.byte	0x30
 2371 0c1a 30       		.uleb128 0x30
 2372 0c1b 01       		.uleb128 0x1
 2373 0c1c 50       		.byte	0x50
 2374 0c1d 02       		.uleb128 0x2
 2375 0c1e 75       		.byte	0x75
 2376 0c1f 00       		.sleb128 0
 2377 0c20 00       		.byte	0
 2378 0c21 00       		.byte	0
 2379 0c22 39       		.uleb128 0x39
 2380 0c23 76060000 		.4byte	0x676
 2381 0c27 48000000 		.4byte	.LBB169
 2382 0c2b 98000000 		.4byte	.Ldebug_ranges0+0x98
 2383 0c2f 01       		.byte	0x1
 2384 0c30 7D01     		.2byte	0x17d
 2385 0c32 29       		.uleb128 0x29
 2386 0c33 98000000 		.4byte	.Ldebug_ranges0+0x98
 2387 0c37 34       		.uleb128 0x34
ARM GAS  /tmp/ccgDH5PG.s 			page 43


 2388 0c38 83060000 		.4byte	0x683
 2389 0c3c 39       		.uleb128 0x39
 2390 0c3d D2050000 		.4byte	0x5d2
 2391 0c41 48000000 		.4byte	.LBB171
 2392 0c45 98000000 		.4byte	.Ldebug_ranges0+0x98
 2393 0c49 0C       		.byte	0xc
 2394 0c4a 4101     		.2byte	0x141
 2395 0c4c 39       		.uleb128 0x39
 2396 0c4d AF050000 		.4byte	0x5af
 2397 0c51 48000000 		.4byte	.LBB172
 2398 0c55 98000000 		.4byte	.Ldebug_ranges0+0x98
 2399 0c59 09       		.byte	0x9
 2400 0c5a CC01     		.2byte	0x1cc
 2401 0c5c 2B       		.uleb128 0x2b
 2402 0c5d BC050000 		.4byte	0x5bc
 2403 0c61 BA030000 		.4byte	.LLST30
 2404 0c65 00       		.byte	0
 2405 0c66 00       		.byte	0
 2406 0c67 00       		.byte	0
 2407 0c68 00       		.byte	0
 2408 0c69 00       		.byte	0
 2409 0c6a 15       		.uleb128 0x15
 2410 0c6b 91060000 		.4byte	0x691
 2411 0c6f 3B       		.uleb128 0x3b
 2412 0c70 E5010000 		.4byte	.LASF113
 2413 0c74 01       		.byte	0x1
 2414 0c75 8E01     		.2byte	0x18e
 2415 0c77 00000000 		.4byte	.LFB232
 2416 0c7b 50000000 		.4byte	.LFE232-.LFB232
 2417 0c7f 01       		.uleb128 0x1
 2418 0c80 9C       		.byte	0x9c
 2419 0c81 830D0000 		.4byte	0xd83
 2420 0c85 3C       		.uleb128 0x3c
 2421 0c86 6D7000   		.ascii	"mp\000"
 2422 0c89 01       		.byte	0x1
 2423 0c8a 8E01     		.2byte	0x18e
 2424 0c8c A9050000 		.4byte	0x5a9
 2425 0c90 DA030000 		.4byte	.LLST31
 2426 0c94 3D       		.uleb128 0x3d
 2427 0c95 63747000 		.ascii	"ctp\000"
 2428 0c99 01       		.byte	0x1
 2429 0c9a 8F01     		.2byte	0x18f
 2430 0c9c FC040000 		.4byte	0x4fc
 2431 0ca0 2B040000 		.4byte	.LLST32
 2432 0ca4 3D       		.uleb128 0x3d
 2433 0ca5 6C6D7000 		.ascii	"lmp\000"
 2434 0ca9 01       		.byte	0x1
 2435 0caa 9001     		.2byte	0x190
 2436 0cac A9050000 		.4byte	0x5a9
 2437 0cb0 49040000 		.4byte	.LLST33
 2438 0cb4 24       		.uleb128 0x24
 2439 0cb5 02040000 		.4byte	.LASF104
 2440 0cb9 930D0000 		.4byte	0xd93
 2441 0cbd 3E       		.uleb128 0x3e
 2442 0cbe E5060000 		.4byte	0x6e5
 2443 0cc2 06000000 		.4byte	.LBB179
 2444 0cc6 02000000 		.4byte	.LBE179-.LBB179
ARM GAS  /tmp/ccgDH5PG.s 			page 44


 2445 0cca 01       		.byte	0x1
 2446 0ccb A501     		.2byte	0x1a5
 2447 0ccd F40C0000 		.4byte	0xcf4
 2448 0cd1 2B       		.uleb128 0x2b
 2449 0cd2 F5060000 		.4byte	0x6f5
 2450 0cd6 5C040000 		.4byte	.LLST34
 2451 0cda 25       		.uleb128 0x25
 2452 0cdb DB050000 		.4byte	0x5db
 2453 0cdf 06000000 		.4byte	.LBB181
 2454 0ce3 02000000 		.4byte	.LBE181-.LBB181
 2455 0ce7 0B       		.byte	0xb
 2456 0ce8 85       		.byte	0x85
 2457 0ce9 2B       		.uleb128 0x2b
 2458 0cea EC050000 		.4byte	0x5ec
 2459 0cee 5C040000 		.4byte	.LLST34
 2460 0cf2 00       		.byte	0
 2461 0cf3 00       		.byte	0
 2462 0cf4 29       		.uleb128 0x29
 2463 0cf5 B0000000 		.4byte	.Ldebug_ranges0+0xb0
 2464 0cf9 1D       		.uleb128 0x1d
 2465 0cfa 747000   		.ascii	"tp\000"
 2466 0cfd 01       		.byte	0x1
 2467 0cfe A601     		.2byte	0x1a6
 2468 0d00 FC040000 		.4byte	0x4fc
 2469 0d04 40       		.uleb128 0x40
 2470 0d05 66020000 		.4byte	.LASF112
 2471 0d09 01       		.byte	0x1
 2472 0d0a AA01     		.2byte	0x1aa
 2473 0d0c F4000000 		.4byte	0xf4
 2474 0d10 A2040000 		.4byte	.LLST36
 2475 0d14 3E       		.uleb128 0x3e
 2476 0d15 E5060000 		.4byte	0x6e5
 2477 0d19 16000000 		.4byte	.LBB184
 2478 0d1d 02000000 		.4byte	.LBE184-.LBB184
 2479 0d21 01       		.byte	0x1
 2480 0d22 B001     		.2byte	0x1b0
 2481 0d24 4B0D0000 		.4byte	0xd4b
 2482 0d28 2B       		.uleb128 0x2b
 2483 0d29 F5060000 		.4byte	0x6f5
 2484 0d2d B5040000 		.4byte	.LLST37
 2485 0d31 25       		.uleb128 0x25
 2486 0d32 DB050000 		.4byte	0x5db
 2487 0d36 16000000 		.4byte	.LBB186
 2488 0d3a 02000000 		.4byte	.LBE186-.LBB186
 2489 0d3e 0B       		.byte	0xb
 2490 0d3f 85       		.byte	0x85
 2491 0d40 2B       		.uleb128 0x2b
 2492 0d41 EC050000 		.4byte	0x5ec
 2493 0d45 B5040000 		.4byte	.LLST37
 2494 0d49 00       		.byte	0
 2495 0d4a 00       		.byte	0
 2496 0d4b 38       		.uleb128 0x38
 2497 0d4c 00070000 		.4byte	0x700
 2498 0d50 2A000000 		.4byte	.LBB188
 2499 0d54 C8000000 		.4byte	.Ldebug_ranges0+0xc8
 2500 0d58 01       		.byte	0x1
 2501 0d59 BE01     		.2byte	0x1be
ARM GAS  /tmp/ccgDH5PG.s 			page 45


 2502 0d5b 780D0000 		.4byte	0xd78
 2503 0d5f 2B       		.uleb128 0x2b
 2504 0d60 11070000 		.4byte	0x711
 2505 0d64 C8040000 		.4byte	.LLST39
 2506 0d68 29       		.uleb128 0x29
 2507 0d69 C8000000 		.4byte	.Ldebug_ranges0+0xc8
 2508 0d6d 2D       		.uleb128 0x2d
 2509 0d6e 1D070000 		.4byte	0x71d
 2510 0d72 F5040000 		.4byte	.LLST40
 2511 0d76 00       		.byte	0
 2512 0d77 00       		.byte	0
 2513 0d78 41       		.uleb128 0x41
 2514 0d79 42000000 		.4byte	.LVL63
 2515 0d7d 150F0000 		.4byte	0xf15
 2516 0d81 00       		.byte	0
 2517 0d82 00       		.byte	0
 2518 0d83 16       		.uleb128 0x16
 2519 0d84 45050000 		.4byte	0x545
 2520 0d88 930D0000 		.4byte	0xd93
 2521 0d8c 17       		.uleb128 0x17
 2522 0d8d 25040000 		.4byte	0x425
 2523 0d91 0C       		.byte	0xc
 2524 0d92 00       		.byte	0
 2525 0d93 15       		.uleb128 0x15
 2526 0d94 830D0000 		.4byte	0xd83
 2527 0d98 3B       		.uleb128 0x3b
 2528 0d99 57020000 		.4byte	.LASF114
 2529 0d9d 01       		.byte	0x1
 2530 0d9e D601     		.2byte	0x1d6
 2531 0da0 00000000 		.4byte	.LFB233
 2532 0da4 54000000 		.4byte	.LFE233-.LFB233
 2533 0da8 01       		.uleb128 0x1
 2534 0da9 9C       		.byte	0x9c
 2535 0daa EC0E0000 		.4byte	0xeec
 2536 0dae 3D       		.uleb128 0x3d
 2537 0daf 63747000 		.ascii	"ctp\000"
 2538 0db3 01       		.byte	0x1
 2539 0db4 D701     		.2byte	0x1d7
 2540 0db6 FC040000 		.4byte	0x4fc
 2541 0dba 13050000 		.4byte	.LLST41
 2542 0dbe 38       		.uleb128 0x38
 2543 0dbf 6D060000 		.4byte	0x66d
 2544 0dc3 04000000 		.4byte	.LBB195
 2545 0dc7 E8000000 		.4byte	.Ldebug_ranges0+0xe8
 2546 0dcb 01       		.byte	0x1
 2547 0dcc D901     		.2byte	0x1d9
 2548 0dce FB0D0000 		.4byte	0xdfb
 2549 0dd2 39       		.uleb128 0x39
 2550 0dd3 C9050000 		.4byte	0x5c9
 2551 0dd7 04000000 		.4byte	.LBB196
 2552 0ddb E8000000 		.4byte	.Ldebug_ranges0+0xe8
 2553 0ddf 0C       		.byte	0xc
 2554 0de0 2B01     		.2byte	0x12b
 2555 0de2 39       		.uleb128 0x39
 2556 0de3 AF050000 		.4byte	0x5af
 2557 0de7 04000000 		.4byte	.LBB197
 2558 0deb E8000000 		.4byte	.Ldebug_ranges0+0xe8
ARM GAS  /tmp/ccgDH5PG.s 			page 46


 2559 0def 09       		.byte	0x9
 2560 0df0 BE01     		.2byte	0x1be
 2561 0df2 33       		.uleb128 0x33
 2562 0df3 BC050000 		.4byte	0x5bc
 2563 0df7 20       		.byte	0x20
 2564 0df8 00       		.byte	0
 2565 0df9 00       		.byte	0
 2566 0dfa 00       		.byte	0
 2567 0dfb 42       		.uleb128 0x42
 2568 0dfc 00010000 		.4byte	.Ldebug_ranges0+0x100
 2569 0e00 960E0000 		.4byte	0xe96
 2570 0e04 3D       		.uleb128 0x3d
 2571 0e05 6D7000   		.ascii	"mp\000"
 2572 0e08 01       		.byte	0x1
 2573 0e09 DC01     		.2byte	0x1dc
 2574 0e0b A9050000 		.4byte	0x5a9
 2575 0e0f 26050000 		.4byte	.LLST42
 2576 0e13 3F       		.uleb128 0x3f
 2577 0e14 14000000 		.4byte	.LBB204
 2578 0e18 14000000 		.4byte	.LBE204-.LBB204
 2579 0e1c 620E0000 		.4byte	0xe62
 2580 0e20 1D       		.uleb128 0x1d
 2581 0e21 747000   		.ascii	"tp\000"
 2582 0e24 01       		.byte	0x1
 2583 0e25 E201     		.2byte	0x1e2
 2584 0e27 FC040000 		.4byte	0x4fc
 2585 0e2b 38       		.uleb128 0x38
 2586 0e2c 00070000 		.4byte	0x700
 2587 0e30 14000000 		.4byte	.LBB205
 2588 0e34 18010000 		.4byte	.Ldebug_ranges0+0x118
 2589 0e38 01       		.byte	0x1
 2590 0e39 E201     		.2byte	0x1e2
 2591 0e3b 580E0000 		.4byte	0xe58
 2592 0e3f 2B       		.uleb128 0x2b
 2593 0e40 11070000 		.4byte	0x711
 2594 0e44 26050000 		.4byte	.LLST42
 2595 0e48 29       		.uleb128 0x29
 2596 0e49 18010000 		.4byte	.Ldebug_ranges0+0x118
 2597 0e4d 2D       		.uleb128 0x2d
 2598 0e4e 1D070000 		.4byte	0x71d
 2599 0e52 44050000 		.4byte	.LLST44
 2600 0e56 00       		.byte	0
 2601 0e57 00       		.byte	0
 2602 0e58 31       		.uleb128 0x31
 2603 0e59 28000000 		.4byte	.LVL67
 2604 0e5d 150F0000 		.4byte	0xf15
 2605 0e61 00       		.byte	0
 2606 0e62 32       		.uleb128 0x32
 2607 0e63 E5060000 		.4byte	0x6e5
 2608 0e67 2C000000 		.4byte	.LBB211
 2609 0e6b 02000000 		.4byte	.LBE211-.LBB211
 2610 0e6f 01       		.byte	0x1
 2611 0e70 DE01     		.2byte	0x1de
 2612 0e72 2B       		.uleb128 0x2b
 2613 0e73 F5060000 		.4byte	0x6f5
 2614 0e77 62050000 		.4byte	.LLST45
 2615 0e7b 25       		.uleb128 0x25
ARM GAS  /tmp/ccgDH5PG.s 			page 47


 2616 0e7c DB050000 		.4byte	0x5db
 2617 0e80 2C000000 		.4byte	.LBB213
 2618 0e84 02000000 		.4byte	.LBE213-.LBB213
 2619 0e88 0B       		.byte	0xb
 2620 0e89 85       		.byte	0x85
 2621 0e8a 2B       		.uleb128 0x2b
 2622 0e8b EC050000 		.4byte	0x5ec
 2623 0e8f 62050000 		.4byte	.LLST45
 2624 0e93 00       		.byte	0
 2625 0e94 00       		.byte	0
 2626 0e95 00       		.byte	0
 2627 0e96 3E       		.uleb128 0x3e
 2628 0e97 76060000 		.4byte	0x676
 2629 0e9b 46000000 		.4byte	.LBB216
 2630 0e9f 0E000000 		.4byte	.LBE216-.LBB216
 2631 0ea3 01       		.byte	0x1
 2632 0ea4 F201     		.2byte	0x1f2
 2633 0ea6 E20E0000 		.4byte	0xee2
 2634 0eaa 2C       		.uleb128 0x2c
 2635 0eab 46000000 		.4byte	.LBB217
 2636 0eaf 0E000000 		.4byte	.LBE217-.LBB217
 2637 0eb3 34       		.uleb128 0x34
 2638 0eb4 83060000 		.4byte	0x683
 2639 0eb8 32       		.uleb128 0x32
 2640 0eb9 D2050000 		.4byte	0x5d2
 2641 0ebd 46000000 		.4byte	.LBB218
 2642 0ec1 0E000000 		.4byte	.LBE218-.LBB218
 2643 0ec5 0C       		.byte	0xc
 2644 0ec6 4101     		.2byte	0x141
 2645 0ec8 32       		.uleb128 0x32
 2646 0ec9 AF050000 		.4byte	0x5af
 2647 0ecd 46000000 		.4byte	.LBB219
 2648 0ed1 0E000000 		.4byte	.LBE219-.LBB219
 2649 0ed5 09       		.byte	0x9
 2650 0ed6 CC01     		.2byte	0x1cc
 2651 0ed8 33       		.uleb128 0x33
 2652 0ed9 BC050000 		.4byte	0x5bc
 2653 0edd 00       		.byte	0
 2654 0ede 00       		.byte	0
 2655 0edf 00       		.byte	0
 2656 0ee0 00       		.byte	0
 2657 0ee1 00       		.byte	0
 2658 0ee2 31       		.uleb128 0x31
 2659 0ee3 46000000 		.4byte	.LVL73
 2660 0ee7 420F0000 		.4byte	0xf42
 2661 0eeb 00       		.byte	0
 2662 0eec 43       		.uleb128 0x43
 2663 0eed 98000000 		.4byte	.LASF115
 2664 0ef1 0D       		.byte	0xd
 2665 0ef2 A706     		.2byte	0x6a7
 2666 0ef4 C3000000 		.4byte	0xc3
 2667 0ef8 44       		.uleb128 0x44
 2668 0ef9 636800   		.ascii	"ch\000"
 2669 0efc 02       		.byte	0x2
 2670 0efd EB01     		.2byte	0x1eb
 2671 0eff BE030000 		.4byte	0x3be
 2672 0f03 45       		.uleb128 0x45
ARM GAS  /tmp/ccgDH5PG.s 			page 48


 2673 0f04 26040000 		.4byte	.LASF117
 2674 0f08 02       		.byte	0x2
 2675 0f09 F601     		.2byte	0x1f6
 2676 0f0b 150F0000 		.4byte	0xf15
 2677 0f0f 0D       		.uleb128 0xd
 2678 0f10 DE000000 		.4byte	0xde
 2679 0f14 00       		.byte	0
 2680 0f15 46       		.uleb128 0x46
 2681 0f16 50040000 		.4byte	.LASF116
 2682 0f1a 02       		.byte	0x2
 2683 0f1b F501     		.2byte	0x1f5
 2684 0f1d FC040000 		.4byte	0x4fc
 2685 0f21 2B0F0000 		.4byte	0xf2b
 2686 0f25 0D       		.uleb128 0xd
 2687 0f26 FC040000 		.4byte	0x4fc
 2688 0f2a 00       		.byte	0
 2689 0f2b 45       		.uleb128 0x45
 2690 0f2c 38020000 		.4byte	.LASF118
 2691 0f30 02       		.byte	0x2
 2692 0f31 F801     		.2byte	0x1f8
 2693 0f33 420F0000 		.4byte	0xf42
 2694 0f37 0D       		.uleb128 0xd
 2695 0f38 FC040000 		.4byte	0x4fc
 2696 0f3c 0D       		.uleb128 0xd
 2697 0f3d FF000000 		.4byte	0xff
 2698 0f41 00       		.byte	0
 2699 0f42 47       		.uleb128 0x47
 2700 0f43 9E010000 		.4byte	.LASF123
 2701 0f47 02       		.byte	0x2
 2702 0f48 F901     		.2byte	0x1f9
 2703 0f4a 00       		.byte	0
 2704              		.section	.debug_abbrev,"",%progbits
 2705              	.Ldebug_abbrev0:
 2706 0000 01       		.uleb128 0x1
 2707 0001 11       		.uleb128 0x11
 2708 0002 01       		.byte	0x1
 2709 0003 25       		.uleb128 0x25
 2710 0004 0E       		.uleb128 0xe
 2711 0005 13       		.uleb128 0x13
 2712 0006 0B       		.uleb128 0xb
 2713 0007 03       		.uleb128 0x3
 2714 0008 0E       		.uleb128 0xe
 2715 0009 1B       		.uleb128 0x1b
 2716 000a 0E       		.uleb128 0xe
 2717 000b 55       		.uleb128 0x55
 2718 000c 17       		.uleb128 0x17
 2719 000d 11       		.uleb128 0x11
 2720 000e 01       		.uleb128 0x1
 2721 000f 10       		.uleb128 0x10
 2722 0010 17       		.uleb128 0x17
 2723 0011 00       		.byte	0
 2724 0012 00       		.byte	0
 2725 0013 02       		.uleb128 0x2
 2726 0014 24       		.uleb128 0x24
 2727 0015 00       		.byte	0
 2728 0016 0B       		.uleb128 0xb
 2729 0017 0B       		.uleb128 0xb
ARM GAS  /tmp/ccgDH5PG.s 			page 49


 2730 0018 3E       		.uleb128 0x3e
 2731 0019 0B       		.uleb128 0xb
 2732 001a 03       		.uleb128 0x3
 2733 001b 08       		.uleb128 0x8
 2734 001c 00       		.byte	0
 2735 001d 00       		.byte	0
 2736 001e 03       		.uleb128 0x3
 2737 001f 24       		.uleb128 0x24
 2738 0020 00       		.byte	0
 2739 0021 0B       		.uleb128 0xb
 2740 0022 0B       		.uleb128 0xb
 2741 0023 3E       		.uleb128 0x3e
 2742 0024 0B       		.uleb128 0xb
 2743 0025 03       		.uleb128 0x3
 2744 0026 0E       		.uleb128 0xe
 2745 0027 00       		.byte	0
 2746 0028 00       		.byte	0
 2747 0029 04       		.uleb128 0x4
 2748 002a 16       		.uleb128 0x16
 2749 002b 00       		.byte	0
 2750 002c 03       		.uleb128 0x3
 2751 002d 0E       		.uleb128 0xe
 2752 002e 3A       		.uleb128 0x3a
 2753 002f 0B       		.uleb128 0xb
 2754 0030 3B       		.uleb128 0x3b
 2755 0031 0B       		.uleb128 0xb
 2756 0032 49       		.uleb128 0x49
 2757 0033 13       		.uleb128 0x13
 2758 0034 00       		.byte	0
 2759 0035 00       		.byte	0
 2760 0036 05       		.uleb128 0x5
 2761 0037 35       		.uleb128 0x35
 2762 0038 00       		.byte	0
 2763 0039 49       		.uleb128 0x49
 2764 003a 13       		.uleb128 0x13
 2765 003b 00       		.byte	0
 2766 003c 00       		.byte	0
 2767 003d 06       		.uleb128 0x6
 2768 003e 13       		.uleb128 0x13
 2769 003f 01       		.byte	0x1
 2770 0040 03       		.uleb128 0x3
 2771 0041 0E       		.uleb128 0xe
 2772 0042 0B       		.uleb128 0xb
 2773 0043 0B       		.uleb128 0xb
 2774 0044 3A       		.uleb128 0x3a
 2775 0045 0B       		.uleb128 0xb
 2776 0046 3B       		.uleb128 0x3b
 2777 0047 0B       		.uleb128 0xb
 2778 0048 01       		.uleb128 0x1
 2779 0049 13       		.uleb128 0x13
 2780 004a 00       		.byte	0
 2781 004b 00       		.byte	0
 2782 004c 07       		.uleb128 0x7
 2783 004d 0D       		.uleb128 0xd
 2784 004e 00       		.byte	0
 2785 004f 03       		.uleb128 0x3
 2786 0050 0E       		.uleb128 0xe
ARM GAS  /tmp/ccgDH5PG.s 			page 50


 2787 0051 3A       		.uleb128 0x3a
 2788 0052 0B       		.uleb128 0xb
 2789 0053 3B       		.uleb128 0x3b
 2790 0054 0B       		.uleb128 0xb
 2791 0055 49       		.uleb128 0x49
 2792 0056 13       		.uleb128 0x13
 2793 0057 38       		.uleb128 0x38
 2794 0058 0B       		.uleb128 0xb
 2795 0059 00       		.byte	0
 2796 005a 00       		.byte	0
 2797 005b 08       		.uleb128 0x8
 2798 005c 0D       		.uleb128 0xd
 2799 005d 00       		.byte	0
 2800 005e 03       		.uleb128 0x3
 2801 005f 08       		.uleb128 0x8
 2802 0060 3A       		.uleb128 0x3a
 2803 0061 0B       		.uleb128 0xb
 2804 0062 3B       		.uleb128 0x3b
 2805 0063 05       		.uleb128 0x5
 2806 0064 49       		.uleb128 0x49
 2807 0065 13       		.uleb128 0x13
 2808 0066 38       		.uleb128 0x38
 2809 0067 0B       		.uleb128 0xb
 2810 0068 00       		.byte	0
 2811 0069 00       		.byte	0
 2812 006a 09       		.uleb128 0x9
 2813 006b 0D       		.uleb128 0xd
 2814 006c 00       		.byte	0
 2815 006d 03       		.uleb128 0x3
 2816 006e 0E       		.uleb128 0xe
 2817 006f 3A       		.uleb128 0x3a
 2818 0070 0B       		.uleb128 0xb
 2819 0071 3B       		.uleb128 0x3b
 2820 0072 05       		.uleb128 0x5
 2821 0073 49       		.uleb128 0x49
 2822 0074 13       		.uleb128 0x13
 2823 0075 38       		.uleb128 0x38
 2824 0076 0B       		.uleb128 0xb
 2825 0077 00       		.byte	0
 2826 0078 00       		.byte	0
 2827 0079 0A       		.uleb128 0xa
 2828 007a 13       		.uleb128 0x13
 2829 007b 01       		.byte	0x1
 2830 007c 03       		.uleb128 0x3
 2831 007d 0E       		.uleb128 0xe
 2832 007e 0B       		.uleb128 0xb
 2833 007f 0B       		.uleb128 0xb
 2834 0080 3A       		.uleb128 0x3a
 2835 0081 0B       		.uleb128 0xb
 2836 0082 3B       		.uleb128 0x3b
 2837 0083 05       		.uleb128 0x5
 2838 0084 01       		.uleb128 0x1
 2839 0085 13       		.uleb128 0x13
 2840 0086 00       		.byte	0
 2841 0087 00       		.byte	0
 2842 0088 0B       		.uleb128 0xb
 2843 0089 0F       		.uleb128 0xf
ARM GAS  /tmp/ccgDH5PG.s 			page 51


 2844 008a 00       		.byte	0
 2845 008b 0B       		.uleb128 0xb
 2846 008c 0B       		.uleb128 0xb
 2847 008d 49       		.uleb128 0x49
 2848 008e 13       		.uleb128 0x13
 2849 008f 00       		.byte	0
 2850 0090 00       		.byte	0
 2851 0091 0C       		.uleb128 0xc
 2852 0092 15       		.uleb128 0x15
 2853 0093 01       		.byte	0x1
 2854 0094 27       		.uleb128 0x27
 2855 0095 19       		.uleb128 0x19
 2856 0096 01       		.uleb128 0x1
 2857 0097 13       		.uleb128 0x13
 2858 0098 00       		.byte	0
 2859 0099 00       		.byte	0
 2860 009a 0D       		.uleb128 0xd
 2861 009b 05       		.uleb128 0x5
 2862 009c 00       		.byte	0
 2863 009d 49       		.uleb128 0x49
 2864 009e 13       		.uleb128 0x13
 2865 009f 00       		.byte	0
 2866 00a0 00       		.byte	0
 2867 00a1 0E       		.uleb128 0xe
 2868 00a2 0F       		.uleb128 0xf
 2869 00a3 00       		.byte	0
 2870 00a4 0B       		.uleb128 0xb
 2871 00a5 0B       		.uleb128 0xb
 2872 00a6 00       		.byte	0
 2873 00a7 00       		.byte	0
 2874 00a8 0F       		.uleb128 0xf
 2875 00a9 13       		.uleb128 0x13
 2876 00aa 01       		.byte	0x1
 2877 00ab 03       		.uleb128 0x3
 2878 00ac 0E       		.uleb128 0xe
 2879 00ad 0B       		.uleb128 0xb
 2880 00ae 05       		.uleb128 0x5
 2881 00af 3A       		.uleb128 0x3a
 2882 00b0 0B       		.uleb128 0xb
 2883 00b1 3B       		.uleb128 0x3b
 2884 00b2 05       		.uleb128 0x5
 2885 00b3 01       		.uleb128 0x1
 2886 00b4 13       		.uleb128 0x13
 2887 00b5 00       		.byte	0
 2888 00b6 00       		.byte	0
 2889 00b7 10       		.uleb128 0x10
 2890 00b8 0D       		.uleb128 0xd
 2891 00b9 00       		.byte	0
 2892 00ba 03       		.uleb128 0x3
 2893 00bb 08       		.uleb128 0x8
 2894 00bc 3A       		.uleb128 0x3a
 2895 00bd 0B       		.uleb128 0xb
 2896 00be 3B       		.uleb128 0x3b
 2897 00bf 0B       		.uleb128 0xb
 2898 00c0 49       		.uleb128 0x49
 2899 00c1 13       		.uleb128 0x13
 2900 00c2 38       		.uleb128 0x38
ARM GAS  /tmp/ccgDH5PG.s 			page 52


 2901 00c3 0B       		.uleb128 0xb
 2902 00c4 00       		.byte	0
 2903 00c5 00       		.byte	0
 2904 00c6 11       		.uleb128 0x11
 2905 00c7 13       		.uleb128 0x13
 2906 00c8 01       		.byte	0x1
 2907 00c9 0B       		.uleb128 0xb
 2908 00ca 0B       		.uleb128 0xb
 2909 00cb 3A       		.uleb128 0x3a
 2910 00cc 0B       		.uleb128 0xb
 2911 00cd 3B       		.uleb128 0x3b
 2912 00ce 0B       		.uleb128 0xb
 2913 00cf 01       		.uleb128 0x1
 2914 00d0 13       		.uleb128 0x13
 2915 00d1 00       		.byte	0
 2916 00d2 00       		.byte	0
 2917 00d3 12       		.uleb128 0x12
 2918 00d4 17       		.uleb128 0x17
 2919 00d5 01       		.byte	0x1
 2920 00d6 0B       		.uleb128 0xb
 2921 00d7 0B       		.uleb128 0xb
 2922 00d8 3A       		.uleb128 0x3a
 2923 00d9 0B       		.uleb128 0xb
 2924 00da 3B       		.uleb128 0x3b
 2925 00db 0B       		.uleb128 0xb
 2926 00dc 01       		.uleb128 0x1
 2927 00dd 13       		.uleb128 0x13
 2928 00de 00       		.byte	0
 2929 00df 00       		.byte	0
 2930 00e0 13       		.uleb128 0x13
 2931 00e1 0D       		.uleb128 0xd
 2932 00e2 00       		.byte	0
 2933 00e3 03       		.uleb128 0x3
 2934 00e4 0E       		.uleb128 0xe
 2935 00e5 3A       		.uleb128 0x3a
 2936 00e6 0B       		.uleb128 0xb
 2937 00e7 3B       		.uleb128 0x3b
 2938 00e8 0B       		.uleb128 0xb
 2939 00e9 49       		.uleb128 0x49
 2940 00ea 13       		.uleb128 0x13
 2941 00eb 00       		.byte	0
 2942 00ec 00       		.byte	0
 2943 00ed 14       		.uleb128 0x14
 2944 00ee 0D       		.uleb128 0xd
 2945 00ef 00       		.byte	0
 2946 00f0 03       		.uleb128 0x3
 2947 00f1 0E       		.uleb128 0xe
 2948 00f2 3A       		.uleb128 0x3a
 2949 00f3 0B       		.uleb128 0xb
 2950 00f4 3B       		.uleb128 0x3b
 2951 00f5 05       		.uleb128 0x5
 2952 00f6 49       		.uleb128 0x49
 2953 00f7 13       		.uleb128 0x13
 2954 00f8 00       		.byte	0
 2955 00f9 00       		.byte	0
 2956 00fa 15       		.uleb128 0x15
 2957 00fb 26       		.uleb128 0x26
ARM GAS  /tmp/ccgDH5PG.s 			page 53


 2958 00fc 00       		.byte	0
 2959 00fd 49       		.uleb128 0x49
 2960 00fe 13       		.uleb128 0x13
 2961 00ff 00       		.byte	0
 2962 0100 00       		.byte	0
 2963 0101 16       		.uleb128 0x16
 2964 0102 01       		.uleb128 0x1
 2965 0103 01       		.byte	0x1
 2966 0104 49       		.uleb128 0x49
 2967 0105 13       		.uleb128 0x13
 2968 0106 01       		.uleb128 0x1
 2969 0107 13       		.uleb128 0x13
 2970 0108 00       		.byte	0
 2971 0109 00       		.byte	0
 2972 010a 17       		.uleb128 0x17
 2973 010b 21       		.uleb128 0x21
 2974 010c 00       		.byte	0
 2975 010d 49       		.uleb128 0x49
 2976 010e 13       		.uleb128 0x13
 2977 010f 2F       		.uleb128 0x2f
 2978 0110 0B       		.uleb128 0xb
 2979 0111 00       		.byte	0
 2980 0112 00       		.byte	0
 2981 0113 18       		.uleb128 0x18
 2982 0114 2E       		.uleb128 0x2e
 2983 0115 01       		.byte	0x1
 2984 0116 03       		.uleb128 0x3
 2985 0117 0E       		.uleb128 0xe
 2986 0118 3A       		.uleb128 0x3a
 2987 0119 0B       		.uleb128 0xb
 2988 011a 3B       		.uleb128 0x3b
 2989 011b 05       		.uleb128 0x5
 2990 011c 27       		.uleb128 0x27
 2991 011d 19       		.uleb128 0x19
 2992 011e 20       		.uleb128 0x20
 2993 011f 0B       		.uleb128 0xb
 2994 0120 01       		.uleb128 0x1
 2995 0121 13       		.uleb128 0x13
 2996 0122 00       		.byte	0
 2997 0123 00       		.byte	0
 2998 0124 19       		.uleb128 0x19
 2999 0125 05       		.uleb128 0x5
 3000 0126 00       		.byte	0
 3001 0127 03       		.uleb128 0x3
 3002 0128 0E       		.uleb128 0xe
 3003 0129 3A       		.uleb128 0x3a
 3004 012a 0B       		.uleb128 0xb
 3005 012b 3B       		.uleb128 0x3b
 3006 012c 05       		.uleb128 0x5
 3007 012d 49       		.uleb128 0x49
 3008 012e 13       		.uleb128 0x13
 3009 012f 00       		.byte	0
 3010 0130 00       		.byte	0
 3011 0131 1A       		.uleb128 0x1a
 3012 0132 2E       		.uleb128 0x2e
 3013 0133 00       		.byte	0
 3014 0134 03       		.uleb128 0x3
ARM GAS  /tmp/ccgDH5PG.s 			page 54


 3015 0135 0E       		.uleb128 0xe
 3016 0136 3A       		.uleb128 0x3a
 3017 0137 0B       		.uleb128 0xb
 3018 0138 3B       		.uleb128 0x3b
 3019 0139 05       		.uleb128 0x5
 3020 013a 27       		.uleb128 0x27
 3021 013b 19       		.uleb128 0x19
 3022 013c 20       		.uleb128 0x20
 3023 013d 0B       		.uleb128 0xb
 3024 013e 00       		.byte	0
 3025 013f 00       		.byte	0
 3026 0140 1B       		.uleb128 0x1b
 3027 0141 2E       		.uleb128 0x2e
 3028 0142 01       		.byte	0x1
 3029 0143 03       		.uleb128 0x3
 3030 0144 0E       		.uleb128 0xe
 3031 0145 3A       		.uleb128 0x3a
 3032 0146 0B       		.uleb128 0xb
 3033 0147 3B       		.uleb128 0x3b
 3034 0148 05       		.uleb128 0x5
 3035 0149 27       		.uleb128 0x27
 3036 014a 19       		.uleb128 0x19
 3037 014b 49       		.uleb128 0x49
 3038 014c 13       		.uleb128 0x13
 3039 014d 20       		.uleb128 0x20
 3040 014e 0B       		.uleb128 0xb
 3041 014f 01       		.uleb128 0x1
 3042 0150 13       		.uleb128 0x13
 3043 0151 00       		.byte	0
 3044 0152 00       		.byte	0
 3045 0153 1C       		.uleb128 0x1c
 3046 0154 05       		.uleb128 0x5
 3047 0155 00       		.byte	0
 3048 0156 03       		.uleb128 0x3
 3049 0157 08       		.uleb128 0x8
 3050 0158 3A       		.uleb128 0x3a
 3051 0159 0B       		.uleb128 0xb
 3052 015a 3B       		.uleb128 0x3b
 3053 015b 05       		.uleb128 0x5
 3054 015c 49       		.uleb128 0x49
 3055 015d 13       		.uleb128 0x13
 3056 015e 00       		.byte	0
 3057 015f 00       		.byte	0
 3058 0160 1D       		.uleb128 0x1d
 3059 0161 34       		.uleb128 0x34
 3060 0162 00       		.byte	0
 3061 0163 03       		.uleb128 0x3
 3062 0164 08       		.uleb128 0x8
 3063 0165 3A       		.uleb128 0x3a
 3064 0166 0B       		.uleb128 0xb
 3065 0167 3B       		.uleb128 0x3b
 3066 0168 05       		.uleb128 0x5
 3067 0169 49       		.uleb128 0x49
 3068 016a 13       		.uleb128 0x13
 3069 016b 00       		.byte	0
 3070 016c 00       		.byte	0
 3071 016d 1E       		.uleb128 0x1e
ARM GAS  /tmp/ccgDH5PG.s 			page 55


 3072 016e 34       		.uleb128 0x34
 3073 016f 00       		.byte	0
 3074 0170 03       		.uleb128 0x3
 3075 0171 0E       		.uleb128 0xe
 3076 0172 49       		.uleb128 0x49
 3077 0173 13       		.uleb128 0x13
 3078 0174 34       		.uleb128 0x34
 3079 0175 19       		.uleb128 0x19
 3080 0176 1C       		.uleb128 0x1c
 3081 0177 0E       		.uleb128 0xe
 3082 0178 00       		.byte	0
 3083 0179 00       		.byte	0
 3084 017a 1F       		.uleb128 0x1f
 3085 017b 2E       		.uleb128 0x2e
 3086 017c 01       		.byte	0x1
 3087 017d 3F       		.uleb128 0x3f
 3088 017e 19       		.uleb128 0x19
 3089 017f 03       		.uleb128 0x3
 3090 0180 0E       		.uleb128 0xe
 3091 0181 3A       		.uleb128 0x3a
 3092 0182 0B       		.uleb128 0xb
 3093 0183 3B       		.uleb128 0x3b
 3094 0184 05       		.uleb128 0x5
 3095 0185 27       		.uleb128 0x27
 3096 0186 19       		.uleb128 0x19
 3097 0187 49       		.uleb128 0x49
 3098 0188 13       		.uleb128 0x13
 3099 0189 20       		.uleb128 0x20
 3100 018a 0B       		.uleb128 0xb
 3101 018b 01       		.uleb128 0x1
 3102 018c 13       		.uleb128 0x13
 3103 018d 00       		.byte	0
 3104 018e 00       		.byte	0
 3105 018f 20       		.uleb128 0x20
 3106 0190 2E       		.uleb128 0x2e
 3107 0191 01       		.byte	0x1
 3108 0192 03       		.uleb128 0x3
 3109 0193 0E       		.uleb128 0xe
 3110 0194 3A       		.uleb128 0x3a
 3111 0195 0B       		.uleb128 0xb
 3112 0196 3B       		.uleb128 0x3b
 3113 0197 0B       		.uleb128 0xb
 3114 0198 27       		.uleb128 0x27
 3115 0199 19       		.uleb128 0x19
 3116 019a 49       		.uleb128 0x49
 3117 019b 13       		.uleb128 0x13
 3118 019c 20       		.uleb128 0x20
 3119 019d 0B       		.uleb128 0xb
 3120 019e 01       		.uleb128 0x1
 3121 019f 13       		.uleb128 0x13
 3122 01a0 00       		.byte	0
 3123 01a1 00       		.byte	0
 3124 01a2 21       		.uleb128 0x21
 3125 01a3 05       		.uleb128 0x5
 3126 01a4 00       		.byte	0
 3127 01a5 03       		.uleb128 0x3
 3128 01a6 08       		.uleb128 0x8
ARM GAS  /tmp/ccgDH5PG.s 			page 56


 3129 01a7 3A       		.uleb128 0x3a
 3130 01a8 0B       		.uleb128 0xb
 3131 01a9 3B       		.uleb128 0x3b
 3132 01aa 0B       		.uleb128 0xb
 3133 01ab 49       		.uleb128 0x49
 3134 01ac 13       		.uleb128 0x13
 3135 01ad 00       		.byte	0
 3136 01ae 00       		.byte	0
 3137 01af 22       		.uleb128 0x22
 3138 01b0 2E       		.uleb128 0x2e
 3139 01b1 01       		.byte	0x1
 3140 01b2 3F       		.uleb128 0x3f
 3141 01b3 19       		.uleb128 0x19
 3142 01b4 03       		.uleb128 0x3
 3143 01b5 0E       		.uleb128 0xe
 3144 01b6 3A       		.uleb128 0x3a
 3145 01b7 0B       		.uleb128 0xb
 3146 01b8 3B       		.uleb128 0x3b
 3147 01b9 0B       		.uleb128 0xb
 3148 01ba 27       		.uleb128 0x27
 3149 01bb 19       		.uleb128 0x19
 3150 01bc 11       		.uleb128 0x11
 3151 01bd 01       		.uleb128 0x1
 3152 01be 12       		.uleb128 0x12
 3153 01bf 06       		.uleb128 0x6
 3154 01c0 40       		.uleb128 0x40
 3155 01c1 18       		.uleb128 0x18
 3156 01c2 9742     		.uleb128 0x2117
 3157 01c4 19       		.uleb128 0x19
 3158 01c5 01       		.uleb128 0x1
 3159 01c6 13       		.uleb128 0x13
 3160 01c7 00       		.byte	0
 3161 01c8 00       		.byte	0
 3162 01c9 23       		.uleb128 0x23
 3163 01ca 05       		.uleb128 0x5
 3164 01cb 00       		.byte	0
 3165 01cc 03       		.uleb128 0x3
 3166 01cd 08       		.uleb128 0x8
 3167 01ce 3A       		.uleb128 0x3a
 3168 01cf 0B       		.uleb128 0xb
 3169 01d0 3B       		.uleb128 0x3b
 3170 01d1 0B       		.uleb128 0xb
 3171 01d2 49       		.uleb128 0x49
 3172 01d3 13       		.uleb128 0x13
 3173 01d4 02       		.uleb128 0x2
 3174 01d5 18       		.uleb128 0x18
 3175 01d6 00       		.byte	0
 3176 01d7 00       		.byte	0
 3177 01d8 24       		.uleb128 0x24
 3178 01d9 34       		.uleb128 0x34
 3179 01da 00       		.byte	0
 3180 01db 03       		.uleb128 0x3
 3181 01dc 0E       		.uleb128 0xe
 3182 01dd 49       		.uleb128 0x49
 3183 01de 13       		.uleb128 0x13
 3184 01df 34       		.uleb128 0x34
 3185 01e0 19       		.uleb128 0x19
ARM GAS  /tmp/ccgDH5PG.s 			page 57


 3186 01e1 00       		.byte	0
 3187 01e2 00       		.byte	0
 3188 01e3 25       		.uleb128 0x25
 3189 01e4 1D       		.uleb128 0x1d
 3190 01e5 01       		.byte	0x1
 3191 01e6 31       		.uleb128 0x31
 3192 01e7 13       		.uleb128 0x13
 3193 01e8 11       		.uleb128 0x11
 3194 01e9 01       		.uleb128 0x1
 3195 01ea 12       		.uleb128 0x12
 3196 01eb 06       		.uleb128 0x6
 3197 01ec 58       		.uleb128 0x58
 3198 01ed 0B       		.uleb128 0xb
 3199 01ee 59       		.uleb128 0x59
 3200 01ef 0B       		.uleb128 0xb
 3201 01f0 00       		.byte	0
 3202 01f1 00       		.byte	0
 3203 01f2 26       		.uleb128 0x26
 3204 01f3 05       		.uleb128 0x5
 3205 01f4 00       		.byte	0
 3206 01f5 31       		.uleb128 0x31
 3207 01f6 13       		.uleb128 0x13
 3208 01f7 02       		.uleb128 0x2
 3209 01f8 18       		.uleb128 0x18
 3210 01f9 00       		.byte	0
 3211 01fa 00       		.byte	0
 3212 01fb 27       		.uleb128 0x27
 3213 01fc 05       		.uleb128 0x5
 3214 01fd 00       		.byte	0
 3215 01fe 03       		.uleb128 0x3
 3216 01ff 08       		.uleb128 0x8
 3217 0200 3A       		.uleb128 0x3a
 3218 0201 0B       		.uleb128 0xb
 3219 0202 3B       		.uleb128 0x3b
 3220 0203 0B       		.uleb128 0xb
 3221 0204 49       		.uleb128 0x49
 3222 0205 13       		.uleb128 0x13
 3223 0206 02       		.uleb128 0x2
 3224 0207 17       		.uleb128 0x17
 3225 0208 00       		.byte	0
 3226 0209 00       		.byte	0
 3227 020a 28       		.uleb128 0x28
 3228 020b 34       		.uleb128 0x34
 3229 020c 00       		.byte	0
 3230 020d 03       		.uleb128 0x3
 3231 020e 08       		.uleb128 0x8
 3232 020f 3A       		.uleb128 0x3a
 3233 0210 0B       		.uleb128 0xb
 3234 0211 3B       		.uleb128 0x3b
 3235 0212 0B       		.uleb128 0xb
 3236 0213 49       		.uleb128 0x49
 3237 0214 13       		.uleb128 0x13
 3238 0215 02       		.uleb128 0x2
 3239 0216 17       		.uleb128 0x17
 3240 0217 00       		.byte	0
 3241 0218 00       		.byte	0
 3242 0219 29       		.uleb128 0x29
ARM GAS  /tmp/ccgDH5PG.s 			page 58


 3243 021a 0B       		.uleb128 0xb
 3244 021b 01       		.byte	0x1
 3245 021c 55       		.uleb128 0x55
 3246 021d 17       		.uleb128 0x17
 3247 021e 00       		.byte	0
 3248 021f 00       		.byte	0
 3249 0220 2A       		.uleb128 0x2a
 3250 0221 1D       		.uleb128 0x1d
 3251 0222 01       		.byte	0x1
 3252 0223 31       		.uleb128 0x31
 3253 0224 13       		.uleb128 0x13
 3254 0225 11       		.uleb128 0x11
 3255 0226 01       		.uleb128 0x1
 3256 0227 12       		.uleb128 0x12
 3257 0228 06       		.uleb128 0x6
 3258 0229 58       		.uleb128 0x58
 3259 022a 0B       		.uleb128 0xb
 3260 022b 59       		.uleb128 0x59
 3261 022c 0B       		.uleb128 0xb
 3262 022d 01       		.uleb128 0x1
 3263 022e 13       		.uleb128 0x13
 3264 022f 00       		.byte	0
 3265 0230 00       		.byte	0
 3266 0231 2B       		.uleb128 0x2b
 3267 0232 05       		.uleb128 0x5
 3268 0233 00       		.byte	0
 3269 0234 31       		.uleb128 0x31
 3270 0235 13       		.uleb128 0x13
 3271 0236 02       		.uleb128 0x2
 3272 0237 17       		.uleb128 0x17
 3273 0238 00       		.byte	0
 3274 0239 00       		.byte	0
 3275 023a 2C       		.uleb128 0x2c
 3276 023b 0B       		.uleb128 0xb
 3277 023c 01       		.byte	0x1
 3278 023d 11       		.uleb128 0x11
 3279 023e 01       		.uleb128 0x1
 3280 023f 12       		.uleb128 0x12
 3281 0240 06       		.uleb128 0x6
 3282 0241 00       		.byte	0
 3283 0242 00       		.byte	0
 3284 0243 2D       		.uleb128 0x2d
 3285 0244 34       		.uleb128 0x34
 3286 0245 00       		.byte	0
 3287 0246 31       		.uleb128 0x31
 3288 0247 13       		.uleb128 0x13
 3289 0248 02       		.uleb128 0x2
 3290 0249 17       		.uleb128 0x17
 3291 024a 00       		.byte	0
 3292 024b 00       		.byte	0
 3293 024c 2E       		.uleb128 0x2e
 3294 024d 1D       		.uleb128 0x1d
 3295 024e 01       		.byte	0x1
 3296 024f 31       		.uleb128 0x31
 3297 0250 13       		.uleb128 0x13
 3298 0251 52       		.uleb128 0x52
 3299 0252 01       		.uleb128 0x1
ARM GAS  /tmp/ccgDH5PG.s 			page 59


 3300 0253 55       		.uleb128 0x55
 3301 0254 17       		.uleb128 0x17
 3302 0255 58       		.uleb128 0x58
 3303 0256 0B       		.uleb128 0xb
 3304 0257 59       		.uleb128 0x59
 3305 0258 0B       		.uleb128 0xb
 3306 0259 01       		.uleb128 0x1
 3307 025a 13       		.uleb128 0x13
 3308 025b 00       		.byte	0
 3309 025c 00       		.byte	0
 3310 025d 2F       		.uleb128 0x2f
 3311 025e 898201   		.uleb128 0x4109
 3312 0261 01       		.byte	0x1
 3313 0262 11       		.uleb128 0x11
 3314 0263 01       		.uleb128 0x1
 3315 0264 9542     		.uleb128 0x2115
 3316 0266 19       		.uleb128 0x19
 3317 0267 31       		.uleb128 0x31
 3318 0268 13       		.uleb128 0x13
 3319 0269 01       		.uleb128 0x1
 3320 026a 13       		.uleb128 0x13
 3321 026b 00       		.byte	0
 3322 026c 00       		.byte	0
 3323 026d 30       		.uleb128 0x30
 3324 026e 8A8201   		.uleb128 0x410a
 3325 0271 00       		.byte	0
 3326 0272 02       		.uleb128 0x2
 3327 0273 18       		.uleb128 0x18
 3328 0274 9142     		.uleb128 0x2111
 3329 0276 18       		.uleb128 0x18
 3330 0277 00       		.byte	0
 3331 0278 00       		.byte	0
 3332 0279 31       		.uleb128 0x31
 3333 027a 898201   		.uleb128 0x4109
 3334 027d 00       		.byte	0
 3335 027e 11       		.uleb128 0x11
 3336 027f 01       		.uleb128 0x1
 3337 0280 31       		.uleb128 0x31
 3338 0281 13       		.uleb128 0x13
 3339 0282 00       		.byte	0
 3340 0283 00       		.byte	0
 3341 0284 32       		.uleb128 0x32
 3342 0285 1D       		.uleb128 0x1d
 3343 0286 01       		.byte	0x1
 3344 0287 31       		.uleb128 0x31
 3345 0288 13       		.uleb128 0x13
 3346 0289 11       		.uleb128 0x11
 3347 028a 01       		.uleb128 0x1
 3348 028b 12       		.uleb128 0x12
 3349 028c 06       		.uleb128 0x6
 3350 028d 58       		.uleb128 0x58
 3351 028e 0B       		.uleb128 0xb
 3352 028f 59       		.uleb128 0x59
 3353 0290 05       		.uleb128 0x5
 3354 0291 00       		.byte	0
 3355 0292 00       		.byte	0
 3356 0293 33       		.uleb128 0x33
ARM GAS  /tmp/ccgDH5PG.s 			page 60


 3357 0294 05       		.uleb128 0x5
 3358 0295 00       		.byte	0
 3359 0296 31       		.uleb128 0x31
 3360 0297 13       		.uleb128 0x13
 3361 0298 1C       		.uleb128 0x1c
 3362 0299 0B       		.uleb128 0xb
 3363 029a 00       		.byte	0
 3364 029b 00       		.byte	0
 3365 029c 34       		.uleb128 0x34
 3366 029d 34       		.uleb128 0x34
 3367 029e 00       		.byte	0
 3368 029f 31       		.uleb128 0x31
 3369 02a0 13       		.uleb128 0x13
 3370 02a1 00       		.byte	0
 3371 02a2 00       		.byte	0
 3372 02a3 35       		.uleb128 0x35
 3373 02a4 898201   		.uleb128 0x4109
 3374 02a7 01       		.byte	0x1
 3375 02a8 11       		.uleb128 0x11
 3376 02a9 01       		.uleb128 0x1
 3377 02aa 31       		.uleb128 0x31
 3378 02ab 13       		.uleb128 0x13
 3379 02ac 00       		.byte	0
 3380 02ad 00       		.byte	0
 3381 02ae 36       		.uleb128 0x36
 3382 02af 2E       		.uleb128 0x2e
 3383 02b0 01       		.byte	0x1
 3384 02b1 3F       		.uleb128 0x3f
 3385 02b2 19       		.uleb128 0x19
 3386 02b3 03       		.uleb128 0x3
 3387 02b4 0E       		.uleb128 0xe
 3388 02b5 3A       		.uleb128 0x3a
 3389 02b6 0B       		.uleb128 0xb
 3390 02b7 3B       		.uleb128 0x3b
 3391 02b8 0B       		.uleb128 0xb
 3392 02b9 27       		.uleb128 0x27
 3393 02ba 19       		.uleb128 0x19
 3394 02bb 49       		.uleb128 0x49
 3395 02bc 13       		.uleb128 0x13
 3396 02bd 11       		.uleb128 0x11
 3397 02be 01       		.uleb128 0x1
 3398 02bf 12       		.uleb128 0x12
 3399 02c0 06       		.uleb128 0x6
 3400 02c1 40       		.uleb128 0x40
 3401 02c2 18       		.uleb128 0x18
 3402 02c3 9742     		.uleb128 0x2117
 3403 02c5 19       		.uleb128 0x19
 3404 02c6 01       		.uleb128 0x1
 3405 02c7 13       		.uleb128 0x13
 3406 02c8 00       		.byte	0
 3407 02c9 00       		.byte	0
 3408 02ca 37       		.uleb128 0x37
 3409 02cb 34       		.uleb128 0x34
 3410 02cc 00       		.byte	0
 3411 02cd 03       		.uleb128 0x3
 3412 02ce 08       		.uleb128 0x8
 3413 02cf 3A       		.uleb128 0x3a
ARM GAS  /tmp/ccgDH5PG.s 			page 61


 3414 02d0 0B       		.uleb128 0xb
 3415 02d1 3B       		.uleb128 0x3b
 3416 02d2 0B       		.uleb128 0xb
 3417 02d3 49       		.uleb128 0x49
 3418 02d4 13       		.uleb128 0x13
 3419 02d5 00       		.byte	0
 3420 02d6 00       		.byte	0
 3421 02d7 38       		.uleb128 0x38
 3422 02d8 1D       		.uleb128 0x1d
 3423 02d9 01       		.byte	0x1
 3424 02da 31       		.uleb128 0x31
 3425 02db 13       		.uleb128 0x13
 3426 02dc 52       		.uleb128 0x52
 3427 02dd 01       		.uleb128 0x1
 3428 02de 55       		.uleb128 0x55
 3429 02df 17       		.uleb128 0x17
 3430 02e0 58       		.uleb128 0x58
 3431 02e1 0B       		.uleb128 0xb
 3432 02e2 59       		.uleb128 0x59
 3433 02e3 05       		.uleb128 0x5
 3434 02e4 01       		.uleb128 0x1
 3435 02e5 13       		.uleb128 0x13
 3436 02e6 00       		.byte	0
 3437 02e7 00       		.byte	0
 3438 02e8 39       		.uleb128 0x39
 3439 02e9 1D       		.uleb128 0x1d
 3440 02ea 01       		.byte	0x1
 3441 02eb 31       		.uleb128 0x31
 3442 02ec 13       		.uleb128 0x13
 3443 02ed 52       		.uleb128 0x52
 3444 02ee 01       		.uleb128 0x1
 3445 02ef 55       		.uleb128 0x55
 3446 02f0 17       		.uleb128 0x17
 3447 02f1 58       		.uleb128 0x58
 3448 02f2 0B       		.uleb128 0xb
 3449 02f3 59       		.uleb128 0x59
 3450 02f4 05       		.uleb128 0x5
 3451 02f5 00       		.byte	0
 3452 02f6 00       		.byte	0
 3453 02f7 3A       		.uleb128 0x3a
 3454 02f8 2E       		.uleb128 0x2e
 3455 02f9 01       		.byte	0x1
 3456 02fa 31       		.uleb128 0x31
 3457 02fb 13       		.uleb128 0x13
 3458 02fc 11       		.uleb128 0x11
 3459 02fd 01       		.uleb128 0x1
 3460 02fe 12       		.uleb128 0x12
 3461 02ff 06       		.uleb128 0x6
 3462 0300 40       		.uleb128 0x40
 3463 0301 18       		.uleb128 0x18
 3464 0302 9742     		.uleb128 0x2117
 3465 0304 19       		.uleb128 0x19
 3466 0305 01       		.uleb128 0x1
 3467 0306 13       		.uleb128 0x13
 3468 0307 00       		.byte	0
 3469 0308 00       		.byte	0
 3470 0309 3B       		.uleb128 0x3b
ARM GAS  /tmp/ccgDH5PG.s 			page 62


 3471 030a 2E       		.uleb128 0x2e
 3472 030b 01       		.byte	0x1
 3473 030c 3F       		.uleb128 0x3f
 3474 030d 19       		.uleb128 0x19
 3475 030e 03       		.uleb128 0x3
 3476 030f 0E       		.uleb128 0xe
 3477 0310 3A       		.uleb128 0x3a
 3478 0311 0B       		.uleb128 0xb
 3479 0312 3B       		.uleb128 0x3b
 3480 0313 05       		.uleb128 0x5
 3481 0314 27       		.uleb128 0x27
 3482 0315 19       		.uleb128 0x19
 3483 0316 11       		.uleb128 0x11
 3484 0317 01       		.uleb128 0x1
 3485 0318 12       		.uleb128 0x12
 3486 0319 06       		.uleb128 0x6
 3487 031a 40       		.uleb128 0x40
 3488 031b 18       		.uleb128 0x18
 3489 031c 9742     		.uleb128 0x2117
 3490 031e 19       		.uleb128 0x19
 3491 031f 01       		.uleb128 0x1
 3492 0320 13       		.uleb128 0x13
 3493 0321 00       		.byte	0
 3494 0322 00       		.byte	0
 3495 0323 3C       		.uleb128 0x3c
 3496 0324 05       		.uleb128 0x5
 3497 0325 00       		.byte	0
 3498 0326 03       		.uleb128 0x3
 3499 0327 08       		.uleb128 0x8
 3500 0328 3A       		.uleb128 0x3a
 3501 0329 0B       		.uleb128 0xb
 3502 032a 3B       		.uleb128 0x3b
 3503 032b 05       		.uleb128 0x5
 3504 032c 49       		.uleb128 0x49
 3505 032d 13       		.uleb128 0x13
 3506 032e 02       		.uleb128 0x2
 3507 032f 17       		.uleb128 0x17
 3508 0330 00       		.byte	0
 3509 0331 00       		.byte	0
 3510 0332 3D       		.uleb128 0x3d
 3511 0333 34       		.uleb128 0x34
 3512 0334 00       		.byte	0
 3513 0335 03       		.uleb128 0x3
 3514 0336 08       		.uleb128 0x8
 3515 0337 3A       		.uleb128 0x3a
 3516 0338 0B       		.uleb128 0xb
 3517 0339 3B       		.uleb128 0x3b
 3518 033a 05       		.uleb128 0x5
 3519 033b 49       		.uleb128 0x49
 3520 033c 13       		.uleb128 0x13
 3521 033d 02       		.uleb128 0x2
 3522 033e 17       		.uleb128 0x17
 3523 033f 00       		.byte	0
 3524 0340 00       		.byte	0
 3525 0341 3E       		.uleb128 0x3e
 3526 0342 1D       		.uleb128 0x1d
 3527 0343 01       		.byte	0x1
ARM GAS  /tmp/ccgDH5PG.s 			page 63


 3528 0344 31       		.uleb128 0x31
 3529 0345 13       		.uleb128 0x13
 3530 0346 11       		.uleb128 0x11
 3531 0347 01       		.uleb128 0x1
 3532 0348 12       		.uleb128 0x12
 3533 0349 06       		.uleb128 0x6
 3534 034a 58       		.uleb128 0x58
 3535 034b 0B       		.uleb128 0xb
 3536 034c 59       		.uleb128 0x59
 3537 034d 05       		.uleb128 0x5
 3538 034e 01       		.uleb128 0x1
 3539 034f 13       		.uleb128 0x13
 3540 0350 00       		.byte	0
 3541 0351 00       		.byte	0
 3542 0352 3F       		.uleb128 0x3f
 3543 0353 0B       		.uleb128 0xb
 3544 0354 01       		.byte	0x1
 3545 0355 11       		.uleb128 0x11
 3546 0356 01       		.uleb128 0x1
 3547 0357 12       		.uleb128 0x12
 3548 0358 06       		.uleb128 0x6
 3549 0359 01       		.uleb128 0x1
 3550 035a 13       		.uleb128 0x13
 3551 035b 00       		.byte	0
 3552 035c 00       		.byte	0
 3553 035d 40       		.uleb128 0x40
 3554 035e 34       		.uleb128 0x34
 3555 035f 00       		.byte	0
 3556 0360 03       		.uleb128 0x3
 3557 0361 0E       		.uleb128 0xe
 3558 0362 3A       		.uleb128 0x3a
 3559 0363 0B       		.uleb128 0xb
 3560 0364 3B       		.uleb128 0x3b
 3561 0365 05       		.uleb128 0x5
 3562 0366 49       		.uleb128 0x49
 3563 0367 13       		.uleb128 0x13
 3564 0368 02       		.uleb128 0x2
 3565 0369 17       		.uleb128 0x17
 3566 036a 00       		.byte	0
 3567 036b 00       		.byte	0
 3568 036c 41       		.uleb128 0x41
 3569 036d 898201   		.uleb128 0x4109
 3570 0370 00       		.byte	0
 3571 0371 11       		.uleb128 0x11
 3572 0372 01       		.uleb128 0x1
 3573 0373 9542     		.uleb128 0x2115
 3574 0375 19       		.uleb128 0x19
 3575 0376 31       		.uleb128 0x31
 3576 0377 13       		.uleb128 0x13
 3577 0378 00       		.byte	0
 3578 0379 00       		.byte	0
 3579 037a 42       		.uleb128 0x42
 3580 037b 0B       		.uleb128 0xb
 3581 037c 01       		.byte	0x1
 3582 037d 55       		.uleb128 0x55
 3583 037e 17       		.uleb128 0x17
 3584 037f 01       		.uleb128 0x1
ARM GAS  /tmp/ccgDH5PG.s 			page 64


 3585 0380 13       		.uleb128 0x13
 3586 0381 00       		.byte	0
 3587 0382 00       		.byte	0
 3588 0383 43       		.uleb128 0x43
 3589 0384 34       		.uleb128 0x34
 3590 0385 00       		.byte	0
 3591 0386 03       		.uleb128 0x3
 3592 0387 0E       		.uleb128 0xe
 3593 0388 3A       		.uleb128 0x3a
 3594 0389 0B       		.uleb128 0xb
 3595 038a 3B       		.uleb128 0x3b
 3596 038b 05       		.uleb128 0x5
 3597 038c 49       		.uleb128 0x49
 3598 038d 13       		.uleb128 0x13
 3599 038e 3F       		.uleb128 0x3f
 3600 038f 19       		.uleb128 0x19
 3601 0390 3C       		.uleb128 0x3c
 3602 0391 19       		.uleb128 0x19
 3603 0392 00       		.byte	0
 3604 0393 00       		.byte	0
 3605 0394 44       		.uleb128 0x44
 3606 0395 34       		.uleb128 0x34
 3607 0396 00       		.byte	0
 3608 0397 03       		.uleb128 0x3
 3609 0398 08       		.uleb128 0x8
 3610 0399 3A       		.uleb128 0x3a
 3611 039a 0B       		.uleb128 0xb
 3612 039b 3B       		.uleb128 0x3b
 3613 039c 05       		.uleb128 0x5
 3614 039d 49       		.uleb128 0x49
 3615 039e 13       		.uleb128 0x13
 3616 039f 3F       		.uleb128 0x3f
 3617 03a0 19       		.uleb128 0x19
 3618 03a1 3C       		.uleb128 0x3c
 3619 03a2 19       		.uleb128 0x19
 3620 03a3 00       		.byte	0
 3621 03a4 00       		.byte	0
 3622 03a5 45       		.uleb128 0x45
 3623 03a6 2E       		.uleb128 0x2e
 3624 03a7 01       		.byte	0x1
 3625 03a8 3F       		.uleb128 0x3f
 3626 03a9 19       		.uleb128 0x19
 3627 03aa 03       		.uleb128 0x3
 3628 03ab 0E       		.uleb128 0xe
 3629 03ac 3A       		.uleb128 0x3a
 3630 03ad 0B       		.uleb128 0xb
 3631 03ae 3B       		.uleb128 0x3b
 3632 03af 05       		.uleb128 0x5
 3633 03b0 27       		.uleb128 0x27
 3634 03b1 19       		.uleb128 0x19
 3635 03b2 3C       		.uleb128 0x3c
 3636 03b3 19       		.uleb128 0x19
 3637 03b4 01       		.uleb128 0x1
 3638 03b5 13       		.uleb128 0x13
 3639 03b6 00       		.byte	0
 3640 03b7 00       		.byte	0
 3641 03b8 46       		.uleb128 0x46
ARM GAS  /tmp/ccgDH5PG.s 			page 65


 3642 03b9 2E       		.uleb128 0x2e
 3643 03ba 01       		.byte	0x1
 3644 03bb 3F       		.uleb128 0x3f
 3645 03bc 19       		.uleb128 0x19
 3646 03bd 03       		.uleb128 0x3
 3647 03be 0E       		.uleb128 0xe
 3648 03bf 3A       		.uleb128 0x3a
 3649 03c0 0B       		.uleb128 0xb
 3650 03c1 3B       		.uleb128 0x3b
 3651 03c2 05       		.uleb128 0x5
 3652 03c3 27       		.uleb128 0x27
 3653 03c4 19       		.uleb128 0x19
 3654 03c5 49       		.uleb128 0x49
 3655 03c6 13       		.uleb128 0x13
 3656 03c7 3C       		.uleb128 0x3c
 3657 03c8 19       		.uleb128 0x19
 3658 03c9 01       		.uleb128 0x1
 3659 03ca 13       		.uleb128 0x13
 3660 03cb 00       		.byte	0
 3661 03cc 00       		.byte	0
 3662 03cd 47       		.uleb128 0x47
 3663 03ce 2E       		.uleb128 0x2e
 3664 03cf 00       		.byte	0
 3665 03d0 3F       		.uleb128 0x3f
 3666 03d1 19       		.uleb128 0x19
 3667 03d2 03       		.uleb128 0x3
 3668 03d3 0E       		.uleb128 0xe
 3669 03d4 3A       		.uleb128 0x3a
 3670 03d5 0B       		.uleb128 0xb
 3671 03d6 3B       		.uleb128 0x3b
 3672 03d7 05       		.uleb128 0x5
 3673 03d8 27       		.uleb128 0x27
 3674 03d9 19       		.uleb128 0x19
 3675 03da 3C       		.uleb128 0x3c
 3676 03db 19       		.uleb128 0x19
 3677 03dc 00       		.byte	0
 3678 03dd 00       		.byte	0
 3679 03de 00       		.byte	0
 3680              		.section	.debug_loc,"",%progbits
 3681              	.Ldebug_loc0:
 3682              	.LLST0:
 3683 0000 00000000 		.4byte	.LVL1
 3684 0004 08000000 		.4byte	.LVL2
 3685 0008 0100     		.2byte	0x1
 3686 000a 50       		.byte	0x50
 3687 000b 08000000 		.4byte	.LVL2
 3688 000f 48000000 		.4byte	.LVL8
 3689 0013 0100     		.2byte	0x1
 3690 0015 55       		.byte	0x55
 3691 0016 48000000 		.4byte	.LVL8
 3692 001a 4B000000 		.4byte	.LVL9-1
 3693 001e 0500     		.2byte	0x5
 3694 0020 73       		.byte	0x73
 3695 0021 04       		.sleb128 4
 3696 0022 06       		.byte	0x6
 3697 0023 23       		.byte	0x23
 3698 0024 20       		.uleb128 0x20
ARM GAS  /tmp/ccgDH5PG.s 			page 66


 3699 0025 4B000000 		.4byte	.LVL9-1
 3700 0029 4C000000 		.4byte	.LVL9
 3701 002d 0400     		.2byte	0x4
 3702 002f F3       		.byte	0xf3
 3703 0030 01       		.uleb128 0x1
 3704 0031 50       		.byte	0x50
 3705 0032 9F       		.byte	0x9f
 3706 0033 4C000000 		.4byte	.LVL9
 3707 0037 C0000000 		.4byte	.LVL22
 3708 003b 0100     		.2byte	0x1
 3709 003d 55       		.byte	0x55
 3710 003e 00000000 		.4byte	0
 3711 0042 00000000 		.4byte	0
 3712              	.LLST1:
 3713 0046 0A000000 		.4byte	.LVL3
 3714 004a 48000000 		.4byte	.LVL8
 3715 004e 0100     		.2byte	0x1
 3716 0050 54       		.byte	0x54
 3717 0051 48000000 		.4byte	.LVL8
 3718 0055 4B000000 		.4byte	.LVL9-1
 3719 0059 0200     		.2byte	0x2
 3720 005b 73       		.byte	0x73
 3721 005c 04       		.sleb128 4
 3722 005d 4C000000 		.4byte	.LVL9
 3723 0061 C0000000 		.4byte	.LVL22
 3724 0065 0100     		.2byte	0x1
 3725 0067 54       		.byte	0x54
 3726 0068 00000000 		.4byte	0
 3727 006c 00000000 		.4byte	0
 3728              	.LLST2:
 3729 0070 0E000000 		.4byte	.LVL4
 3730 0074 24000000 		.4byte	.LVL5
 3731 0078 0100     		.2byte	0x1
 3732 007a 50       		.byte	0x50
 3733 007b 4C000000 		.4byte	.LVL9
 3734 007f 59000000 		.4byte	.LVL10-1
 3735 0083 0100     		.2byte	0x1
 3736 0085 50       		.byte	0x50
 3737 0086 5C000000 		.4byte	.LVL11
 3738 008a B6000000 		.4byte	.LVL21
 3739 008e 0100     		.2byte	0x1
 3740 0090 50       		.byte	0x50
 3741 0091 00000000 		.4byte	0
 3742 0095 00000000 		.4byte	0
 3743              	.LLST3:
 3744 0099 24000000 		.4byte	.LVL5
 3745 009d 48000000 		.4byte	.LVL8
 3746 00a1 0100     		.2byte	0x1
 3747 00a3 55       		.byte	0x55
 3748 00a4 48000000 		.4byte	.LVL8
 3749 00a8 4B000000 		.4byte	.LVL9-1
 3750 00ac 0500     		.2byte	0x5
 3751 00ae 73       		.byte	0x73
 3752 00af 04       		.sleb128 4
 3753 00b0 06       		.byte	0x6
 3754 00b1 23       		.byte	0x23
 3755 00b2 20       		.uleb128 0x20
ARM GAS  /tmp/ccgDH5PG.s 			page 67


 3756 00b3 4B000000 		.4byte	.LVL9-1
 3757 00b7 4C000000 		.4byte	.LVL9
 3758 00bb 0400     		.2byte	0x4
 3759 00bd F3       		.byte	0xf3
 3760 00be 01       		.uleb128 0x1
 3761 00bf 50       		.byte	0x50
 3762 00c0 9F       		.byte	0x9f
 3763 00c1 00000000 		.4byte	0
 3764 00c5 00000000 		.4byte	0
 3765              	.LLST4:
 3766 00c9 24000000 		.4byte	.LVL5
 3767 00cd 48000000 		.4byte	.LVL8
 3768 00d1 0100     		.2byte	0x1
 3769 00d3 54       		.byte	0x54
 3770 00d4 48000000 		.4byte	.LVL8
 3771 00d8 4B000000 		.4byte	.LVL9-1
 3772 00dc 0200     		.2byte	0x2
 3773 00de 73       		.byte	0x73
 3774 00df 04       		.sleb128 4
 3775 00e0 00000000 		.4byte	0
 3776 00e4 00000000 		.4byte	0
 3777              	.LLST5:
 3778 00e8 24000000 		.4byte	.LVL5
 3779 00ec 28000000 		.4byte	.LVL6
 3780 00f0 0100     		.2byte	0x1
 3781 00f2 55       		.byte	0x55
 3782 00f3 28000000 		.4byte	.LVL6
 3783 00f7 4B000000 		.4byte	.LVL9-1
 3784 00fb 0100     		.2byte	0x1
 3785 00fd 53       		.byte	0x53
 3786 00fe 00000000 		.4byte	0
 3787 0102 00000000 		.4byte	0
 3788              	.LLST6:
 3789 0106 4C000000 		.4byte	.LVL9
 3790 010a 59000000 		.4byte	.LVL10-1
 3791 010e 0100     		.2byte	0x1
 3792 0110 50       		.byte	0x50
 3793 0111 00000000 		.4byte	0
 3794 0115 00000000 		.4byte	0
 3795              	.LLST7:
 3796 0119 5C000000 		.4byte	.LVL11
 3797 011d 84000000 		.4byte	.LVL15
 3798 0121 0100     		.2byte	0x1
 3799 0123 50       		.byte	0x50
 3800 0124 00000000 		.4byte	0
 3801 0128 00000000 		.4byte	0
 3802              	.LLST8:
 3803 012c 64000000 		.4byte	.LVL12
 3804 0130 84000000 		.4byte	.LVL15
 3805 0134 0100     		.2byte	0x1
 3806 0136 56       		.byte	0x56
 3807 0137 00000000 		.4byte	0
 3808 013b 00000000 		.4byte	0
 3809              	.LLST9:
 3810 013f 64000000 		.4byte	.LVL12
 3811 0143 84000000 		.4byte	.LVL15
 3812 0147 0100     		.2byte	0x1
ARM GAS  /tmp/ccgDH5PG.s 			page 68


 3813 0149 50       		.byte	0x50
 3814 014a 00000000 		.4byte	0
 3815 014e 00000000 		.4byte	0
 3816              	.LLST10:
 3817 0152 64000000 		.4byte	.LVL12
 3818 0156 6C000000 		.4byte	.LVL13
 3819 015a 0100     		.2byte	0x1
 3820 015c 56       		.byte	0x56
 3821 015d 6C000000 		.4byte	.LVL13
 3822 0161 84000000 		.4byte	.LVL15
 3823 0165 0100     		.2byte	0x1
 3824 0167 53       		.byte	0x53
 3825 0168 00000000 		.4byte	0
 3826 016c 00000000 		.4byte	0
 3827              	.LLST11:
 3828 0170 84000000 		.4byte	.LVL15
 3829 0174 AC000000 		.4byte	.LVL19
 3830 0178 0100     		.2byte	0x1
 3831 017a 50       		.byte	0x50
 3832 017b AC000000 		.4byte	.LVL19
 3833 017f B0000000 		.4byte	.LVL20
 3834 0183 0200     		.2byte	0x2
 3835 0185 73       		.byte	0x73
 3836 0186 04       		.sleb128 4
 3837 0187 00000000 		.4byte	0
 3838 018b 00000000 		.4byte	0
 3839              	.LLST12:
 3840 018f 8C000000 		.4byte	.LVL16
 3841 0193 B6000000 		.4byte	.LVL21
 3842 0197 0100     		.2byte	0x1
 3843 0199 56       		.byte	0x56
 3844 019a 00000000 		.4byte	0
 3845 019e 00000000 		.4byte	0
 3846              	.LLST13:
 3847 01a2 8C000000 		.4byte	.LVL16
 3848 01a6 AC000000 		.4byte	.LVL19
 3849 01aa 0100     		.2byte	0x1
 3850 01ac 50       		.byte	0x50
 3851 01ad AC000000 		.4byte	.LVL19
 3852 01b1 B0000000 		.4byte	.LVL20
 3853 01b5 0200     		.2byte	0x2
 3854 01b7 73       		.byte	0x73
 3855 01b8 04       		.sleb128 4
 3856 01b9 00000000 		.4byte	0
 3857 01bd 00000000 		.4byte	0
 3858              	.LLST14:
 3859 01c1 8C000000 		.4byte	.LVL16
 3860 01c5 94000000 		.4byte	.LVL17
 3861 01c9 0100     		.2byte	0x1
 3862 01cb 56       		.byte	0x56
 3863 01cc 94000000 		.4byte	.LVL17
 3864 01d0 B0000000 		.4byte	.LVL20
 3865 01d4 0100     		.2byte	0x1
 3866 01d6 53       		.byte	0x53
 3867 01d7 00000000 		.4byte	0
 3868 01db 00000000 		.4byte	0
 3869              	.LLST15:
ARM GAS  /tmp/ccgDH5PG.s 			page 69


 3870 01df 00000000 		.4byte	.LVL23
 3871 01e3 0B000000 		.4byte	.LVL24-1
 3872 01e7 0100     		.2byte	0x1
 3873 01e9 50       		.byte	0x50
 3874 01ea 0B000000 		.4byte	.LVL24-1
 3875 01ee 14000000 		.4byte	.LFE227
 3876 01f2 0400     		.2byte	0x4
 3877 01f4 F3       		.byte	0xf3
 3878 01f5 01       		.uleb128 0x1
 3879 01f6 50       		.byte	0x50
 3880 01f7 9F       		.byte	0x9f
 3881 01f8 00000000 		.4byte	0
 3882 01fc 00000000 		.4byte	0
 3883              	.LLST16:
 3884 0200 00000000 		.4byte	.LVL25
 3885 0204 0E000000 		.4byte	.LVL27
 3886 0208 0100     		.2byte	0x1
 3887 020a 50       		.byte	0x50
 3888 020b 0E000000 		.4byte	.LVL27
 3889 020f 10000000 		.4byte	.LVL28
 3890 0213 0100     		.2byte	0x1
 3891 0215 53       		.byte	0x53
 3892 0216 10000000 		.4byte	.LVL28
 3893 021a 16000000 		.4byte	.LVL29
 3894 021e 0400     		.2byte	0x4
 3895 0220 F3       		.byte	0xf3
 3896 0221 01       		.uleb128 0x1
 3897 0222 50       		.byte	0x50
 3898 0223 9F       		.byte	0x9f
 3899 0224 16000000 		.4byte	.LVL29
 3900 0228 24000000 		.4byte	.LVL31
 3901 022c 0100     		.2byte	0x1
 3902 022e 50       		.byte	0x50
 3903 022f 24000000 		.4byte	.LVL31
 3904 0233 26000000 		.4byte	.LVL32
 3905 0237 0100     		.2byte	0x1
 3906 0239 53       		.byte	0x53
 3907 023a 26000000 		.4byte	.LVL32
 3908 023e 30000000 		.4byte	.LFE229
 3909 0242 0200     		.2byte	0x2
 3910 0244 72       		.byte	0x72
 3911 0245 38       		.sleb128 56
 3912 0246 00000000 		.4byte	0
 3913 024a 00000000 		.4byte	0
 3914              	.LLST17:
 3915 024e 08000000 		.4byte	.LVL26
 3916 0252 0E000000 		.4byte	.LVL27
 3917 0256 0100     		.2byte	0x1
 3918 0258 50       		.byte	0x50
 3919 0259 0E000000 		.4byte	.LVL27
 3920 025d 10000000 		.4byte	.LVL28
 3921 0261 0100     		.2byte	0x1
 3922 0263 53       		.byte	0x53
 3923 0264 10000000 		.4byte	.LVL28
 3924 0268 16000000 		.4byte	.LVL29
 3925 026c 0400     		.2byte	0x4
 3926 026e F3       		.byte	0xf3
ARM GAS  /tmp/ccgDH5PG.s 			page 70


 3927 026f 01       		.uleb128 0x1
 3928 0270 50       		.byte	0x50
 3929 0271 9F       		.byte	0x9f
 3930 0272 16000000 		.4byte	.LVL29
 3931 0276 24000000 		.4byte	.LVL31
 3932 027a 0100     		.2byte	0x1
 3933 027c 50       		.byte	0x50
 3934 027d 24000000 		.4byte	.LVL31
 3935 0281 26000000 		.4byte	.LVL32
 3936 0285 0100     		.2byte	0x1
 3937 0287 53       		.byte	0x53
 3938 0288 26000000 		.4byte	.LVL32
 3939 028c 30000000 		.4byte	.LFE229
 3940 0290 0200     		.2byte	0x2
 3941 0292 72       		.byte	0x72
 3942 0293 38       		.sleb128 56
 3943 0294 00000000 		.4byte	0
 3944 0298 00000000 		.4byte	0
 3945              	.LLST18:
 3946 029c 0E000000 		.4byte	.LVL27
 3947 02a0 16000000 		.4byte	.LVL29
 3948 02a4 0200     		.2byte	0x2
 3949 02a6 30       		.byte	0x30
 3950 02a7 9F       		.byte	0x9f
 3951 02a8 22000000 		.4byte	.LVL30
 3952 02ac 30000000 		.4byte	.LFE229
 3953 02b0 0200     		.2byte	0x2
 3954 02b2 30       		.byte	0x30
 3955 02b3 9F       		.byte	0x9f
 3956 02b4 00000000 		.4byte	0
 3957 02b8 00000000 		.4byte	0
 3958              	.LLST19:
 3959 02bc 00000000 		.4byte	.LVL33
 3960 02c0 08000000 		.4byte	.LVL34
 3961 02c4 0100     		.2byte	0x1
 3962 02c6 50       		.byte	0x50
 3963 02c7 08000000 		.4byte	.LVL34
 3964 02cb 0A000000 		.4byte	.LVL35
 3965 02cf 0100     		.2byte	0x1
 3966 02d1 53       		.byte	0x53
 3967 02d2 0A000000 		.4byte	.LVL35
 3968 02d6 16000000 		.4byte	.LVL36
 3969 02da 0100     		.2byte	0x1
 3970 02dc 50       		.byte	0x50
 3971 02dd 16000000 		.4byte	.LVL36
 3972 02e1 20000000 		.4byte	.LFE230
 3973 02e5 0100     		.2byte	0x1
 3974 02e7 53       		.byte	0x53
 3975 02e8 00000000 		.4byte	0
 3976 02ec 00000000 		.4byte	0
 3977              	.LLST20:
 3978 02f0 00000000 		.4byte	.LVL37
 3979 02f4 08000000 		.4byte	.LVL38
 3980 02f8 0100     		.2byte	0x1
 3981 02fa 50       		.byte	0x50
 3982 02fb 08000000 		.4byte	.LVL38
 3983 02ff 5C000000 		.4byte	.LVL51
ARM GAS  /tmp/ccgDH5PG.s 			page 71


 3984 0303 0100     		.2byte	0x1
 3985 0305 54       		.byte	0x54
 3986 0306 5C000000 		.4byte	.LVL51
 3987 030a 60000000 		.4byte	.LFE231
 3988 030e 0400     		.2byte	0x4
 3989 0310 F3       		.byte	0xf3
 3990 0311 01       		.uleb128 0x1
 3991 0312 50       		.byte	0x50
 3992 0313 9F       		.byte	0x9f
 3993 0314 00000000 		.4byte	0
 3994 0318 00000000 		.4byte	0
 3995              	.LLST21:
 3996 031c 08000000 		.4byte	.LVL38
 3997 0320 3A000000 		.4byte	.LVL46
 3998 0324 0100     		.2byte	0x1
 3999 0326 50       		.byte	0x50
 4000 0327 50000000 		.4byte	.LVL49
 4001 032b 60000000 		.4byte	.LFE231
 4002 032f 0100     		.2byte	0x1
 4003 0331 50       		.byte	0x50
 4004 0332 00000000 		.4byte	0
 4005 0336 00000000 		.4byte	0
 4006              	.LLST22:
 4007 033a 1A000000 		.4byte	.LVL40
 4008 033e 32000000 		.4byte	.LVL44
 4009 0342 0100     		.2byte	0x1
 4010 0344 53       		.byte	0x53
 4011 0345 00000000 		.4byte	0
 4012 0349 00000000 		.4byte	0
 4013              	.LLST23:
 4014 034d 14000000 		.4byte	.LVL39
 4015 0351 5C000000 		.4byte	.LVL51
 4016 0355 0100     		.2byte	0x1
 4017 0357 54       		.byte	0x54
 4018 0358 5C000000 		.4byte	.LVL51
 4019 035c 60000000 		.4byte	.LFE231
 4020 0360 0400     		.2byte	0x4
 4021 0362 F3       		.byte	0xf3
 4022 0363 01       		.uleb128 0x1
 4023 0364 50       		.byte	0x50
 4024 0365 9F       		.byte	0x9f
 4025 0366 00000000 		.4byte	0
 4026 036a 00000000 		.4byte	0
 4027              	.LLST25:
 4028 036e 1A000000 		.4byte	.LVL40
 4029 0372 3E000000 		.4byte	.LVL47
 4030 0376 0100     		.2byte	0x1
 4031 0378 51       		.byte	0x51
 4032 0379 00000000 		.4byte	0
 4033 037d 00000000 		.4byte	0
 4034              	.LLST26:
 4035 0381 1C000000 		.4byte	.LVL41
 4036 0385 2C000000 		.4byte	.LVL43
 4037 0389 0100     		.2byte	0x1
 4038 038b 53       		.byte	0x53
 4039 038c 00000000 		.4byte	0
 4040 0390 00000000 		.4byte	0
ARM GAS  /tmp/ccgDH5PG.s 			page 72


 4041              	.LLST28:
 4042 0394 36000000 		.4byte	.LVL45
 4043 0398 50000000 		.4byte	.LVL49
 4044 039c 0100     		.2byte	0x1
 4045 039e 54       		.byte	0x54
 4046 039f 00000000 		.4byte	0
 4047 03a3 00000000 		.4byte	0
 4048              	.LLST29:
 4049 03a7 36000000 		.4byte	.LVL45
 4050 03ab 50000000 		.4byte	.LVL49
 4051 03af 0100     		.2byte	0x1
 4052 03b1 55       		.byte	0x55
 4053 03b2 00000000 		.4byte	0
 4054 03b6 00000000 		.4byte	0
 4055              	.LLST30:
 4056 03ba 48000000 		.4byte	.LVL48
 4057 03be 50000000 		.4byte	.LVL49
 4058 03c2 0200     		.2byte	0x2
 4059 03c4 30       		.byte	0x30
 4060 03c5 9F       		.byte	0x9f
 4061 03c6 54000000 		.4byte	.LVL50
 4062 03ca 60000000 		.4byte	.LFE231
 4063 03ce 0200     		.2byte	0x2
 4064 03d0 30       		.byte	0x30
 4065 03d1 9F       		.byte	0x9f
 4066 03d2 00000000 		.4byte	0
 4067 03d6 00000000 		.4byte	0
 4068              	.LLST31:
 4069 03da 00000000 		.4byte	.LVL52
 4070 03de 0A000000 		.4byte	.LVL53
 4071 03e2 0100     		.2byte	0x1
 4072 03e4 50       		.byte	0x50
 4073 03e5 0A000000 		.4byte	.LVL53
 4074 03e9 3E000000 		.4byte	.LVL62
 4075 03ed 0100     		.2byte	0x1
 4076 03ef 54       		.byte	0x54
 4077 03f0 3E000000 		.4byte	.LVL62
 4078 03f4 41000000 		.4byte	.LVL63-1
 4079 03f8 0200     		.2byte	0x2
 4080 03fa 70       		.byte	0x70
 4081 03fb 38       		.sleb128 56
 4082 03fc 41000000 		.4byte	.LVL63-1
 4083 0400 42000000 		.4byte	.LVL63
 4084 0404 0400     		.2byte	0x4
 4085 0406 F3       		.byte	0xf3
 4086 0407 01       		.uleb128 0x1
 4087 0408 50       		.byte	0x50
 4088 0409 9F       		.byte	0x9f
 4089 040a 42000000 		.4byte	.LVL63
 4090 040e 48000000 		.4byte	.LVL64
 4091 0412 0100     		.2byte	0x1
 4092 0414 54       		.byte	0x54
 4093 0415 48000000 		.4byte	.LVL64
 4094 0419 50000000 		.4byte	.LFE232
 4095 041d 0400     		.2byte	0x4
 4096 041f F3       		.byte	0xf3
 4097 0420 01       		.uleb128 0x1
ARM GAS  /tmp/ccgDH5PG.s 			page 73


 4098 0421 50       		.byte	0x50
 4099 0422 9F       		.byte	0x9f
 4100 0423 00000000 		.4byte	0
 4101 0427 00000000 		.4byte	0
 4102              	.LLST32:
 4103 042b 0A000000 		.4byte	.LVL53
 4104 042f 34000000 		.4byte	.LVL61
 4105 0433 0100     		.2byte	0x1
 4106 0435 50       		.byte	0x50
 4107 0436 42000000 		.4byte	.LVL63
 4108 043a 50000000 		.4byte	.LFE232
 4109 043e 0100     		.2byte	0x1
 4110 0440 50       		.byte	0x50
 4111 0441 00000000 		.4byte	0
 4112 0445 00000000 		.4byte	0
 4113              	.LLST33:
 4114 0449 14000000 		.4byte	.LVL55
 4115 044d 2C000000 		.4byte	.LVL59
 4116 0451 0100     		.2byte	0x1
 4117 0453 53       		.byte	0x53
 4118 0454 00000000 		.4byte	0
 4119 0458 00000000 		.4byte	0
 4120              	.LLST34:
 4121 045c 0E000000 		.4byte	.LVL54
 4122 0460 3E000000 		.4byte	.LVL62
 4123 0464 0100     		.2byte	0x1
 4124 0466 54       		.byte	0x54
 4125 0467 3E000000 		.4byte	.LVL62
 4126 046b 41000000 		.4byte	.LVL63-1
 4127 046f 0200     		.2byte	0x2
 4128 0471 70       		.byte	0x70
 4129 0472 38       		.sleb128 56
 4130 0473 41000000 		.4byte	.LVL63-1
 4131 0477 42000000 		.4byte	.LVL63
 4132 047b 0400     		.2byte	0x4
 4133 047d F3       		.byte	0xf3
 4134 047e 01       		.uleb128 0x1
 4135 047f 50       		.byte	0x50
 4136 0480 9F       		.byte	0x9f
 4137 0481 42000000 		.4byte	.LVL63
 4138 0485 48000000 		.4byte	.LVL64
 4139 0489 0100     		.2byte	0x1
 4140 048b 54       		.byte	0x54
 4141 048c 48000000 		.4byte	.LVL64
 4142 0490 50000000 		.4byte	.LFE232
 4143 0494 0400     		.2byte	0x4
 4144 0496 F3       		.byte	0xf3
 4145 0497 01       		.uleb128 0x1
 4146 0498 50       		.byte	0x50
 4147 0499 9F       		.byte	0x9f
 4148 049a 00000000 		.4byte	0
 4149 049e 00000000 		.4byte	0
 4150              	.LLST36:
 4151 04a2 14000000 		.4byte	.LVL55
 4152 04a6 41000000 		.4byte	.LVL63-1
 4153 04aa 0100     		.2byte	0x1
 4154 04ac 51       		.byte	0x51
ARM GAS  /tmp/ccgDH5PG.s 			page 74


 4155 04ad 00000000 		.4byte	0
 4156 04b1 00000000 		.4byte	0
 4157              	.LLST37:
 4158 04b5 16000000 		.4byte	.LVL56
 4159 04b9 26000000 		.4byte	.LVL58
 4160 04bd 0100     		.2byte	0x1
 4161 04bf 53       		.byte	0x53
 4162 04c0 00000000 		.4byte	0
 4163 04c4 00000000 		.4byte	0
 4164              	.LLST39:
 4165 04c8 30000000 		.4byte	.LVL60
 4166 04cc 3E000000 		.4byte	.LVL62
 4167 04d0 0100     		.2byte	0x1
 4168 04d2 54       		.byte	0x54
 4169 04d3 3E000000 		.4byte	.LVL62
 4170 04d7 41000000 		.4byte	.LVL63-1
 4171 04db 0200     		.2byte	0x2
 4172 04dd 70       		.byte	0x70
 4173 04de 38       		.sleb128 56
 4174 04df 41000000 		.4byte	.LVL63-1
 4175 04e3 42000000 		.4byte	.LVL63
 4176 04e7 0400     		.2byte	0x4
 4177 04e9 F3       		.byte	0xf3
 4178 04ea 01       		.uleb128 0x1
 4179 04eb 50       		.byte	0x50
 4180 04ec 9F       		.byte	0x9f
 4181 04ed 00000000 		.4byte	0
 4182 04f1 00000000 		.4byte	0
 4183              	.LLST40:
 4184 04f5 30000000 		.4byte	.LVL60
 4185 04f9 3E000000 		.4byte	.LVL62
 4186 04fd 0100     		.2byte	0x1
 4187 04ff 55       		.byte	0x55
 4188 0500 3E000000 		.4byte	.LVL62
 4189 0504 41000000 		.4byte	.LVL63-1
 4190 0508 0100     		.2byte	0x1
 4191 050a 50       		.byte	0x50
 4192 050b 00000000 		.4byte	0
 4193 050f 00000000 		.4byte	0
 4194              	.LLST41:
 4195 0513 08000000 		.4byte	.LVL65
 4196 0517 4E000000 		.4byte	.LVL74
 4197 051b 0100     		.2byte	0x1
 4198 051d 54       		.byte	0x54
 4199 051e 00000000 		.4byte	0
 4200 0522 00000000 		.4byte	0
 4201              	.LLST42:
 4202 0526 14000000 		.4byte	.LVL66
 4203 052a 27000000 		.4byte	.LVL67-1
 4204 052e 0100     		.2byte	0x1
 4205 0530 53       		.byte	0x53
 4206 0531 2C000000 		.4byte	.LVL68
 4207 0535 3A000000 		.4byte	.LVL71
 4208 0539 0100     		.2byte	0x1
 4209 053b 53       		.byte	0x53
 4210 053c 00000000 		.4byte	0
 4211 0540 00000000 		.4byte	0
ARM GAS  /tmp/ccgDH5PG.s 			page 75


 4212              	.LLST44:
 4213 0544 14000000 		.4byte	.LVL66
 4214 0548 27000000 		.4byte	.LVL67-1
 4215 054c 0100     		.2byte	0x1
 4216 054e 52       		.byte	0x52
 4217 054f 2E000000 		.4byte	.LVL69
 4218 0553 3E000000 		.4byte	.LVL72
 4219 0557 0100     		.2byte	0x1
 4220 0559 52       		.byte	0x52
 4221 055a 00000000 		.4byte	0
 4222 055e 00000000 		.4byte	0
 4223              	.LLST45:
 4224 0562 14000000 		.4byte	.LVL66
 4225 0566 27000000 		.4byte	.LVL67-1
 4226 056a 0100     		.2byte	0x1
 4227 056c 53       		.byte	0x53
 4228 056d 32000000 		.4byte	.LVL70
 4229 0571 3A000000 		.4byte	.LVL71
 4230 0575 0100     		.2byte	0x1
 4231 0577 53       		.byte	0x53
 4232 0578 00000000 		.4byte	0
 4233 057c 00000000 		.4byte	0
 4234              		.section	.debug_aranges,"",%progbits
 4235 0000 54000000 		.4byte	0x54
 4236 0004 0200     		.2byte	0x2
 4237 0006 00000000 		.4byte	.Ldebug_info0
 4238 000a 04       		.byte	0x4
 4239 000b 00       		.byte	0
 4240 000c 0000     		.2byte	0
 4241 000e 0000     		.2byte	0
 4242 0010 00000000 		.4byte	.LFB226
 4243 0014 0A000000 		.4byte	.LFE226-.LFB226
 4244 0018 00000000 		.4byte	.LFB228
 4245 001c C4000000 		.4byte	.LFE228-.LFB228
 4246 0020 00000000 		.4byte	.LFB227
 4247 0024 14000000 		.4byte	.LFE227-.LFB227
 4248 0028 00000000 		.4byte	.LFB229
 4249 002c 30000000 		.4byte	.LFE229-.LFB229
 4250 0030 00000000 		.4byte	.LFB230
 4251 0034 20000000 		.4byte	.LFE230-.LFB230
 4252 0038 00000000 		.4byte	.LFB231
 4253 003c 60000000 		.4byte	.LFE231-.LFB231
 4254 0040 00000000 		.4byte	.LFB232
 4255 0044 50000000 		.4byte	.LFE232-.LFB232
 4256 0048 00000000 		.4byte	.LFB233
 4257 004c 54000000 		.4byte	.LFE233-.LFB233
 4258 0050 00000000 		.4byte	0
 4259 0054 00000000 		.4byte	0
 4260              		.section	.debug_ranges,"",%progbits
 4261              	.Ldebug_ranges0:
 4262 0000 0E000000 		.4byte	.LBB105
 4263 0004 44000000 		.4byte	.LBE105
 4264 0008 48000000 		.4byte	.LBB122
 4265 000c B6000000 		.4byte	.LBE122
 4266 0010 00000000 		.4byte	0
 4267 0014 00000000 		.4byte	0
 4268 0018 5C000000 		.4byte	.LBB110
ARM GAS  /tmp/ccgDH5PG.s 			page 76


 4269 001c 62000000 		.4byte	.LBE110
 4270 0020 64000000 		.4byte	.LBB113
 4271 0024 68000000 		.4byte	.LBE113
 4272 0028 00000000 		.4byte	0
 4273 002c 00000000 		.4byte	0
 4274 0030 84000000 		.4byte	.LBB116
 4275 0034 8A000000 		.4byte	.LBE116
 4276 0038 8C000000 		.4byte	.LBB119
 4277 003c 90000000 		.4byte	.LBE119
 4278 0040 00000000 		.4byte	0
 4279 0044 00000000 		.4byte	0
 4280 0048 08000000 		.4byte	.LBB136
 4281 004c 0E000000 		.4byte	.LBE136
 4282 0050 16000000 		.4byte	.LBB148
 4283 0054 24000000 		.4byte	.LBE148
 4284 0058 00000000 		.4byte	0
 4285 005c 00000000 		.4byte	0
 4286 0060 0E000000 		.4byte	.LBB139
 4287 0064 14000000 		.4byte	.LBE139
 4288 0068 24000000 		.4byte	.LBB149
 4289 006c 2A000000 		.4byte	.LBE149
 4290 0070 00000000 		.4byte	0
 4291 0074 00000000 		.4byte	0
 4292 0078 30000000 		.4byte	.LBB163
 4293 007c 32000000 		.4byte	.LBE163
 4294 0080 36000000 		.4byte	.LBB167
 4295 0084 38000000 		.4byte	.LBE167
 4296 0088 3A000000 		.4byte	.LBB168
 4297 008c 3C000000 		.4byte	.LBE168
 4298 0090 00000000 		.4byte	0
 4299 0094 00000000 		.4byte	0
 4300 0098 48000000 		.4byte	.LBB169
 4301 009c 50000000 		.4byte	.LBE169
 4302 00a0 54000000 		.4byte	.LBB178
 4303 00a4 60000000 		.4byte	.LBE178
 4304 00a8 00000000 		.4byte	0
 4305 00ac 00000000 		.4byte	0
 4306 00b0 12000000 		.4byte	.LBB183
 4307 00b4 3C000000 		.4byte	.LBE183
 4308 00b8 3E000000 		.4byte	.LBB194
 4309 00bc 42000000 		.4byte	.LBE194
 4310 00c0 00000000 		.4byte	0
 4311 00c4 00000000 		.4byte	0
 4312 00c8 2A000000 		.4byte	.LBB188
 4313 00cc 2C000000 		.4byte	.LBE188
 4314 00d0 30000000 		.4byte	.LBB192
 4315 00d4 32000000 		.4byte	.LBE192
 4316 00d8 34000000 		.4byte	.LBB193
 4317 00dc 36000000 		.4byte	.LBE193
 4318 00e0 00000000 		.4byte	0
 4319 00e4 00000000 		.4byte	0
 4320 00e8 04000000 		.4byte	.LBB195
 4321 00ec 06000000 		.4byte	.LBE195
 4322 00f0 08000000 		.4byte	.LBB202
 4323 00f4 0C000000 		.4byte	.LBE202
 4324 00f8 00000000 		.4byte	0
 4325 00fc 00000000 		.4byte	0
ARM GAS  /tmp/ccgDH5PG.s 			page 77


 4326 0100 10000000 		.4byte	.LBB203
 4327 0104 28000000 		.4byte	.LBE203
 4328 0108 2C000000 		.4byte	.LBB215
 4329 010c 38000000 		.4byte	.LBE215
 4330 0110 00000000 		.4byte	0
 4331 0114 00000000 		.4byte	0
 4332 0118 14000000 		.4byte	.LBB205
 4333 011c 16000000 		.4byte	.LBE205
 4334 0120 18000000 		.4byte	.LBB209
 4335 0124 1A000000 		.4byte	.LBE209
 4336 0128 1C000000 		.4byte	.LBB210
 4337 012c 1E000000 		.4byte	.LBE210
 4338 0130 00000000 		.4byte	0
 4339 0134 00000000 		.4byte	0
 4340 0138 00000000 		.4byte	.LFB226
 4341 013c 0A000000 		.4byte	.LFE226
 4342 0140 00000000 		.4byte	.LFB228
 4343 0144 C4000000 		.4byte	.LFE228
 4344 0148 00000000 		.4byte	.LFB227
 4345 014c 14000000 		.4byte	.LFE227
 4346 0150 00000000 		.4byte	.LFB229
 4347 0154 30000000 		.4byte	.LFE229
 4348 0158 00000000 		.4byte	.LFB230
 4349 015c 20000000 		.4byte	.LFE230
 4350 0160 00000000 		.4byte	.LFB231
 4351 0164 60000000 		.4byte	.LFE231
 4352 0168 00000000 		.4byte	.LFB232
 4353 016c 50000000 		.4byte	.LFE232
 4354 0170 00000000 		.4byte	.LFB233
 4355 0174 54000000 		.4byte	.LFE233
 4356 0178 00000000 		.4byte	0
 4357 017c 00000000 		.4byte	0
 4358              		.section	.debug_line,"",%progbits
 4359              	.Ldebug_line0:
 4360 0000 BB040000 		.section	.debug_str,"MS",%progbits,1
 4360      02003602 
 4360      00000201 
 4360      FB0E0D00 
 4360      01010101 
 4361              	.LASF48:
 4362 0000 72656164 		.ascii	"ready_list_t\000"
 4362      795F6C69 
 4362      73745F74 
 4362      00
 4363              	.LASF83:
 4364 000d 7264796D 		.ascii	"rdymsg\000"
 4364      736700
 4365              	.LASF16:
 4366 0014 75696E74 		.ascii	"uint64_t\000"
 4366      36345F74 
 4366      00
 4367              	.LASF5:
 4368 001d 5F5F7569 		.ascii	"__uint8_t\000"
 4368      6E74385F 
 4368      7400
 4369              	.LASF80:
 4370 0027 706F7274 		.ascii	"port_intctx\000"
ARM GAS  /tmp/ccgDH5PG.s 			page 78


 4370      5F696E74 
 4370      63747800 
 4371              	.LASF67:
 4372 0033 73797374 		.ascii	"system_debug_t\000"
 4372      656D5F64 
 4372      65627567 
 4372      5F7400
 4373              	.LASF98:
 4374 0042 71756575 		.ascii	"queue_init\000"
 4374      655F696E 
 4374      697400
 4375              	.LASF93:
 4376 004d 706F7274 		.ascii	"port_lock\000"
 4376      5F6C6F63 
 4376      6B00
 4377              	.LASF12:
 4378 0057 6C6F6E67 		.ascii	"long long unsigned int\000"
 4378      206C6F6E 
 4378      6720756E 
 4378      7369676E 
 4378      65642069 
 4379              	.LASF84:
 4380 006e 65786974 		.ascii	"exitcode\000"
 4380      636F6465 
 4380      00
 4381              	.LASF74:
 4382 0077 6D61696E 		.ascii	"mainthread\000"
 4382      74687265 
 4382      616400
 4383              	.LASF64:
 4384 0082 76697274 		.ascii	"virtual_timers_list_t\000"
 4384      75616C5F 
 4384      74696D65 
 4384      72735F6C 
 4384      6973745F 
 4385              	.LASF115:
 4386 0098 49544D5F 		.ascii	"ITM_RxBuffer\000"
 4386      52784275 
 4386      66666572 
 4386      00
 4387              	.LASF47:
 4388 00a5 63685F74 		.ascii	"ch_threads_queue\000"
 4388      68726561 
 4388      64735F71 
 4388      75657565 
 4388      00
 4389              	.LASF28:
 4390 00b6 705F7072 		.ascii	"p_prio\000"
 4390      696F00
 4391              	.LASF111:
 4392 00bd 63684D74 		.ascii	"chMtxUnlock\000"
 4392      78556E6C 
 4392      6F636B00 
 4393              	.LASF1:
 4394 00c9 7369676E 		.ascii	"signed char\000"
 4394      65642063 
 4394      68617200 
ARM GAS  /tmp/ccgDH5PG.s 			page 79


 4395              	.LASF42:
 4396 00d5 705F6D70 		.ascii	"p_mpool\000"
 4396      6F6F6C00 
 4397              	.LASF89:
 4398 00dd 6D5F7175 		.ascii	"m_queue\000"
 4398      65756500 
 4399              	.LASF73:
 4400 00e5 76746C69 		.ascii	"vtlist\000"
 4400      737400
 4401              	.LASF94:
 4402 00ec 706F7274 		.ascii	"port_unlock\000"
 4402      5F756E6C 
 4402      6F636B00 
 4403              	.LASF71:
 4404 00f8 63685F73 		.ascii	"ch_system\000"
 4404      79737465 
 4404      6D00
 4405              	.LASF7:
 4406 0102 6C6F6E67 		.ascii	"long int\000"
 4406      20696E74 
 4406      00
 4407              	.LASF100:
 4408 010b 71756575 		.ascii	"queue_dequeue\000"
 4408      655F6465 
 4408      71756575 
 4408      6500
 4409              	.LASF19:
 4410 0119 74737461 		.ascii	"tstate_t\000"
 4410      74655F74 
 4410      00
 4411              	.LASF99:
 4412 0122 71756575 		.ascii	"queue_notempty\000"
 4412      655F6E6F 
 4412      74656D70 
 4412      747900
 4413              	.LASF10:
 4414 0131 6C6F6E67 		.ascii	"long long int\000"
 4414      206C6F6E 
 4414      6720696E 
 4414      7400
 4415              	.LASF109:
 4416 013f 63684D74 		.ascii	"chMtxLockS\000"
 4416      784C6F63 
 4416      6B5300
 4417              	.LASF105:
 4418 014a 63684D74 		.ascii	"chMtxTryLockS\000"
 4418      78547279 
 4418      4C6F636B 
 4418      5300
 4419              	.LASF121:
 4420 0158 2F6E6673 		.ascii	"/nfs/nfs4/home/ruswang/p442-submissions/p442-submis"
 4420      2F6E6673 
 4420      342F686F 
 4420      6D652F72 
 4420      75737761 
 4421 018b 73696F6E 		.ascii	"sions/lab1\000"
 4421      732F6C61 
ARM GAS  /tmp/ccgDH5PG.s 			page 80


 4421      623100
 4422              	.LASF30:
 4423 0196 705F6E65 		.ascii	"p_newer\000"
 4423      77657200 
 4424              	.LASF123:
 4425 019e 63685363 		.ascii	"chSchRescheduleS\000"
 4425      68526573 
 4425      63686564 
 4425      756C6553 
 4425      00
 4426              	.LASF53:
 4427 01af 725F6E65 		.ascii	"r_newer\000"
 4427      77657200 
 4428              	.LASF77:
 4429 01b7 72656761 		.ascii	"regarm_t\000"
 4429      726D5F74 
 4429      00
 4430              	.LASF60:
 4431 01c0 76745F70 		.ascii	"vt_prev\000"
 4431      72657600 
 4432              	.LASF92:
 4433 01c8 6D757465 		.ascii	"mutex_t\000"
 4433      785F7400 
 4434              	.LASF95:
 4435 01d0 76616C75 		.ascii	"value\000"
 4435      6500
 4436              	.LASF75:
 4437 01d6 69646C65 		.ascii	"idle_thread_wa\000"
 4437      5F746872 
 4437      6561645F 
 4437      776100
 4438              	.LASF113:
 4439 01e5 63684D74 		.ascii	"chMtxUnlockS\000"
 4439      78556E6C 
 4439      6F636B53 
 4439      00
 4440              	.LASF0:
 4441 01f2 756E7369 		.ascii	"unsigned int\000"
 4441      676E6564 
 4441      20696E74 
 4441      00
 4442              	.LASF59:
 4443 01ff 76745F6E 		.ascii	"vt_next\000"
 4443      65787400 
 4444              	.LASF61:
 4445 0207 76745F64 		.ascii	"vt_delta\000"
 4445      656C7461 
 4445      00
 4446              	.LASF37:
 4447 0210 705F6D73 		.ascii	"p_msgqueue\000"
 4447      67717565 
 4447      756500
 4448              	.LASF4:
 4449 021b 73686F72 		.ascii	"short unsigned int\000"
 4449      7420756E 
 4449      7369676E 
 4449      65642069 
ARM GAS  /tmp/ccgDH5PG.s 			page 81


 4449      6E7400
 4450              	.LASF44:
 4451 022e 63685F74 		.ascii	"ch_thread\000"
 4451      68726561 
 4451      6400
 4452              	.LASF118:
 4453 0238 63685363 		.ascii	"chSchWakeupS\000"
 4453      6857616B 
 4453      65757053 
 4453      00
 4454              	.LASF22:
 4455 0245 6D73675F 		.ascii	"msg_t\000"
 4455      7400
 4456              	.LASF70:
 4457 024b 63685F73 		.ascii	"ch_system_t\000"
 4457      79737465 
 4457      6D5F7400 
 4458              	.LASF114:
 4459 0257 63684D74 		.ascii	"chMtxUnlockAll\000"
 4459      78556E6C 
 4459      6F636B41 
 4459      6C6C00
 4460              	.LASF112:
 4461 0266 6E657770 		.ascii	"newprio\000"
 4461      72696F00 
 4462              	.LASF18:
 4463 026e 746D6F64 		.ascii	"tmode_t\000"
 4463      655F7400 
 4464              	.LASF49:
 4465 0276 63685F72 		.ascii	"ch_ready_list\000"
 4465      65616479 
 4465      5F6C6973 
 4465      7400
 4466              	.LASF23:
 4467 0284 6576656E 		.ascii	"eventmask_t\000"
 4467      746D6173 
 4467      6B5F7400 
 4468              	.LASF122:
 4469 0290 63684D74 		.ascii	"chMtxTryLock\000"
 4469      78547279 
 4469      4C6F636B 
 4469      00
 4470              	.LASF6:
 4471 029d 5F5F696E 		.ascii	"__int32_t\000"
 4471      7433325F 
 4471      7400
 4472              	.LASF120:
 4473 02a7 2E2E2F43 		.ascii	"../ChibiOS/os/rt/src/chmtx.c\000"
 4473      68696269 
 4473      4F532F6F 
 4473      732F7274 
 4473      2F737263 
 4474              	.LASF78:
 4475 02c4 73746B61 		.ascii	"stkalign_t\000"
 4475      6C69676E 
 4475      5F7400
 4476              	.LASF36:
ARM GAS  /tmp/ccgDH5PG.s 			page 82


 4477 02cf 705F7761 		.ascii	"p_waiting\000"
 4477      6974696E 
 4477      6700
 4478              	.LASF76:
 4479 02d9 73697A65 		.ascii	"sizetype\000"
 4479      74797065 
 4479      00
 4480              	.LASF65:
 4481 02e2 63685F76 		.ascii	"ch_virtual_timers_list\000"
 4481      69727475 
 4481      616C5F74 
 4481      696D6572 
 4481      735F6C69 
 4482              	.LASF97:
 4483 02f9 5F5F7365 		.ascii	"__set_BASEPRI\000"
 4483      745F4241 
 4483      53455052 
 4483      4900
 4484              	.LASF66:
 4485 0307 76745F6C 		.ascii	"vt_lasttime\000"
 4485      61737474 
 4485      696D6500 
 4486              	.LASF110:
 4487 0313 63684D74 		.ascii	"chMtxLock\000"
 4487      784C6F63 
 4487      6B00
 4488              	.LASF31:
 4489 031d 705F6F6C 		.ascii	"p_older\000"
 4489      64657200 
 4490              	.LASF52:
 4491 0325 725F6374 		.ascii	"r_ctx\000"
 4491      7800
 4492              	.LASF82:
 4493 032b 746D5F63 		.ascii	"tm_calibration_t\000"
 4493      616C6962 
 4493      72617469 
 4493      6F6E5F74 
 4493      00
 4494              	.LASF91:
 4495 033c 6D5F6E65 		.ascii	"m_next\000"
 4495      787400
 4496              	.LASF55:
 4497 0343 725F6375 		.ascii	"r_current\000"
 4497      7272656E 
 4497      7400
 4498              	.LASF54:
 4499 034d 725F6F6C 		.ascii	"r_older\000"
 4499      64657200 
 4500              	.LASF11:
 4501 0355 5F5F7569 		.ascii	"__uint64_t\000"
 4501      6E743634 
 4501      5F7400
 4502              	.LASF20:
 4503 0360 74726566 		.ascii	"trefs_t\000"
 4503      735F7400 
 4504              	.LASF57:
 4505 0368 76697274 		.ascii	"virtual_timer_t\000"
ARM GAS  /tmp/ccgDH5PG.s 			page 83


 4505      75616C5F 
 4505      74696D65 
 4505      725F7400 
 4506              	.LASF27:
 4507 0378 705F7072 		.ascii	"p_prev\000"
 4507      657600
 4508              	.LASF21:
 4509 037f 74707269 		.ascii	"tprio_t\000"
 4509      6F5F7400 
 4510              	.LASF88:
 4511 0387 6D757465 		.ascii	"mutex\000"
 4511      7800
 4512              	.LASF108:
 4513 038d 63684D74 		.ascii	"chMtxObjectInit\000"
 4513      784F626A 
 4513      65637449 
 4513      6E697400 
 4514              	.LASF68:
 4515 039d 63685F73 		.ascii	"ch_system_debug\000"
 4515      79737465 
 4515      6D5F6465 
 4515      62756700 
 4516              	.LASF96:
 4517 03ad 5F426F6F 		.ascii	"_Bool\000"
 4517      6C00
 4518              	.LASF14:
 4519 03b3 696E7433 		.ascii	"int32_t\000"
 4519      325F7400 
 4520              	.LASF2:
 4521 03bb 756E7369 		.ascii	"unsigned char\000"
 4521      676E6564 
 4521      20636861 
 4521      7200
 4522              	.LASF33:
 4523 03c9 705F7374 		.ascii	"p_state\000"
 4523      61746500 
 4524              	.LASF40:
 4525 03d1 705F6D74 		.ascii	"p_mtxlist\000"
 4525      786C6973 
 4525      7400
 4526              	.LASF3:
 4527 03db 73686F72 		.ascii	"short int\000"
 4527      7420696E 
 4527      7400
 4528              	.LASF51:
 4529 03e5 725F7072 		.ascii	"r_prio\000"
 4529      696F00
 4530              	.LASF86:
 4531 03ec 65776D61 		.ascii	"ewmask\000"
 4531      736B00
 4532              	.LASF26:
 4533 03f3 705F6E65 		.ascii	"p_next\000"
 4533      787400
 4534              	.LASF34:
 4535 03fa 705F666C 		.ascii	"p_flags\000"
 4535      61677300 
 4536              	.LASF104:
ARM GAS  /tmp/ccgDH5PG.s 			page 84


 4537 0402 5F5F6675 		.ascii	"__func__\000"
 4537      6E635F5F 
 4537      00
 4538              	.LASF102:
 4539 040b 63685379 		.ascii	"chSysLock\000"
 4539      734C6F63 
 4539      6B00
 4540              	.LASF58:
 4541 0415 63685F76 		.ascii	"ch_virtual_timer\000"
 4541      69727475 
 4541      616C5F74 
 4541      696D6572 
 4541      00
 4542              	.LASF117:
 4543 0426 63685363 		.ascii	"chSchGoSleepS\000"
 4543      68476F53 
 4543      6C656570 
 4543      5300
 4544              	.LASF39:
 4545 0434 705F6570 		.ascii	"p_epending\000"
 4545      656E6469 
 4545      6E6700
 4546              	.LASF15:
 4547 043f 75696E74 		.ascii	"uint32_t\000"
 4547      33325F74 
 4547      00
 4548              	.LASF50:
 4549 0448 725F7175 		.ascii	"r_queue\000"
 4549      65756500 
 4550              	.LASF116:
 4551 0450 63685363 		.ascii	"chSchReadyI\000"
 4551      68526561 
 4551      64794900 
 4552              	.LASF45:
 4553 045c 63685F74 		.ascii	"ch_threads_list\000"
 4553      68726561 
 4553      64735F6C 
 4553      69737400 
 4554              	.LASF9:
 4555 046c 6C6F6E67 		.ascii	"long unsigned int\000"
 4555      20756E73 
 4555      69676E65 
 4555      6420696E 
 4555      7400
 4556              	.LASF87:
 4557 047e 63686172 		.ascii	"char\000"
 4557      00
 4558              	.LASF25:
 4559 0483 74687265 		.ascii	"thread_t\000"
 4559      61645F74 
 4559      00
 4560              	.LASF119:
 4561 048c 474E5520 		.ascii	"GNU C 4.8.4 20140526 (release) [ARM/embedded-4_8-br"
 4561      4320342E 
 4561      382E3420 
 4561      32303134 
 4561      30353236 
ARM GAS  /tmp/ccgDH5PG.s 			page 85


 4562 04bf 616E6368 		.ascii	"anch revision 211358] -mcpu=cortex-m4 -mno-thumb-in"
 4562      20726576 
 4562      6973696F 
 4562      6E203231 
 4562      31333538 
 4563 04f2 74657277 		.ascii	"terwork -mthumb -ggdb -O2 -fomit-frame-pointer -fal"
 4563      6F726B20 
 4563      2D6D7468 
 4563      756D6220 
 4563      2D676764 
 4564 0525 69676E2D 		.ascii	"ign-functions=16 -ffunction-sections -fdata-section"
 4564      66756E63 
 4564      74696F6E 
 4564      733D3136 
 4564      202D6666 
 4565 0558 73202D66 		.ascii	"s -fno-common\000"
 4565      6E6F2D63 
 4565      6F6D6D6F 
 4565      6E00
 4566              	.LASF107:
 4567 0566 71756575 		.ascii	"queue_fifo_remove\000"
 4567      655F6669 
 4567      666F5F72 
 4567      656D6F76 
 4567      6500
 4568              	.LASF24:
 4569 0578 73797374 		.ascii	"systime_t\000"
 4569      696D655F 
 4569      7400
 4570              	.LASF41:
 4571 0582 705F7265 		.ascii	"p_realprio\000"
 4571      616C7072 
 4571      696F00
 4572              	.LASF56:
 4573 058d 76746675 		.ascii	"vtfunc_t\000"
 4573      6E635F74 
 4573      00
 4574              	.LASF8:
 4575 0596 5F5F7569 		.ascii	"__uint32_t\000"
 4575      6E743332 
 4575      5F7400
 4576              	.LASF106:
 4577 05a1 63684D74 		.ascii	"chMtxQueueNotEmptyS\000"
 4577      78517565 
 4577      75654E6F 
 4577      74456D70 
 4577      74795300 
 4578              	.LASF69:
 4579 05b5 70616E69 		.ascii	"panic_msg\000"
 4579      635F6D73 
 4579      6700
 4580              	.LASF81:
 4581 05bf 6F666673 		.ascii	"offset\000"
 4581      657400
 4582              	.LASF79:
 4583 05c6 636F6E74 		.ascii	"context\000"
 4583      65787400 
ARM GAS  /tmp/ccgDH5PG.s 			page 86


 4584              	.LASF17:
 4585 05ce 7274636E 		.ascii	"rtcnt_t\000"
 4585      745F7400 
 4586              	.LASF63:
 4587 05d6 76745F70 		.ascii	"vt_par\000"
 4587      617200
 4588              	.LASF46:
 4589 05dd 74687265 		.ascii	"threads_queue_t\000"
 4589      6164735F 
 4589      71756575 
 4589      655F7400 
 4590              	.LASF35:
 4591 05ed 705F7265 		.ascii	"p_refs\000"
 4591      667300
 4592              	.LASF72:
 4593 05f4 726C6973 		.ascii	"rlist\000"
 4593      7400
 4594              	.LASF13:
 4595 05fa 75696E74 		.ascii	"uint8_t\000"
 4595      385F7400 
 4596              	.LASF85:
 4597 0602 77746F62 		.ascii	"wtobjp\000"
 4597      6A7000
 4598              	.LASF32:
 4599 0609 705F6E61 		.ascii	"p_name\000"
 4599      6D6500
 4600              	.LASF43:
 4601 0610 74687265 		.ascii	"threads_list_t\000"
 4601      6164735F 
 4601      6C697374 
 4601      5F7400
 4602              	.LASF103:
 4603 061f 63685379 		.ascii	"chSysUnlock\000"
 4603      73556E6C 
 4603      6F636B00 
 4604              	.LASF38:
 4605 062b 705F6D73 		.ascii	"p_msg\000"
 4605      6700
 4606              	.LASF101:
 4607 0631 71756575 		.ascii	"queue_prio_insert\000"
 4607      655F7072 
 4607      696F5F69 
 4607      6E736572 
 4607      7400
 4608              	.LASF90:
 4609 0643 6D5F6F77 		.ascii	"m_owner\000"
 4609      6E657200 
 4610              	.LASF29:
 4611 064b 705F6374 		.ascii	"p_ctx\000"
 4611      7800
 4612              	.LASF62:
 4613 0651 76745F66 		.ascii	"vt_func\000"
 4613      756E6300 
 4614              		.ident	"GCC: (GNU Tools for ARM Embedded Processors) 4.8.4 20140526 (release) [ARM/embedded-4_8-br
ARM GAS  /tmp/ccgDH5PG.s 			page 87


DEFINED SYMBOLS
                            *ABS*:00000000 chmtx.c
     /tmp/ccgDH5PG.s:19     .text.chMtxObjectInit:00000000 $t
     /tmp/ccgDH5PG.s:25     .text.chMtxObjectInit:00000000 chMtxObjectInit
     /tmp/ccgDH5PG.s:51     .text.chMtxLockS:00000000 $t
     /tmp/ccgDH5PG.s:57     .text.chMtxLockS:00000000 chMtxLockS
     /tmp/ccgDH5PG.s:283    .text.chMtxLockS:000000c0 $d
     /tmp/ccgDH5PG.s:288    .text.chMtxLock:00000000 $t
     /tmp/ccgDH5PG.s:294    .text.chMtxLock:00000000 chMtxLock
     /tmp/ccgDH5PG.s:344    .text.chMtxTryLock:00000000 $t
     /tmp/ccgDH5PG.s:350    .text.chMtxTryLock:00000000 chMtxTryLock
     /tmp/ccgDH5PG.s:445    .text.chMtxTryLock:0000002c $d
     /tmp/ccgDH5PG.s:450    .text.chMtxTryLockS:00000000 $t
     /tmp/ccgDH5PG.s:456    .text.chMtxTryLockS:00000000 chMtxTryLockS
     /tmp/ccgDH5PG.s:494    .text.chMtxTryLockS:0000001c $d
     /tmp/ccgDH5PG.s:499    .text.chMtxUnlock:00000000 $t
     /tmp/ccgDH5PG.s:505    .text.chMtxUnlock:00000000 chMtxUnlock
     /tmp/ccgDH5PG.s:670    .text.chMtxUnlock:0000005c $d
     /tmp/ccgDH5PG.s:680    .text.chMtxUnlockS:00000000 $t
     /tmp/ccgDH5PG.s:686    .text.chMtxUnlockS:00000000 chMtxUnlockS
     /tmp/ccgDH5PG.s:811    .text.chMtxUnlockS:0000004c $d
     /tmp/ccgDH5PG.s:816    .text.chMtxUnlockAll:00000000 $t
     /tmp/ccgDH5PG.s:822    .text.chMtxUnlockAll:00000000 chMtxUnlockAll
     /tmp/ccgDH5PG.s:963    .text.chMtxUnlockAll:00000050 $d
                     .debug_frame:00000010 $d
     /tmp/ccgDH5PG.s:287    .text.chMtxLockS:000000c4 $t
     /tmp/ccgDH5PG.s:972    .text.chMtxUnlockAll:00000054 $t

UNDEFINED SYMBOLS
chSchGoSleepS
chSchReadyI
ch
chSchWakeupS
chSchRescheduleS
