ARM GAS  /tmp/cc03LCvb.s 			page 1


   1              		.syntax unified
   2              		.cpu cortex-m4
   3              		.fpu softvfp
   4              		.eabi_attribute 20, 1
   5              		.eabi_attribute 21, 1
   6              		.eabi_attribute 23, 3
   7              		.eabi_attribute 24, 1
   8              		.eabi_attribute 25, 1
   9              		.eabi_attribute 26, 1
  10              		.eabi_attribute 30, 2
  11              		.eabi_attribute 34, 1
  12              		.eabi_attribute 18, 4
  13              		.thumb
  14              		.file	"chprintf.c"
  15              		.text
  16              	.Ltext0:
  17              		.cfi_sections	.debug_frame
  18              		.section	.text.long_to_string_with_divisor.constprop.0,"ax",%progbits
  19              		.align	2
  20              		.p2align 4,,15
  21              		.thumb
  22              		.thumb_func
  23              		.type	long_to_string_with_divisor.constprop.0, %function
  24              	long_to_string_with_divisor.constprop.0:
  25              	.LFB231:
  26              		.file 1 "../ChibiOS/os/various/chprintf.c"
  27              		.loc 1 37 0
  28              		.cfi_startproc
  29              		@ args = 0, pretend = 0, frame = 0
  30              		@ frame_needed = 0, uses_anonymous_args = 0
  31              		@ link register save eliminated.
  32              	.LVL0:
  33 0000 F0B4     		push	{r4, r5, r6, r7}
  34              		.cfi_def_cfa_offset 16
  35              		.cfi_offset 4, -16
  36              		.cfi_offset 5, -12
  37              		.cfi_offset 6, -8
  38              		.cfi_offset 7, -4
  39              		.loc 1 52 0
  40 0002 00F10B07 		add	r7, r0, #11
  41              	.LVL1:
  42 0006 00F10A05 		add	r5, r0, #10
  43 000a 0C46     		mov	r4, r1
  44              	.LVL2:
  45              	.L4:
  46              		.loc 1 54 0
  47 000c B1FBF2F6 		udiv	r6, r1, r2
  48 0010 02FB1611 		mls	r1, r2, r6, r1
  49              	.LVL3:
  50              		.loc 1 55 0
  51 0014 01F13003 		add	r3, r1, #48
  52              	.LVL4:
  53              		.loc 1 56 0
  54 0018 392B     		cmp	r3, #57
  55              		.loc 1 57 0
  56 001a C8BF     		it	gt
  57 001c 01F13703 		addgt	r3, r1, #55
ARM GAS  /tmp/cc03LCvb.s 			page 2


  58              	.LVL5:
  59              		.loc 1 58 0
  60 0020 DBB2     		uxtb	r3, r3
  61              	.LVL6:
  62              		.loc 1 60 0
  63 0022 B4FBF2F4 		udiv	r4, r4, r2
  64              	.LVL7:
  65              		.loc 1 59 0
  66 0026 3146     		mov	r1, r6
  67              	.LVL8:
  68              		.loc 1 58 0
  69 0028 2E46     		mov	r6, r5
  70              	.LVL9:
  71 002a 05F80139 		strb	r3, [r5], #-1
  72              	.LVL10:
  73              		.loc 1 60 0
  74 002e 002C     		cmp	r4, #0
  75 0030 ECD1     		bne	.L4
  76              	.LVL11:
  77              		.loc 1 62 0
  78 0032 B91B     		subs	r1, r7, r6
  79              	.LVL12:
  80 0034 3246     		mov	r2, r6
  81              	.LVL13:
  82 0036 0144     		add	r1, r1, r0
  83 0038 01E0     		b	.L6
  84              	.LVL14:
  85              	.L9:
  86 003a 12F8013F 		ldrb	r3, [r2, #1]!	@ zero_extendqisi2
  87              	.LVL15:
  88              	.L6:
  89              		.loc 1 64 0
  90 003e 00F8013B 		strb	r3, [r0], #1
  91              	.LVL16:
  92              		.loc 1 65 0
  93 0042 8842     		cmp	r0, r1
  94 0044 F9D1     		bne	.L9
  95              		.loc 1 68 0
  96 0046 F0BC     		pop	{r4, r5, r6, r7}
  97              	.LVL17:
  98 0048 7047     		bx	lr
  99              		.cfi_endproc
 100              	.LFE231:
 101              		.size	long_to_string_with_divisor.constprop.0, .-long_to_string_with_divisor.constprop.0
 102 004a 00BFAFF3 		.section	.text.chvprintf,"ax",%progbits
 102      0080
 103              		.align	2
 104              		.p2align 4,,15
 105              		.global	chvprintf
 106              		.thumb
 107              		.thumb_func
 108              		.type	chvprintf, %function
 109              	chvprintf:
 110              	.LFB229:
 111              		.loc 1 120 0
 112              		.cfi_startproc
 113              		@ args = 0, pretend = 0, frame = 32
ARM GAS  /tmp/cc03LCvb.s 			page 3


 114              		@ frame_needed = 0, uses_anonymous_args = 0
 115              	.LVL18:
 116 0000 2DE9F04F 		push	{r4, r5, r6, r7, r8, r9, r10, fp, lr}
 117              		.cfi_def_cfa_offset 36
 118              		.cfi_offset 4, -36
 119              		.cfi_offset 5, -32
 120              		.cfi_offset 6, -28
 121              		.cfi_offset 7, -24
 122              		.cfi_offset 8, -20
 123              		.cfi_offset 9, -16
 124              		.cfi_offset 10, -12
 125              		.cfi_offset 11, -8
 126              		.cfi_offset 14, -4
 127 0004 89B0     		sub	sp, sp, #36
 128              		.cfi_def_cfa_offset 72
 129 0006 05AB     		add	r3, sp, #20
 130 0008 0DF1150C 		add	ip, sp, #21
 131 000c 0193     		str	r3, [sp, #4]
 132 000e C3EB0C03 		rsb	r3, r3, ip
 133 0012 CDF800C0 		str	ip, [sp]
 134              		.loc 1 120 0
 135 0016 8346     		mov	fp, r0
 136 0018 0C46     		mov	r4, r1
 137 001a 1546     		mov	r5, r2
 138              	.LVL19:
 139 001c 0393     		str	r3, [sp, #12]
 140              		.loc 1 123 0
 141 001e 4FF00008 		mov	r8, #0
 142              	.LVL20:
 143              	.L11:
 144              		.loc 1 134 0
 145 0022 2178     		ldrb	r1, [r4]	@ zero_extendqisi2
 146 0024 631C     		adds	r3, r4, #1
 147              	.LVL21:
 148              		.loc 1 135 0
 149 0026 69B1     		cbz	r1, .L68
 150              	.LVL22:
 151              	.L72:
 152              		.loc 1 137 0
 153 0028 2529     		cmp	r1, #37
 154 002a 0FD0     		beq	.L13
 155              		.loc 1 138 0
 156 002c DBF80020 		ldr	r2, [fp]
 157              	.LVL23:
 158              		.loc 1 134 0
 159 0030 1C46     		mov	r4, r3
 160              		.loc 1 138 0
 161 0032 9268     		ldr	r2, [r2, #8]
 162 0034 5846     		mov	r0, fp
 163 0036 9047     		blx	r2
 164              	.LVL24:
 165              		.loc 1 134 0
 166 0038 2178     		ldrb	r1, [r4]	@ zero_extendqisi2
 167              		.loc 1 139 0
 168 003a 08F10108 		add	r8, r8, #1
 169              	.LVL25:
 170              		.loc 1 134 0
ARM GAS  /tmp/cc03LCvb.s 			page 4


 171 003e 631C     		adds	r3, r4, #1
 172              	.LVL26:
 173              		.loc 1 135 0
 174 0040 0029     		cmp	r1, #0
 175 0042 F1D1     		bne	.L72
 176              	.LVL27:
 177              	.L68:
 178              		.loc 1 276 0
 179 0044 4046     		mov	r0, r8
 180 0046 09B0     		add	sp, sp, #36
 181              		@ sp needed
 182 0048 BDE8F08F 		pop	{r4, r5, r6, r7, r8, r9, r10, fp, pc}
 183              	.LVL28:
 184              	.L13:
 185              		.loc 1 145 0
 186 004c 6278     		ldrb	r2, [r4, #1]	@ zero_extendqisi2
 187              	.LVL29:
 188 004e 2D2A     		cmp	r2, #45
 189 0050 03BF     		ittte	eq
 190 0052 A278     		ldrbeq	r2, [r4, #2]	@ zero_extendqisi2
 191              		.loc 1 146 0
 192 0054 A31C     		addeq	r3, r4, #2
 193              	.LVL30:
 194              		.loc 1 147 0
 195 0056 4FF0010A 		moveq	r10, #1
 196              		.loc 1 144 0
 197 005a 4FF0000A 		movne	r10, #0
 198              	.LVL31:
 199              		.loc 1 150 0
 200 005e 302A     		cmp	r2, #48
 201 0060 03BF     		ittte	eq
 202 0062 5A78     		ldrbeq	r2, [r3, #1]	@ zero_extendqisi2
 203              		.loc 1 151 0
 204 0064 0133     		addeq	r3, r3, #1
 205              	.LVL32:
 206              		.loc 1 152 0
 207 0066 3026     		moveq	r6, #48
 208              		.loc 1 149 0
 209 0068 2026     		movne	r6, #32
 210              	.LVL33:
 211              		.loc 1 152 0
 212 006a 1C46     		mov	r4, r3
 213              		.loc 1 154 0
 214 006c 0027     		movs	r7, #0
 215 006e 06E0     		b	.L19
 216              	.LVL34:
 217              	.L73:
 218              		.loc 1 160 0
 219 0070 2B78     		ldrb	r3, [r5]	@ zero_extendqisi2
 220              	.LVL35:
 221 0072 0435     		adds	r5, r5, #4
 222              	.LVL36:
 223              	.L17:
 224              		.loc 1 163 0
 225 0074 07EB8707 		add	r7, r7, r7, lsl #2
 226              	.LVL37:
 227 0078 2278     		ldrb	r2, [r4]	@ zero_extendqisi2
ARM GAS  /tmp/cc03LCvb.s 			page 5


 228 007a 03EB4707 		add	r7, r3, r7, lsl #1
 229              	.LVL38:
 230              	.L19:
 231              		.loc 1 157 0
 232 007e A2F13003 		sub	r3, r2, #48
 233 0082 DBB2     		uxtb	r3, r3
 234 0084 092B     		cmp	r3, #9
 235              		.loc 1 156 0
 236 0086 04F10104 		add	r4, r4, #1
 237              	.LVL39:
 238              		.loc 1 157 0
 239 008a F3D9     		bls	.L17
 240              		.loc 1 159 0
 241 008c 2A2A     		cmp	r2, #42
 242 008e EFD0     		beq	.L73
 243              	.LVL40:
 244              		.loc 1 166 0
 245 0090 2E2A     		cmp	r2, #46
 246 0092 4FF00001 		mov	r1, #0
 247 0096 2BD0     		beq	.L22
 248              	.LVL41:
 249              		.loc 1 180 0
 250 0098 02F0DF03 		and	r3, r2, #223
 251 009c 4C2B     		cmp	r3, #76
 252 009e 34D0     		beq	.L74
 253              	.LVL42:
 254              	.L24:
 255              		.loc 1 189 0
 256 00a0 A2F14403 		sub	r3, r2, #68
 257 00a4 342B     		cmp	r3, #52
 258 00a6 00F2B680 		bhi	.L25
 259 00aa DFE803F0 		tbb	[pc, r3]
 260              	.L27:
 261 00ae AC       		.byte	(.L26-.L27)/2
 262 00af B4       		.byte	(.L25-.L27)/2
 263 00b0 B4       		.byte	(.L25-.L27)/2
 264 00b1 B4       		.byte	(.L25-.L27)/2
 265 00b2 B4       		.byte	(.L25-.L27)/2
 266 00b3 AC       		.byte	(.L26-.L27)/2
 267 00b4 B4       		.byte	(.L25-.L27)/2
 268 00b5 B4       		.byte	(.L25-.L27)/2
 269 00b6 B4       		.byte	(.L25-.L27)/2
 270 00b7 B4       		.byte	(.L25-.L27)/2
 271 00b8 B4       		.byte	(.L25-.L27)/2
 272 00b9 AA       		.byte	(.L28-.L27)/2
 273 00ba B4       		.byte	(.L25-.L27)/2
 274 00bb B4       		.byte	(.L25-.L27)/2
 275 00bc B4       		.byte	(.L25-.L27)/2
 276 00bd B4       		.byte	(.L25-.L27)/2
 277 00be B4       		.byte	(.L25-.L27)/2
 278 00bf 34       		.byte	(.L57-.L27)/2
 279 00c0 B4       		.byte	(.L25-.L27)/2
 280 00c1 B4       		.byte	(.L25-.L27)/2
 281 00c2 7D       		.byte	(.L30-.L27)/2
 282 00c3 B4       		.byte	(.L25-.L27)/2
 283 00c4 B4       		.byte	(.L25-.L27)/2
 284 00c5 B4       		.byte	(.L25-.L27)/2
ARM GAS  /tmp/cc03LCvb.s 			page 6


 285 00c6 B4       		.byte	(.L25-.L27)/2
 286 00c7 B4       		.byte	(.L25-.L27)/2
 287 00c8 B4       		.byte	(.L25-.L27)/2
 288 00c9 B4       		.byte	(.L25-.L27)/2
 289 00ca B4       		.byte	(.L25-.L27)/2
 290 00cb B4       		.byte	(.L25-.L27)/2
 291 00cc B4       		.byte	(.L25-.L27)/2
 292 00cd 9F       		.byte	(.L31-.L27)/2
 293 00ce AC       		.byte	(.L26-.L27)/2
 294 00cf B4       		.byte	(.L25-.L27)/2
 295 00d0 B4       		.byte	(.L25-.L27)/2
 296 00d1 B4       		.byte	(.L25-.L27)/2
 297 00d2 B4       		.byte	(.L25-.L27)/2
 298 00d3 AC       		.byte	(.L26-.L27)/2
 299 00d4 B4       		.byte	(.L25-.L27)/2
 300 00d5 B4       		.byte	(.L25-.L27)/2
 301 00d6 B4       		.byte	(.L25-.L27)/2
 302 00d7 B4       		.byte	(.L25-.L27)/2
 303 00d8 B4       		.byte	(.L25-.L27)/2
 304 00d9 AA       		.byte	(.L28-.L27)/2
 305 00da B4       		.byte	(.L25-.L27)/2
 306 00db B4       		.byte	(.L25-.L27)/2
 307 00dc B4       		.byte	(.L25-.L27)/2
 308 00dd 7F       		.byte	(.L32-.L27)/2
 309 00de B4       		.byte	(.L25-.L27)/2
 310 00df 34       		.byte	(.L57-.L27)/2
 311 00e0 B4       		.byte	(.L25-.L27)/2
 312 00e1 B4       		.byte	(.L25-.L27)/2
 313 00e2 7D       		.byte	(.L30-.L27)/2
 314              	.LVL43:
 315 00e3 00       		.p2align 1
 316              	.L75:
 317              		.loc 1 172 0
 318 00e4 2B78     		ldrb	r3, [r5]	@ zero_extendqisi2
 319              	.LVL44:
 320 00e6 0435     		adds	r5, r5, #4
 321              	.LVL45:
 322              	.L21:
 323              		.loc 1 175 0
 324 00e8 01EB8101 		add	r1, r1, r1, lsl #2
 325              	.LVL46:
 326              		.loc 1 176 0
 327 00ec 03EB4101 		add	r1, r3, r1, lsl #1
 328              	.LVL47:
 329              	.L22:
 330              		.loc 1 168 0
 331 00f0 14F8012B 		ldrb	r2, [r4], #1	@ zero_extendqisi2
 332              	.LVL48:
 333              		.loc 1 169 0
 334 00f4 A2F13003 		sub	r3, r2, #48
 335 00f8 DBB2     		uxtb	r3, r3
 336 00fa 092B     		cmp	r3, #9
 337 00fc F4D9     		bls	.L21
 338              		.loc 1 171 0
 339 00fe 2A2A     		cmp	r2, #42
 340 0100 F0D0     		beq	.L75
 341              	.LVL49:
ARM GAS  /tmp/cc03LCvb.s 			page 7


 342              		.loc 1 180 0
 343 0102 02F0DF03 		and	r3, r2, #223
 344 0106 4C2B     		cmp	r3, #76
 345 0108 CAD1     		bne	.L24
 346              	.LVL50:
 347              	.L74:
 348              		.loc 1 182 0
 349 010a 2378     		ldrb	r3, [r4]	@ zero_extendqisi2
 350 010c 002B     		cmp	r3, #0
 351 010e C7D0     		beq	.L24
 352              		.loc 1 183 0
 353 0110 0134     		adds	r4, r4, #1
 354              	.LVL51:
 355 0112 1A46     		mov	r2, r3
 356 0114 C4E7     		b	.L24
 357              	.LVL52:
 358              	.L57:
 359              		.loc 1 189 0
 360 0116 0A22     		movs	r2, #10
 361              	.LVL53:
 362              	.L29:
 363              		.loc 1 240 0
 364 0118 2968     		ldr	r1, [r5]
 365              	.LVL54:
 366              	.LBB6:
 367              	.LBB7:
 368              		.loc 1 72 0
 369 011a 05A8     		add	r0, sp, #20
 370              	.LBE7:
 371              	.LBE6:
 372              		.loc 1 240 0
 373 011c 0435     		adds	r5, r5, #4
 374              	.LVL55:
 375              	.L70:
 376              	.LBB9:
 377              	.LBB8:
 378              		.loc 1 72 0
 379 011e FFF7FEFF 		bl	long_to_string_with_divisor.constprop.0
 380              	.LVL56:
 381 0122 019B     		ldr	r3, [sp, #4]
 382 0124 C01A     		subs	r0, r0, r3
 383 0126 00F1FF3C 		add	ip, r0, #-1
 384 012a CDF808C0 		str	ip, [sp, #8]
 385              	.LBE8:
 386              	.LBE9:
 387              		.loc 1 143 0
 388 012e 0DF11409 		add	r9, sp, #20
 389              	.LVL57:
 390              	.L33:
 391              		.loc 1 250 0
 392 0132 3F1A     		subs	r7, r7, r0
 393              	.LVL58:
 394 0134 27EAE777 		bic	r7, r7, r7, asr #31
 395              	.LVL59:
 396              		.loc 1 252 0
 397 0138 BAF1000F 		cmp	r10, #0
 398 013c 12D1     		bne	.L44
ARM GAS  /tmp/cc03LCvb.s 			page 8


 399              		.loc 1 253 0
 400 013e 7F42     		negs	r7, r7
 401              	.LVL60:
 402              		.loc 1 254 0
 403 0140 87B1     		cbz	r7, .L44
 404              		.loc 1 255 0
 405 0142 99F80010 		ldrb	r1, [r9]	@ zero_extendqisi2
 406 0146 2D29     		cmp	r1, #45
 407 0148 6DD0     		beq	.L76
 408              	.LVL61:
 409              	.L45:
 410              		.loc 1 195 0 discriminator 1
 411 014a BA46     		mov	r10, r7
 412              	.LVL62:
 413              	.L47:
 414              		.loc 1 261 0 discriminator 1
 415 014c DBF80030 		ldr	r3, [fp]
 416 0150 5846     		mov	r0, fp
 417 0152 9B68     		ldr	r3, [r3, #8]
 418 0154 3146     		mov	r1, r6
 419 0156 9847     		blx	r3
 420              	.LVL63:
 421              		.loc 1 263 0 discriminator 1
 422 0158 1AF1010A 		adds	r10, r10, #1
 423              	.LVL64:
 424 015c F6D1     		bne	.L47
 425 015e C7EB0808 		rsb	r8, r7, r8
 426              		.loc 1 263 0 is_stmt 0
 427 0162 5746     		mov	r7, r10
 428              	.LVL65:
 429              	.L44:
 430              		.loc 1 265 0 is_stmt 1 discriminator 1
 431 0164 029A     		ldr	r2, [sp, #8]
 432 0166 002A     		cmp	r2, #0
 433 0168 0FDB     		blt	.L48
 434 016a 09F1FF3A 		add	r10, r9, #-1
 435 016e 9144     		add	r9, r9, r2
 436              	.LVL66:
 437              	.L50:
 438              		.loc 1 266 0
 439 0170 DBF80030 		ldr	r3, [fp]
 440 0174 1AF8011F 		ldrb	r1, [r10, #1]!	@ zero_extendqisi2
 441              	.LVL67:
 442 0178 9B68     		ldr	r3, [r3, #8]
 443 017a 5846     		mov	r0, fp
 444 017c 9847     		blx	r3
 445              	.LVL68:
 446              		.loc 1 265 0
 447 017e CA45     		cmp	r10, r9
 448 0180 F6D1     		bne	.L50
 449 0182 029B     		ldr	r3, [sp, #8]
 450 0184 08F10108 		add	r8, r8, #1
 451 0188 9844     		add	r8, r8, r3
 452              	.LVL69:
 453              	.L48:
 454              		.loc 1 270 0 discriminator 1
 455 018a 002F     		cmp	r7, #0
ARM GAS  /tmp/cc03LCvb.s 			page 9


 456 018c 3FF449AF 		beq	.L11
 457              		.loc 1 270 0 is_stmt 0
 458 0190 B946     		mov	r9, r7
 459              	.LVL70:
 460              	.L52:
 461              		.loc 1 271 0 is_stmt 1
 462 0192 DBF80030 		ldr	r3, [fp]
 463 0196 5846     		mov	r0, fp
 464 0198 9B68     		ldr	r3, [r3, #8]
 465 019a 3146     		mov	r1, r6
 466 019c 9847     		blx	r3
 467              	.LVL71:
 468              		.loc 1 270 0
 469 019e B9F10109 		subs	r9, r9, #1
 470              	.LVL72:
 471 01a2 F6D1     		bne	.L52
 472 01a4 B844     		add	r8, r8, r7
 473 01a6 3CE7     		b	.L11
 474              	.LVL73:
 475              	.L30:
 476              		.loc 1 189 0
 477 01a8 1022     		movs	r2, #16
 478              	.LVL74:
 479 01aa B5E7     		b	.L29
 480              	.LVL75:
 481              	.L32:
 482              		.loc 1 196 0
 483 01ac D5F80090 		ldr	r9, [r5]
 484              		.loc 1 197 0
 485 01b0 304B     		ldr	r3, .L79
 486 01b2 B9F1000F 		cmp	r9, #0
 487 01b6 08BF     		it	eq
 488 01b8 9946     		moveq	r9, r3
 489              		.loc 1 199 0
 490 01ba 47F6FF73 		movw	r3, #32767
 491              		.loc 1 200 0
 492 01be 99F80000 		ldrb	r0, [r9]	@ zero_extendqisi2
 493              		.loc 1 196 0
 494 01c2 0435     		adds	r5, r5, #4
 495              	.LVL76:
 496              		.loc 1 199 0
 497 01c4 0029     		cmp	r1, #0
 498 01c6 08BF     		it	eq
 499 01c8 1946     		moveq	r1, r3
 500              	.LVL77:
 501              		.loc 1 200 0
 502 01ca 0028     		cmp	r0, #0
 503 01cc 4CD0     		beq	.L60
 504 01ce 4944     		add	r1, r1, r9
 505 01d0 4B46     		mov	r3, r9
 506 01d2 01E0     		b	.L38
 507              	.LVL78:
 508              	.L36:
 509              		.loc 1 200 0 is_stmt 0 discriminator 2
 510 01d4 9942     		cmp	r1, r3
 511 01d6 38D0     		beq	.L77
 512              	.LVL79:
ARM GAS  /tmp/cc03LCvb.s 			page 10


 513              	.L38:
 514              		.loc 1 200 0 discriminator 1
 515 01d8 5A78     		ldrb	r2, [r3, #1]	@ zero_extendqisi2
 516 01da 0133     		adds	r3, r3, #1
 517              	.LVL80:
 518 01dc 002A     		cmp	r2, #0
 519 01de F9D1     		bne	.L36
 520 01e0 C9EB0300 		rsb	r0, r9, r3
 521 01e4 431E     		subs	r3, r0, #1
 522              	.LVL81:
 523 01e6 0293     		str	r3, [sp, #8]
 524              		.loc 1 195 0 is_stmt 1
 525 01e8 2026     		movs	r6, #32
 526 01ea A2E7     		b	.L33
 527              	.LVL82:
 528              	.L31:
 529 01ec 0398     		ldr	r0, [sp, #12]
 530              		.loc 1 192 0
 531 01ee 2B68     		ldr	r3, [r5]
 532 01f0 8DF81430 		strb	r3, [sp, #20]
 533 01f4 421E     		subs	r2, r0, #1
 534              	.LVL83:
 535 01f6 0435     		adds	r5, r5, #4
 536              	.LVL84:
 537 01f8 0292     		str	r2, [sp, #8]
 538              		.loc 1 191 0
 539 01fa 2026     		movs	r6, #32
 540              		.loc 1 143 0
 541 01fc 0DF11409 		add	r9, sp, #20
 542              		.loc 1 193 0
 543 0200 97E7     		b	.L33
 544              	.LVL85:
 545              	.L28:
 546 0202 0822     		movs	r2, #8
 547 0204 88E7     		b	.L29
 548              	.LVL86:
 549              	.L26:
 550              		.loc 1 208 0
 551 0206 2968     		ldr	r1, [r5]
 552              	.LVL87:
 553              		.loc 1 211 0
 554 0208 0029     		cmp	r1, #0
 555              		.loc 1 208 0
 556 020a 05F10405 		add	r5, r5, #4
 557              	.LVL88:
 558              		.loc 1 211 0
 559 020e 24DB     		blt	.L78
 560              		.loc 1 142 0
 561 0210 05A8     		add	r0, sp, #20
 562              	.LVL89:
 563              	.L41:
 564              	.LBB10:
 565              	.LBB11:
 566              		.loc 1 72 0
 567 0212 0A22     		movs	r2, #10
 568              	.LVL90:
 569 0214 83E7     		b	.L70
ARM GAS  /tmp/cc03LCvb.s 			page 11


 570              	.LVL91:
 571              	.L25:
 572 0216 0398     		ldr	r0, [sp, #12]
 573              	.LBE11:
 574              	.LBE10:
 575              		.loc 1 246 0
 576 0218 8DF81420 		strb	r2, [sp, #20]
 577 021c 421E     		subs	r2, r0, #1
 578              	.LVL92:
 579 021e 0292     		str	r2, [sp, #8]
 580              		.loc 1 143 0
 581 0220 0DF11409 		add	r9, sp, #20
 582              		.loc 1 247 0
 583 0224 85E7     		b	.L33
 584              	.LVL93:
 585              	.L76:
 586              		.loc 1 255 0 discriminator 1
 587 0226 302E     		cmp	r6, #48
 588 0228 8FD1     		bne	.L45
 589              	.LVL94:
 590              		.loc 1 256 0
 591 022a DBF80030 		ldr	r3, [fp]
 592 022e 5846     		mov	r0, fp
 593              	.LVL95:
 594 0230 9B68     		ldr	r3, [r3, #8]
 595 0232 9847     		blx	r3
 596              	.LVL96:
 597 0234 DDF808C0 		ldr	ip, [sp, #8]
 598 0238 0CF1FF3C 		add	ip, ip, #-1
 599 023c 09F10109 		add	r9, r9, #1
 600              	.LVL97:
 601              		.loc 1 257 0
 602 0240 08F10108 		add	r8, r8, #1
 603              	.LVL98:
 604 0244 CDF808C0 		str	ip, [sp, #8]
 605              	.LVL99:
 606 0248 7FE7     		b	.L45
 607              	.LVL100:
 608              	.L77:
 609 024a C9EB0100 		rsb	r0, r9, r1
 610 024e 00F1FF3C 		add	ip, r0, #-1
 611 0252 CDF808C0 		str	ip, [sp, #8]
 612              		.loc 1 195 0
 613 0256 2026     		movs	r6, #32
 614 0258 6BE7     		b	.L33
 615              	.LVL101:
 616              	.L78:
 617              		.loc 1 212 0
 618 025a 2D23     		movs	r3, #45
 619              		.loc 1 213 0
 620 025c 4942     		negs	r1, r1
 621              	.LVL102:
 622              		.loc 1 212 0
 623 025e 8DF81430 		strb	r3, [sp, #20]
 624 0262 0DF11500 		add	r0, sp, #21
 625 0266 D4E7     		b	.L41
 626              	.LVL103:
ARM GAS  /tmp/cc03LCvb.s 			page 12


 627              	.L60:
 628              		.loc 1 200 0
 629 0268 4FF0FF33 		mov	r3, #-1
 630 026c 0293     		str	r3, [sp, #8]
 631              		.loc 1 195 0
 632 026e 2026     		movs	r6, #32
 633 0270 5FE7     		b	.L33
 634              	.L80:
 635 0272 00BF     		.align	2
 636              	.L79:
 637 0274 00000000 		.word	.LC0
 638              		.cfi_endproc
 639              	.LFE229:
 640              		.size	chvprintf, .-chvprintf
 641 0278 AFF30080 		.section	.text.chsnprintf,"ax",%progbits
 641      AFF30080 
 642              		.align	2
 643              		.p2align 4,,15
 644              		.global	chsnprintf
 645              		.thumb
 646              		.thumb_func
 647              		.type	chsnprintf, %function
 648              	chsnprintf:
 649              	.LFB230:
 650              		.loc 1 306 0
 651              		.cfi_startproc
 652              		@ args = 4, pretend = 8, frame = 24
 653              		@ frame_needed = 0, uses_anonymous_args = 1
 654              	.LVL104:
 655 0000 0CB4     		push	{r2, r3}
 656              		.cfi_def_cfa_offset 8
 657              		.cfi_offset 2, -8
 658              		.cfi_offset 3, -4
 659 0002 70B5     		push	{r4, r5, r6, lr}
 660              		.cfi_def_cfa_offset 24
 661              		.cfi_offset 4, -24
 662              		.cfi_offset 5, -20
 663              		.cfi_offset 6, -16
 664              		.cfi_offset 14, -12
 665 0004 86B0     		sub	sp, sp, #24
 666              		.cfi_def_cfa_offset 48
 667              		.loc 1 313 0
 668 0006 0C46     		mov	r4, r1
 669              		.loc 1 306 0
 670 0008 0546     		mov	r5, r0
 671 000a 0A9E     		ldr	r6, [sp, #40]
 672              		.loc 1 313 0
 673 000c B1B1     		cbz	r1, .L82
 674              	.LVL105:
 675              		.loc 1 320 0
 676 000e 01A8     		add	r0, sp, #4
 677              	.LVL106:
 678 0010 2946     		mov	r1, r5
 679              	.LVL107:
 680 0012 621E     		subs	r2, r4, #1
 681              	.LVL108:
 682 0014 0023     		movs	r3, #0
ARM GAS  /tmp/cc03LCvb.s 			page 13


 683 0016 FFF7FEFF 		bl	msObjectInit
 684              	.LVL109:
 685              		.loc 1 324 0
 686 001a 0BAB     		add	r3, sp, #44
 687              		.loc 1 325 0
 688 001c 1A46     		mov	r2, r3
 689 001e 01A8     		add	r0, sp, #4
 690              	.LVL110:
 691 0020 3146     		mov	r1, r6
 692              		.loc 1 324 0
 693 0022 0093     		str	r3, [sp]
 694              		.loc 1 325 0
 695 0024 FFF7FEFF 		bl	chvprintf
 696              	.LVL111:
 697              		.loc 1 329 0
 698 0028 049B     		ldr	r3, [sp, #16]
 699 002a 9C42     		cmp	r4, r3
 700 002c 01D9     		bls	.L84
 701              		.loc 1 330 0
 702 002e 0022     		movs	r2, #0
 703 0030 EA54     		strb	r2, [r5, r3]
 704              	.L84:
 705              		.loc 1 334 0
 706 0032 06B0     		add	sp, sp, #24
 707              		@ sp needed
 708 0034 BDE87040 		pop	{r4, r5, r6, lr}
 709              	.LVL112:
 710 0038 02B0     		add	sp, sp, #8
 711 003a 7047     		bx	lr
 712              	.LVL113:
 713              	.L82:
 714              		.loc 1 320 0
 715 003c 0A46     		mov	r2, r1
 716 003e 2346     		mov	r3, r4
 717 0040 0146     		mov	r1, r0
 718              	.LVL114:
 719 0042 01A8     		add	r0, sp, #4
 720              	.LVL115:
 721 0044 FFF7FEFF 		bl	msObjectInit
 722              	.LVL116:
 723              		.loc 1 324 0
 724 0048 0BAB     		add	r3, sp, #44
 725              		.loc 1 325 0
 726 004a 01A8     		add	r0, sp, #4
 727              	.LVL117:
 728 004c 3146     		mov	r1, r6
 729 004e 1A46     		mov	r2, r3
 730              		.loc 1 324 0
 731 0050 0093     		str	r3, [sp]
 732              		.loc 1 325 0
 733 0052 FFF7FEFF 		bl	chvprintf
 734              	.LVL118:
 735              		.loc 1 334 0
 736 0056 06B0     		add	sp, sp, #24
 737              		@ sp needed
 738 0058 BDE87040 		pop	{r4, r5, r6, lr}
 739              	.LVL119:
ARM GAS  /tmp/cc03LCvb.s 			page 14


 740 005c 02B0     		add	sp, sp, #8
 741 005e 7047     		bx	lr
 742              		.cfi_endproc
 743              	.LFE230:
 744              		.size	chsnprintf, .-chsnprintf
 745              		.section	.rodata.str1.4,"aMS",%progbits,1
 746              		.align	2
 747              	.LC0:
 748 0000 286E756C 		.ascii	"(null)\000"
 748      6C2900
 749 0007 00       		.text
 750              	.Letext0:
 751              		.file 2 "/nfs/nfs5/home/research/hardware/arm2/gcc-arm-embedded/gcc-arm-none-eabi-4_8-2014q2/lib/g
 752              		.file 3 "/nfs/nfs5/home/research/hardware/arm2/gcc-arm-embedded/gcc-arm-none-eabi-4_8-2014q2/arm-n
 753              		.file 4 "/nfs/nfs5/home/research/hardware/arm2/gcc-arm-embedded/gcc-arm-none-eabi-4_8-2014q2/arm-n
 754              		.file 5 "../ChibiOS/os/rt/ports/ARMCMx/compilers/GCC/chtypes.h"
 755              		.file 6 "../ChibiOS/os/rt/include/chsystypes.h"
 756              		.file 7 "../ChibiOS/os/rt/include/chschd.h"
 757              		.file 8 "../ChibiOS/os/rt/ports/ARMCMx/chcore.h"
 758              		.file 9 "../ChibiOS/os/rt/ports/ARMCMx/chcore_v7m.h"
 759              		.file 10 "../ChibiOS/os/rt/include/chtm.h"
 760              		.file 11 "../ChibiOS/os/rt/include/chmtx.h"
 761              		.file 12 "../ChibiOS/os/rt/include/chstreams.h"
 762              		.file 13 "/nfs/nfs5/home/research/hardware/arm2/gcc-arm-embedded/gcc-arm-none-eabi-4_8-2014q2/lib/
 763              		.file 14 "<built-in>"
 764              		.file 15 "../ChibiOS/os/various/memstreams.h"
 765              		.file 16 "../ChibiOS/os/ext/CMSIS/include/core_cm4.h"
 766              		.section	.debug_info,"",%progbits
 767              	.Ldebug_info0:
 768 0000 740B0000 		.4byte	0xb74
 769 0004 0400     		.2byte	0x4
 770 0006 00000000 		.4byte	.Ldebug_abbrev0
 771 000a 04       		.byte	0x4
 772 000b 01       		.uleb128 0x1
 773 000c 11040000 		.4byte	.LASF122
 774 0010 01       		.byte	0x1
 775 0011 2C050000 		.4byte	.LASF123
 776 0015 6E050000 		.4byte	.LASF124
 777 0019 18000000 		.4byte	.Ldebug_ranges0+0x18
 778 001d 00000000 		.4byte	0
 779 0021 00000000 		.4byte	.Ldebug_line0
 780 0025 02       		.uleb128 0x2
 781 0026 04       		.byte	0x4
 782 0027 05       		.byte	0x5
 783 0028 696E7400 		.ascii	"int\000"
 784 002c 03       		.uleb128 0x3
 785 002d 15000000 		.4byte	.LASF2
 786 0031 02       		.byte	0x2
 787 0032 D4       		.byte	0xd4
 788 0033 37000000 		.4byte	0x37
 789 0037 04       		.uleb128 0x4
 790 0038 04       		.byte	0x4
 791 0039 07       		.byte	0x7
 792 003a 9C010000 		.4byte	.LASF0
 793 003e 04       		.uleb128 0x4
 794 003f 01       		.byte	0x1
 795 0040 06       		.byte	0x6
ARM GAS  /tmp/cc03LCvb.s 			page 15


 796 0041 D2000000 		.4byte	.LASF1
 797 0045 03       		.uleb128 0x3
 798 0046 25000000 		.4byte	.LASF3
 799 004a 03       		.byte	0x3
 800 004b 1C       		.byte	0x1c
 801 004c 50000000 		.4byte	0x50
 802 0050 04       		.uleb128 0x4
 803 0051 01       		.byte	0x1
 804 0052 08       		.byte	0x8
 805 0053 3B030000 		.4byte	.LASF4
 806 0057 04       		.uleb128 0x4
 807 0058 02       		.byte	0x2
 808 0059 05       		.byte	0x5
 809 005a 5B030000 		.4byte	.LASF5
 810 005e 04       		.uleb128 0x4
 811 005f 02       		.byte	0x2
 812 0060 07       		.byte	0x7
 813 0061 CD010000 		.4byte	.LASF6
 814 0065 03       		.uleb128 0x3
 815 0066 17020000 		.4byte	.LASF7
 816 006a 03       		.byte	0x3
 817 006b 37       		.byte	0x37
 818 006c 70000000 		.4byte	0x70
 819 0070 04       		.uleb128 0x4
 820 0071 04       		.byte	0x4
 821 0072 05       		.byte	0x5
 822 0073 09010000 		.4byte	.LASF8
 823 0077 03       		.uleb128 0x3
 824 0078 10050000 		.4byte	.LASF9
 825 007c 03       		.byte	0x3
 826 007d 38       		.byte	0x38
 827 007e 82000000 		.4byte	0x82
 828 0082 04       		.uleb128 0x4
 829 0083 04       		.byte	0x4
 830 0084 07       		.byte	0x7
 831 0085 DE000000 		.4byte	.LASF10
 832 0089 04       		.uleb128 0x4
 833 008a 08       		.byte	0x8
 834 008b 05       		.byte	0x5
 835 008c C4000000 		.4byte	.LASF11
 836 0090 03       		.uleb128 0x3
 837 0091 DF020000 		.4byte	.LASF12
 838 0095 03       		.byte	0x3
 839 0096 4E       		.byte	0x4e
 840 0097 9B000000 		.4byte	0x9b
 841 009b 04       		.uleb128 0x4
 842 009c 08       		.byte	0x8
 843 009d 07       		.byte	0x7
 844 009e 5E000000 		.4byte	.LASF13
 845 00a2 03       		.uleb128 0x3
 846 00a3 D7050000 		.4byte	.LASF14
 847 00a7 04       		.byte	0x4
 848 00a8 2A       		.byte	0x2a
 849 00a9 45000000 		.4byte	0x45
 850 00ad 03       		.uleb128 0x3
 851 00ae 33030000 		.4byte	.LASF15
 852 00b2 04       		.byte	0x4
ARM GAS  /tmp/cc03LCvb.s 			page 16


 853 00b3 41       		.byte	0x41
 854 00b4 65000000 		.4byte	0x65
 855 00b8 03       		.uleb128 0x3
 856 00b9 C4030000 		.4byte	.LASF16
 857 00bd 04       		.byte	0x4
 858 00be 42       		.byte	0x42
 859 00bf 77000000 		.4byte	0x77
 860 00c3 03       		.uleb128 0x3
 861 00c4 1C000000 		.4byte	.LASF17
 862 00c8 04       		.byte	0x4
 863 00c9 4E       		.byte	0x4e
 864 00ca 90000000 		.4byte	0x90
 865 00ce 05       		.uleb128 0x5
 866 00cf AD000000 		.4byte	0xad
 867 00d3 03       		.uleb128 0x3
 868 00d4 66050000 		.4byte	.LASF18
 869 00d8 05       		.byte	0x5
 870 00d9 45       		.byte	0x45
 871 00da B8000000 		.4byte	0xb8
 872 00de 03       		.uleb128 0x3
 873 00df F5010000 		.4byte	.LASF19
 874 00e3 05       		.byte	0x5
 875 00e4 48       		.byte	0x48
 876 00e5 A2000000 		.4byte	0xa2
 877 00e9 03       		.uleb128 0x3
 878 00ea 12010000 		.4byte	.LASF20
 879 00ee 05       		.byte	0x5
 880 00ef 49       		.byte	0x49
 881 00f0 A2000000 		.4byte	0xa2
 882 00f4 03       		.uleb128 0x3
 883 00f5 00000000 		.4byte	.LASF21
 884 00f9 05       		.byte	0x5
 885 00fa 4A       		.byte	0x4a
 886 00fb A2000000 		.4byte	0xa2
 887 00ff 03       		.uleb128 0x3
 888 0100 01030000 		.4byte	.LASF22
 889 0104 05       		.byte	0x5
 890 0105 4C       		.byte	0x4c
 891 0106 B8000000 		.4byte	0xb8
 892 010a 03       		.uleb128 0x3
 893 010b EA010000 		.4byte	.LASF23
 894 010f 05       		.byte	0x5
 895 0110 4D       		.byte	0x4d
 896 0111 AD000000 		.4byte	0xad
 897 0115 03       		.uleb128 0x3
 898 0116 0B020000 		.4byte	.LASF24
 899 011a 05       		.byte	0x5
 900 011b 4F       		.byte	0x4f
 901 011c B8000000 		.4byte	0xb8
 902 0120 03       		.uleb128 0x3
 903 0121 F2040000 		.4byte	.LASF25
 904 0125 06       		.byte	0x6
 905 0126 33       		.byte	0x33
 906 0127 B8000000 		.4byte	0xb8
 907 012b 03       		.uleb128 0x3
 908 012c 08040000 		.4byte	.LASF26
 909 0130 06       		.byte	0x6
ARM GAS  /tmp/cc03LCvb.s 			page 17


 910 0131 3F       		.byte	0x3f
 911 0132 36010000 		.4byte	0x136
 912 0136 06       		.uleb128 0x6
 913 0137 E0010000 		.4byte	.LASF45
 914 013b 44       		.byte	0x44
 915 013c 07       		.byte	0x7
 916 013d BE       		.byte	0xbe
 917 013e 23020000 		.4byte	0x223
 918 0142 07       		.uleb128 0x7
 919 0143 7B030000 		.4byte	.LASF27
 920 0147 07       		.byte	0x7
 921 0148 BF       		.byte	0xbf
 922 0149 07050000 		.4byte	0x507
 923 014d 00       		.byte	0
 924 014e 07       		.uleb128 0x7
 925 014f FA020000 		.4byte	.LASF28
 926 0153 07       		.byte	0x7
 927 0154 C1       		.byte	0xc1
 928 0155 07050000 		.4byte	0x507
 929 0159 04       		.byte	0x4
 930 015a 07       		.uleb128 0x7
 931 015b BD000000 		.4byte	.LASF29
 932 015f 07       		.byte	0x7
 933 0160 C3       		.byte	0xc3
 934 0161 FF000000 		.4byte	0xff
 935 0165 08       		.byte	0x8
 936 0166 07       		.uleb128 0x7
 937 0167 2E060000 		.4byte	.LASF30
 938 016b 07       		.byte	0x7
 939 016c C4       		.byte	0xc4
 940 016d 4D040000 		.4byte	0x44d
 941 0171 0C       		.byte	0xc
 942 0172 07       		.uleb128 0x7
 943 0173 33010000 		.4byte	.LASF31
 944 0177 07       		.byte	0x7
 945 0178 C6       		.byte	0xc6
 946 0179 07050000 		.4byte	0x507
 947 017d 10       		.byte	0x10
 948 017e 07       		.uleb128 0x7
 949 017f A1020000 		.4byte	.LASF32
 950 0183 07       		.byte	0x7
 951 0184 C7       		.byte	0xc7
 952 0185 07050000 		.4byte	0x507
 953 0189 14       		.byte	0x14
 954 018a 07       		.uleb128 0x7
 955 018b 16030000 		.4byte	.LASF33
 956 018f 07       		.byte	0x7
 957 0190 CE       		.byte	0xce
 958 0191 45050000 		.4byte	0x545
 959 0195 18       		.byte	0x18
 960 0196 07       		.uleb128 0x7
 961 0197 65030000 		.4byte	.LASF34
 962 019b 07       		.byte	0x7
 963 019c D9       		.byte	0xd9
 964 019d E9000000 		.4byte	0xe9
 965 01a1 1C       		.byte	0x1c
 966 01a2 07       		.uleb128 0x7
ARM GAS  /tmp/cc03LCvb.s 			page 18


 967 01a3 9A030000 		.4byte	.LASF35
 968 01a7 07       		.byte	0x7
 969 01a8 DD       		.byte	0xdd
 970 01a9 DE000000 		.4byte	0xde
 971 01ad 1D       		.byte	0x1d
 972 01ae 07       		.uleb128 0x7
 973 01af CA050000 		.4byte	.LASF36
 974 01b3 07       		.byte	0x7
 975 01b4 E2       		.byte	0xe2
 976 01b5 F4000000 		.4byte	0xf4
 977 01b9 1E       		.byte	0x1e
 978 01ba 08       		.uleb128 0x8
 979 01bb 705F7500 		.ascii	"p_u\000"
 980 01bf 07       		.byte	0x7
 981 01c0 1401     		.2byte	0x114
 982 01c2 0D050000 		.4byte	0x50d
 983 01c6 20       		.byte	0x20
 984 01c7 09       		.uleb128 0x9
 985 01c8 44020000 		.4byte	.LASF37
 986 01cc 07       		.byte	0x7
 987 01cd 1901     		.2byte	0x119
 988 01cf 23020000 		.4byte	0x223
 989 01d3 24       		.byte	0x24
 990 01d4 09       		.uleb128 0x9
 991 01d5 B1010000 		.4byte	.LASF38
 992 01d9 07       		.byte	0x7
 993 01da 1F01     		.2byte	0x11f
 994 01dc 47020000 		.4byte	0x247
 995 01e0 28       		.byte	0x28
 996 01e1 09       		.uleb128 0x9
 997 01e2 20060000 		.4byte	.LASF39
 998 01e6 07       		.byte	0x7
 999 01e7 2301     		.2byte	0x123
 1000 01e9 0A010000 		.4byte	0x10a
 1001 01ed 30       		.byte	0x30
 1002 01ee 09       		.uleb128 0x9
 1003 01ef B9030000 		.4byte	.LASF40
 1004 01f3 07       		.byte	0x7
 1005 01f4 2901     		.2byte	0x129
 1006 01f6 15010000 		.4byte	0x115
 1007 01fa 34       		.byte	0x34
 1008 01fb 09       		.uleb128 0x9
 1009 01fc 51030000 		.4byte	.LASF41
 1010 0200 07       		.byte	0x7
 1011 0201 3001     		.2byte	0x130
 1012 0203 88050000 		.4byte	0x588
 1013 0207 38       		.byte	0x38
 1014 0208 09       		.uleb128 0x9
 1015 0209 FC040000 		.4byte	.LASF42
 1016 020d 07       		.byte	0x7
 1017 020e 3401     		.2byte	0x134
 1018 0210 FF000000 		.4byte	0xff
 1019 0214 3C       		.byte	0x3c
 1020 0215 09       		.uleb128 0x9
 1021 0216 F0000000 		.4byte	.LASF43
 1022 021a 07       		.byte	0x7
 1023 021b 3A01     		.2byte	0x13a
ARM GAS  /tmp/cc03LCvb.s 			page 19


 1024 021d FA020000 		.4byte	0x2fa
 1025 0221 40       		.byte	0x40
 1026 0222 00       		.byte	0
 1027 0223 03       		.uleb128 0x3
 1028 0224 11060000 		.4byte	.LASF44
 1029 0228 06       		.byte	0x6
 1030 0229 44       		.byte	0x44
 1031 022a 2E020000 		.4byte	0x22e
 1032 022e 06       		.uleb128 0x6
 1033 022f DE030000 		.4byte	.LASF46
 1034 0233 04       		.byte	0x4
 1035 0234 07       		.byte	0x7
 1036 0235 AC       		.byte	0xac
 1037 0236 47020000 		.4byte	0x247
 1038 023a 07       		.uleb128 0x7
 1039 023b 7B030000 		.4byte	.LASF27
 1040 023f 07       		.byte	0x7
 1041 0240 AD       		.byte	0xad
 1042 0241 07050000 		.4byte	0x507
 1043 0245 00       		.byte	0
 1044 0246 00       		.byte	0
 1045 0247 03       		.uleb128 0x3
 1046 0248 B3050000 		.4byte	.LASF47
 1047 024c 06       		.byte	0x6
 1048 024d 4B       		.byte	0x4b
 1049 024e 52020000 		.4byte	0x252
 1050 0252 06       		.uleb128 0x6
 1051 0253 AC000000 		.4byte	.LASF48
 1052 0257 08       		.byte	0x8
 1053 0258 07       		.byte	0x7
 1054 0259 B3       		.byte	0xb3
 1055 025a 77020000 		.4byte	0x277
 1056 025e 07       		.uleb128 0x7
 1057 025f 7B030000 		.4byte	.LASF27
 1058 0263 07       		.byte	0x7
 1059 0264 B4       		.byte	0xb4
 1060 0265 07050000 		.4byte	0x507
 1061 0269 00       		.byte	0
 1062 026a 07       		.uleb128 0x7
 1063 026b FA020000 		.4byte	.LASF28
 1064 026f 07       		.byte	0x7
 1065 0270 B5       		.byte	0xb5
 1066 0271 07050000 		.4byte	0x507
 1067 0275 04       		.byte	0x4
 1068 0276 00       		.byte	0
 1069 0277 03       		.uleb128 0x3
 1070 0278 08000000 		.4byte	.LASF49
 1071 027c 06       		.byte	0x6
 1072 027d 52       		.byte	0x52
 1073 027e 82020000 		.4byte	0x282
 1074 0282 0A       		.uleb128 0xa
 1075 0283 FD010000 		.4byte	.LASF50
 1076 0287 1C       		.byte	0x1c
 1077 0288 07       		.byte	0x7
 1078 0289 7201     		.2byte	0x172
 1079 028b DE020000 		.4byte	0x2de
 1080 028f 09       		.uleb128 0x9
ARM GAS  /tmp/cc03LCvb.s 			page 20


 1081 0290 CD030000 		.4byte	.LASF51
 1082 0294 07       		.byte	0x7
 1083 0295 7301     		.2byte	0x173
 1084 0297 47020000 		.4byte	0x247
 1085 029b 00       		.byte	0
 1086 029c 09       		.uleb128 0x9
 1087 029d 6D030000 		.4byte	.LASF52
 1088 02a1 07       		.byte	0x7
 1089 02a2 7401     		.2byte	0x174
 1090 02a4 FF000000 		.4byte	0xff
 1091 02a8 08       		.byte	0x8
 1092 02a9 09       		.uleb128 0x9
 1093 02aa A9020000 		.4byte	.LASF53
 1094 02ae 07       		.byte	0x7
 1095 02af 7601     		.2byte	0x176
 1096 02b1 4D040000 		.4byte	0x44d
 1097 02b5 0C       		.byte	0xc
 1098 02b6 09       		.uleb128 0x9
 1099 02b7 3B010000 		.4byte	.LASF54
 1100 02bb 07       		.byte	0x7
 1101 02bc 7901     		.2byte	0x179
 1102 02be 07050000 		.4byte	0x507
 1103 02c2 10       		.byte	0x10
 1104 02c3 09       		.uleb128 0x9
 1105 02c4 CA020000 		.4byte	.LASF55
 1106 02c8 07       		.byte	0x7
 1107 02c9 7A01     		.2byte	0x17a
 1108 02cb 07050000 		.4byte	0x507
 1109 02cf 14       		.byte	0x14
 1110 02d0 09       		.uleb128 0x9
 1111 02d1 C0020000 		.4byte	.LASF56
 1112 02d5 07       		.byte	0x7
 1113 02d6 7D01     		.2byte	0x17d
 1114 02d8 07050000 		.4byte	0x507
 1115 02dc 18       		.byte	0x18
 1116 02dd 00       		.byte	0
 1117 02de 03       		.uleb128 0x3
 1118 02df 07050000 		.4byte	.LASF57
 1119 02e3 06       		.byte	0x6
 1120 02e4 57       		.byte	0x57
 1121 02e5 E9020000 		.4byte	0x2e9
 1122 02e9 0B       		.uleb128 0xb
 1123 02ea 04       		.byte	0x4
 1124 02eb EF020000 		.4byte	0x2ef
 1125 02ef 0C       		.uleb128 0xc
 1126 02f0 FA020000 		.4byte	0x2fa
 1127 02f4 0D       		.uleb128 0xd
 1128 02f5 FA020000 		.4byte	0x2fa
 1129 02f9 00       		.byte	0
 1130 02fa 0E       		.uleb128 0xe
 1131 02fb 04       		.byte	0x4
 1132 02fc 03       		.uleb128 0x3
 1133 02fd EA020000 		.4byte	.LASF58
 1134 0301 06       		.byte	0x6
 1135 0302 5C       		.byte	0x5c
 1136 0303 07030000 		.4byte	0x307
 1137 0307 0A       		.uleb128 0xa
ARM GAS  /tmp/cc03LCvb.s 			page 21


 1138 0308 A8030000 		.4byte	.LASF59
 1139 030c 14       		.byte	0x14
 1140 030d 07       		.byte	0x7
 1141 030e 4D01     		.2byte	0x14d
 1142 0310 56030000 		.4byte	0x356
 1143 0314 09       		.uleb128 0x9
 1144 0315 A9010000 		.4byte	.LASF60
 1145 0319 07       		.byte	0x7
 1146 031a 4E01     		.2byte	0x14e
 1147 031c 8E050000 		.4byte	0x58e
 1148 0320 00       		.byte	0
 1149 0321 09       		.uleb128 0x9
 1150 0322 4C010000 		.4byte	.LASF61
 1151 0326 07       		.byte	0x7
 1152 0327 4F01     		.2byte	0x14f
 1153 0329 8E050000 		.4byte	0x58e
 1154 032d 04       		.byte	0x4
 1155 032e 09       		.uleb128 0x9
 1156 032f D5030000 		.4byte	.LASF62
 1157 0333 07       		.byte	0x7
 1158 0334 5001     		.2byte	0x150
 1159 0336 20010000 		.4byte	0x120
 1160 033a 08       		.byte	0x8
 1161 033b 09       		.uleb128 0x9
 1162 033c 34060000 		.4byte	.LASF63
 1163 0340 07       		.byte	0x7
 1164 0341 5101     		.2byte	0x151
 1165 0343 DE020000 		.4byte	0x2de
 1166 0347 0C       		.byte	0xc
 1167 0348 09       		.uleb128 0x9
 1168 0349 AC050000 		.4byte	.LASF64
 1169 034d 07       		.byte	0x7
 1170 034e 5301     		.2byte	0x153
 1171 0350 FA020000 		.4byte	0x2fa
 1172 0354 10       		.byte	0x10
 1173 0355 00       		.byte	0
 1174 0356 03       		.uleb128 0x3
 1175 0357 89000000 		.4byte	.LASF65
 1176 035b 06       		.byte	0x6
 1177 035c 61       		.byte	0x61
 1178 035d 61030000 		.4byte	0x361
 1179 0361 0A       		.uleb128 0xa
 1180 0362 57020000 		.4byte	.LASF66
 1181 0366 10       		.byte	0x10
 1182 0367 07       		.byte	0x7
 1183 0368 5D01     		.2byte	0x15d
 1184 036a A3030000 		.4byte	0x3a3
 1185 036e 09       		.uleb128 0x9
 1186 036f A9010000 		.4byte	.LASF60
 1187 0373 07       		.byte	0x7
 1188 0374 5E01     		.2byte	0x15e
 1189 0376 8E050000 		.4byte	0x58e
 1190 037a 00       		.byte	0
 1191 037b 09       		.uleb128 0x9
 1192 037c 4C010000 		.4byte	.LASF61
 1193 0380 07       		.byte	0x7
 1194 0381 6001     		.2byte	0x160
ARM GAS  /tmp/cc03LCvb.s 			page 22


 1195 0383 8E050000 		.4byte	0x58e
 1196 0387 04       		.byte	0x4
 1197 0388 09       		.uleb128 0x9
 1198 0389 D5030000 		.4byte	.LASF62
 1199 038d 07       		.byte	0x7
 1200 038e 6201     		.2byte	0x162
 1201 0390 20010000 		.4byte	0x120
 1202 0394 08       		.byte	0x8
 1203 0395 09       		.uleb128 0x9
 1204 0396 95020000 		.4byte	.LASF67
 1205 039a 07       		.byte	0x7
 1206 039b 6A01     		.2byte	0x16a
 1207 039d 20010000 		.4byte	0x120
 1208 03a1 0C       		.byte	0xc
 1209 03a2 00       		.byte	0
 1210 03a3 03       		.uleb128 0x3
 1211 03a4 43000000 		.4byte	.LASF68
 1212 03a8 06       		.byte	0x6
 1213 03a9 66       		.byte	0x66
 1214 03aa AE030000 		.4byte	0x3ae
 1215 03ae 0A       		.uleb128 0xa
 1216 03af 1D030000 		.4byte	.LASF69
 1217 03b3 04       		.byte	0x4
 1218 03b4 07       		.byte	0x7
 1219 03b5 8401     		.2byte	0x184
 1220 03b7 C9030000 		.4byte	0x3c9
 1221 03bb 09       		.uleb128 0x9
 1222 03bc 1B050000 		.4byte	.LASF70
 1223 03c0 07       		.byte	0x7
 1224 03c1 8C01     		.2byte	0x18c
 1225 03c3 94050000 		.4byte	0x594
 1226 03c7 00       		.byte	0
 1227 03c8 00       		.byte	0
 1228 03c9 03       		.uleb128 0x3
 1229 03ca 5A050000 		.4byte	.LASF71
 1230 03ce 06       		.byte	0x6
 1231 03cf 6B       		.byte	0x6b
 1232 03d0 D4030000 		.4byte	0x3d4
 1233 03d4 0F       		.uleb128 0xf
 1234 03d5 FF000000 		.4byte	.LASF72
 1235 03d9 5001     		.2byte	0x150
 1236 03db 07       		.byte	0x7
 1237 03dc A401     		.2byte	0x1a4
 1238 03de 30040000 		.4byte	0x430
 1239 03e2 09       		.uleb128 0x9
 1240 03e3 D1050000 		.4byte	.LASF73
 1241 03e7 07       		.byte	0x7
 1242 03e8 A801     		.2byte	0x1a8
 1243 03ea 77020000 		.4byte	0x277
 1244 03ee 00       		.byte	0
 1245 03ef 09       		.uleb128 0x9
 1246 03f0 54010000 		.4byte	.LASF74
 1247 03f4 07       		.byte	0x7
 1248 03f5 AC01     		.2byte	0x1ac
 1249 03f7 56030000 		.4byte	0x356
 1250 03fb 1C       		.byte	0x1c
 1251 03fc 08       		.uleb128 0x8
ARM GAS  /tmp/cc03LCvb.s 			page 23


 1252 03fd 64626700 		.ascii	"dbg\000"
 1253 0401 07       		.byte	0x7
 1254 0402 B001     		.2byte	0x1b0
 1255 0404 A3030000 		.4byte	0x3a3
 1256 0408 2C       		.byte	0x2c
 1257 0409 09       		.uleb128 0x9
 1258 040a 7E000000 		.4byte	.LASF75
 1259 040e 07       		.byte	0x7
 1260 040f B401     		.2byte	0x1b4
 1261 0411 2B010000 		.4byte	0x12b
 1262 0415 30       		.byte	0x30
 1263 0416 08       		.uleb128 0x8
 1264 0417 746D00   		.ascii	"tm\000"
 1265 041a 07       		.byte	0x7
 1266 041b B901     		.2byte	0x1b9
 1267 041d FC040000 		.4byte	0x4fc
 1268 0421 74       		.byte	0x74
 1269 0422 09       		.uleb128 0x9
 1270 0423 8D010000 		.4byte	.LASF76
 1271 0427 07       		.byte	0x7
 1272 0428 C501     		.2byte	0x1c5
 1273 042a 99050000 		.4byte	0x599
 1274 042e 78       		.byte	0x78
 1275 042f 00       		.byte	0
 1276 0430 04       		.uleb128 0x4
 1277 0431 04       		.byte	0x4
 1278 0432 07       		.byte	0x7
 1279 0433 4E020000 		.4byte	.LASF77
 1280 0437 03       		.uleb128 0x3
 1281 0438 43010000 		.4byte	.LASF78
 1282 043c 08       		.byte	0x8
 1283 043d 85       		.byte	0x85
 1284 043e FA020000 		.4byte	0x2fa
 1285 0442 03       		.uleb128 0x3
 1286 0443 26020000 		.4byte	.LASF79
 1287 0447 08       		.byte	0x8
 1288 0448 8D       		.byte	0x8d
 1289 0449 C3000000 		.4byte	0xc3
 1290 044d 06       		.uleb128 0x6
 1291 044e 52050000 		.4byte	.LASF80
 1292 0452 04       		.byte	0x4
 1293 0453 08       		.byte	0x8
 1294 0454 A9       		.byte	0xa9
 1295 0455 66040000 		.4byte	0x466
 1296 0459 10       		.uleb128 0x10
 1297 045a 72313300 		.ascii	"r13\000"
 1298 045e 08       		.byte	0x8
 1299 045f AA       		.byte	0xaa
 1300 0460 E1040000 		.4byte	0x4e1
 1301 0464 00       		.byte	0
 1302 0465 00       		.byte	0
 1303 0466 06       		.uleb128 0x6
 1304 0467 2F000000 		.4byte	.LASF81
 1305 046b 24       		.byte	0x24
 1306 046c 09       		.byte	0x9
 1307 046d F4       		.byte	0xf4
 1308 046e E1040000 		.4byte	0x4e1
ARM GAS  /tmp/cc03LCvb.s 			page 24


 1309 0472 08       		.uleb128 0x8
 1310 0473 723400   		.ascii	"r4\000"
 1311 0476 09       		.byte	0x9
 1312 0477 0701     		.2byte	0x107
 1313 0479 37040000 		.4byte	0x437
 1314 047d 00       		.byte	0
 1315 047e 08       		.uleb128 0x8
 1316 047f 723500   		.ascii	"r5\000"
 1317 0482 09       		.byte	0x9
 1318 0483 0801     		.2byte	0x108
 1319 0485 37040000 		.4byte	0x437
 1320 0489 04       		.byte	0x4
 1321 048a 08       		.uleb128 0x8
 1322 048b 723600   		.ascii	"r6\000"
 1323 048e 09       		.byte	0x9
 1324 048f 0901     		.2byte	0x109
 1325 0491 37040000 		.4byte	0x437
 1326 0495 08       		.byte	0x8
 1327 0496 08       		.uleb128 0x8
 1328 0497 723700   		.ascii	"r7\000"
 1329 049a 09       		.byte	0x9
 1330 049b 0A01     		.2byte	0x10a
 1331 049d 37040000 		.4byte	0x437
 1332 04a1 0C       		.byte	0xc
 1333 04a2 08       		.uleb128 0x8
 1334 04a3 723800   		.ascii	"r8\000"
 1335 04a6 09       		.byte	0x9
 1336 04a7 0B01     		.2byte	0x10b
 1337 04a9 37040000 		.4byte	0x437
 1338 04ad 10       		.byte	0x10
 1339 04ae 08       		.uleb128 0x8
 1340 04af 723900   		.ascii	"r9\000"
 1341 04b2 09       		.byte	0x9
 1342 04b3 0C01     		.2byte	0x10c
 1343 04b5 37040000 		.4byte	0x437
 1344 04b9 14       		.byte	0x14
 1345 04ba 08       		.uleb128 0x8
 1346 04bb 72313000 		.ascii	"r10\000"
 1347 04bf 09       		.byte	0x9
 1348 04c0 0D01     		.2byte	0x10d
 1349 04c2 37040000 		.4byte	0x437
 1350 04c6 18       		.byte	0x18
 1351 04c7 08       		.uleb128 0x8
 1352 04c8 72313100 		.ascii	"r11\000"
 1353 04cc 09       		.byte	0x9
 1354 04cd 0E01     		.2byte	0x10e
 1355 04cf 37040000 		.4byte	0x437
 1356 04d3 1C       		.byte	0x1c
 1357 04d4 08       		.uleb128 0x8
 1358 04d5 6C7200   		.ascii	"lr\000"
 1359 04d8 09       		.byte	0x9
 1360 04d9 0F01     		.2byte	0x10f
 1361 04db 37040000 		.4byte	0x437
 1362 04df 20       		.byte	0x20
 1363 04e0 00       		.byte	0
 1364 04e1 0B       		.uleb128 0xb
 1365 04e2 04       		.byte	0x4
ARM GAS  /tmp/cc03LCvb.s 			page 25


 1366 04e3 66040000 		.4byte	0x466
 1367 04e7 11       		.uleb128 0x11
 1368 04e8 04       		.byte	0x4
 1369 04e9 0A       		.byte	0xa
 1370 04ea 38       		.byte	0x38
 1371 04eb FC040000 		.4byte	0x4fc
 1372 04ef 07       		.uleb128 0x7
 1373 04f0 25050000 		.4byte	.LASF82
 1374 04f4 0A       		.byte	0xa
 1375 04f5 3C       		.byte	0x3c
 1376 04f6 D3000000 		.4byte	0xd3
 1377 04fa 00       		.byte	0
 1378 04fb 00       		.byte	0
 1379 04fc 03       		.uleb128 0x3
 1380 04fd AF020000 		.4byte	.LASF83
 1381 0501 0A       		.byte	0xa
 1382 0502 3D       		.byte	0x3d
 1383 0503 E7040000 		.4byte	0x4e7
 1384 0507 0B       		.uleb128 0xb
 1385 0508 04       		.byte	0x4
 1386 0509 2B010000 		.4byte	0x12b
 1387 050d 12       		.uleb128 0x12
 1388 050e 04       		.byte	0x4
 1389 050f 07       		.byte	0x7
 1390 0510 F6       		.byte	0xf6
 1391 0511 45050000 		.4byte	0x545
 1392 0515 13       		.uleb128 0x13
 1393 0516 C3050000 		.4byte	.LASF84
 1394 051a 07       		.byte	0x7
 1395 051b FD       		.byte	0xfd
 1396 051c 0A010000 		.4byte	0x10a
 1397 0520 14       		.uleb128 0x14
 1398 0521 75000000 		.4byte	.LASF85
 1399 0525 07       		.byte	0x7
 1400 0526 0401     		.2byte	0x104
 1401 0528 0A010000 		.4byte	0x10a
 1402 052c 14       		.uleb128 0x14
 1403 052d E9050000 		.4byte	.LASF86
 1404 0531 07       		.byte	0x7
 1405 0532 0B01     		.2byte	0x10b
 1406 0534 FA020000 		.4byte	0x2fa
 1407 0538 14       		.uleb128 0x14
 1408 0539 74030000 		.4byte	.LASF87
 1409 053d 07       		.byte	0x7
 1410 053e 1201     		.2byte	0x112
 1411 0540 15010000 		.4byte	0x115
 1412 0544 00       		.byte	0
 1413 0545 0B       		.uleb128 0xb
 1414 0546 04       		.byte	0x4
 1415 0547 4B050000 		.4byte	0x54b
 1416 054b 15       		.uleb128 0x15
 1417 054c 50050000 		.4byte	0x550
 1418 0550 04       		.uleb128 0x4
 1419 0551 01       		.byte	0x1
 1420 0552 08       		.byte	0x8
 1421 0553 F9030000 		.4byte	.LASF88
 1422 0557 06       		.uleb128 0x6
ARM GAS  /tmp/cc03LCvb.s 			page 26


 1423 0558 87010000 		.4byte	.LASF89
 1424 055c 10       		.byte	0x10
 1425 055d 0B       		.byte	0xb
 1426 055e 39       		.byte	0x39
 1427 055f 88050000 		.4byte	0x588
 1428 0563 07       		.uleb128 0x7
 1429 0564 49030000 		.4byte	.LASF90
 1430 0568 0B       		.byte	0xb
 1431 0569 3A       		.byte	0x3a
 1432 056a 47020000 		.4byte	0x247
 1433 056e 00       		.byte	0
 1434 056f 07       		.uleb128 0x7
 1435 0570 26060000 		.4byte	.LASF91
 1436 0574 0B       		.byte	0xb
 1437 0575 3C       		.byte	0x3c
 1438 0576 07050000 		.4byte	0x507
 1439 057a 08       		.byte	0x8
 1440 057b 07       		.uleb128 0x7
 1441 057c EB040000 		.4byte	.LASF92
 1442 0580 0B       		.byte	0xb
 1443 0581 3E       		.byte	0x3e
 1444 0582 C9050000 		.4byte	0x5c9
 1445 0586 0C       		.byte	0xc
 1446 0587 00       		.byte	0
 1447 0588 0B       		.uleb128 0xb
 1448 0589 04       		.byte	0x4
 1449 058a 57050000 		.4byte	0x557
 1450 058e 0B       		.uleb128 0xb
 1451 058f 04       		.byte	0x4
 1452 0590 FC020000 		.4byte	0x2fc
 1453 0594 05       		.uleb128 0x5
 1454 0595 45050000 		.4byte	0x545
 1455 0599 16       		.uleb128 0x16
 1456 059a 42040000 		.4byte	0x442
 1457 059e A9050000 		.4byte	0x5a9
 1458 05a2 17       		.uleb128 0x17
 1459 05a3 30040000 		.4byte	0x430
 1460 05a7 1A       		.byte	0x1a
 1461 05a8 00       		.byte	0
 1462 05a9 0B       		.uleb128 0xb
 1463 05aa 04       		.byte	0x4
 1464 05ab AF050000 		.4byte	0x5af
 1465 05af 18       		.uleb128 0x18
 1466 05b0 0A010000 		.4byte	0x10a
 1467 05b4 BE050000 		.4byte	0x5be
 1468 05b8 0D       		.uleb128 0xd
 1469 05b9 FA020000 		.4byte	0x2fa
 1470 05bd 00       		.byte	0
 1471 05be 03       		.uleb128 0x3
 1472 05bf 6A010000 		.4byte	.LASF93
 1473 05c3 0B       		.byte	0xb
 1474 05c4 34       		.byte	0x34
 1475 05c5 57050000 		.4byte	0x557
 1476 05c9 0B       		.uleb128 0xb
 1477 05ca 04       		.byte	0x4
 1478 05cb BE050000 		.4byte	0x5be
 1479 05cf 0B       		.uleb128 0xb
ARM GAS  /tmp/cc03LCvb.s 			page 27


 1480 05d0 04       		.byte	0x4
 1481 05d1 A2000000 		.4byte	0xa2
 1482 05d5 06       		.uleb128 0x6
 1483 05d6 82030000 		.4byte	.LASF94
 1484 05da 10       		.byte	0x10
 1485 05db 0C       		.byte	0xc
 1486 05dc 40       		.byte	0x40
 1487 05dd 12060000 		.4byte	0x612
 1488 05e1 07       		.uleb128 0x7
 1489 05e2 3E020000 		.4byte	.LASF95
 1490 05e6 0C       		.byte	0xc
 1491 05e7 41       		.byte	0x41
 1492 05e8 36060000 		.4byte	0x636
 1493 05ec 00       		.byte	0
 1494 05ed 07       		.uleb128 0x7
 1495 05ee F0010000 		.4byte	.LASF96
 1496 05f2 0C       		.byte	0xc
 1497 05f3 41       		.byte	0x41
 1498 05f4 55060000 		.4byte	0x655
 1499 05f8 04       		.byte	0x4
 1500 05f9 10       		.uleb128 0x10
 1501 05fa 70757400 		.ascii	"put\000"
 1502 05fe 0C       		.byte	0xc
 1503 05ff 41       		.byte	0x41
 1504 0600 6F060000 		.4byte	0x66f
 1505 0604 08       		.byte	0x8
 1506 0605 10       		.uleb128 0x10
 1507 0606 67657400 		.ascii	"get\000"
 1508 060a 0C       		.byte	0xc
 1509 060b 41       		.byte	0x41
 1510 060c A9050000 		.4byte	0x5a9
 1511 0610 0C       		.byte	0xc
 1512 0611 00       		.byte	0
 1513 0612 18       		.uleb128 0x18
 1514 0613 2C000000 		.4byte	0x2c
 1515 0617 2B060000 		.4byte	0x62b
 1516 061b 0D       		.uleb128 0xd
 1517 061c FA020000 		.4byte	0x2fa
 1518 0620 0D       		.uleb128 0xd
 1519 0621 2B060000 		.4byte	0x62b
 1520 0625 0D       		.uleb128 0xd
 1521 0626 2C000000 		.4byte	0x2c
 1522 062a 00       		.byte	0
 1523 062b 0B       		.uleb128 0xb
 1524 062c 04       		.byte	0x4
 1525 062d 31060000 		.4byte	0x631
 1526 0631 15       		.uleb128 0x15
 1527 0632 A2000000 		.4byte	0xa2
 1528 0636 0B       		.uleb128 0xb
 1529 0637 04       		.byte	0x4
 1530 0638 12060000 		.4byte	0x612
 1531 063c 18       		.uleb128 0x18
 1532 063d 2C000000 		.4byte	0x2c
 1533 0641 55060000 		.4byte	0x655
 1534 0645 0D       		.uleb128 0xd
 1535 0646 FA020000 		.4byte	0x2fa
 1536 064a 0D       		.uleb128 0xd
ARM GAS  /tmp/cc03LCvb.s 			page 28


 1537 064b CF050000 		.4byte	0x5cf
 1538 064f 0D       		.uleb128 0xd
 1539 0650 2C000000 		.4byte	0x2c
 1540 0654 00       		.byte	0
 1541 0655 0B       		.uleb128 0xb
 1542 0656 04       		.byte	0x4
 1543 0657 3C060000 		.4byte	0x63c
 1544 065b 18       		.uleb128 0x18
 1545 065c 0A010000 		.4byte	0x10a
 1546 0660 6F060000 		.4byte	0x66f
 1547 0664 0D       		.uleb128 0xd
 1548 0665 FA020000 		.4byte	0x2fa
 1549 0669 0D       		.uleb128 0xd
 1550 066a A2000000 		.4byte	0xa2
 1551 066e 00       		.byte	0
 1552 066f 0B       		.uleb128 0xb
 1553 0670 04       		.byte	0x4
 1554 0671 5B060000 		.4byte	0x65b
 1555 0675 11       		.uleb128 0x11
 1556 0676 04       		.byte	0x4
 1557 0677 0C       		.byte	0xc
 1558 0678 49       		.byte	0x49
 1559 0679 8A060000 		.4byte	0x68a
 1560 067d 10       		.uleb128 0x10
 1561 067e 766D7400 		.ascii	"vmt\000"
 1562 0682 0C       		.byte	0xc
 1563 0683 4B       		.byte	0x4b
 1564 0684 8A060000 		.4byte	0x68a
 1565 0688 00       		.byte	0
 1566 0689 00       		.byte	0
 1567 068a 0B       		.uleb128 0xb
 1568 068b 04       		.byte	0x4
 1569 068c 90060000 		.4byte	0x690
 1570 0690 15       		.uleb128 0x15
 1571 0691 D5050000 		.4byte	0x5d5
 1572 0695 03       		.uleb128 0x3
 1573 0696 72010000 		.4byte	.LASF97
 1574 069a 0C       		.byte	0xc
 1575 069b 4D       		.byte	0x4d
 1576 069c 75060000 		.4byte	0x675
 1577 06a0 03       		.uleb128 0x3
 1578 06a1 86020000 		.4byte	.LASF98
 1579 06a5 0D       		.byte	0xd
 1580 06a6 28       		.byte	0x28
 1581 06a7 AB060000 		.4byte	0x6ab
 1582 06ab 06       		.uleb128 0x6
 1583 06ac 1B010000 		.4byte	.LASF99
 1584 06b0 04       		.byte	0x4
 1585 06b1 0E       		.byte	0xe
 1586 06b2 00       		.byte	0
 1587 06b3 C2060000 		.4byte	0x6c2
 1588 06b7 19       		.uleb128 0x19
 1589 06b8 4D050000 		.4byte	.LASF100
 1590 06bc FA020000 		.4byte	0x2fa
 1591 06c0 00       		.byte	0
 1592 06c1 00       		.byte	0
 1593 06c2 03       		.uleb128 0x3
ARM GAS  /tmp/cc03LCvb.s 			page 29


 1594 06c3 3B000000 		.4byte	.LASF101
 1595 06c7 0D       		.byte	0xd
 1596 06c8 62       		.byte	0x62
 1597 06c9 A0060000 		.4byte	0x6a0
 1598 06cd 06       		.uleb128 0x6
 1599 06ce D2020000 		.4byte	.LASF102
 1600 06d2 10       		.byte	0x10
 1601 06d3 0F       		.byte	0xf
 1602 06d4 3D       		.byte	0x3d
 1603 06d5 0A070000 		.4byte	0x70a
 1604 06d9 07       		.uleb128 0x7
 1605 06da 3E020000 		.4byte	.LASF95
 1606 06de 0F       		.byte	0xf
 1607 06df 3E       		.byte	0x3e
 1608 06e0 36060000 		.4byte	0x636
 1609 06e4 00       		.byte	0
 1610 06e5 07       		.uleb128 0x7
 1611 06e6 F0010000 		.4byte	.LASF96
 1612 06ea 0F       		.byte	0xf
 1613 06eb 3E       		.byte	0x3e
 1614 06ec 55060000 		.4byte	0x655
 1615 06f0 04       		.byte	0x4
 1616 06f1 10       		.uleb128 0x10
 1617 06f2 70757400 		.ascii	"put\000"
 1618 06f6 0F       		.byte	0xf
 1619 06f7 3E       		.byte	0x3e
 1620 06f8 6F060000 		.4byte	0x66f
 1621 06fc 08       		.byte	0x8
 1622 06fd 10       		.uleb128 0x10
 1623 06fe 67657400 		.ascii	"get\000"
 1624 0702 0F       		.byte	0xf
 1625 0703 3E       		.byte	0x3e
 1626 0704 A9050000 		.4byte	0x5a9
 1627 0708 0C       		.byte	0xc
 1628 0709 00       		.byte	0
 1629 070a 11       		.uleb128 0x11
 1630 070b 14       		.byte	0x14
 1631 070c 0F       		.byte	0xf
 1632 070d 46       		.byte	0x46
 1633 070e 4F070000 		.4byte	0x74f
 1634 0712 10       		.uleb128 0x10
 1635 0713 766D7400 		.ascii	"vmt\000"
 1636 0717 0F       		.byte	0xf
 1637 0718 48       		.byte	0x48
 1638 0719 4F070000 		.4byte	0x74f
 1639 071d 00       		.byte	0
 1640 071e 07       		.uleb128 0x7
 1641 071f 2C010000 		.4byte	.LASF103
 1642 0723 0F       		.byte	0xf
 1643 0724 49       		.byte	0x49
 1644 0725 CF050000 		.4byte	0x5cf
 1645 0729 04       		.byte	0x4
 1646 072a 07       		.uleb128 0x7
 1647 072b 0C060000 		.4byte	.LASF104
 1648 072f 0F       		.byte	0xf
 1649 0730 49       		.byte	0x49
 1650 0731 2C000000 		.4byte	0x2c
ARM GAS  /tmp/cc03LCvb.s 			page 30


 1651 0735 08       		.byte	0x8
 1652 0736 10       		.uleb128 0x10
 1653 0737 656F7300 		.ascii	"eos\000"
 1654 073b 0F       		.byte	0xf
 1655 073c 49       		.byte	0x49
 1656 073d 2C000000 		.4byte	0x2c
 1657 0741 0C       		.byte	0xc
 1658 0742 07       		.uleb128 0x7
 1659 0743 25050000 		.4byte	.LASF82
 1660 0747 0F       		.byte	0xf
 1661 0748 49       		.byte	0x49
 1662 0749 2C000000 		.4byte	0x2c
 1663 074d 10       		.byte	0x10
 1664 074e 00       		.byte	0
 1665 074f 0B       		.uleb128 0xb
 1666 0750 04       		.byte	0x4
 1667 0751 55070000 		.4byte	0x755
 1668 0755 15       		.uleb128 0x15
 1669 0756 CD060000 		.4byte	0x6cd
 1670 075a 03       		.uleb128 0x3
 1671 075b 09030000 		.4byte	.LASF105
 1672 075f 0F       		.byte	0xf
 1673 0760 4A       		.byte	0x4a
 1674 0761 0A070000 		.4byte	0x70a
 1675 0765 1A       		.uleb128 0x1a
 1676 0766 21020000 		.4byte	.LASF107
 1677 076a 01       		.byte	0x1
 1678 076b 46       		.byte	0x46
 1679 076c 95070000 		.4byte	0x795
 1680 0770 01       		.byte	0x1
 1681 0771 95070000 		.4byte	0x795
 1682 0775 1B       		.uleb128 0x1b
 1683 0776 7000     		.ascii	"p\000"
 1684 0778 01       		.byte	0x1
 1685 0779 46       		.byte	0x46
 1686 077a 95070000 		.4byte	0x795
 1687 077e 1B       		.uleb128 0x1b
 1688 077f 6E756D00 		.ascii	"num\000"
 1689 0783 01       		.byte	0x1
 1690 0784 46       		.byte	0x46
 1691 0785 70000000 		.4byte	0x70
 1692 0789 1C       		.uleb128 0x1c
 1693 078a A2030000 		.4byte	.LASF106
 1694 078e 01       		.byte	0x1
 1695 078f 46       		.byte	0x46
 1696 0790 37000000 		.4byte	0x37
 1697 0794 00       		.byte	0
 1698 0795 0B       		.uleb128 0xb
 1699 0796 04       		.byte	0x4
 1700 0797 50050000 		.4byte	0x550
 1701 079b 1A       		.uleb128 0x1a
 1702 079c F0050000 		.4byte	.LASF108
 1703 07a0 01       		.byte	0x1
 1704 07a1 25       		.byte	0x25
 1705 07a2 95070000 		.4byte	0x795
 1706 07a6 01       		.byte	0x1
 1707 07a7 FB070000 		.4byte	0x7fb
ARM GAS  /tmp/cc03LCvb.s 			page 31


 1708 07ab 1B       		.uleb128 0x1b
 1709 07ac 7000     		.ascii	"p\000"
 1710 07ae 01       		.byte	0x1
 1711 07af 25       		.byte	0x25
 1712 07b0 95070000 		.4byte	0x795
 1713 07b4 1B       		.uleb128 0x1b
 1714 07b5 6E756D00 		.ascii	"num\000"
 1715 07b9 01       		.byte	0x1
 1716 07ba 26       		.byte	0x26
 1717 07bb 70000000 		.4byte	0x70
 1718 07bf 1C       		.uleb128 0x1c
 1719 07c0 A2030000 		.4byte	.LASF106
 1720 07c4 01       		.byte	0x1
 1721 07c5 27       		.byte	0x27
 1722 07c6 37000000 		.4byte	0x37
 1723 07ca 1C       		.uleb128 0x1c
 1724 07cb 7E020000 		.4byte	.LASF109
 1725 07cf 01       		.byte	0x1
 1726 07d0 28       		.byte	0x28
 1727 07d1 70000000 		.4byte	0x70
 1728 07d5 1D       		.uleb128 0x1d
 1729 07d6 6900     		.ascii	"i\000"
 1730 07d8 01       		.byte	0x1
 1731 07d9 29       		.byte	0x29
 1732 07da 25000000 		.4byte	0x25
 1733 07de 1D       		.uleb128 0x1d
 1734 07df 7100     		.ascii	"q\000"
 1735 07e1 01       		.byte	0x1
 1736 07e2 2A       		.byte	0x2a
 1737 07e3 95070000 		.4byte	0x795
 1738 07e7 1D       		.uleb128 0x1d
 1739 07e8 6C00     		.ascii	"l\000"
 1740 07ea 01       		.byte	0x1
 1741 07eb 2B       		.byte	0x2b
 1742 07ec 70000000 		.4byte	0x70
 1743 07f0 1D       		.uleb128 0x1d
 1744 07f1 6C6C00   		.ascii	"ll\000"
 1745 07f4 01       		.byte	0x1
 1746 07f5 2B       		.byte	0x2b
 1747 07f6 70000000 		.4byte	0x70
 1748 07fa 00       		.byte	0
 1749 07fb 1E       		.uleb128 0x1e
 1750 07fc 9B070000 		.4byte	0x79b
 1751 0800 00000000 		.4byte	.LFB231
 1752 0804 4A000000 		.4byte	.LFE231-.LFB231
 1753 0808 01       		.uleb128 0x1
 1754 0809 9C       		.byte	0x9c
 1755 080a 54080000 		.4byte	0x854
 1756 080e 1F       		.uleb128 0x1f
 1757 080f AB070000 		.4byte	0x7ab
 1758 0813 00000000 		.4byte	.LLST0
 1759 0817 1F       		.uleb128 0x1f
 1760 0818 B4070000 		.4byte	0x7b4
 1761 081c 38000000 		.4byte	.LLST1
 1762 0820 1F       		.uleb128 0x1f
 1763 0821 BF070000 		.4byte	0x7bf
 1764 0825 59000000 		.4byte	.LLST2
ARM GAS  /tmp/cc03LCvb.s 			page 32


 1765 0829 20       		.uleb128 0x20
 1766 082a D5070000 		.4byte	0x7d5
 1767 082e 7A000000 		.4byte	.LLST3
 1768 0832 20       		.uleb128 0x20
 1769 0833 DE070000 		.4byte	0x7de
 1770 0837 A8000000 		.4byte	.LLST4
 1771 083b 20       		.uleb128 0x20
 1772 083c E7070000 		.4byte	0x7e7
 1773 0840 DE000000 		.4byte	.LLST5
 1774 0844 20       		.uleb128 0x20
 1775 0845 F0070000 		.4byte	0x7f0
 1776 0849 FC000000 		.4byte	.LLST6
 1777 084d 21       		.uleb128 0x21
 1778 084e CA070000 		.4byte	0x7ca
 1779 0852 00       		.byte	0
 1780 0853 00       		.byte	0
 1781 0854 22       		.uleb128 0x22
 1782 0855 DF050000 		.4byte	.LASF117
 1783 0859 01       		.byte	0x1
 1784 085a 78       		.byte	0x78
 1785 085b 25000000 		.4byte	0x25
 1786 085f 00000000 		.4byte	.LFB229
 1787 0863 78020000 		.4byte	.LFE229-.LFB229
 1788 0867 01       		.uleb128 0x1
 1789 0868 9C       		.byte	0x9c
 1790 0869 FF090000 		.4byte	0x9ff
 1791 086d 23       		.uleb128 0x23
 1792 086e 63687000 		.ascii	"chp\000"
 1793 0872 01       		.byte	0x1
 1794 0873 78       		.byte	0x78
 1795 0874 FF090000 		.4byte	0x9ff
 1796 0878 25010000 		.4byte	.LLST7
 1797 087c 23       		.uleb128 0x23
 1798 087d 666D7400 		.ascii	"fmt\000"
 1799 0881 01       		.byte	0x1
 1800 0882 78       		.byte	0x78
 1801 0883 45050000 		.4byte	0x545
 1802 0887 43010000 		.4byte	.LLST8
 1803 088b 23       		.uleb128 0x23
 1804 088c 617000   		.ascii	"ap\000"
 1805 088f 01       		.byte	0x1
 1806 0890 78       		.byte	0x78
 1807 0891 C2060000 		.4byte	0x6c2
 1808 0895 D5010000 		.4byte	.LLST9
 1809 0899 24       		.uleb128 0x24
 1810 089a 7000     		.ascii	"p\000"
 1811 089c 01       		.byte	0x1
 1812 089d 79       		.byte	0x79
 1813 089e 95070000 		.4byte	0x795
 1814 08a2 DA020000 		.4byte	.LLST10
 1815 08a6 24       		.uleb128 0x24
 1816 08a7 7300     		.ascii	"s\000"
 1817 08a9 01       		.byte	0x1
 1818 08aa 79       		.byte	0x79
 1819 08ab 95070000 		.4byte	0x795
 1820 08af 71030000 		.4byte	.LLST11
 1821 08b3 24       		.uleb128 0x24
ARM GAS  /tmp/cc03LCvb.s 			page 33


 1822 08b4 6300     		.ascii	"c\000"
 1823 08b6 01       		.byte	0x1
 1824 08b7 79       		.byte	0x79
 1825 08b8 50050000 		.4byte	0x550
 1826 08bc 03040000 		.4byte	.LLST12
 1827 08c0 25       		.uleb128 0x25
 1828 08c1 5B010000 		.4byte	.LASF110
 1829 08c5 01       		.byte	0x1
 1830 08c6 79       		.byte	0x79
 1831 08c7 50050000 		.4byte	0x550
 1832 08cb 00050000 		.4byte	.LLST13
 1833 08cf 24       		.uleb128 0x24
 1834 08d0 6900     		.ascii	"i\000"
 1835 08d2 01       		.byte	0x1
 1836 08d3 7A       		.byte	0x7a
 1837 08d4 25000000 		.4byte	0x25
 1838 08d8 5D050000 		.4byte	.LLST14
 1839 08dc 25       		.uleb128 0x25
 1840 08dd FE030000 		.4byte	.LASF111
 1841 08e1 01       		.byte	0x1
 1842 08e2 7A       		.byte	0x7a
 1843 08e3 25000000 		.4byte	0x25
 1844 08e7 A0050000 		.4byte	.LLST15
 1845 08eb 25       		.uleb128 0x25
 1846 08ec C7010000 		.4byte	.LASF112
 1847 08f0 01       		.byte	0x1
 1848 08f1 7A       		.byte	0x7a
 1849 08f2 25000000 		.4byte	0x25
 1850 08f6 C3050000 		.4byte	.LLST16
 1851 08fa 24       		.uleb128 0x24
 1852 08fb 6E00     		.ascii	"n\000"
 1853 08fd 01       		.byte	0x1
 1854 08fe 7B       		.byte	0x7b
 1855 08ff 25000000 		.4byte	0x25
 1856 0903 54060000 		.4byte	.LLST17
 1857 0907 25       		.uleb128 0x25
 1858 0908 62010000 		.4byte	.LASF113
 1859 090c 01       		.byte	0x1
 1860 090d 7C       		.byte	0x7c
 1861 090e 050A0000 		.4byte	0xa05
 1862 0912 94060000 		.4byte	.LLST18
 1863 0916 25       		.uleb128 0x25
 1864 0917 BC010000 		.4byte	.LASF114
 1865 091b 01       		.byte	0x1
 1866 091c 7C       		.byte	0x7c
 1867 091d 050A0000 		.4byte	0xa05
 1868 0921 A8060000 		.4byte	.LLST19
 1869 0925 24       		.uleb128 0x24
 1870 0926 6C00     		.ascii	"l\000"
 1871 0928 01       		.byte	0x1
 1872 0929 7D       		.byte	0x7d
 1873 092a 70000000 		.4byte	0x70
 1874 092e DE060000 		.4byte	.LLST20
 1875 0932 26       		.uleb128 0x26
 1876 0933 F8000000 		.4byte	.LASF115
 1877 0937 01       		.byte	0x1
 1878 0938 82       		.byte	0x82
ARM GAS  /tmp/cc03LCvb.s 			page 34


 1879 0939 0C0A0000 		.4byte	0xa0c
 1880 093d 02       		.uleb128 0x2
 1881 093e 91       		.byte	0x91
 1882 093f 4C       		.sleb128 -52
 1883 0940 27       		.uleb128 0x27
 1884 0941 6E020000 		.4byte	.LASF125
 1885 0945 01       		.byte	0x1
 1886 0946 EE       		.byte	0xee
 1887 0947 18010000 		.4byte	.L29
 1888 094b 28       		.uleb128 0x28
 1889 094c 65070000 		.4byte	0x765
 1890 0950 1A010000 		.4byte	.LBB6
 1891 0954 00000000 		.4byte	.Ldebug_ranges0+0
 1892 0958 01       		.byte	0x1
 1893 0959 F3       		.byte	0xf3
 1894 095a 77090000 		.4byte	0x977
 1895 095e 29       		.uleb128 0x29
 1896 095f 89070000 		.4byte	0x789
 1897 0963 29       		.uleb128 0x29
 1898 0964 7E070000 		.4byte	0x77e
 1899 0968 29       		.uleb128 0x29
 1900 0969 75070000 		.4byte	0x775
 1901 096d 2A       		.uleb128 0x2a
 1902 096e 22010000 		.4byte	.LVL56
 1903 0972 FB070000 		.4byte	0x7fb
 1904 0976 00       		.byte	0
 1905 0977 2B       		.uleb128 0x2b
 1906 0978 65070000 		.4byte	0x765
 1907 097c 12020000 		.4byte	.LBB10
 1908 0980 06000000 		.4byte	.LBE10-.LBB10
 1909 0984 01       		.byte	0x1
 1910 0985 D7       		.byte	0xd7
 1911 0986 A6090000 		.4byte	0x9a6
 1912 098a 1F       		.uleb128 0x1f
 1913 098b 89070000 		.4byte	0x789
 1914 098f 07070000 		.4byte	.LLST21
 1915 0993 1F       		.uleb128 0x1f
 1916 0994 7E070000 		.4byte	0x77e
 1917 0998 1B070000 		.4byte	.LLST22
 1918 099c 1F       		.uleb128 0x1f
 1919 099d 75070000 		.4byte	0x775
 1920 09a1 2E070000 		.4byte	.LLST23
 1921 09a5 00       		.byte	0
 1922 09a6 2C       		.uleb128 0x2c
 1923 09a7 38000000 		.4byte	.LVL24
 1924 09ab B6090000 		.4byte	0x9b6
 1925 09af 2D       		.uleb128 0x2d
 1926 09b0 01       		.uleb128 0x1
 1927 09b1 50       		.byte	0x50
 1928 09b2 02       		.uleb128 0x2
 1929 09b3 7B       		.byte	0x7b
 1930 09b4 00       		.sleb128 0
 1931 09b5 00       		.byte	0
 1932 09b6 2C       		.uleb128 0x2c
 1933 09b7 58010000 		.4byte	.LVL63
 1934 09bb CC090000 		.4byte	0x9cc
 1935 09bf 2D       		.uleb128 0x2d
ARM GAS  /tmp/cc03LCvb.s 			page 35


 1936 09c0 01       		.uleb128 0x1
 1937 09c1 51       		.byte	0x51
 1938 09c2 02       		.uleb128 0x2
 1939 09c3 76       		.byte	0x76
 1940 09c4 00       		.sleb128 0
 1941 09c5 2D       		.uleb128 0x2d
 1942 09c6 01       		.uleb128 0x1
 1943 09c7 50       		.byte	0x50
 1944 09c8 02       		.uleb128 0x2
 1945 09c9 7B       		.byte	0x7b
 1946 09ca 00       		.sleb128 0
 1947 09cb 00       		.byte	0
 1948 09cc 2C       		.uleb128 0x2c
 1949 09cd 7E010000 		.4byte	.LVL68
 1950 09d1 DC090000 		.4byte	0x9dc
 1951 09d5 2D       		.uleb128 0x2d
 1952 09d6 01       		.uleb128 0x1
 1953 09d7 50       		.byte	0x50
 1954 09d8 02       		.uleb128 0x2
 1955 09d9 7B       		.byte	0x7b
 1956 09da 00       		.sleb128 0
 1957 09db 00       		.byte	0
 1958 09dc 2C       		.uleb128 0x2c
 1959 09dd 9E010000 		.4byte	.LVL71
 1960 09e1 F2090000 		.4byte	0x9f2
 1961 09e5 2D       		.uleb128 0x2d
 1962 09e6 01       		.uleb128 0x1
 1963 09e7 51       		.byte	0x51
 1964 09e8 02       		.uleb128 0x2
 1965 09e9 76       		.byte	0x76
 1966 09ea 00       		.sleb128 0
 1967 09eb 2D       		.uleb128 0x2d
 1968 09ec 01       		.uleb128 0x1
 1969 09ed 50       		.byte	0x50
 1970 09ee 02       		.uleb128 0x2
 1971 09ef 7B       		.byte	0x7b
 1972 09f0 00       		.sleb128 0
 1973 09f1 00       		.byte	0
 1974 09f2 2E       		.uleb128 0x2e
 1975 09f3 34020000 		.4byte	.LVL96
 1976 09f7 2D       		.uleb128 0x2d
 1977 09f8 01       		.uleb128 0x1
 1978 09f9 50       		.byte	0x50
 1979 09fa 02       		.uleb128 0x2
 1980 09fb 7B       		.byte	0x7b
 1981 09fc 00       		.sleb128 0
 1982 09fd 00       		.byte	0
 1983 09fe 00       		.byte	0
 1984 09ff 0B       		.uleb128 0xb
 1985 0a00 04       		.byte	0x4
 1986 0a01 95060000 		.4byte	0x695
 1987 0a05 04       		.uleb128 0x4
 1988 0a06 01       		.byte	0x1
 1989 0a07 02       		.byte	0x2
 1990 0a08 2D030000 		.4byte	.LASF116
 1991 0a0c 16       		.uleb128 0x16
 1992 0a0d 50050000 		.4byte	0x550
ARM GAS  /tmp/cc03LCvb.s 			page 36


 1993 0a11 1C0A0000 		.4byte	0xa1c
 1994 0a15 17       		.uleb128 0x17
 1995 0a16 30040000 		.4byte	0x430
 1996 0a1a 0B       		.byte	0xb
 1997 0a1b 00       		.byte	0
 1998 0a1c 2F       		.uleb128 0x2f
 1999 0a1d EE030000 		.4byte	.LASF118
 2000 0a21 01       		.byte	0x1
 2001 0a22 3201     		.2byte	0x132
 2002 0a24 25000000 		.4byte	0x25
 2003 0a28 00000000 		.4byte	.LFB230
 2004 0a2c 60000000 		.4byte	.LFE230-.LFB230
 2005 0a30 01       		.uleb128 0x1
 2006 0a31 9C       		.byte	0x9c
 2007 0a32 3A0B0000 		.4byte	0xb3a
 2008 0a36 30       		.uleb128 0x30
 2009 0a37 73747200 		.ascii	"str\000"
 2010 0a3b 01       		.byte	0x1
 2011 0a3c 3201     		.2byte	0x132
 2012 0a3e 95070000 		.4byte	0x795
 2013 0a42 41070000 		.4byte	.LLST24
 2014 0a46 31       		.uleb128 0x31
 2015 0a47 0C060000 		.4byte	.LASF104
 2016 0a4b 01       		.byte	0x1
 2017 0a4c 3201     		.2byte	0x132
 2018 0a4e 2C000000 		.4byte	0x2c
 2019 0a52 91070000 		.4byte	.LLST25
 2020 0a56 32       		.uleb128 0x32
 2021 0a57 666D7400 		.ascii	"fmt\000"
 2022 0a5b 01       		.byte	0x1
 2023 0a5c 3201     		.2byte	0x132
 2024 0a5e 45050000 		.4byte	0x545
 2025 0a62 02       		.uleb128 0x2
 2026 0a63 91       		.byte	0x91
 2027 0a64 78       		.sleb128 -8
 2028 0a65 33       		.uleb128 0x33
 2029 0a66 34       		.uleb128 0x34
 2030 0a67 617000   		.ascii	"ap\000"
 2031 0a6a 01       		.byte	0x1
 2032 0a6b 3301     		.2byte	0x133
 2033 0a6d C2060000 		.4byte	0x6c2
 2034 0a71 02       		.uleb128 0x2
 2035 0a72 91       		.byte	0x91
 2036 0a73 50       		.sleb128 -48
 2037 0a74 34       		.uleb128 0x34
 2038 0a75 6D7300   		.ascii	"ms\000"
 2039 0a78 01       		.byte	0x1
 2040 0a79 3401     		.2byte	0x134
 2041 0a7b 5A070000 		.4byte	0x75a
 2042 0a7f 02       		.uleb128 0x2
 2043 0a80 91       		.byte	0x91
 2044 0a81 54       		.sleb128 -44
 2045 0a82 35       		.uleb128 0x35
 2046 0a83 63687000 		.ascii	"chp\000"
 2047 0a87 01       		.byte	0x1
 2048 0a88 3501     		.2byte	0x135
 2049 0a8a FF090000 		.4byte	0x9ff
ARM GAS  /tmp/cc03LCvb.s 			page 37


 2050 0a8e E1070000 		.4byte	.LLST26
 2051 0a92 36       		.uleb128 0x36
 2052 0a93 52000000 		.4byte	.LASF119
 2053 0a97 01       		.byte	0x1
 2054 0a98 3601     		.2byte	0x136
 2055 0a9a 2C000000 		.4byte	0x2c
 2056 0a9e 33080000 		.4byte	.LLST27
 2057 0aa2 36       		.uleb128 0x36
 2058 0aa3 25010000 		.4byte	.LASF120
 2059 0aa7 01       		.byte	0x1
 2060 0aa8 3701     		.2byte	0x137
 2061 0aaa 25000000 		.4byte	0x25
 2062 0aae 89080000 		.4byte	.LLST28
 2063 0ab2 37       		.uleb128 0x37
 2064 0ab3 1A000000 		.4byte	.LVL109
 2065 0ab7 510B0000 		.4byte	0xb51
 2066 0abb D70A0000 		.4byte	0xad7
 2067 0abf 2D       		.uleb128 0x2d
 2068 0ac0 01       		.uleb128 0x1
 2069 0ac1 53       		.byte	0x53
 2070 0ac2 01       		.uleb128 0x1
 2071 0ac3 30       		.byte	0x30
 2072 0ac4 2D       		.uleb128 0x2d
 2073 0ac5 01       		.uleb128 0x1
 2074 0ac6 52       		.byte	0x52
 2075 0ac7 02       		.uleb128 0x2
 2076 0ac8 74       		.byte	0x74
 2077 0ac9 7F       		.sleb128 -1
 2078 0aca 2D       		.uleb128 0x2d
 2079 0acb 01       		.uleb128 0x1
 2080 0acc 51       		.byte	0x51
 2081 0acd 02       		.uleb128 0x2
 2082 0ace 75       		.byte	0x75
 2083 0acf 00       		.sleb128 0
 2084 0ad0 2D       		.uleb128 0x2d
 2085 0ad1 01       		.uleb128 0x1
 2086 0ad2 50       		.byte	0x50
 2087 0ad3 02       		.uleb128 0x2
 2088 0ad4 91       		.byte	0x91
 2089 0ad5 44       		.sleb128 -60
 2090 0ad6 00       		.byte	0
 2091 0ad7 37       		.uleb128 0x37
 2092 0ad8 28000000 		.4byte	.LVL111
 2093 0adc 54080000 		.4byte	0x854
 2094 0ae0 F70A0000 		.4byte	0xaf7
 2095 0ae4 2D       		.uleb128 0x2d
 2096 0ae5 01       		.uleb128 0x1
 2097 0ae6 52       		.byte	0x52
 2098 0ae7 02       		.uleb128 0x2
 2099 0ae8 91       		.byte	0x91
 2100 0ae9 6C       		.sleb128 -20
 2101 0aea 2D       		.uleb128 0x2d
 2102 0aeb 01       		.uleb128 0x1
 2103 0aec 51       		.byte	0x51
 2104 0aed 02       		.uleb128 0x2
 2105 0aee 76       		.byte	0x76
 2106 0aef 00       		.sleb128 0
ARM GAS  /tmp/cc03LCvb.s 			page 38


 2107 0af0 2D       		.uleb128 0x2d
 2108 0af1 01       		.uleb128 0x1
 2109 0af2 50       		.byte	0x50
 2110 0af3 02       		.uleb128 0x2
 2111 0af4 91       		.byte	0x91
 2112 0af5 44       		.sleb128 -60
 2113 0af6 00       		.byte	0
 2114 0af7 37       		.uleb128 0x37
 2115 0af8 48000000 		.4byte	.LVL116
 2116 0afc 510B0000 		.4byte	0xb51
 2117 0b00 1D0B0000 		.4byte	0xb1d
 2118 0b04 2D       		.uleb128 0x2d
 2119 0b05 01       		.uleb128 0x1
 2120 0b06 53       		.byte	0x53
 2121 0b07 02       		.uleb128 0x2
 2122 0b08 74       		.byte	0x74
 2123 0b09 00       		.sleb128 0
 2124 0b0a 2D       		.uleb128 0x2d
 2125 0b0b 01       		.uleb128 0x1
 2126 0b0c 52       		.byte	0x52
 2127 0b0d 02       		.uleb128 0x2
 2128 0b0e 74       		.byte	0x74
 2129 0b0f 00       		.sleb128 0
 2130 0b10 2D       		.uleb128 0x2d
 2131 0b11 01       		.uleb128 0x1
 2132 0b12 51       		.byte	0x51
 2133 0b13 02       		.uleb128 0x2
 2134 0b14 75       		.byte	0x75
 2135 0b15 00       		.sleb128 0
 2136 0b16 2D       		.uleb128 0x2d
 2137 0b17 01       		.uleb128 0x1
 2138 0b18 50       		.byte	0x50
 2139 0b19 02       		.uleb128 0x2
 2140 0b1a 91       		.byte	0x91
 2141 0b1b 44       		.sleb128 -60
 2142 0b1c 00       		.byte	0
 2143 0b1d 38       		.uleb128 0x38
 2144 0b1e 56000000 		.4byte	.LVL118
 2145 0b22 54080000 		.4byte	0x854
 2146 0b26 2D       		.uleb128 0x2d
 2147 0b27 01       		.uleb128 0x1
 2148 0b28 52       		.byte	0x52
 2149 0b29 02       		.uleb128 0x2
 2150 0b2a 91       		.byte	0x91
 2151 0b2b 6C       		.sleb128 -20
 2152 0b2c 2D       		.uleb128 0x2d
 2153 0b2d 01       		.uleb128 0x1
 2154 0b2e 51       		.byte	0x51
 2155 0b2f 02       		.uleb128 0x2
 2156 0b30 76       		.byte	0x76
 2157 0b31 00       		.sleb128 0
 2158 0b32 2D       		.uleb128 0x2d
 2159 0b33 01       		.uleb128 0x1
 2160 0b34 50       		.byte	0x50
 2161 0b35 02       		.uleb128 0x2
 2162 0b36 91       		.byte	0x91
 2163 0b37 44       		.sleb128 -60
ARM GAS  /tmp/cc03LCvb.s 			page 39


 2164 0b38 00       		.byte	0
 2165 0b39 00       		.byte	0
 2166 0b3a 39       		.uleb128 0x39
 2167 0b3b 9F000000 		.4byte	.LASF121
 2168 0b3f 10       		.byte	0x10
 2169 0b40 A706     		.2byte	0x6a7
 2170 0b42 CE000000 		.4byte	0xce
 2171 0b46 3A       		.uleb128 0x3a
 2172 0b47 636800   		.ascii	"ch\000"
 2173 0b4a 07       		.byte	0x7
 2174 0b4b EB01     		.2byte	0x1eb
 2175 0b4d C9030000 		.4byte	0x3c9
 2176 0b51 3B       		.uleb128 0x3b
 2177 0b52 31020000 		.4byte	.LASF126
 2178 0b56 0F       		.byte	0xf
 2179 0b57 57       		.byte	0x57
 2180 0b58 710B0000 		.4byte	0xb71
 2181 0b5c 0D       		.uleb128 0xd
 2182 0b5d 710B0000 		.4byte	0xb71
 2183 0b61 0D       		.uleb128 0xd
 2184 0b62 CF050000 		.4byte	0x5cf
 2185 0b66 0D       		.uleb128 0xd
 2186 0b67 2C000000 		.4byte	0x2c
 2187 0b6b 0D       		.uleb128 0xd
 2188 0b6c 2C000000 		.4byte	0x2c
 2189 0b70 00       		.byte	0
 2190 0b71 0B       		.uleb128 0xb
 2191 0b72 04       		.byte	0x4
 2192 0b73 5A070000 		.4byte	0x75a
 2193 0b77 00       		.byte	0
 2194              		.section	.debug_abbrev,"",%progbits
 2195              	.Ldebug_abbrev0:
 2196 0000 01       		.uleb128 0x1
 2197 0001 11       		.uleb128 0x11
 2198 0002 01       		.byte	0x1
 2199 0003 25       		.uleb128 0x25
 2200 0004 0E       		.uleb128 0xe
 2201 0005 13       		.uleb128 0x13
 2202 0006 0B       		.uleb128 0xb
 2203 0007 03       		.uleb128 0x3
 2204 0008 0E       		.uleb128 0xe
 2205 0009 1B       		.uleb128 0x1b
 2206 000a 0E       		.uleb128 0xe
 2207 000b 55       		.uleb128 0x55
 2208 000c 17       		.uleb128 0x17
 2209 000d 11       		.uleb128 0x11
 2210 000e 01       		.uleb128 0x1
 2211 000f 10       		.uleb128 0x10
 2212 0010 17       		.uleb128 0x17
 2213 0011 00       		.byte	0
 2214 0012 00       		.byte	0
 2215 0013 02       		.uleb128 0x2
 2216 0014 24       		.uleb128 0x24
 2217 0015 00       		.byte	0
 2218 0016 0B       		.uleb128 0xb
 2219 0017 0B       		.uleb128 0xb
 2220 0018 3E       		.uleb128 0x3e
ARM GAS  /tmp/cc03LCvb.s 			page 40


 2221 0019 0B       		.uleb128 0xb
 2222 001a 03       		.uleb128 0x3
 2223 001b 08       		.uleb128 0x8
 2224 001c 00       		.byte	0
 2225 001d 00       		.byte	0
 2226 001e 03       		.uleb128 0x3
 2227 001f 16       		.uleb128 0x16
 2228 0020 00       		.byte	0
 2229 0021 03       		.uleb128 0x3
 2230 0022 0E       		.uleb128 0xe
 2231 0023 3A       		.uleb128 0x3a
 2232 0024 0B       		.uleb128 0xb
 2233 0025 3B       		.uleb128 0x3b
 2234 0026 0B       		.uleb128 0xb
 2235 0027 49       		.uleb128 0x49
 2236 0028 13       		.uleb128 0x13
 2237 0029 00       		.byte	0
 2238 002a 00       		.byte	0
 2239 002b 04       		.uleb128 0x4
 2240 002c 24       		.uleb128 0x24
 2241 002d 00       		.byte	0
 2242 002e 0B       		.uleb128 0xb
 2243 002f 0B       		.uleb128 0xb
 2244 0030 3E       		.uleb128 0x3e
 2245 0031 0B       		.uleb128 0xb
 2246 0032 03       		.uleb128 0x3
 2247 0033 0E       		.uleb128 0xe
 2248 0034 00       		.byte	0
 2249 0035 00       		.byte	0
 2250 0036 05       		.uleb128 0x5
 2251 0037 35       		.uleb128 0x35
 2252 0038 00       		.byte	0
 2253 0039 49       		.uleb128 0x49
 2254 003a 13       		.uleb128 0x13
 2255 003b 00       		.byte	0
 2256 003c 00       		.byte	0
 2257 003d 06       		.uleb128 0x6
 2258 003e 13       		.uleb128 0x13
 2259 003f 01       		.byte	0x1
 2260 0040 03       		.uleb128 0x3
 2261 0041 0E       		.uleb128 0xe
 2262 0042 0B       		.uleb128 0xb
 2263 0043 0B       		.uleb128 0xb
 2264 0044 3A       		.uleb128 0x3a
 2265 0045 0B       		.uleb128 0xb
 2266 0046 3B       		.uleb128 0x3b
 2267 0047 0B       		.uleb128 0xb
 2268 0048 01       		.uleb128 0x1
 2269 0049 13       		.uleb128 0x13
 2270 004a 00       		.byte	0
 2271 004b 00       		.byte	0
 2272 004c 07       		.uleb128 0x7
 2273 004d 0D       		.uleb128 0xd
 2274 004e 00       		.byte	0
 2275 004f 03       		.uleb128 0x3
 2276 0050 0E       		.uleb128 0xe
 2277 0051 3A       		.uleb128 0x3a
ARM GAS  /tmp/cc03LCvb.s 			page 41


 2278 0052 0B       		.uleb128 0xb
 2279 0053 3B       		.uleb128 0x3b
 2280 0054 0B       		.uleb128 0xb
 2281 0055 49       		.uleb128 0x49
 2282 0056 13       		.uleb128 0x13
 2283 0057 38       		.uleb128 0x38
 2284 0058 0B       		.uleb128 0xb
 2285 0059 00       		.byte	0
 2286 005a 00       		.byte	0
 2287 005b 08       		.uleb128 0x8
 2288 005c 0D       		.uleb128 0xd
 2289 005d 00       		.byte	0
 2290 005e 03       		.uleb128 0x3
 2291 005f 08       		.uleb128 0x8
 2292 0060 3A       		.uleb128 0x3a
 2293 0061 0B       		.uleb128 0xb
 2294 0062 3B       		.uleb128 0x3b
 2295 0063 05       		.uleb128 0x5
 2296 0064 49       		.uleb128 0x49
 2297 0065 13       		.uleb128 0x13
 2298 0066 38       		.uleb128 0x38
 2299 0067 0B       		.uleb128 0xb
 2300 0068 00       		.byte	0
 2301 0069 00       		.byte	0
 2302 006a 09       		.uleb128 0x9
 2303 006b 0D       		.uleb128 0xd
 2304 006c 00       		.byte	0
 2305 006d 03       		.uleb128 0x3
 2306 006e 0E       		.uleb128 0xe
 2307 006f 3A       		.uleb128 0x3a
 2308 0070 0B       		.uleb128 0xb
 2309 0071 3B       		.uleb128 0x3b
 2310 0072 05       		.uleb128 0x5
 2311 0073 49       		.uleb128 0x49
 2312 0074 13       		.uleb128 0x13
 2313 0075 38       		.uleb128 0x38
 2314 0076 0B       		.uleb128 0xb
 2315 0077 00       		.byte	0
 2316 0078 00       		.byte	0
 2317 0079 0A       		.uleb128 0xa
 2318 007a 13       		.uleb128 0x13
 2319 007b 01       		.byte	0x1
 2320 007c 03       		.uleb128 0x3
 2321 007d 0E       		.uleb128 0xe
 2322 007e 0B       		.uleb128 0xb
 2323 007f 0B       		.uleb128 0xb
 2324 0080 3A       		.uleb128 0x3a
 2325 0081 0B       		.uleb128 0xb
 2326 0082 3B       		.uleb128 0x3b
 2327 0083 05       		.uleb128 0x5
 2328 0084 01       		.uleb128 0x1
 2329 0085 13       		.uleb128 0x13
 2330 0086 00       		.byte	0
 2331 0087 00       		.byte	0
 2332 0088 0B       		.uleb128 0xb
 2333 0089 0F       		.uleb128 0xf
 2334 008a 00       		.byte	0
ARM GAS  /tmp/cc03LCvb.s 			page 42


 2335 008b 0B       		.uleb128 0xb
 2336 008c 0B       		.uleb128 0xb
 2337 008d 49       		.uleb128 0x49
 2338 008e 13       		.uleb128 0x13
 2339 008f 00       		.byte	0
 2340 0090 00       		.byte	0
 2341 0091 0C       		.uleb128 0xc
 2342 0092 15       		.uleb128 0x15
 2343 0093 01       		.byte	0x1
 2344 0094 27       		.uleb128 0x27
 2345 0095 19       		.uleb128 0x19
 2346 0096 01       		.uleb128 0x1
 2347 0097 13       		.uleb128 0x13
 2348 0098 00       		.byte	0
 2349 0099 00       		.byte	0
 2350 009a 0D       		.uleb128 0xd
 2351 009b 05       		.uleb128 0x5
 2352 009c 00       		.byte	0
 2353 009d 49       		.uleb128 0x49
 2354 009e 13       		.uleb128 0x13
 2355 009f 00       		.byte	0
 2356 00a0 00       		.byte	0
 2357 00a1 0E       		.uleb128 0xe
 2358 00a2 0F       		.uleb128 0xf
 2359 00a3 00       		.byte	0
 2360 00a4 0B       		.uleb128 0xb
 2361 00a5 0B       		.uleb128 0xb
 2362 00a6 00       		.byte	0
 2363 00a7 00       		.byte	0
 2364 00a8 0F       		.uleb128 0xf
 2365 00a9 13       		.uleb128 0x13
 2366 00aa 01       		.byte	0x1
 2367 00ab 03       		.uleb128 0x3
 2368 00ac 0E       		.uleb128 0xe
 2369 00ad 0B       		.uleb128 0xb
 2370 00ae 05       		.uleb128 0x5
 2371 00af 3A       		.uleb128 0x3a
 2372 00b0 0B       		.uleb128 0xb
 2373 00b1 3B       		.uleb128 0x3b
 2374 00b2 05       		.uleb128 0x5
 2375 00b3 01       		.uleb128 0x1
 2376 00b4 13       		.uleb128 0x13
 2377 00b5 00       		.byte	0
 2378 00b6 00       		.byte	0
 2379 00b7 10       		.uleb128 0x10
 2380 00b8 0D       		.uleb128 0xd
 2381 00b9 00       		.byte	0
 2382 00ba 03       		.uleb128 0x3
 2383 00bb 08       		.uleb128 0x8
 2384 00bc 3A       		.uleb128 0x3a
 2385 00bd 0B       		.uleb128 0xb
 2386 00be 3B       		.uleb128 0x3b
 2387 00bf 0B       		.uleb128 0xb
 2388 00c0 49       		.uleb128 0x49
 2389 00c1 13       		.uleb128 0x13
 2390 00c2 38       		.uleb128 0x38
 2391 00c3 0B       		.uleb128 0xb
ARM GAS  /tmp/cc03LCvb.s 			page 43


 2392 00c4 00       		.byte	0
 2393 00c5 00       		.byte	0
 2394 00c6 11       		.uleb128 0x11
 2395 00c7 13       		.uleb128 0x13
 2396 00c8 01       		.byte	0x1
 2397 00c9 0B       		.uleb128 0xb
 2398 00ca 0B       		.uleb128 0xb
 2399 00cb 3A       		.uleb128 0x3a
 2400 00cc 0B       		.uleb128 0xb
 2401 00cd 3B       		.uleb128 0x3b
 2402 00ce 0B       		.uleb128 0xb
 2403 00cf 01       		.uleb128 0x1
 2404 00d0 13       		.uleb128 0x13
 2405 00d1 00       		.byte	0
 2406 00d2 00       		.byte	0
 2407 00d3 12       		.uleb128 0x12
 2408 00d4 17       		.uleb128 0x17
 2409 00d5 01       		.byte	0x1
 2410 00d6 0B       		.uleb128 0xb
 2411 00d7 0B       		.uleb128 0xb
 2412 00d8 3A       		.uleb128 0x3a
 2413 00d9 0B       		.uleb128 0xb
 2414 00da 3B       		.uleb128 0x3b
 2415 00db 0B       		.uleb128 0xb
 2416 00dc 01       		.uleb128 0x1
 2417 00dd 13       		.uleb128 0x13
 2418 00de 00       		.byte	0
 2419 00df 00       		.byte	0
 2420 00e0 13       		.uleb128 0x13
 2421 00e1 0D       		.uleb128 0xd
 2422 00e2 00       		.byte	0
 2423 00e3 03       		.uleb128 0x3
 2424 00e4 0E       		.uleb128 0xe
 2425 00e5 3A       		.uleb128 0x3a
 2426 00e6 0B       		.uleb128 0xb
 2427 00e7 3B       		.uleb128 0x3b
 2428 00e8 0B       		.uleb128 0xb
 2429 00e9 49       		.uleb128 0x49
 2430 00ea 13       		.uleb128 0x13
 2431 00eb 00       		.byte	0
 2432 00ec 00       		.byte	0
 2433 00ed 14       		.uleb128 0x14
 2434 00ee 0D       		.uleb128 0xd
 2435 00ef 00       		.byte	0
 2436 00f0 03       		.uleb128 0x3
 2437 00f1 0E       		.uleb128 0xe
 2438 00f2 3A       		.uleb128 0x3a
 2439 00f3 0B       		.uleb128 0xb
 2440 00f4 3B       		.uleb128 0x3b
 2441 00f5 05       		.uleb128 0x5
 2442 00f6 49       		.uleb128 0x49
 2443 00f7 13       		.uleb128 0x13
 2444 00f8 00       		.byte	0
 2445 00f9 00       		.byte	0
 2446 00fa 15       		.uleb128 0x15
 2447 00fb 26       		.uleb128 0x26
 2448 00fc 00       		.byte	0
ARM GAS  /tmp/cc03LCvb.s 			page 44


 2449 00fd 49       		.uleb128 0x49
 2450 00fe 13       		.uleb128 0x13
 2451 00ff 00       		.byte	0
 2452 0100 00       		.byte	0
 2453 0101 16       		.uleb128 0x16
 2454 0102 01       		.uleb128 0x1
 2455 0103 01       		.byte	0x1
 2456 0104 49       		.uleb128 0x49
 2457 0105 13       		.uleb128 0x13
 2458 0106 01       		.uleb128 0x1
 2459 0107 13       		.uleb128 0x13
 2460 0108 00       		.byte	0
 2461 0109 00       		.byte	0
 2462 010a 17       		.uleb128 0x17
 2463 010b 21       		.uleb128 0x21
 2464 010c 00       		.byte	0
 2465 010d 49       		.uleb128 0x49
 2466 010e 13       		.uleb128 0x13
 2467 010f 2F       		.uleb128 0x2f
 2468 0110 0B       		.uleb128 0xb
 2469 0111 00       		.byte	0
 2470 0112 00       		.byte	0
 2471 0113 18       		.uleb128 0x18
 2472 0114 15       		.uleb128 0x15
 2473 0115 01       		.byte	0x1
 2474 0116 27       		.uleb128 0x27
 2475 0117 19       		.uleb128 0x19
 2476 0118 49       		.uleb128 0x49
 2477 0119 13       		.uleb128 0x13
 2478 011a 01       		.uleb128 0x1
 2479 011b 13       		.uleb128 0x13
 2480 011c 00       		.byte	0
 2481 011d 00       		.byte	0
 2482 011e 19       		.uleb128 0x19
 2483 011f 0D       		.uleb128 0xd
 2484 0120 00       		.byte	0
 2485 0121 03       		.uleb128 0x3
 2486 0122 0E       		.uleb128 0xe
 2487 0123 49       		.uleb128 0x49
 2488 0124 13       		.uleb128 0x13
 2489 0125 38       		.uleb128 0x38
 2490 0126 0B       		.uleb128 0xb
 2491 0127 34       		.uleb128 0x34
 2492 0128 19       		.uleb128 0x19
 2493 0129 00       		.byte	0
 2494 012a 00       		.byte	0
 2495 012b 1A       		.uleb128 0x1a
 2496 012c 2E       		.uleb128 0x2e
 2497 012d 01       		.byte	0x1
 2498 012e 03       		.uleb128 0x3
 2499 012f 0E       		.uleb128 0xe
 2500 0130 3A       		.uleb128 0x3a
 2501 0131 0B       		.uleb128 0xb
 2502 0132 3B       		.uleb128 0x3b
 2503 0133 0B       		.uleb128 0xb
 2504 0134 27       		.uleb128 0x27
 2505 0135 19       		.uleb128 0x19
ARM GAS  /tmp/cc03LCvb.s 			page 45


 2506 0136 49       		.uleb128 0x49
 2507 0137 13       		.uleb128 0x13
 2508 0138 20       		.uleb128 0x20
 2509 0139 0B       		.uleb128 0xb
 2510 013a 01       		.uleb128 0x1
 2511 013b 13       		.uleb128 0x13
 2512 013c 00       		.byte	0
 2513 013d 00       		.byte	0
 2514 013e 1B       		.uleb128 0x1b
 2515 013f 05       		.uleb128 0x5
 2516 0140 00       		.byte	0
 2517 0141 03       		.uleb128 0x3
 2518 0142 08       		.uleb128 0x8
 2519 0143 3A       		.uleb128 0x3a
 2520 0144 0B       		.uleb128 0xb
 2521 0145 3B       		.uleb128 0x3b
 2522 0146 0B       		.uleb128 0xb
 2523 0147 49       		.uleb128 0x49
 2524 0148 13       		.uleb128 0x13
 2525 0149 00       		.byte	0
 2526 014a 00       		.byte	0
 2527 014b 1C       		.uleb128 0x1c
 2528 014c 05       		.uleb128 0x5
 2529 014d 00       		.byte	0
 2530 014e 03       		.uleb128 0x3
 2531 014f 0E       		.uleb128 0xe
 2532 0150 3A       		.uleb128 0x3a
 2533 0151 0B       		.uleb128 0xb
 2534 0152 3B       		.uleb128 0x3b
 2535 0153 0B       		.uleb128 0xb
 2536 0154 49       		.uleb128 0x49
 2537 0155 13       		.uleb128 0x13
 2538 0156 00       		.byte	0
 2539 0157 00       		.byte	0
 2540 0158 1D       		.uleb128 0x1d
 2541 0159 34       		.uleb128 0x34
 2542 015a 00       		.byte	0
 2543 015b 03       		.uleb128 0x3
 2544 015c 08       		.uleb128 0x8
 2545 015d 3A       		.uleb128 0x3a
 2546 015e 0B       		.uleb128 0xb
 2547 015f 3B       		.uleb128 0x3b
 2548 0160 0B       		.uleb128 0xb
 2549 0161 49       		.uleb128 0x49
 2550 0162 13       		.uleb128 0x13
 2551 0163 00       		.byte	0
 2552 0164 00       		.byte	0
 2553 0165 1E       		.uleb128 0x1e
 2554 0166 2E       		.uleb128 0x2e
 2555 0167 01       		.byte	0x1
 2556 0168 31       		.uleb128 0x31
 2557 0169 13       		.uleb128 0x13
 2558 016a 11       		.uleb128 0x11
 2559 016b 01       		.uleb128 0x1
 2560 016c 12       		.uleb128 0x12
 2561 016d 06       		.uleb128 0x6
 2562 016e 40       		.uleb128 0x40
ARM GAS  /tmp/cc03LCvb.s 			page 46


 2563 016f 18       		.uleb128 0x18
 2564 0170 9742     		.uleb128 0x2117
 2565 0172 19       		.uleb128 0x19
 2566 0173 01       		.uleb128 0x1
 2567 0174 13       		.uleb128 0x13
 2568 0175 00       		.byte	0
 2569 0176 00       		.byte	0
 2570 0177 1F       		.uleb128 0x1f
 2571 0178 05       		.uleb128 0x5
 2572 0179 00       		.byte	0
 2573 017a 31       		.uleb128 0x31
 2574 017b 13       		.uleb128 0x13
 2575 017c 02       		.uleb128 0x2
 2576 017d 17       		.uleb128 0x17
 2577 017e 00       		.byte	0
 2578 017f 00       		.byte	0
 2579 0180 20       		.uleb128 0x20
 2580 0181 34       		.uleb128 0x34
 2581 0182 00       		.byte	0
 2582 0183 31       		.uleb128 0x31
 2583 0184 13       		.uleb128 0x13
 2584 0185 02       		.uleb128 0x2
 2585 0186 17       		.uleb128 0x17
 2586 0187 00       		.byte	0
 2587 0188 00       		.byte	0
 2588 0189 21       		.uleb128 0x21
 2589 018a 05       		.uleb128 0x5
 2590 018b 00       		.byte	0
 2591 018c 31       		.uleb128 0x31
 2592 018d 13       		.uleb128 0x13
 2593 018e 1C       		.uleb128 0x1c
 2594 018f 0B       		.uleb128 0xb
 2595 0190 00       		.byte	0
 2596 0191 00       		.byte	0
 2597 0192 22       		.uleb128 0x22
 2598 0193 2E       		.uleb128 0x2e
 2599 0194 01       		.byte	0x1
 2600 0195 3F       		.uleb128 0x3f
 2601 0196 19       		.uleb128 0x19
 2602 0197 03       		.uleb128 0x3
 2603 0198 0E       		.uleb128 0xe
 2604 0199 3A       		.uleb128 0x3a
 2605 019a 0B       		.uleb128 0xb
 2606 019b 3B       		.uleb128 0x3b
 2607 019c 0B       		.uleb128 0xb
 2608 019d 27       		.uleb128 0x27
 2609 019e 19       		.uleb128 0x19
 2610 019f 49       		.uleb128 0x49
 2611 01a0 13       		.uleb128 0x13
 2612 01a1 11       		.uleb128 0x11
 2613 01a2 01       		.uleb128 0x1
 2614 01a3 12       		.uleb128 0x12
 2615 01a4 06       		.uleb128 0x6
 2616 01a5 40       		.uleb128 0x40
 2617 01a6 18       		.uleb128 0x18
 2618 01a7 9742     		.uleb128 0x2117
 2619 01a9 19       		.uleb128 0x19
ARM GAS  /tmp/cc03LCvb.s 			page 47


 2620 01aa 01       		.uleb128 0x1
 2621 01ab 13       		.uleb128 0x13
 2622 01ac 00       		.byte	0
 2623 01ad 00       		.byte	0
 2624 01ae 23       		.uleb128 0x23
 2625 01af 05       		.uleb128 0x5
 2626 01b0 00       		.byte	0
 2627 01b1 03       		.uleb128 0x3
 2628 01b2 08       		.uleb128 0x8
 2629 01b3 3A       		.uleb128 0x3a
 2630 01b4 0B       		.uleb128 0xb
 2631 01b5 3B       		.uleb128 0x3b
 2632 01b6 0B       		.uleb128 0xb
 2633 01b7 49       		.uleb128 0x49
 2634 01b8 13       		.uleb128 0x13
 2635 01b9 02       		.uleb128 0x2
 2636 01ba 17       		.uleb128 0x17
 2637 01bb 00       		.byte	0
 2638 01bc 00       		.byte	0
 2639 01bd 24       		.uleb128 0x24
 2640 01be 34       		.uleb128 0x34
 2641 01bf 00       		.byte	0
 2642 01c0 03       		.uleb128 0x3
 2643 01c1 08       		.uleb128 0x8
 2644 01c2 3A       		.uleb128 0x3a
 2645 01c3 0B       		.uleb128 0xb
 2646 01c4 3B       		.uleb128 0x3b
 2647 01c5 0B       		.uleb128 0xb
 2648 01c6 49       		.uleb128 0x49
 2649 01c7 13       		.uleb128 0x13
 2650 01c8 02       		.uleb128 0x2
 2651 01c9 17       		.uleb128 0x17
 2652 01ca 00       		.byte	0
 2653 01cb 00       		.byte	0
 2654 01cc 25       		.uleb128 0x25
 2655 01cd 34       		.uleb128 0x34
 2656 01ce 00       		.byte	0
 2657 01cf 03       		.uleb128 0x3
 2658 01d0 0E       		.uleb128 0xe
 2659 01d1 3A       		.uleb128 0x3a
 2660 01d2 0B       		.uleb128 0xb
 2661 01d3 3B       		.uleb128 0x3b
 2662 01d4 0B       		.uleb128 0xb
 2663 01d5 49       		.uleb128 0x49
 2664 01d6 13       		.uleb128 0x13
 2665 01d7 02       		.uleb128 0x2
 2666 01d8 17       		.uleb128 0x17
 2667 01d9 00       		.byte	0
 2668 01da 00       		.byte	0
 2669 01db 26       		.uleb128 0x26
 2670 01dc 34       		.uleb128 0x34
 2671 01dd 00       		.byte	0
 2672 01de 03       		.uleb128 0x3
 2673 01df 0E       		.uleb128 0xe
 2674 01e0 3A       		.uleb128 0x3a
 2675 01e1 0B       		.uleb128 0xb
 2676 01e2 3B       		.uleb128 0x3b
ARM GAS  /tmp/cc03LCvb.s 			page 48


 2677 01e3 0B       		.uleb128 0xb
 2678 01e4 49       		.uleb128 0x49
 2679 01e5 13       		.uleb128 0x13
 2680 01e6 02       		.uleb128 0x2
 2681 01e7 18       		.uleb128 0x18
 2682 01e8 00       		.byte	0
 2683 01e9 00       		.byte	0
 2684 01ea 27       		.uleb128 0x27
 2685 01eb 0A       		.uleb128 0xa
 2686 01ec 00       		.byte	0
 2687 01ed 03       		.uleb128 0x3
 2688 01ee 0E       		.uleb128 0xe
 2689 01ef 3A       		.uleb128 0x3a
 2690 01f0 0B       		.uleb128 0xb
 2691 01f1 3B       		.uleb128 0x3b
 2692 01f2 0B       		.uleb128 0xb
 2693 01f3 11       		.uleb128 0x11
 2694 01f4 01       		.uleb128 0x1
 2695 01f5 00       		.byte	0
 2696 01f6 00       		.byte	0
 2697 01f7 28       		.uleb128 0x28
 2698 01f8 1D       		.uleb128 0x1d
 2699 01f9 01       		.byte	0x1
 2700 01fa 31       		.uleb128 0x31
 2701 01fb 13       		.uleb128 0x13
 2702 01fc 52       		.uleb128 0x52
 2703 01fd 01       		.uleb128 0x1
 2704 01fe 55       		.uleb128 0x55
 2705 01ff 17       		.uleb128 0x17
 2706 0200 58       		.uleb128 0x58
 2707 0201 0B       		.uleb128 0xb
 2708 0202 59       		.uleb128 0x59
 2709 0203 0B       		.uleb128 0xb
 2710 0204 01       		.uleb128 0x1
 2711 0205 13       		.uleb128 0x13
 2712 0206 00       		.byte	0
 2713 0207 00       		.byte	0
 2714 0208 29       		.uleb128 0x29
 2715 0209 05       		.uleb128 0x5
 2716 020a 00       		.byte	0
 2717 020b 31       		.uleb128 0x31
 2718 020c 13       		.uleb128 0x13
 2719 020d 00       		.byte	0
 2720 020e 00       		.byte	0
 2721 020f 2A       		.uleb128 0x2a
 2722 0210 898201   		.uleb128 0x4109
 2723 0213 00       		.byte	0
 2724 0214 11       		.uleb128 0x11
 2725 0215 01       		.uleb128 0x1
 2726 0216 31       		.uleb128 0x31
 2727 0217 13       		.uleb128 0x13
 2728 0218 00       		.byte	0
 2729 0219 00       		.byte	0
 2730 021a 2B       		.uleb128 0x2b
 2731 021b 1D       		.uleb128 0x1d
 2732 021c 01       		.byte	0x1
 2733 021d 31       		.uleb128 0x31
ARM GAS  /tmp/cc03LCvb.s 			page 49


 2734 021e 13       		.uleb128 0x13
 2735 021f 11       		.uleb128 0x11
 2736 0220 01       		.uleb128 0x1
 2737 0221 12       		.uleb128 0x12
 2738 0222 06       		.uleb128 0x6
 2739 0223 58       		.uleb128 0x58
 2740 0224 0B       		.uleb128 0xb
 2741 0225 59       		.uleb128 0x59
 2742 0226 0B       		.uleb128 0xb
 2743 0227 01       		.uleb128 0x1
 2744 0228 13       		.uleb128 0x13
 2745 0229 00       		.byte	0
 2746 022a 00       		.byte	0
 2747 022b 2C       		.uleb128 0x2c
 2748 022c 898201   		.uleb128 0x4109
 2749 022f 01       		.byte	0x1
 2750 0230 11       		.uleb128 0x11
 2751 0231 01       		.uleb128 0x1
 2752 0232 01       		.uleb128 0x1
 2753 0233 13       		.uleb128 0x13
 2754 0234 00       		.byte	0
 2755 0235 00       		.byte	0
 2756 0236 2D       		.uleb128 0x2d
 2757 0237 8A8201   		.uleb128 0x410a
 2758 023a 00       		.byte	0
 2759 023b 02       		.uleb128 0x2
 2760 023c 18       		.uleb128 0x18
 2761 023d 9142     		.uleb128 0x2111
 2762 023f 18       		.uleb128 0x18
 2763 0240 00       		.byte	0
 2764 0241 00       		.byte	0
 2765 0242 2E       		.uleb128 0x2e
 2766 0243 898201   		.uleb128 0x4109
 2767 0246 01       		.byte	0x1
 2768 0247 11       		.uleb128 0x11
 2769 0248 01       		.uleb128 0x1
 2770 0249 00       		.byte	0
 2771 024a 00       		.byte	0
 2772 024b 2F       		.uleb128 0x2f
 2773 024c 2E       		.uleb128 0x2e
 2774 024d 01       		.byte	0x1
 2775 024e 3F       		.uleb128 0x3f
 2776 024f 19       		.uleb128 0x19
 2777 0250 03       		.uleb128 0x3
 2778 0251 0E       		.uleb128 0xe
 2779 0252 3A       		.uleb128 0x3a
 2780 0253 0B       		.uleb128 0xb
 2781 0254 3B       		.uleb128 0x3b
 2782 0255 05       		.uleb128 0x5
 2783 0256 27       		.uleb128 0x27
 2784 0257 19       		.uleb128 0x19
 2785 0258 49       		.uleb128 0x49
 2786 0259 13       		.uleb128 0x13
 2787 025a 11       		.uleb128 0x11
 2788 025b 01       		.uleb128 0x1
 2789 025c 12       		.uleb128 0x12
 2790 025d 06       		.uleb128 0x6
ARM GAS  /tmp/cc03LCvb.s 			page 50


 2791 025e 40       		.uleb128 0x40
 2792 025f 18       		.uleb128 0x18
 2793 0260 9742     		.uleb128 0x2117
 2794 0262 19       		.uleb128 0x19
 2795 0263 01       		.uleb128 0x1
 2796 0264 13       		.uleb128 0x13
 2797 0265 00       		.byte	0
 2798 0266 00       		.byte	0
 2799 0267 30       		.uleb128 0x30
 2800 0268 05       		.uleb128 0x5
 2801 0269 00       		.byte	0
 2802 026a 03       		.uleb128 0x3
 2803 026b 08       		.uleb128 0x8
 2804 026c 3A       		.uleb128 0x3a
 2805 026d 0B       		.uleb128 0xb
 2806 026e 3B       		.uleb128 0x3b
 2807 026f 05       		.uleb128 0x5
 2808 0270 49       		.uleb128 0x49
 2809 0271 13       		.uleb128 0x13
 2810 0272 02       		.uleb128 0x2
 2811 0273 17       		.uleb128 0x17
 2812 0274 00       		.byte	0
 2813 0275 00       		.byte	0
 2814 0276 31       		.uleb128 0x31
 2815 0277 05       		.uleb128 0x5
 2816 0278 00       		.byte	0
 2817 0279 03       		.uleb128 0x3
 2818 027a 0E       		.uleb128 0xe
 2819 027b 3A       		.uleb128 0x3a
 2820 027c 0B       		.uleb128 0xb
 2821 027d 3B       		.uleb128 0x3b
 2822 027e 05       		.uleb128 0x5
 2823 027f 49       		.uleb128 0x49
 2824 0280 13       		.uleb128 0x13
 2825 0281 02       		.uleb128 0x2
 2826 0282 17       		.uleb128 0x17
 2827 0283 00       		.byte	0
 2828 0284 00       		.byte	0
 2829 0285 32       		.uleb128 0x32
 2830 0286 05       		.uleb128 0x5
 2831 0287 00       		.byte	0
 2832 0288 03       		.uleb128 0x3
 2833 0289 08       		.uleb128 0x8
 2834 028a 3A       		.uleb128 0x3a
 2835 028b 0B       		.uleb128 0xb
 2836 028c 3B       		.uleb128 0x3b
 2837 028d 05       		.uleb128 0x5
 2838 028e 49       		.uleb128 0x49
 2839 028f 13       		.uleb128 0x13
 2840 0290 02       		.uleb128 0x2
 2841 0291 18       		.uleb128 0x18
 2842 0292 00       		.byte	0
 2843 0293 00       		.byte	0
 2844 0294 33       		.uleb128 0x33
 2845 0295 18       		.uleb128 0x18
 2846 0296 00       		.byte	0
 2847 0297 00       		.byte	0
ARM GAS  /tmp/cc03LCvb.s 			page 51


 2848 0298 00       		.byte	0
 2849 0299 34       		.uleb128 0x34
 2850 029a 34       		.uleb128 0x34
 2851 029b 00       		.byte	0
 2852 029c 03       		.uleb128 0x3
 2853 029d 08       		.uleb128 0x8
 2854 029e 3A       		.uleb128 0x3a
 2855 029f 0B       		.uleb128 0xb
 2856 02a0 3B       		.uleb128 0x3b
 2857 02a1 05       		.uleb128 0x5
 2858 02a2 49       		.uleb128 0x49
 2859 02a3 13       		.uleb128 0x13
 2860 02a4 02       		.uleb128 0x2
 2861 02a5 18       		.uleb128 0x18
 2862 02a6 00       		.byte	0
 2863 02a7 00       		.byte	0
 2864 02a8 35       		.uleb128 0x35
 2865 02a9 34       		.uleb128 0x34
 2866 02aa 00       		.byte	0
 2867 02ab 03       		.uleb128 0x3
 2868 02ac 08       		.uleb128 0x8
 2869 02ad 3A       		.uleb128 0x3a
 2870 02ae 0B       		.uleb128 0xb
 2871 02af 3B       		.uleb128 0x3b
 2872 02b0 05       		.uleb128 0x5
 2873 02b1 49       		.uleb128 0x49
 2874 02b2 13       		.uleb128 0x13
 2875 02b3 02       		.uleb128 0x2
 2876 02b4 17       		.uleb128 0x17
 2877 02b5 00       		.byte	0
 2878 02b6 00       		.byte	0
 2879 02b7 36       		.uleb128 0x36
 2880 02b8 34       		.uleb128 0x34
 2881 02b9 00       		.byte	0
 2882 02ba 03       		.uleb128 0x3
 2883 02bb 0E       		.uleb128 0xe
 2884 02bc 3A       		.uleb128 0x3a
 2885 02bd 0B       		.uleb128 0xb
 2886 02be 3B       		.uleb128 0x3b
 2887 02bf 05       		.uleb128 0x5
 2888 02c0 49       		.uleb128 0x49
 2889 02c1 13       		.uleb128 0x13
 2890 02c2 02       		.uleb128 0x2
 2891 02c3 17       		.uleb128 0x17
 2892 02c4 00       		.byte	0
 2893 02c5 00       		.byte	0
 2894 02c6 37       		.uleb128 0x37
 2895 02c7 898201   		.uleb128 0x4109
 2896 02ca 01       		.byte	0x1
 2897 02cb 11       		.uleb128 0x11
 2898 02cc 01       		.uleb128 0x1
 2899 02cd 31       		.uleb128 0x31
 2900 02ce 13       		.uleb128 0x13
 2901 02cf 01       		.uleb128 0x1
 2902 02d0 13       		.uleb128 0x13
 2903 02d1 00       		.byte	0
 2904 02d2 00       		.byte	0
ARM GAS  /tmp/cc03LCvb.s 			page 52


 2905 02d3 38       		.uleb128 0x38
 2906 02d4 898201   		.uleb128 0x4109
 2907 02d7 01       		.byte	0x1
 2908 02d8 11       		.uleb128 0x11
 2909 02d9 01       		.uleb128 0x1
 2910 02da 31       		.uleb128 0x31
 2911 02db 13       		.uleb128 0x13
 2912 02dc 00       		.byte	0
 2913 02dd 00       		.byte	0
 2914 02de 39       		.uleb128 0x39
 2915 02df 34       		.uleb128 0x34
 2916 02e0 00       		.byte	0
 2917 02e1 03       		.uleb128 0x3
 2918 02e2 0E       		.uleb128 0xe
 2919 02e3 3A       		.uleb128 0x3a
 2920 02e4 0B       		.uleb128 0xb
 2921 02e5 3B       		.uleb128 0x3b
 2922 02e6 05       		.uleb128 0x5
 2923 02e7 49       		.uleb128 0x49
 2924 02e8 13       		.uleb128 0x13
 2925 02e9 3F       		.uleb128 0x3f
 2926 02ea 19       		.uleb128 0x19
 2927 02eb 3C       		.uleb128 0x3c
 2928 02ec 19       		.uleb128 0x19
 2929 02ed 00       		.byte	0
 2930 02ee 00       		.byte	0
 2931 02ef 3A       		.uleb128 0x3a
 2932 02f0 34       		.uleb128 0x34
 2933 02f1 00       		.byte	0
 2934 02f2 03       		.uleb128 0x3
 2935 02f3 08       		.uleb128 0x8
 2936 02f4 3A       		.uleb128 0x3a
 2937 02f5 0B       		.uleb128 0xb
 2938 02f6 3B       		.uleb128 0x3b
 2939 02f7 05       		.uleb128 0x5
 2940 02f8 49       		.uleb128 0x49
 2941 02f9 13       		.uleb128 0x13
 2942 02fa 3F       		.uleb128 0x3f
 2943 02fb 19       		.uleb128 0x19
 2944 02fc 3C       		.uleb128 0x3c
 2945 02fd 19       		.uleb128 0x19
 2946 02fe 00       		.byte	0
 2947 02ff 00       		.byte	0
 2948 0300 3B       		.uleb128 0x3b
 2949 0301 2E       		.uleb128 0x2e
 2950 0302 01       		.byte	0x1
 2951 0303 3F       		.uleb128 0x3f
 2952 0304 19       		.uleb128 0x19
 2953 0305 03       		.uleb128 0x3
 2954 0306 0E       		.uleb128 0xe
 2955 0307 3A       		.uleb128 0x3a
 2956 0308 0B       		.uleb128 0xb
 2957 0309 3B       		.uleb128 0x3b
 2958 030a 0B       		.uleb128 0xb
 2959 030b 27       		.uleb128 0x27
 2960 030c 19       		.uleb128 0x19
 2961 030d 3C       		.uleb128 0x3c
ARM GAS  /tmp/cc03LCvb.s 			page 53


 2962 030e 19       		.uleb128 0x19
 2963 030f 01       		.uleb128 0x1
 2964 0310 13       		.uleb128 0x13
 2965 0311 00       		.byte	0
 2966 0312 00       		.byte	0
 2967 0313 00       		.byte	0
 2968              		.section	.debug_loc,"",%progbits
 2969              	.Ldebug_loc0:
 2970              	.LLST0:
 2971 0000 00000000 		.4byte	.LVL0
 2972 0004 3A000000 		.4byte	.LVL14
 2973 0008 0100     		.2byte	0x1
 2974 000a 50       		.byte	0x50
 2975 000b 3A000000 		.4byte	.LVL14
 2976 000f 3E000000 		.4byte	.LVL15
 2977 0013 0300     		.2byte	0x3
 2978 0015 70       		.byte	0x70
 2979 0016 7F       		.sleb128 -1
 2980 0017 9F       		.byte	0x9f
 2981 0018 3E000000 		.4byte	.LVL15
 2982 001c 42000000 		.4byte	.LVL16
 2983 0020 0100     		.2byte	0x1
 2984 0022 50       		.byte	0x50
 2985 0023 42000000 		.4byte	.LVL16
 2986 0027 4A000000 		.4byte	.LFE231
 2987 002b 0300     		.2byte	0x3
 2988 002d 70       		.byte	0x70
 2989 002e 7F       		.sleb128 -1
 2990 002f 9F       		.byte	0x9f
 2991 0030 00000000 		.4byte	0
 2992 0034 00000000 		.4byte	0
 2993              	.LLST1:
 2994 0038 00000000 		.4byte	.LVL0
 2995 003c 0C000000 		.4byte	.LVL2
 2996 0040 0100     		.2byte	0x1
 2997 0042 51       		.byte	0x51
 2998 0043 0C000000 		.4byte	.LVL2
 2999 0047 4A000000 		.4byte	.LFE231
 3000 004b 0400     		.2byte	0x4
 3001 004d F3       		.byte	0xf3
 3002 004e 01       		.uleb128 0x1
 3003 004f 51       		.byte	0x51
 3004 0050 9F       		.byte	0x9f
 3005 0051 00000000 		.4byte	0
 3006 0055 00000000 		.4byte	0
 3007              	.LLST2:
 3008 0059 00000000 		.4byte	.LVL0
 3009 005d 36000000 		.4byte	.LVL13
 3010 0061 0100     		.2byte	0x1
 3011 0063 52       		.byte	0x52
 3012 0064 36000000 		.4byte	.LVL13
 3013 0068 4A000000 		.4byte	.LFE231
 3014 006c 0400     		.2byte	0x4
 3015 006e F3       		.byte	0xf3
 3016 006f 01       		.uleb128 0x1
 3017 0070 52       		.byte	0x52
 3018 0071 9F       		.byte	0x9f
ARM GAS  /tmp/cc03LCvb.s 			page 54


 3019 0072 00000000 		.4byte	0
 3020 0076 00000000 		.4byte	0
 3021              	.LLST3:
 3022 007a 14000000 		.4byte	.LVL3
 3023 007e 18000000 		.4byte	.LVL4
 3024 0082 0100     		.2byte	0x1
 3025 0084 51       		.byte	0x51
 3026 0085 18000000 		.4byte	.LVL4
 3027 0089 22000000 		.4byte	.LVL6
 3028 008d 0100     		.2byte	0x1
 3029 008f 53       		.byte	0x53
 3030 0090 32000000 		.4byte	.LVL11
 3031 0094 48000000 		.4byte	.LVL17
 3032 0098 0600     		.2byte	0x6
 3033 009a 77       		.byte	0x77
 3034 009b 00       		.sleb128 0
 3035 009c 76       		.byte	0x76
 3036 009d 00       		.sleb128 0
 3037 009e 1C       		.byte	0x1c
 3038 009f 9F       		.byte	0x9f
 3039 00a0 00000000 		.4byte	0
 3040 00a4 00000000 		.4byte	0
 3041              	.LLST4:
 3042 00a8 06000000 		.4byte	.LVL1
 3043 00ac 0C000000 		.4byte	.LVL2
 3044 00b0 0100     		.2byte	0x1
 3045 00b2 57       		.byte	0x57
 3046 00b3 0C000000 		.4byte	.LVL2
 3047 00b7 2A000000 		.4byte	.LVL9
 3048 00bb 0300     		.2byte	0x3
 3049 00bd 75       		.byte	0x75
 3050 00be 01       		.sleb128 1
 3051 00bf 9F       		.byte	0x9f
 3052 00c0 2A000000 		.4byte	.LVL9
 3053 00c4 2E000000 		.4byte	.LVL10
 3054 00c8 0100     		.2byte	0x1
 3055 00ca 55       		.byte	0x55
 3056 00cb 2E000000 		.4byte	.LVL10
 3057 00cf 48000000 		.4byte	.LVL17
 3058 00d3 0100     		.2byte	0x1
 3059 00d5 56       		.byte	0x56
 3060 00d6 00000000 		.4byte	0
 3061 00da 00000000 		.4byte	0
 3062              	.LLST5:
 3063 00de 00000000 		.4byte	.LVL0
 3064 00e2 14000000 		.4byte	.LVL3
 3065 00e6 0100     		.2byte	0x1
 3066 00e8 51       		.byte	0x51
 3067 00e9 2A000000 		.4byte	.LVL9
 3068 00ed 34000000 		.4byte	.LVL12
 3069 00f1 0100     		.2byte	0x1
 3070 00f3 51       		.byte	0x51
 3071 00f4 00000000 		.4byte	0
 3072 00f8 00000000 		.4byte	0
 3073              	.LLST6:
 3074 00fc 00000000 		.4byte	.LVL0
 3075 0100 0C000000 		.4byte	.LVL2
ARM GAS  /tmp/cc03LCvb.s 			page 55


 3076 0104 0100     		.2byte	0x1
 3077 0106 51       		.byte	0x51
 3078 0107 0C000000 		.4byte	.LVL2
 3079 010b 26000000 		.4byte	.LVL7
 3080 010f 0100     		.2byte	0x1
 3081 0111 54       		.byte	0x54
 3082 0112 2A000000 		.4byte	.LVL9
 3083 0116 48000000 		.4byte	.LVL17
 3084 011a 0100     		.2byte	0x1
 3085 011c 54       		.byte	0x54
 3086 011d 00000000 		.4byte	0
 3087 0121 00000000 		.4byte	0
 3088              	.LLST7:
 3089 0125 00000000 		.4byte	.LVL18
 3090 0129 22000000 		.4byte	.LVL20
 3091 012d 0100     		.2byte	0x1
 3092 012f 50       		.byte	0x50
 3093 0130 22000000 		.4byte	.LVL20
 3094 0134 78020000 		.4byte	.LFE229
 3095 0138 0100     		.2byte	0x1
 3096 013a 5B       		.byte	0x5b
 3097 013b 00000000 		.4byte	0
 3098 013f 00000000 		.4byte	0
 3099              	.LLST8:
 3100 0143 00000000 		.4byte	.LVL18
 3101 0147 22000000 		.4byte	.LVL20
 3102 014b 0100     		.2byte	0x1
 3103 014d 51       		.byte	0x51
 3104 014e 22000000 		.4byte	.LVL20
 3105 0152 26000000 		.4byte	.LVL21
 3106 0156 0100     		.2byte	0x1
 3107 0158 54       		.byte	0x54
 3108 0159 26000000 		.4byte	.LVL21
 3109 015d 37000000 		.4byte	.LVL24-1
 3110 0161 0100     		.2byte	0x1
 3111 0163 53       		.byte	0x53
 3112 0164 37000000 		.4byte	.LVL24-1
 3113 0168 40000000 		.4byte	.LVL26
 3114 016c 0100     		.2byte	0x1
 3115 016e 54       		.byte	0x54
 3116 016f 40000000 		.4byte	.LVL26
 3117 0173 5E000000 		.4byte	.LVL31
 3118 0177 0100     		.2byte	0x1
 3119 0179 53       		.byte	0x53
 3120 017a 5E000000 		.4byte	.LVL31
 3121 017e 66000000 		.4byte	.LVL32
 3122 0182 0300     		.2byte	0x3
 3123 0184 73       		.byte	0x73
 3124 0185 01       		.sleb128 1
 3125 0186 9F       		.byte	0x9f
 3126 0187 6A000000 		.4byte	.LVL33
 3127 018b 70000000 		.4byte	.LVL34
 3128 018f 0100     		.2byte	0x1
 3129 0191 53       		.byte	0x53
 3130 0192 70000000 		.4byte	.LVL34
 3131 0196 E3000000 		.4byte	.LVL43
 3132 019a 0100     		.2byte	0x1
ARM GAS  /tmp/cc03LCvb.s 			page 56


 3133 019c 54       		.byte	0x54
 3134 019d E3000000 		.4byte	.LVL43
 3135 01a1 F0000000 		.4byte	.LVL47
 3136 01a5 0300     		.2byte	0x3
 3137 01a7 74       		.byte	0x74
 3138 01a8 7F       		.sleb128 -1
 3139 01a9 9F       		.byte	0x9f
 3140 01aa F0000000 		.4byte	.LVL47
 3141 01ae F4000000 		.4byte	.LVL48
 3142 01b2 0100     		.2byte	0x1
 3143 01b4 54       		.byte	0x54
 3144 01b5 F4000000 		.4byte	.LVL48
 3145 01b9 02010000 		.4byte	.LVL49
 3146 01bd 0300     		.2byte	0x3
 3147 01bf 74       		.byte	0x74
 3148 01c0 7F       		.sleb128 -1
 3149 01c1 9F       		.byte	0x9f
 3150 01c2 02010000 		.4byte	.LVL49
 3151 01c6 78020000 		.4byte	.LFE229
 3152 01ca 0100     		.2byte	0x1
 3153 01cc 54       		.byte	0x54
 3154 01cd 00000000 		.4byte	0
 3155 01d1 00000000 		.4byte	0
 3156              	.LLST9:
 3157 01d5 00000000 		.4byte	.LVL18
 3158 01d9 1C000000 		.4byte	.LVL19
 3159 01dd 0100     		.2byte	0x1
 3160 01df 52       		.byte	0x52
 3161 01e0 1C000000 		.4byte	.LVL19
 3162 01e4 22000000 		.4byte	.LVL20
 3163 01e8 0300     		.2byte	0x3
 3164 01ea 52       		.byte	0x52
 3165 01eb 93       		.byte	0x93
 3166 01ec 04       		.uleb128 0x4
 3167 01ed 22000000 		.4byte	.LVL20
 3168 01f1 30000000 		.4byte	.LVL23
 3169 01f5 0300     		.2byte	0x3
 3170 01f7 55       		.byte	0x55
 3171 01f8 93       		.byte	0x93
 3172 01f9 04       		.uleb128 0x4
 3173 01fa 3E000000 		.4byte	.LVL25
 3174 01fe 44000000 		.4byte	.LVL27
 3175 0202 0300     		.2byte	0x3
 3176 0204 55       		.byte	0x55
 3177 0205 93       		.byte	0x93
 3178 0206 04       		.uleb128 0x4
 3179 0207 44000000 		.4byte	.LVL27
 3180 020b 4C000000 		.4byte	.LVL28
 3181 020f 0100     		.2byte	0x1
 3182 0211 52       		.byte	0x52
 3183 0212 4C000000 		.4byte	.LVL28
 3184 0216 4E000000 		.4byte	.LVL29
 3185 021a 0300     		.2byte	0x3
 3186 021c 55       		.byte	0x55
 3187 021d 93       		.byte	0x93
 3188 021e 04       		.uleb128 0x4
 3189 021f 70000000 		.4byte	.LVL34
ARM GAS  /tmp/cc03LCvb.s 			page 57


 3190 0223 74000000 		.4byte	.LVL36
 3191 0227 0500     		.2byte	0x5
 3192 0229 75       		.byte	0x75
 3193 022a 04       		.sleb128 4
 3194 022b 9F       		.byte	0x9f
 3195 022c 93       		.byte	0x93
 3196 022d 04       		.uleb128 0x4
 3197 022e 74000000 		.4byte	.LVL36
 3198 0232 7E000000 		.4byte	.LVL38
 3199 0236 0300     		.2byte	0x3
 3200 0238 55       		.byte	0x55
 3201 0239 93       		.byte	0x93
 3202 023a 04       		.uleb128 0x4
 3203 023b 7E000000 		.4byte	.LVL38
 3204 023f 98000000 		.4byte	.LVL41
 3205 0243 0500     		.2byte	0x5
 3206 0245 75       		.byte	0x75
 3207 0246 04       		.sleb128 4
 3208 0247 9F       		.byte	0x9f
 3209 0248 93       		.byte	0x93
 3210 0249 04       		.uleb128 0x4
 3211 024a 98000000 		.4byte	.LVL41
 3212 024e E3000000 		.4byte	.LVL43
 3213 0252 0300     		.2byte	0x3
 3214 0254 55       		.byte	0x55
 3215 0255 93       		.byte	0x93
 3216 0256 04       		.uleb128 0x4
 3217 0257 E3000000 		.4byte	.LVL43
 3218 025b E8000000 		.4byte	.LVL45
 3219 025f 0500     		.2byte	0x5
 3220 0261 75       		.byte	0x75
 3221 0262 04       		.sleb128 4
 3222 0263 9F       		.byte	0x9f
 3223 0264 93       		.byte	0x93
 3224 0265 04       		.uleb128 0x4
 3225 0266 E8000000 		.4byte	.LVL45
 3226 026a F0000000 		.4byte	.LVL47
 3227 026e 0300     		.2byte	0x3
 3228 0270 55       		.byte	0x55
 3229 0271 93       		.byte	0x93
 3230 0272 04       		.uleb128 0x4
 3231 0273 F0000000 		.4byte	.LVL47
 3232 0277 02010000 		.4byte	.LVL49
 3233 027b 0500     		.2byte	0x5
 3234 027d 75       		.byte	0x75
 3235 027e 04       		.sleb128 4
 3236 027f 9F       		.byte	0x9f
 3237 0280 93       		.byte	0x93
 3238 0281 04       		.uleb128 0x4
 3239 0282 02010000 		.4byte	.LVL49
 3240 0286 1E010000 		.4byte	.LVL55
 3241 028a 0300     		.2byte	0x3
 3242 028c 55       		.byte	0x55
 3243 028d 93       		.byte	0x93
 3244 028e 04       		.uleb128 0x4
 3245 028f 1E010000 		.4byte	.LVL55
 3246 0293 C4010000 		.4byte	.LVL76
ARM GAS  /tmp/cc03LCvb.s 			page 58


 3247 0297 0300     		.2byte	0x3
 3248 0299 55       		.byte	0x55
 3249 029a 93       		.byte	0x93
 3250 029b 04       		.uleb128 0x4
 3251 029c C4010000 		.4byte	.LVL76
 3252 02a0 EC010000 		.4byte	.LVL82
 3253 02a4 0300     		.2byte	0x3
 3254 02a6 55       		.byte	0x55
 3255 02a7 93       		.byte	0x93
 3256 02a8 04       		.uleb128 0x4
 3257 02a9 EC010000 		.4byte	.LVL82
 3258 02ad F8010000 		.4byte	.LVL84
 3259 02b1 0500     		.2byte	0x5
 3260 02b3 75       		.byte	0x75
 3261 02b4 04       		.sleb128 4
 3262 02b5 9F       		.byte	0x9f
 3263 02b6 93       		.byte	0x93
 3264 02b7 04       		.uleb128 0x4
 3265 02b8 F8010000 		.4byte	.LVL84
 3266 02bc 0E020000 		.4byte	.LVL88
 3267 02c0 0300     		.2byte	0x3
 3268 02c2 55       		.byte	0x55
 3269 02c3 93       		.byte	0x93
 3270 02c4 04       		.uleb128 0x4
 3271 02c5 0E020000 		.4byte	.LVL88
 3272 02c9 78020000 		.4byte	.LFE229
 3273 02cd 0300     		.2byte	0x3
 3274 02cf 55       		.byte	0x55
 3275 02d0 93       		.byte	0x93
 3276 02d1 04       		.uleb128 0x4
 3277 02d2 00000000 		.4byte	0
 3278 02d6 00000000 		.4byte	0
 3279              	.LLST10:
 3280 02da 4C000000 		.4byte	.LVL28
 3281 02de 1E010000 		.4byte	.LVL55
 3282 02e2 0300     		.2byte	0x3
 3283 02e4 91       		.byte	0x91
 3284 02e5 BC7F     		.sleb128 -68
 3285 02e7 1E010000 		.4byte	.LVL55
 3286 02eb 21010000 		.4byte	.LVL56-1
 3287 02ef 0100     		.2byte	0x1
 3288 02f1 50       		.byte	0x50
 3289 02f2 A8010000 		.4byte	.LVL73
 3290 02f6 CA010000 		.4byte	.LVL77
 3291 02fa 0300     		.2byte	0x3
 3292 02fc 91       		.byte	0x91
 3293 02fd BC7F     		.sleb128 -68
 3294 02ff CA010000 		.4byte	.LVL77
 3295 0303 D4010000 		.4byte	.LVL78
 3296 0307 0200     		.2byte	0x2
 3297 0309 75       		.byte	0x75
 3298 030a 7C       		.sleb128 -4
 3299 030b D4010000 		.4byte	.LVL78
 3300 030f E6010000 		.4byte	.LVL81
 3301 0313 0100     		.2byte	0x1
 3302 0315 53       		.byte	0x53
 3303 0316 EC010000 		.4byte	.LVL82
ARM GAS  /tmp/cc03LCvb.s 			page 59


 3304 031a 02020000 		.4byte	.LVL85
 3305 031e 0200     		.2byte	0x2
 3306 0320 7D       		.byte	0x7d
 3307 0321 00       		.sleb128 0
 3308 0322 02020000 		.4byte	.LVL85
 3309 0326 12020000 		.4byte	.LVL89
 3310 032a 0300     		.2byte	0x3
 3311 032c 91       		.byte	0x91
 3312 032d BC7F     		.sleb128 -68
 3313 032f 12020000 		.4byte	.LVL89
 3314 0333 16020000 		.4byte	.LVL91
 3315 0337 0100     		.2byte	0x1
 3316 0339 50       		.byte	0x50
 3317 033a 16020000 		.4byte	.LVL91
 3318 033e 26020000 		.4byte	.LVL93
 3319 0342 0200     		.2byte	0x2
 3320 0344 7D       		.byte	0x7d
 3321 0345 00       		.sleb128 0
 3322 0346 4A020000 		.4byte	.LVL100
 3323 034a 5A020000 		.4byte	.LVL101
 3324 034e 0100     		.2byte	0x1
 3325 0350 53       		.byte	0x53
 3326 0351 5A020000 		.4byte	.LVL101
 3327 0355 68020000 		.4byte	.LVL103
 3328 0359 0200     		.2byte	0x2
 3329 035b 7D       		.byte	0x7d
 3330 035c 00       		.sleb128 0
 3331 035d 68020000 		.4byte	.LVL103
 3332 0361 78020000 		.4byte	.LFE229
 3333 0365 0200     		.2byte	0x2
 3334 0367 75       		.byte	0x75
 3335 0368 7C       		.sleb128 -4
 3336 0369 00000000 		.4byte	0
 3337 036d 00000000 		.4byte	0
 3338              	.LLST11:
 3339 0371 4C000000 		.4byte	.LVL28
 3340 0375 32010000 		.4byte	.LVL57
 3341 0379 0300     		.2byte	0x3
 3342 037b 91       		.byte	0x91
 3343 037c BC7F     		.sleb128 -68
 3344 037e 70010000 		.4byte	.LVL66
 3345 0382 78010000 		.4byte	.LVL67
 3346 0386 0300     		.2byte	0x3
 3347 0388 7A       		.byte	0x7a
 3348 0389 02       		.sleb128 2
 3349 038a 9F       		.byte	0x9f
 3350 038b 78010000 		.4byte	.LVL67
 3351 038f 8A010000 		.4byte	.LVL69
 3352 0393 0300     		.2byte	0x3
 3353 0395 7A       		.byte	0x7a
 3354 0396 01       		.sleb128 1
 3355 0397 9F       		.byte	0x9f
 3356 0398 A8010000 		.4byte	.LVL73
 3357 039c C4010000 		.4byte	.LVL76
 3358 03a0 0300     		.2byte	0x3
 3359 03a2 91       		.byte	0x91
 3360 03a3 BC7F     		.sleb128 -68
ARM GAS  /tmp/cc03LCvb.s 			page 60


 3361 03a5 C4010000 		.4byte	.LVL76
 3362 03a9 EC010000 		.4byte	.LVL82
 3363 03ad 0200     		.2byte	0x2
 3364 03af 75       		.byte	0x75
 3365 03b0 7C       		.sleb128 -4
 3366 03b1 EC010000 		.4byte	.LVL82
 3367 03b5 26020000 		.4byte	.LVL93
 3368 03b9 0300     		.2byte	0x3
 3369 03bb 91       		.byte	0x91
 3370 03bc BC7F     		.sleb128 -68
 3371 03be 2A020000 		.4byte	.LVL94
 3372 03c2 40020000 		.4byte	.LVL97
 3373 03c6 0300     		.2byte	0x3
 3374 03c8 79       		.byte	0x79
 3375 03c9 01       		.sleb128 1
 3376 03ca 9F       		.byte	0x9f
 3377 03cb 40020000 		.4byte	.LVL97
 3378 03cf 4A020000 		.4byte	.LVL100
 3379 03d3 0100     		.2byte	0x1
 3380 03d5 59       		.byte	0x59
 3381 03d6 4A020000 		.4byte	.LVL100
 3382 03da 5A020000 		.4byte	.LVL101
 3383 03de 0200     		.2byte	0x2
 3384 03e0 75       		.byte	0x75
 3385 03e1 7C       		.sleb128 -4
 3386 03e2 5A020000 		.4byte	.LVL101
 3387 03e6 68020000 		.4byte	.LVL103
 3388 03ea 0300     		.2byte	0x3
 3389 03ec 91       		.byte	0x91
 3390 03ed BC7F     		.sleb128 -68
 3391 03ef 68020000 		.4byte	.LVL103
 3392 03f3 78020000 		.4byte	.LFE229
 3393 03f7 0200     		.2byte	0x2
 3394 03f9 75       		.byte	0x75
 3395 03fa 7C       		.sleb128 -4
 3396 03fb 00000000 		.4byte	0
 3397 03ff 00000000 		.4byte	0
 3398              	.LLST12:
 3399 0403 26000000 		.4byte	.LVL21
 3400 0407 28000000 		.4byte	.LVL22
 3401 040b 0200     		.2byte	0x2
 3402 040d 74       		.byte	0x74
 3403 040e 00       		.sleb128 0
 3404 040f 40000000 		.4byte	.LVL26
 3405 0413 44000000 		.4byte	.LVL27
 3406 0417 0200     		.2byte	0x2
 3407 0419 74       		.byte	0x74
 3408 041a 00       		.sleb128 0
 3409 041b 70000000 		.4byte	.LVL34
 3410 041f 72000000 		.4byte	.LVL35
 3411 0423 0100     		.2byte	0x1
 3412 0425 52       		.byte	0x52
 3413 0426 72000000 		.4byte	.LVL35
 3414 042a 74000000 		.4byte	.LVL36
 3415 042e 0200     		.2byte	0x2
 3416 0430 75       		.byte	0x75
 3417 0431 00       		.sleb128 0
ARM GAS  /tmp/cc03LCvb.s 			page 61


 3418 0432 74000000 		.4byte	.LVL36
 3419 0436 7E000000 		.4byte	.LVL38
 3420 043a 0100     		.2byte	0x1
 3421 043c 53       		.byte	0x53
 3422 043d 8A000000 		.4byte	.LVL39
 3423 0441 E3000000 		.4byte	.LVL43
 3424 0445 0100     		.2byte	0x1
 3425 0447 52       		.byte	0x52
 3426 0448 E3000000 		.4byte	.LVL43
 3427 044c E6000000 		.4byte	.LVL44
 3428 0450 0200     		.2byte	0x2
 3429 0452 74       		.byte	0x74
 3430 0453 7F       		.sleb128 -1
 3431 0454 E6000000 		.4byte	.LVL44
 3432 0458 E8000000 		.4byte	.LVL45
 3433 045c 0200     		.2byte	0x2
 3434 045e 75       		.byte	0x75
 3435 045f 00       		.sleb128 0
 3436 0460 E8000000 		.4byte	.LVL45
 3437 0464 F0000000 		.4byte	.LVL47
 3438 0468 0100     		.2byte	0x1
 3439 046a 53       		.byte	0x53
 3440 046b F4000000 		.4byte	.LVL48
 3441 046f 0A010000 		.4byte	.LVL50
 3442 0473 0200     		.2byte	0x2
 3443 0475 74       		.byte	0x74
 3444 0476 7F       		.sleb128 -1
 3445 0477 12010000 		.4byte	.LVL51
 3446 047b 16010000 		.4byte	.LVL52
 3447 047f 0200     		.2byte	0x2
 3448 0481 74       		.byte	0x74
 3449 0482 7F       		.sleb128 -1
 3450 0483 16010000 		.4byte	.LVL52
 3451 0487 18010000 		.4byte	.LVL53
 3452 048b 0100     		.2byte	0x1
 3453 048d 52       		.byte	0x52
 3454 048e A8010000 		.4byte	.LVL73
 3455 0492 AA010000 		.4byte	.LVL74
 3456 0496 0100     		.2byte	0x1
 3457 0498 52       		.byte	0x52
 3458 0499 AA010000 		.4byte	.LVL74
 3459 049d AC010000 		.4byte	.LVL75
 3460 04a1 0400     		.2byte	0x4
 3461 04a3 73       		.byte	0x73
 3462 04a4 C400     		.sleb128 68
 3463 04a6 9F       		.byte	0x9f
 3464 04a7 AC010000 		.4byte	.LVL75
 3465 04ab D4010000 		.4byte	.LVL78
 3466 04af 0100     		.2byte	0x1
 3467 04b1 52       		.byte	0x52
 3468 04b2 EC010000 		.4byte	.LVL82
 3469 04b6 F6010000 		.4byte	.LVL83
 3470 04ba 0100     		.2byte	0x1
 3471 04bc 52       		.byte	0x52
 3472 04bd 02020000 		.4byte	.LVL85
 3473 04c1 06020000 		.4byte	.LVL86
 3474 04c5 0200     		.2byte	0x2
ARM GAS  /tmp/cc03LCvb.s 			page 62


 3475 04c7 38       		.byte	0x38
 3476 04c8 9F       		.byte	0x9f
 3477 04c9 06020000 		.4byte	.LVL86
 3478 04cd 14020000 		.4byte	.LVL90
 3479 04d1 0100     		.2byte	0x1
 3480 04d3 52       		.byte	0x52
 3481 04d4 16020000 		.4byte	.LVL91
 3482 04d8 1E020000 		.4byte	.LVL92
 3483 04dc 0100     		.2byte	0x1
 3484 04de 52       		.byte	0x52
 3485 04df 1E020000 		.4byte	.LVL92
 3486 04e3 26020000 		.4byte	.LVL93
 3487 04e7 0400     		.2byte	0x4
 3488 04e9 73       		.byte	0x73
 3489 04ea C400     		.sleb128 68
 3490 04ec 9F       		.byte	0x9f
 3491 04ed 5A020000 		.4byte	.LVL101
 3492 04f1 78020000 		.4byte	.LFE229
 3493 04f5 0100     		.2byte	0x1
 3494 04f7 52       		.byte	0x52
 3495 04f8 00000000 		.4byte	0
 3496 04fc 00000000 		.4byte	0
 3497              	.LLST13:
 3498 0500 5E000000 		.4byte	.LVL31
 3499 0504 6A000000 		.4byte	.LVL33
 3500 0508 0300     		.2byte	0x3
 3501 050a 08       		.byte	0x8
 3502 050b 30       		.byte	0x30
 3503 050c 9F       		.byte	0x9f
 3504 050d 6A000000 		.4byte	.LVL33
 3505 0511 AC010000 		.4byte	.LVL75
 3506 0515 0100     		.2byte	0x1
 3507 0517 56       		.byte	0x56
 3508 0518 AC010000 		.4byte	.LVL75
 3509 051c 02020000 		.4byte	.LVL85
 3510 0520 0300     		.2byte	0x3
 3511 0522 08       		.byte	0x8
 3512 0523 20       		.byte	0x20
 3513 0524 9F       		.byte	0x9f
 3514 0525 02020000 		.4byte	.LVL85
 3515 0529 4A020000 		.4byte	.LVL100
 3516 052d 0100     		.2byte	0x1
 3517 052f 56       		.byte	0x56
 3518 0530 4A020000 		.4byte	.LVL100
 3519 0534 5A020000 		.4byte	.LVL101
 3520 0538 0300     		.2byte	0x3
 3521 053a 08       		.byte	0x8
 3522 053b 20       		.byte	0x20
 3523 053c 9F       		.byte	0x9f
 3524 053d 5A020000 		.4byte	.LVL101
 3525 0541 68020000 		.4byte	.LVL103
 3526 0545 0100     		.2byte	0x1
 3527 0547 56       		.byte	0x56
 3528 0548 68020000 		.4byte	.LVL103
 3529 054c 78020000 		.4byte	.LFE229
 3530 0550 0300     		.2byte	0x3
 3531 0552 08       		.byte	0x8
ARM GAS  /tmp/cc03LCvb.s 			page 63


 3532 0553 20       		.byte	0x20
 3533 0554 9F       		.byte	0x9f
 3534 0555 00000000 		.4byte	0
 3535 0559 00000000 		.4byte	0
 3536              	.LLST14:
 3537 055d 32010000 		.4byte	.LVL57
 3538 0561 4A010000 		.4byte	.LVL61
 3539 0565 0100     		.2byte	0x1
 3540 0567 50       		.byte	0x50
 3541 0568 64010000 		.4byte	.LVL65
 3542 056c 70010000 		.4byte	.LVL66
 3543 0570 0200     		.2byte	0x2
 3544 0572 91       		.byte	0x91
 3545 0573 40       		.sleb128 -64
 3546 0574 26020000 		.4byte	.LVL93
 3547 0578 30020000 		.4byte	.LVL95
 3548 057c 0100     		.2byte	0x1
 3549 057e 50       		.byte	0x50
 3550 057f 44020000 		.4byte	.LVL98
 3551 0583 48020000 		.4byte	.LVL99
 3552 0587 0200     		.2byte	0x2
 3553 0589 91       		.byte	0x91
 3554 058a 40       		.sleb128 -64
 3555 058b 48020000 		.4byte	.LVL99
 3556 058f 4A020000 		.4byte	.LVL100
 3557 0593 0300     		.2byte	0x3
 3558 0595 7C       		.byte	0x7c
 3559 0596 01       		.sleb128 1
 3560 0597 9F       		.byte	0x9f
 3561 0598 00000000 		.4byte	0
 3562 059c 00000000 		.4byte	0
 3563              	.LLST15:
 3564 05a0 90000000 		.4byte	.LVL40
 3565 05a4 98000000 		.4byte	.LVL41
 3566 05a8 0200     		.2byte	0x2
 3567 05aa 30       		.byte	0x30
 3568 05ab 9F       		.byte	0x9f
 3569 05ac EC000000 		.4byte	.LVL46
 3570 05b0 F0000000 		.4byte	.LVL47
 3571 05b4 0500     		.2byte	0x5
 3572 05b6 71       		.byte	0x71
 3573 05b7 00       		.sleb128 0
 3574 05b8 31       		.byte	0x31
 3575 05b9 24       		.byte	0x24
 3576 05ba 9F       		.byte	0x9f
 3577 05bb 00000000 		.4byte	0
 3578 05bf 00000000 		.4byte	0
 3579              	.LLST16:
 3580 05c3 6A000000 		.4byte	.LVL33
 3581 05c7 70000000 		.4byte	.LVL34
 3582 05cb 0200     		.2byte	0x2
 3583 05cd 30       		.byte	0x30
 3584 05ce 9F       		.byte	0x9f
 3585 05cf 70000000 		.4byte	.LVL34
 3586 05d3 78000000 		.4byte	.LVL37
 3587 05d7 0100     		.2byte	0x1
 3588 05d9 57       		.byte	0x57
ARM GAS  /tmp/cc03LCvb.s 			page 64


 3589 05da 7E000000 		.4byte	.LVL38
 3590 05de 4C010000 		.4byte	.LVL62
 3591 05e2 0100     		.2byte	0x1
 3592 05e4 57       		.byte	0x57
 3593 05e5 4C010000 		.4byte	.LVL62
 3594 05e9 58010000 		.4byte	.LVL63
 3595 05ed 0100     		.2byte	0x1
 3596 05ef 5A       		.byte	0x5a
 3597 05f0 58010000 		.4byte	.LVL63
 3598 05f4 5C010000 		.4byte	.LVL64
 3599 05f8 0300     		.2byte	0x3
 3600 05fa 7A       		.byte	0x7a
 3601 05fb 01       		.sleb128 1
 3602 05fc 9F       		.byte	0x9f
 3603 05fd 5C010000 		.4byte	.LVL64
 3604 0601 64010000 		.4byte	.LVL65
 3605 0605 0100     		.2byte	0x1
 3606 0607 5A       		.byte	0x5a
 3607 0608 64010000 		.4byte	.LVL65
 3608 060c 70010000 		.4byte	.LVL66
 3609 0610 0100     		.2byte	0x1
 3610 0612 57       		.byte	0x57
 3611 0613 8A010000 		.4byte	.LVL69
 3612 0617 92010000 		.4byte	.LVL70
 3613 061b 0100     		.2byte	0x1
 3614 061d 57       		.byte	0x57
 3615 061e 92010000 		.4byte	.LVL70
 3616 0622 9E010000 		.4byte	.LVL71
 3617 0626 0100     		.2byte	0x1
 3618 0628 59       		.byte	0x59
 3619 0629 9E010000 		.4byte	.LVL71
 3620 062d A2010000 		.4byte	.LVL72
 3621 0631 0300     		.2byte	0x3
 3622 0633 79       		.byte	0x79
 3623 0634 7F       		.sleb128 -1
 3624 0635 9F       		.byte	0x9f
 3625 0636 A2010000 		.4byte	.LVL72
 3626 063a A8010000 		.4byte	.LVL73
 3627 063e 0100     		.2byte	0x1
 3628 0640 59       		.byte	0x59
 3629 0641 A8010000 		.4byte	.LVL73
 3630 0645 78020000 		.4byte	.LFE229
 3631 0649 0100     		.2byte	0x1
 3632 064b 57       		.byte	0x57
 3633 064c 00000000 		.4byte	0
 3634 0650 00000000 		.4byte	0
 3635              	.LLST17:
 3636 0654 1C000000 		.4byte	.LVL19
 3637 0658 22000000 		.4byte	.LVL20
 3638 065c 0200     		.2byte	0x2
 3639 065e 30       		.byte	0x30
 3640 065f 9F       		.byte	0x9f
 3641 0660 22000000 		.4byte	.LVL20
 3642 0664 4C010000 		.4byte	.LVL62
 3643 0668 0100     		.2byte	0x1
 3644 066a 58       		.byte	0x58
 3645 066b 64010000 		.4byte	.LVL65
ARM GAS  /tmp/cc03LCvb.s 			page 65


 3646 066f 70010000 		.4byte	.LVL66
 3647 0673 0100     		.2byte	0x1
 3648 0675 58       		.byte	0x58
 3649 0676 8A010000 		.4byte	.LVL69
 3650 067a 92010000 		.4byte	.LVL70
 3651 067e 0100     		.2byte	0x1
 3652 0680 58       		.byte	0x58
 3653 0681 A8010000 		.4byte	.LVL73
 3654 0685 78020000 		.4byte	.LFE229
 3655 0689 0100     		.2byte	0x1
 3656 068b 58       		.byte	0x58
 3657 068c 00000000 		.4byte	0
 3658 0690 00000000 		.4byte	0
 3659              	.LLST18:
 3660 0694 0A010000 		.4byte	.LVL50
 3661 0698 16010000 		.4byte	.LVL52
 3662 069c 0200     		.2byte	0x2
 3663 069e 31       		.byte	0x31
 3664 069f 9F       		.byte	0x9f
 3665 06a0 00000000 		.4byte	0
 3666 06a4 00000000 		.4byte	0
 3667              	.LLST19:
 3668 06a8 4C000000 		.4byte	.LVL28
 3669 06ac 56000000 		.4byte	.LVL30
 3670 06b0 0200     		.2byte	0x2
 3671 06b2 30       		.byte	0x30
 3672 06b3 9F       		.byte	0x9f
 3673 06b4 56000000 		.4byte	.LVL30
 3674 06b8 5E000000 		.4byte	.LVL31
 3675 06bc 0200     		.2byte	0x2
 3676 06be 31       		.byte	0x31
 3677 06bf 9F       		.byte	0x9f
 3678 06c0 5E000000 		.4byte	.LVL31
 3679 06c4 4C010000 		.4byte	.LVL62
 3680 06c8 0100     		.2byte	0x1
 3681 06ca 5A       		.byte	0x5a
 3682 06cb A8010000 		.4byte	.LVL73
 3683 06cf 78020000 		.4byte	.LFE229
 3684 06d3 0100     		.2byte	0x1
 3685 06d5 5A       		.byte	0x5a
 3686 06d6 00000000 		.4byte	0
 3687 06da 00000000 		.4byte	0
 3688              	.LLST20:
 3689 06de 1A010000 		.4byte	.LVL54
 3690 06e2 21010000 		.4byte	.LVL56-1
 3691 06e6 0100     		.2byte	0x1
 3692 06e8 51       		.byte	0x51
 3693 06e9 08020000 		.4byte	.LVL87
 3694 06ed 16020000 		.4byte	.LVL91
 3695 06f1 0100     		.2byte	0x1
 3696 06f3 51       		.byte	0x51
 3697 06f4 5A020000 		.4byte	.LVL101
 3698 06f8 68020000 		.4byte	.LVL103
 3699 06fc 0100     		.2byte	0x1
 3700 06fe 51       		.byte	0x51
 3701 06ff 00000000 		.4byte	0
 3702 0703 00000000 		.4byte	0
ARM GAS  /tmp/cc03LCvb.s 			page 66


 3703              	.LLST21:
 3704 0707 12020000 		.4byte	.LVL89
 3705 070b 16020000 		.4byte	.LVL91
 3706 070f 0200     		.2byte	0x2
 3707 0711 3A       		.byte	0x3a
 3708 0712 9F       		.byte	0x9f
 3709 0713 00000000 		.4byte	0
 3710 0717 00000000 		.4byte	0
 3711              	.LLST22:
 3712 071b 12020000 		.4byte	.LVL89
 3713 071f 16020000 		.4byte	.LVL91
 3714 0723 0100     		.2byte	0x1
 3715 0725 51       		.byte	0x51
 3716 0726 00000000 		.4byte	0
 3717 072a 00000000 		.4byte	0
 3718              	.LLST23:
 3719 072e 12020000 		.4byte	.LVL89
 3720 0732 16020000 		.4byte	.LVL91
 3721 0736 0100     		.2byte	0x1
 3722 0738 50       		.byte	0x50
 3723 0739 00000000 		.4byte	0
 3724 073d 00000000 		.4byte	0
 3725              	.LLST24:
 3726 0741 00000000 		.4byte	.LVL104
 3727 0745 10000000 		.4byte	.LVL106
 3728 0749 0100     		.2byte	0x1
 3729 074b 50       		.byte	0x50
 3730 074c 10000000 		.4byte	.LVL106
 3731 0750 38000000 		.4byte	.LVL112
 3732 0754 0100     		.2byte	0x1
 3733 0756 55       		.byte	0x55
 3734 0757 38000000 		.4byte	.LVL112
 3735 075b 3C000000 		.4byte	.LVL113
 3736 075f 0400     		.2byte	0x4
 3737 0761 F3       		.byte	0xf3
 3738 0762 01       		.uleb128 0x1
 3739 0763 50       		.byte	0x50
 3740 0764 9F       		.byte	0x9f
 3741 0765 3C000000 		.4byte	.LVL113
 3742 0769 44000000 		.4byte	.LVL115
 3743 076d 0100     		.2byte	0x1
 3744 076f 50       		.byte	0x50
 3745 0770 44000000 		.4byte	.LVL115
 3746 0774 5C000000 		.4byte	.LVL119
 3747 0778 0100     		.2byte	0x1
 3748 077a 55       		.byte	0x55
 3749 077b 5C000000 		.4byte	.LVL119
 3750 077f 60000000 		.4byte	.LFE230
 3751 0783 0400     		.2byte	0x4
 3752 0785 F3       		.byte	0xf3
 3753 0786 01       		.uleb128 0x1
 3754 0787 50       		.byte	0x50
 3755 0788 9F       		.byte	0x9f
 3756 0789 00000000 		.4byte	0
 3757 078d 00000000 		.4byte	0
 3758              	.LLST25:
 3759 0791 00000000 		.4byte	.LVL104
ARM GAS  /tmp/cc03LCvb.s 			page 67


 3760 0795 12000000 		.4byte	.LVL107
 3761 0799 0100     		.2byte	0x1
 3762 079b 51       		.byte	0x51
 3763 079c 12000000 		.4byte	.LVL107
 3764 07a0 38000000 		.4byte	.LVL112
 3765 07a4 0100     		.2byte	0x1
 3766 07a6 54       		.byte	0x54
 3767 07a7 38000000 		.4byte	.LVL112
 3768 07ab 3C000000 		.4byte	.LVL113
 3769 07af 0400     		.2byte	0x4
 3770 07b1 F3       		.byte	0xf3
 3771 07b2 01       		.uleb128 0x1
 3772 07b3 51       		.byte	0x51
 3773 07b4 9F       		.byte	0x9f
 3774 07b5 3C000000 		.4byte	.LVL113
 3775 07b9 42000000 		.4byte	.LVL114
 3776 07bd 0100     		.2byte	0x1
 3777 07bf 51       		.byte	0x51
 3778 07c0 42000000 		.4byte	.LVL114
 3779 07c4 5C000000 		.4byte	.LVL119
 3780 07c8 0100     		.2byte	0x1
 3781 07ca 54       		.byte	0x54
 3782 07cb 5C000000 		.4byte	.LVL119
 3783 07cf 60000000 		.4byte	.LFE230
 3784 07d3 0400     		.2byte	0x4
 3785 07d5 F3       		.byte	0xf3
 3786 07d6 01       		.uleb128 0x1
 3787 07d7 51       		.byte	0x51
 3788 07d8 9F       		.byte	0x9f
 3789 07d9 00000000 		.4byte	0
 3790 07dd 00000000 		.4byte	0
 3791              	.LLST26:
 3792 07e1 1A000000 		.4byte	.LVL109
 3793 07e5 20000000 		.4byte	.LVL110
 3794 07e9 0300     		.2byte	0x3
 3795 07eb 91       		.byte	0x91
 3796 07ec 44       		.sleb128 -60
 3797 07ed 9F       		.byte	0x9f
 3798 07ee 20000000 		.4byte	.LVL110
 3799 07f2 27000000 		.4byte	.LVL111-1
 3800 07f6 0100     		.2byte	0x1
 3801 07f8 50       		.byte	0x50
 3802 07f9 27000000 		.4byte	.LVL111-1
 3803 07fd 3C000000 		.4byte	.LVL113
 3804 0801 0300     		.2byte	0x3
 3805 0803 91       		.byte	0x91
 3806 0804 44       		.sleb128 -60
 3807 0805 9F       		.byte	0x9f
 3808 0806 48000000 		.4byte	.LVL116
 3809 080a 4C000000 		.4byte	.LVL117
 3810 080e 0300     		.2byte	0x3
 3811 0810 91       		.byte	0x91
 3812 0811 44       		.sleb128 -60
 3813 0812 9F       		.byte	0x9f
 3814 0813 4C000000 		.4byte	.LVL117
 3815 0817 55000000 		.4byte	.LVL118-1
 3816 081b 0100     		.2byte	0x1
ARM GAS  /tmp/cc03LCvb.s 			page 68


 3817 081d 50       		.byte	0x50
 3818 081e 55000000 		.4byte	.LVL118-1
 3819 0822 60000000 		.4byte	.LFE230
 3820 0826 0300     		.2byte	0x3
 3821 0828 91       		.byte	0x91
 3822 0829 44       		.sleb128 -60
 3823 082a 9F       		.byte	0x9f
 3824 082b 00000000 		.4byte	0
 3825 082f 00000000 		.4byte	0
 3826              	.LLST27:
 3827 0833 0E000000 		.4byte	.LVL105
 3828 0837 12000000 		.4byte	.LVL107
 3829 083b 0300     		.2byte	0x3
 3830 083d 71       		.byte	0x71
 3831 083e 7F       		.sleb128 -1
 3832 083f 9F       		.byte	0x9f
 3833 0840 12000000 		.4byte	.LVL107
 3834 0844 14000000 		.4byte	.LVL108
 3835 0848 0300     		.2byte	0x3
 3836 084a 74       		.byte	0x74
 3837 084b 7F       		.sleb128 -1
 3838 084c 9F       		.byte	0x9f
 3839 084d 14000000 		.4byte	.LVL108
 3840 0851 19000000 		.4byte	.LVL109-1
 3841 0855 0100     		.2byte	0x1
 3842 0857 52       		.byte	0x52
 3843 0858 19000000 		.4byte	.LVL109-1
 3844 085c 38000000 		.4byte	.LVL112
 3845 0860 0300     		.2byte	0x3
 3846 0862 74       		.byte	0x74
 3847 0863 7F       		.sleb128 -1
 3848 0864 9F       		.byte	0x9f
 3849 0865 38000000 		.4byte	.LVL112
 3850 0869 3C000000 		.4byte	.LVL113
 3851 086d 0600     		.2byte	0x6
 3852 086f F3       		.byte	0xf3
 3853 0870 01       		.uleb128 0x1
 3854 0871 51       		.byte	0x51
 3855 0872 31       		.byte	0x31
 3856 0873 1C       		.byte	0x1c
 3857 0874 9F       		.byte	0x9f
 3858 0875 3C000000 		.4byte	.LVL113
 3859 0879 60000000 		.4byte	.LFE230
 3860 087d 0200     		.2byte	0x2
 3861 087f 30       		.byte	0x30
 3862 0880 9F       		.byte	0x9f
 3863 0881 00000000 		.4byte	0
 3864 0885 00000000 		.4byte	0
 3865              	.LLST28:
 3866 0889 28000000 		.4byte	.LVL111
 3867 088d 3C000000 		.4byte	.LVL113
 3868 0891 0100     		.2byte	0x1
 3869 0893 50       		.byte	0x50
 3870 0894 56000000 		.4byte	.LVL118
 3871 0898 60000000 		.4byte	.LFE230
 3872 089c 0100     		.2byte	0x1
 3873 089e 50       		.byte	0x50
ARM GAS  /tmp/cc03LCvb.s 			page 69


 3874 089f 00000000 		.4byte	0
 3875 08a3 00000000 		.4byte	0
 3876              		.section	.debug_aranges,"",%progbits
 3877 0000 2C000000 		.4byte	0x2c
 3878 0004 0200     		.2byte	0x2
 3879 0006 00000000 		.4byte	.Ldebug_info0
 3880 000a 04       		.byte	0x4
 3881 000b 00       		.byte	0
 3882 000c 0000     		.2byte	0
 3883 000e 0000     		.2byte	0
 3884 0010 00000000 		.4byte	.LFB231
 3885 0014 4A000000 		.4byte	.LFE231-.LFB231
 3886 0018 00000000 		.4byte	.LFB229
 3887 001c 78020000 		.4byte	.LFE229-.LFB229
 3888 0020 00000000 		.4byte	.LFB230
 3889 0024 60000000 		.4byte	.LFE230-.LFB230
 3890 0028 00000000 		.4byte	0
 3891 002c 00000000 		.4byte	0
 3892              		.section	.debug_ranges,"",%progbits
 3893              	.Ldebug_ranges0:
 3894 0000 1A010000 		.4byte	.LBB6
 3895 0004 1C010000 		.4byte	.LBE6
 3896 0008 1E010000 		.4byte	.LBB9
 3897 000c 2E010000 		.4byte	.LBE9
 3898 0010 00000000 		.4byte	0
 3899 0014 00000000 		.4byte	0
 3900 0018 00000000 		.4byte	.LFB231
 3901 001c 4A000000 		.4byte	.LFE231
 3902 0020 00000000 		.4byte	.LFB229
 3903 0024 78020000 		.4byte	.LFE229
 3904 0028 00000000 		.4byte	.LFB230
 3905 002c 60000000 		.4byte	.LFE230
 3906 0030 00000000 		.4byte	0
 3907 0034 00000000 		.4byte	0
 3908              		.section	.debug_line,"",%progbits
 3909              	.Ldebug_line0:
 3910 0000 07040000 		.section	.debug_str,"MS",%progbits,1
 3910      0200DB02 
 3910      00000201 
 3910      FB0E0D00 
 3910      01010101 
 3911              	.LASF21:
 3912 0000 74726566 		.ascii	"trefs_t\000"
 3912      735F7400 
 3913              	.LASF49:
 3914 0008 72656164 		.ascii	"ready_list_t\000"
 3914      795F6C69 
 3914      73745F74 
 3914      00
 3915              	.LASF2:
 3916 0015 73697A65 		.ascii	"size_t\000"
 3916      5F7400
 3917              	.LASF17:
 3918 001c 75696E74 		.ascii	"uint64_t\000"
 3918      36345F74 
 3918      00
 3919              	.LASF3:
ARM GAS  /tmp/cc03LCvb.s 			page 70


 3920 0025 5F5F7569 		.ascii	"__uint8_t\000"
 3920      6E74385F 
 3920      7400
 3921              	.LASF81:
 3922 002f 706F7274 		.ascii	"port_intctx\000"
 3922      5F696E74 
 3922      63747800 
 3923              	.LASF101:
 3924 003b 76615F6C 		.ascii	"va_list\000"
 3924      69737400 
 3925              	.LASF68:
 3926 0043 73797374 		.ascii	"system_debug_t\000"
 3926      656D5F64 
 3926      65627567 
 3926      5F7400
 3927              	.LASF119:
 3928 0052 73697A65 		.ascii	"size_wo_nul\000"
 3928      5F776F5F 
 3928      6E756C00 
 3929              	.LASF13:
 3930 005e 6C6F6E67 		.ascii	"long long unsigned int\000"
 3930      206C6F6E 
 3930      6720756E 
 3930      7369676E 
 3930      65642069 
 3931              	.LASF85:
 3932 0075 65786974 		.ascii	"exitcode\000"
 3932      636F6465 
 3932      00
 3933              	.LASF75:
 3934 007e 6D61696E 		.ascii	"mainthread\000"
 3934      74687265 
 3934      616400
 3935              	.LASF65:
 3936 0089 76697274 		.ascii	"virtual_timers_list_t\000"
 3936      75616C5F 
 3936      74696D65 
 3936      72735F6C 
 3936      6973745F 
 3937              	.LASF121:
 3938 009f 49544D5F 		.ascii	"ITM_RxBuffer\000"
 3938      52784275 
 3938      66666572 
 3938      00
 3939              	.LASF48:
 3940 00ac 63685F74 		.ascii	"ch_threads_queue\000"
 3940      68726561 
 3940      64735F71 
 3940      75657565 
 3940      00
 3941              	.LASF29:
 3942 00bd 705F7072 		.ascii	"p_prio\000"
 3942      696F00
 3943              	.LASF11:
 3944 00c4 6C6F6E67 		.ascii	"long long int\000"
 3944      206C6F6E 
 3944      6720696E 
ARM GAS  /tmp/cc03LCvb.s 			page 71


 3944      7400
 3945              	.LASF1:
 3946 00d2 7369676E 		.ascii	"signed char\000"
 3946      65642063 
 3946      68617200 
 3947              	.LASF10:
 3948 00de 6C6F6E67 		.ascii	"long unsigned int\000"
 3948      20756E73 
 3948      69676E65 
 3948      6420696E 
 3948      7400
 3949              	.LASF43:
 3950 00f0 705F6D70 		.ascii	"p_mpool\000"
 3950      6F6F6C00 
 3951              	.LASF115:
 3952 00f8 746D7062 		.ascii	"tmpbuf\000"
 3952      756600
 3953              	.LASF72:
 3954 00ff 63685F73 		.ascii	"ch_system\000"
 3954      79737465 
 3954      6D00
 3955              	.LASF8:
 3956 0109 6C6F6E67 		.ascii	"long int\000"
 3956      20696E74 
 3956      00
 3957              	.LASF20:
 3958 0112 74737461 		.ascii	"tstate_t\000"
 3958      74655F74 
 3958      00
 3959              	.LASF99:
 3960 011b 5F5F7661 		.ascii	"__va_list\000"
 3960      5F6C6973 
 3960      7400
 3961              	.LASF120:
 3962 0125 72657476 		.ascii	"retval\000"
 3962      616C00
 3963              	.LASF103:
 3964 012c 62756666 		.ascii	"buffer\000"
 3964      657200
 3965              	.LASF31:
 3966 0133 705F6E65 		.ascii	"p_newer\000"
 3966      77657200 
 3967              	.LASF54:
 3968 013b 725F6E65 		.ascii	"r_newer\000"
 3968      77657200 
 3969              	.LASF78:
 3970 0143 72656761 		.ascii	"regarm_t\000"
 3970      726D5F74 
 3970      00
 3971              	.LASF61:
 3972 014c 76745F70 		.ascii	"vt_prev\000"
 3972      72657600 
 3973              	.LASF74:
 3974 0154 76746C69 		.ascii	"vtlist\000"
 3974      737400
 3975              	.LASF110:
 3976 015b 66696C6C 		.ascii	"filler\000"
ARM GAS  /tmp/cc03LCvb.s 			page 72


 3976      657200
 3977              	.LASF113:
 3978 0162 69735F6C 		.ascii	"is_long\000"
 3978      6F6E6700 
 3979              	.LASF93:
 3980 016a 6D757465 		.ascii	"mutex_t\000"
 3980      785F7400 
 3981              	.LASF97:
 3982 0172 42617365 		.ascii	"BaseSequentialStream\000"
 3982      53657175 
 3982      656E7469 
 3982      616C5374 
 3982      7265616D 
 3983              	.LASF89:
 3984 0187 6D757465 		.ascii	"mutex\000"
 3984      7800
 3985              	.LASF76:
 3986 018d 69646C65 		.ascii	"idle_thread_wa\000"
 3986      5F746872 
 3986      6561645F 
 3986      776100
 3987              	.LASF0:
 3988 019c 756E7369 		.ascii	"unsigned int\000"
 3988      676E6564 
 3988      20696E74 
 3988      00
 3989              	.LASF60:
 3990 01a9 76745F6E 		.ascii	"vt_next\000"
 3990      65787400 
 3991              	.LASF38:
 3992 01b1 705F6D73 		.ascii	"p_msgqueue\000"
 3992      67717565 
 3992      756500
 3993              	.LASF114:
 3994 01bc 6C656674 		.ascii	"left_align\000"
 3994      5F616C69 
 3994      676E00
 3995              	.LASF112:
 3996 01c7 77696474 		.ascii	"width\000"
 3996      6800
 3997              	.LASF6:
 3998 01cd 73686F72 		.ascii	"short unsigned int\000"
 3998      7420756E 
 3998      7369676E 
 3998      65642069 
 3998      6E7400
 3999              	.LASF45:
 4000 01e0 63685F74 		.ascii	"ch_thread\000"
 4000      68726561 
 4000      6400
 4001              	.LASF23:
 4002 01ea 6D73675F 		.ascii	"msg_t\000"
 4002      7400
 4003              	.LASF96:
 4004 01f0 72656164 		.ascii	"read\000"
 4004      00
 4005              	.LASF19:
ARM GAS  /tmp/cc03LCvb.s 			page 73


 4006 01f5 746D6F64 		.ascii	"tmode_t\000"
 4006      655F7400 
 4007              	.LASF50:
 4008 01fd 63685F72 		.ascii	"ch_ready_list\000"
 4008      65616479 
 4008      5F6C6973 
 4008      7400
 4009              	.LASF24:
 4010 020b 6576656E 		.ascii	"eventmask_t\000"
 4010      746D6173 
 4010      6B5F7400 
 4011              	.LASF7:
 4012 0217 5F5F696E 		.ascii	"__int32_t\000"
 4012      7433325F 
 4012      7400
 4013              	.LASF107:
 4014 0221 6C746F61 		.ascii	"ltoa\000"
 4014      00
 4015              	.LASF79:
 4016 0226 73746B61 		.ascii	"stkalign_t\000"
 4016      6C69676E 
 4016      5F7400
 4017              	.LASF126:
 4018 0231 6D734F62 		.ascii	"msObjectInit\000"
 4018      6A656374 
 4018      496E6974 
 4018      00
 4019              	.LASF95:
 4020 023e 77726974 		.ascii	"write\000"
 4020      6500
 4021              	.LASF37:
 4022 0244 705F7761 		.ascii	"p_waiting\000"
 4022      6974696E 
 4022      6700
 4023              	.LASF77:
 4024 024e 73697A65 		.ascii	"sizetype\000"
 4024      74797065 
 4024      00
 4025              	.LASF66:
 4026 0257 63685F76 		.ascii	"ch_virtual_timers_list\000"
 4026      69727475 
 4026      616C5F74 
 4026      696D6572 
 4026      735F6C69 
 4027              	.LASF125:
 4028 026e 756E7369 		.ascii	"unsigned_common\000"
 4028      676E6564 
 4028      5F636F6D 
 4028      6D6F6E00 
 4029              	.LASF109:
 4030 027e 64697669 		.ascii	"divisor\000"
 4030      736F7200 
 4031              	.LASF98:
 4032 0286 5F5F676E 		.ascii	"__gnuc_va_list\000"
 4032      75635F76 
 4032      615F6C69 
 4032      737400
ARM GAS  /tmp/cc03LCvb.s 			page 74


 4033              	.LASF67:
 4034 0295 76745F6C 		.ascii	"vt_lasttime\000"
 4034      61737474 
 4034      696D6500 
 4035              	.LASF32:
 4036 02a1 705F6F6C 		.ascii	"p_older\000"
 4036      64657200 
 4037              	.LASF53:
 4038 02a9 725F6374 		.ascii	"r_ctx\000"
 4038      7800
 4039              	.LASF83:
 4040 02af 746D5F63 		.ascii	"tm_calibration_t\000"
 4040      616C6962 
 4040      72617469 
 4040      6F6E5F74 
 4040      00
 4041              	.LASF56:
 4042 02c0 725F6375 		.ascii	"r_current\000"
 4042      7272656E 
 4042      7400
 4043              	.LASF55:
 4044 02ca 725F6F6C 		.ascii	"r_older\000"
 4044      64657200 
 4045              	.LASF102:
 4046 02d2 4D656D53 		.ascii	"MemStreamVMT\000"
 4046      74726561 
 4046      6D564D54 
 4046      00
 4047              	.LASF12:
 4048 02df 5F5F7569 		.ascii	"__uint64_t\000"
 4048      6E743634 
 4048      5F7400
 4049              	.LASF58:
 4050 02ea 76697274 		.ascii	"virtual_timer_t\000"
 4050      75616C5F 
 4050      74696D65 
 4050      725F7400 
 4051              	.LASF28:
 4052 02fa 705F7072 		.ascii	"p_prev\000"
 4052      657600
 4053              	.LASF22:
 4054 0301 74707269 		.ascii	"tprio_t\000"
 4054      6F5F7400 
 4055              	.LASF105:
 4056 0309 4D656D6F 		.ascii	"MemoryStream\000"
 4056      72795374 
 4056      7265616D 
 4056      00
 4057              	.LASF33:
 4058 0316 705F6E61 		.ascii	"p_name\000"
 4058      6D6500
 4059              	.LASF69:
 4060 031d 63685F73 		.ascii	"ch_system_debug\000"
 4060      79737465 
 4060      6D5F6465 
 4060      62756700 
 4061              	.LASF116:
ARM GAS  /tmp/cc03LCvb.s 			page 75


 4062 032d 5F426F6F 		.ascii	"_Bool\000"
 4062      6C00
 4063              	.LASF15:
 4064 0333 696E7433 		.ascii	"int32_t\000"
 4064      325F7400 
 4065              	.LASF4:
 4066 033b 756E7369 		.ascii	"unsigned char\000"
 4066      676E6564 
 4066      20636861 
 4066      7200
 4067              	.LASF90:
 4068 0349 6D5F7175 		.ascii	"m_queue\000"
 4068      65756500 
 4069              	.LASF41:
 4070 0351 705F6D74 		.ascii	"p_mtxlist\000"
 4070      786C6973 
 4070      7400
 4071              	.LASF5:
 4072 035b 73686F72 		.ascii	"short int\000"
 4072      7420696E 
 4072      7400
 4073              	.LASF34:
 4074 0365 705F7374 		.ascii	"p_state\000"
 4074      61746500 
 4075              	.LASF52:
 4076 036d 725F7072 		.ascii	"r_prio\000"
 4076      696F00
 4077              	.LASF87:
 4078 0374 65776D61 		.ascii	"ewmask\000"
 4078      736B00
 4079              	.LASF27:
 4080 037b 705F6E65 		.ascii	"p_next\000"
 4080      787400
 4081              	.LASF94:
 4082 0382 42617365 		.ascii	"BaseSequentialStreamVMT\000"
 4082      53657175 
 4082      656E7469 
 4082      616C5374 
 4082      7265616D 
 4083              	.LASF35:
 4084 039a 705F666C 		.ascii	"p_flags\000"
 4084      61677300 
 4085              	.LASF106:
 4086 03a2 72616469 		.ascii	"radix\000"
 4086      7800
 4087              	.LASF59:
 4088 03a8 63685F76 		.ascii	"ch_virtual_timer\000"
 4088      69727475 
 4088      616C5F74 
 4088      696D6572 
 4088      00
 4089              	.LASF40:
 4090 03b9 705F6570 		.ascii	"p_epending\000"
 4090      656E6469 
 4090      6E6700
 4091              	.LASF16:
 4092 03c4 75696E74 		.ascii	"uint32_t\000"
ARM GAS  /tmp/cc03LCvb.s 			page 76


 4092      33325F74 
 4092      00
 4093              	.LASF51:
 4094 03cd 725F7175 		.ascii	"r_queue\000"
 4094      65756500 
 4095              	.LASF62:
 4096 03d5 76745F64 		.ascii	"vt_delta\000"
 4096      656C7461 
 4096      00
 4097              	.LASF46:
 4098 03de 63685F74 		.ascii	"ch_threads_list\000"
 4098      68726561 
 4098      64735F6C 
 4098      69737400 
 4099              	.LASF118:
 4100 03ee 6368736E 		.ascii	"chsnprintf\000"
 4100      7072696E 
 4100      746600
 4101              	.LASF88:
 4102 03f9 63686172 		.ascii	"char\000"
 4102      00
 4103              	.LASF111:
 4104 03fe 70726563 		.ascii	"precision\000"
 4104      6973696F 
 4104      6E00
 4105              	.LASF26:
 4106 0408 74687265 		.ascii	"thread_t\000"
 4106      61645F74 
 4106      00
 4107              	.LASF122:
 4108 0411 474E5520 		.ascii	"GNU C 4.8.4 20140526 (release) [ARM/embedded-4_8-br"
 4108      4320342E 
 4108      382E3420 
 4108      32303134 
 4108      30353236 
 4109 0444 616E6368 		.ascii	"anch revision 211358] -mcpu=cortex-m4 -mno-thumb-in"
 4109      20726576 
 4109      6973696F 
 4109      6E203231 
 4109      31333538 
 4110 0477 74657277 		.ascii	"terwork -mthumb -ggdb -O2 -fomit-frame-pointer -fal"
 4110      6F726B20 
 4110      2D6D7468 
 4110      756D6220 
 4110      2D676764 
 4111 04aa 69676E2D 		.ascii	"ign-functions=16 -ffunction-sections -fdata-section"
 4111      66756E63 
 4111      74696F6E 
 4111      733D3136 
 4111      202D6666 
 4112 04dd 73202D66 		.ascii	"s -fno-common\000"
 4112      6E6F2D63 
 4112      6F6D6D6F 
 4112      6E00
 4113              	.LASF92:
 4114 04eb 6D5F6E65 		.ascii	"m_next\000"
 4114      787400
ARM GAS  /tmp/cc03LCvb.s 			page 77


 4115              	.LASF25:
 4116 04f2 73797374 		.ascii	"systime_t\000"
 4116      696D655F 
 4116      7400
 4117              	.LASF42:
 4118 04fc 705F7265 		.ascii	"p_realprio\000"
 4118      616C7072 
 4118      696F00
 4119              	.LASF57:
 4120 0507 76746675 		.ascii	"vtfunc_t\000"
 4120      6E635F74 
 4120      00
 4121              	.LASF9:
 4122 0510 5F5F7569 		.ascii	"__uint32_t\000"
 4122      6E743332 
 4122      5F7400
 4123              	.LASF70:
 4124 051b 70616E69 		.ascii	"panic_msg\000"
 4124      635F6D73 
 4124      6700
 4125              	.LASF82:
 4126 0525 6F666673 		.ascii	"offset\000"
 4126      657400
 4127              	.LASF123:
 4128 052c 2E2E2F43 		.ascii	"../ChibiOS/os/various/chprintf.c\000"
 4128      68696269 
 4128      4F532F6F 
 4128      732F7661 
 4128      72696F75 
 4129              	.LASF100:
 4130 054d 5F5F6170 		.ascii	"__ap\000"
 4130      00
 4131              	.LASF80:
 4132 0552 636F6E74 		.ascii	"context\000"
 4132      65787400 
 4133              	.LASF71:
 4134 055a 63685F73 		.ascii	"ch_system_t\000"
 4134      79737465 
 4134      6D5F7400 
 4135              	.LASF18:
 4136 0566 7274636E 		.ascii	"rtcnt_t\000"
 4136      745F7400 
 4137              	.LASF124:
 4138 056e 2F6E6673 		.ascii	"/nfs/nfs4/home/ruswang/p442-submissions/p442-submis"
 4138      2F6E6673 
 4138      342F686F 
 4138      6D652F72 
 4138      75737761 
 4139 05a1 73696F6E 		.ascii	"sions/lab1\000"
 4139      732F6C61 
 4139      623100
 4140              	.LASF64:
 4141 05ac 76745F70 		.ascii	"vt_par\000"
 4141      617200
 4142              	.LASF47:
 4143 05b3 74687265 		.ascii	"threads_queue_t\000"
 4143      6164735F 
ARM GAS  /tmp/cc03LCvb.s 			page 78


 4143      71756575 
 4143      655F7400 
 4144              	.LASF84:
 4145 05c3 7264796D 		.ascii	"rdymsg\000"
 4145      736700
 4146              	.LASF36:
 4147 05ca 705F7265 		.ascii	"p_refs\000"
 4147      667300
 4148              	.LASF73:
 4149 05d1 726C6973 		.ascii	"rlist\000"
 4149      7400
 4150              	.LASF14:
 4151 05d7 75696E74 		.ascii	"uint8_t\000"
 4151      385F7400 
 4152              	.LASF117:
 4153 05df 63687670 		.ascii	"chvprintf\000"
 4153      72696E74 
 4153      6600
 4154              	.LASF86:
 4155 05e9 77746F62 		.ascii	"wtobjp\000"
 4155      6A7000
 4156              	.LASF108:
 4157 05f0 6C6F6E67 		.ascii	"long_to_string_with_divisor\000"
 4157      5F746F5F 
 4157      73747269 
 4157      6E675F77 
 4157      6974685F 
 4158              	.LASF104:
 4159 060c 73697A65 		.ascii	"size\000"
 4159      00
 4160              	.LASF44:
 4161 0611 74687265 		.ascii	"threads_list_t\000"
 4161      6164735F 
 4161      6C697374 
 4161      5F7400
 4162              	.LASF39:
 4163 0620 705F6D73 		.ascii	"p_msg\000"
 4163      6700
 4164              	.LASF91:
 4165 0626 6D5F6F77 		.ascii	"m_owner\000"
 4165      6E657200 
 4166              	.LASF30:
 4167 062e 705F6374 		.ascii	"p_ctx\000"
 4167      7800
 4168              	.LASF63:
 4169 0634 76745F66 		.ascii	"vt_func\000"
 4169      756E6300 
 4170              		.ident	"GCC: (GNU Tools for ARM Embedded Processors) 4.8.4 20140526 (release) [ARM/embedded-4_8-br
ARM GAS  /tmp/cc03LCvb.s 			page 79


DEFINED SYMBOLS
                            *ABS*:00000000 chprintf.c
     /tmp/cc03LCvb.s:19     .text.long_to_string_with_divisor.constprop.0:00000000 $t
     /tmp/cc03LCvb.s:24     .text.long_to_string_with_divisor.constprop.0:00000000 long_to_string_with_divisor.constprop.0
     /tmp/cc03LCvb.s:103    .text.chvprintf:00000000 $t
     /tmp/cc03LCvb.s:109    .text.chvprintf:00000000 chvprintf
     /tmp/cc03LCvb.s:261    .text.chvprintf:000000ae $d
     /tmp/cc03LCvb.s:637    .text.chvprintf:00000274 $d
     /tmp/cc03LCvb.s:642    .text.chsnprintf:00000000 $t
     /tmp/cc03LCvb.s:648    .text.chsnprintf:00000000 chsnprintf
     /tmp/cc03LCvb.s:746    .rodata.str1.4:00000000 $d
                     .debug_frame:00000010 $d
     /tmp/cc03LCvb.s:641    .text.chvprintf:00000278 $t
     /tmp/cc03LCvb.s:315    .text.chvprintf:000000e3 $d
     /tmp/cc03LCvb.s:315    .text.chvprintf:000000e4 $t

UNDEFINED SYMBOLS
msObjectInit
