ARM GAS  /tmp/cc03LCvb.s 			page 1


   1              		.syntax unified
   2              		.cpu cortex-m4
   3              		.fpu softvfp
   4              		.eabi_attribute 20, 1
   5              		.eabi_attribute 21, 1
   6              		.eabi_attribute 23, 3
   7              		.eabi_attribute 24, 1
   8              		.eabi_attribute 25, 1
   9              		.eabi_attribute 26, 1
  10              		.eabi_attribute 30, 2
  11              		.eabi_attribute 34, 1
  12              		.eabi_attribute 18, 4
  13              		.thumb
  14              		.file	"chprintf.c"
  15              		.text
  16              	.Ltext0:
  17              		.cfi_sections	.debug_frame
  18              		.section	.text.long_to_string_with_divisor.constprop.0,"ax",%progbits
  19              		.align	2
  20              		.p2align 4,,15
  21              		.thumb
  22              		.thumb_func
  23              		.type	long_to_string_with_divisor.constprop.0, %function
  24              	long_to_string_with_divisor.constprop.0:
  25              	.LFB231:
  26              		.file 1 "../ChibiOS/os/various/chprintf.c"
  27              		.loc 1 37 0
  28              		.cfi_startproc
  29              		@ args = 0, pretend = 0, frame = 0
  30              		@ frame_needed = 0, uses_anonymous_args = 0
  31              		@ link register save eliminated.
  32              	.LVL0:
  33 0000 F0B4     		push	{r4, r5, r6, r7}
  34              		.cfi_def_cfa_offset 16
  35              		.cfi_offset 4, -16
  36              		.cfi_offset 5, -12
  37              		.cfi_offset 6, -8
  38              		.cfi_offset 7, -4
  39              		.loc 1 52 0
  40 0002 00F10B07 		add	r7, r0, #11
  41              	.LVL1:
  42 0006 00F10A05 		add	r5, r0, #10
  43 000a 0C46     		mov	r4, r1
  44              	.LVL2:
  45              	.L4:
  46              		.loc 1 54 0
  47 000c B1FBF2F6 		udiv	r6, r1, r2
  48 0010 02FB1611 		mls	r1, r2, r6, r1
  49              	.LVL3:
  50              		.loc 1 55 0
  51 0014 01F13003 		add	r3, r1, #48
  52              	.LVL4:
  53              		.loc 1 56 0
  54 0018 392B     		cmp	r3, #57
  55              		.loc 1 57 0
  56 001a C8BF     		it	gt
  57 001c 01F13703 		addgt	r3, r1, #55
ARM GAS  /tmp/cc03LCvb.s 			page 2


  58              	.LVL5:
  59              		.loc 1 58 0
  60 0020 DBB2     		uxtb	r3, r3
  61              	.LVL6:
  62              		.loc 1 60 0
  63 0022 B4FBF2F4 		udiv	r4, r4, r2
  64              	.LVL7:
  65              		.loc 1 59 0
  66 0026 3146     		mov	r1, r6
  67              	.LVL8:
  68              		.loc 1 58 0
  69 0028 2E46     		mov	r6, r5
  70              	.LVL9:
  71 002a 05F80139 		strb	r3, [r5], #-1
  72              	.LVL10:
  73              		.loc 1 60 0
  74 002e 002C     		cmp	r4, #0
  75 0030 ECD1     		bne	.L4
  76              	.LVL11:
  77              		.loc 1 62 0
  78 0032 B91B     		subs	r1, r7, r6
  79              	.LVL12:
  80 0034 3246     		mov	r2, r6
  81              	.LVL13:
  82 0036 0144     		add	r1, r1, r0
  83 0038 01E0     		b	.L6
  84              	.LVL14:
  85              	.L9:
  86 003a 12F8013F 		ldrb	r3, [r2, #1]!	@ zero_extendqisi2
  87              	.LVL15:
  88              	.L6:
  89              		.loc 1 64 0
  90 003e 00F8013B 		strb	r3, [r0], #1
  91              	.LVL16:
  92              		.loc 1 65 0
  93 0042 8842     		cmp	r0, r1
  94 0044 F9D1     		bne	.L9
  95              		.loc 1 68 0
  96 0046 F0BC     		pop	{r4, r5, r6, r7}
  97              	.LVL17:
  98 0048 7047     		bx	lr
  99              		.cfi_endproc
 100              	.LFE231:
 101              		.size	long_to_string_with_divisor.constprop.0, .-long_to_string_with_divisor.constprop.0
 102 004a 00BFAFF3 		.section	.text.chvprintf,"ax",%progbits
 102      0080
 103              		.align	2
 104              		.p2align 4,,15
 105              		.global	chvprintf
 106              		.thumb
 107              		.thumb_func
 108              		.type	chvprintf, %function
 109              	chvprintf:
 110              	.LFB229:
 111              		.loc 1 120 0
 112              		.cfi_startproc
 113              		@ args = 0, pretend = 0, frame = 32
ARM GAS  /tmp/cc03LCvb.s 			page 3


 114              		@ frame_needed = 0, uses_anonymous_args = 0
 115              	.LVL18:
 116 0000 2DE9F04F 		push	{r4, r5, r6, r7, r8, r9, r10, fp, lr}
 117              		.cfi_def_cfa_offset 36
 118              		.cfi_offset 4, -36
 119              		.cfi_offset 5, -32
 120              		.cfi_offset 6, -28
 121              		.cfi_offset 7, -24
 122              		.cfi_offset 8, -20
 123              		.cfi_offset 9, -16
 124              		.cfi_offset 10, -12
 125              		.cfi_offset 11, -8
 126              		.cfi_offset 14, -4
 127 0004 89B0     		sub	sp, sp, #36
 128              		.cfi_def_cfa_offset 72
 129 0006 05AB     		add	r3, sp, #20
 130 0008 0DF1150C 		add	ip, sp, #21
 131 000c 0193     		str	r3, [sp, #4]
 132 000e C3EB0C03 		rsb	r3, r3, ip
 133 0012 CDF800C0 		str	ip, [sp]
 134              		.loc 1 120 0
 135 0016 8346     		mov	fp, r0
 136 0018 0C46     		mov	r4, r1
 137 001a 1546     		mov	r5, r2
 138              	.LVL19:
 139 001c 0393     		str	r3, [sp, #12]
 140              		.loc 1 123 0
 141 001e 4FF00008 		mov	r8, #0
 142              	.LVL20:
 143              	.L11:
 144              		.loc 1 134 0
 145 0022 2178     		ldrb	r1, [r4]	@ zero_extendqisi2
 146 0024 631C     		adds	r3, r4, #1
 147              	.LVL21:
 148              		.loc 1 135 0
 149 0026 69B1     		cbz	r1, .L68
 150              	.LVL22:
 151              	.L72:
 152              		.loc 1 137 0
 153 0028 2529     		cmp	r1, #37
 154 002a 0FD0     		beq	.L13
 155              		.loc 1 138 0
 156 002c DBF80020 		ldr	r2, [fp]
 157              	.LVL23:
 158              		.loc 1 134 0
 159 0030 1C46     		mov	r4, r3
 160              		.loc 1 138 0
 161 0032 9268     		ldr	r2, [r2, #8]
 162 0034 5846     		mov	r0, fp
 163 0036 9047     		blx	r2
 164              	.LVL24:
 165              		.loc 1 134 0
 166 0038 2178     		ldrb	r1, [r4]	@ zero_extendqisi2
 167              		.loc 1 139 0
 168 003a 08F10108 		add	r8, r8, #1
 169              	.LVL25:
 170              		.loc 1 134 0
ARM GAS  /tmp/cc03LCvb.s 			page 4


 171 003e 631C     		adds	r3, r4, #1
 172              	.LVL26:
 173              		.loc 1 135 0
 174 0040 0029     		cmp	r1, #0
 175 0042 F1D1     		bne	.L72
 176              	.LVL27:
 177              	.L68:
 178              		.loc 1 276 0
 179 0044 4046     		mov	r0, r8
 180 0046 09B0     		add	sp, sp, #36
 181              		@ sp needed
 182 0048 BDE8F08F 		pop	{r4, r5, r6, r7, r8, r9, r10, fp, pc}
 183              	.LVL28:
 184              	.L13:
 185              		.loc 1 145 0
 186 004c 6278     		ldrb	r2, [r4, #1]	@ zero_extendqisi2
 187              	.LVL29:
 188 004e 2D2A     		cmp	r2, #45
 189 0050 03BF     		ittte	eq
 190 0052 A278     		ldrbeq	r2, [r4, #2]	@ zero_extendqisi2
 191              		.loc 1 146 0
 192 0054 A31C     		addeq	r3, r4, #2
 193              	.LVL30:
 194              		.loc 1 147 0
 195 0056 4FF0010A 		moveq	r10, #1
 196              		.loc 1 144 0
 197 005a 4FF0000A 		movne	r10, #0
 198              	.LVL31:
 199              		.loc 1 150 0
 200 005e 302A     		cmp	r2, #48
 201 0060 03BF     		ittte	eq
 202 0062 5A78     		ldrbeq	r2, [r3, #1]	@ zero_extendqisi2
 203              		.loc 1 151 0
 204 0064 0133     		addeq	r3, r3, #1
 205              	.LVL32:
 206              		.loc 1 152 0
 207 0066 3026     		moveq	r6, #48
 208              		.loc 1 149 0
 209 0068 2026     		movne	r6, #32
 210              	.LVL33:
 211              		.loc 1 152 0
 212 006a 1C46     		mov	r4, r3
 213              		.loc 1 154 0
 214 006c 0027     		movs	r7, #0
 215 006e 06E0     		b	.L19
 216              	.LVL34:
 217              	.L73:
 218              		.loc 1 160 0
 219 0070 2B78     		ldrb	r3, [r5]	@ zero_extendqisi2
 220              	.LVL35:
 221 0072 0435     		adds	r5, r5, #4
 222              	.LVL36:
 223              	.L17:
 224              		.loc 1 163 0
 225 0074 07EB8707 		add	r7, r7, r7, lsl #2
 226              	.LVL37:
 227 0078 2278     		ldrb	r2, [r4]	@ zero_extendqisi2
ARM GAS  /tmp/cc03LCvb.s 			page 5


 228 007a 03EB4707 		add	r7, r3, r7, lsl #1
 229              	.LVL38:
 230              	.L19:
 231              		.loc 1 157 0
 232 007e A2F13003 		sub	r3, r2, #48
 233 0082 DBB2     		uxtb	r3, r3
 234 0084 092B     		cmp	r3, #9
 235              		.loc 1 156 0
 236 0086 04F10104 		add	r4, r4, #1
 237              	.LVL39:
 238              		.loc 1 157 0
 239 008a F3D9     		bls	.L17
 240              		.loc 1 159 0
 241 008c 2A2A     		cmp	r2, #42
 242 008e EFD0     		beq	.L73
 243              	.LVL40:
 244              		.loc 1 166 0
 245 0090 2E2A     		cmp	r2, #46
 246 0092 4FF00001 		mov	r1, #0
 247 0096 2BD0     		beq	.L22
 248              	.LVL41:
 249              		.loc 1 180 0
 250 0098 02F0DF03 		and	r3, r2, #223
 251 009c 4C2B     		cmp	r3, #76
 252 009e 34D0     		beq	.L74
 253              	.LVL42:
 254              	.L24:
 255              		.loc 1 189 0
 256 00a0 A2F14403 		sub	r3, r2, #68
 257 00a4 342B     		cmp	r3, #52
 258 00a6 00F2B680 		bhi	.L25
 259 00aa DFE803F0 		tbb	[pc, r3]
 260              	.L27:
 261 00ae AC       		.byte	(.L26-.L27)/2
 262 00af B4       		.byte	(.L25-.L27)/2
 263 00b0 B4       		.byte	(.L25-.L27)/2
 264 00b1 B4       		.byte	(.L25-.L27)/2
 265 00b2 B4       		.byte	(.L25-.L27)/2
 266 00b3 AC       		.byte	(.L26-.L27)/2
 267 00b4 B4       		.byte	(.L25-.L27)/2
 268 00b5 B4       		.byte	(.L25-.L27)/2
 269 00b6 B4       		.byte	(.L25-.L27)/2
 270 00b7 B4       		.byte	(.L25-.L27)/2
 271 00b8 B4       		.byte	(.L25-.L27)/2
 272 00b9 AA       		.byte	(.L28-.L27)/2
 273 00ba B4       		.byte	(.L25-.L27)/2
 274 00bb B4       		.byte	(.L25-.L27)/2
 275 00bc B4       		.byte	(.L25-.L27)/2
 276 00bd B4       		.byte	(.L25-.L27)/2
 277 00be B4       		.byte	(.L25-.L27)/2
 278 00bf 34       		.byte	(.L57-.L27)/2
 279 00c0 B4       		.byte	(.L25-.L27)/2
 280 00c1 B4       		.byte	(.L25-.L27)/2
 281 00c2 7D       		.byte	(.L30-.L27)/2
 282 00c3 B4       		.byte	(.L25-.L27)/2
 283 00c4 B4       		.byte	(.L25-.L27)/2
 284 00c5 B4       		.byte	(.L25-.L27)/2
ARM GAS  /tmp/cc03LCvb.s 			page 6


 285 00c6 B4       		.byte	(.L25-.L27)/2
 286 00c7 B4       		.byte	(.L25-.L27)/2
 287 00c8 B4       		.byte	(.L25-.L27)/2
 288 00c9 B4       		.byte	(.L25-.L27)/2
 289 00ca B4       		.byte	(.L25-.L27)/2
 290 00cb B4       		.byte	(.L25-.L27)/2
 291 00cc B4       		.byte	(.L25-.L27)/2
 292 00cd 9F       		.byte	(.L31-.L27)/2
 293 00ce AC       		.byte	(.L26-.L27)/2
 294 00cf B4       		.byte	(.L25-.L27)/2
 295 00d0 B4       		.byte	(.L25-.L27)/2
 296 00d1 B4       		.byte	(.L25-.L27)/2
 297 00d2 B4       		.byte	(.L25-.L27)/2
 298 00d3 AC       		.byte	(.L26-.L27)/2
 299 00d4 B4       		.byte	(.L25-.L27)/2
 300 00d5 B4       		.byte	(.L25-.L27)/2
 301 00d6 B4       		.byte	(.L25-.L27)/2
 302 00d7 B4       		.byte	(.L25-.L27)/2
 303 00d8 B4       		.byte	(.L25-.L27)/2
 304 00d9 AA       		.byte	(.L28-.L27)/2
 305 00da B4       		.byte	(.L25-.L27)/2
 306 00db B4       		.byte	(.L25-.L27)/2
 307 00dc B4       		.byte	(.L25-.L27)/2
 308 00dd 7F       		.byte	(.L32-.L27)/2
 309 00de B4       		.byte	(.L25-.L27)/2
 310 00df 34       		.byte	(.L57-.L27)/2
 311 00e0 B4       		.byte	(.L25-.L27)/2
 312 00e1 B4       		.byte	(.L25-.L27)/2
 313 00e2 7D       		.byte	(.L30-.L27)/2
 314              	.LVL43:
 315 00e3 00       		.p2align 1
 316              	.L75:
 317              		.loc 1 172 0
 318 00e4 2B78     		ldrb	r3, [r5]	@ zero_extendqisi2
 319              	.LVL44:
 320 00e6 0435     		adds	r5, r5, #4
 321              	.LVL45:
 322              	.L21:
 323              		.loc 1 175 0
 324 00e8 01EB8101 		add	r1, r1, r1, lsl #2
 325              	.LVL46:
 326              		.loc 1 176 0
 327 00ec 03EB4101 		add	r1, r3, r1, lsl #1
 328              	.LVL47:
 329              	.L22:
 330              		.loc 1 168 0
 331 00f0 14F8012B 		ldrb	r2, [r4], #1	@ zero_extendqisi2
 332              	.LVL48:
 333              		.loc 1 169 0
 334 00f4 A2F13003 		sub	r3, r2, #48
 335 00f8 DBB2     		uxtb	r3, r3
 336 00fa 092B     		cmp	r3, #9
 337 00fc F4D9     		bls	.L21
 338              		.loc 1 171 0
 339 00fe 2A2A     		cmp	r2, #42
 340 0100 F0D0     		beq	.L75
 341              	.LVL49:
ARM GAS  /tmp/cc03LCvb.s 			page 7


 342              		.loc 1 180 0
 343 0102 02F0DF03 		and	r3, r2, #223
 344 0106 4C2B     		cmp	r3, #76
 345 0108 CAD1     		bne	.L24
 346              	.LVL50:
 347              	.L74:
 348              		.loc 1 182 0
 349 010a 2378     		ldrb	r3, [r4]	@ zero_extendqisi2
 350 010c 002B     		cmp	r3, #0
 351 010e C7D0     		beq	.L24
 352              		.loc 1 183 0
 353 0110 0134     		adds	r4, r4, #1
 354              	.LVL51:
 355 0112 1A46     		mov	r2, r3
 356 0114 C4E7     		b	.L24
 357              	.LVL52:
 358              	.L57:
 359              		.loc 1 189 0
 360 0116 0A22     		movs	r2, #10
 361              	.LVL53:
 362              	.L29:
 363              		.loc 1 240 0
 364 0118 2968     		ldr	r1, [r5]
 365              	.LVL54:
 366              	.LBB6:
 367              	.LBB7:
 368              		.loc 1 72 0
 369 011a 05A8     		add	r0, sp, #20
 370              	.LBE7:
 371              	.LBE6:
 372              		.loc 1 240 0
 373 011c 0435     		adds	r5, r5, #4
 374              	.LVL55:
 375              	.L70:
 376              	.LBB9:
 377              	.LBB8:
 378              		.loc 1 72 0
 379 011e FFF7FEFF 		bl	long_to_string_with_divisor.constprop.0
 380              	.LVL56:
 381 0122 019B     		ldr	r3, [sp, #4]
 382 0124 C01A     		subs	r0, r0, r3
 383 0126 00F1FF3C 		add	ip, r0, #-1
 384 012a CDF808C0 		str	ip, [sp, #8]
 385              	.LBE8:
 386              	.LBE9:
 387              		.loc 1 143 0
 388 012e 0DF11409 		add	r9, sp, #20
 389              	.LVL57:
 390              	.L33:
 391              		.loc 1 250 0
 392 0132 3F1A     		subs	r7, r7, r0
 393              	.LVL58:
 394 0134 27EAE777 		bic	r7, r7, r7, asr #31
 395              	.LVL59:
 396              		.loc 1 252 0
 397 0138 BAF1000F 		cmp	r10, #0
 398 013c 12D1     		bne	.L44
ARM GAS  /tmp/cc03LCvb.s 			page 8


 399              		.loc 1 253 0
 400 013e 7F42     		negs	r7, r7
 401              	.LVL60:
 402              		.loc 1 254 0
 403 0140 87B1     		cbz	r7, .L44
 404              		.loc 1 255 0
 405 0142 99F80010 		ldrb	r1, [r9]	@ zero_extendqisi2
 406 0146 2D29     		cmp	r1, #45
 407 0148 6DD0     		beq	.L76
 408              	.LVL61:
 409              	.L45:
 410              		.loc 1 195 0 discriminator 1
 411 014a BA46     		mov	r10, r7
 412              	.LVL62:
 413              	.L47:
 414              		.loc 1 261 0 discriminator 1
 415 014c DBF80030 		ldr	r3, [fp]
 416 0150 5846     		mov	r0, fp
 417 0152 9B68     		ldr	r3, [r3, #8]
 418 0154 3146     		mov	r1, r6
 419 0156 9847     		blx	r3
 420              	.LVL63:
 421              		.loc 1 263 0 discriminator 1
 422 0158 1AF1010A 		adds	r10, r10, #1
 423              	.LVL64:
 424 015c F6D1     		bne	.L47
 425 015e C7EB0808 		rsb	r8, r7, r8
 426              		.loc 1 263 0 is_stmt 0
 427 0162 5746     		mov	r7, r10
 428              	.LVL65:
 429              	.L44:
 430              		.loc 1 265 0 is_stmt 1 discriminator 1
 431 0164 029A     		ldr	r2, [sp, #8]
 432 0166 002A     		cmp	r2, #0
 433 0168 0FDB     		blt	.L48
 434 016a 09F1FF3A 		add	r10, r9, #-1
 435 016e 9144     		add	r9, r9, r2
 436              	.LVL66:
 437              	.L50:
 438              		.loc 1 266 0
 439 0170 DBF80030 		ldr	r3, [fp]
 440 0174 1AF8011F 		ldrb	r1, [r10, #1]!	@ zero_extendqisi2
 441              	.LVL67:
 442 0178 9B68     		ldr	r3, [r3, #8]
 443 017a 5846     		mov	r0, fp
 444 017c 9847     		blx	r3
 445              	.LVL68:
 446              		.loc 1 265 0
 447 017e CA45     		cmp	r10, r9
 448 0180 F6D1     		bne	.L50
 449 0182 029B     		ldr	r3, [sp, #8]
 450 0184 08F10108 		add	r8, r8, #1
 451 0188 9844     		add	r8, r8, r3
 452              	.LVL69:
 453              	.L48:
 454              		.loc 1 270 0 discriminator 1
 455 018a 002F     		cmp	r7, #0
ARM GAS  /tmp/cc03LCvb.s 			page 9


 456 018c 3FF449AF 		beq	.L11
 457              		.loc 1 270 0 is_stmt 0
 458 0190 B946     		mov	r9, r7
 459              	.LVL70:
 460              	.L52:
 461              		.loc 1 271 0 is_stmt 1
 462 0192 DBF80030 		ldr	r3, [fp]
 463 0196 5846     		mov	r0, fp
 464 0198 9B68     		ldr	r3, [r3, #8]
 465 019a 3146     		mov	r1, r6
 466 019c 9847     		blx	r3
 467              	.LVL71:
 468              		.loc 1 270 0
 469 019e B9F10109 		subs	r9, r9, #1
 470              	.LVL72:
 471 01a2 F6D1     		bne	.L52
 472 01a4 B844     		add	r8, r8, r7
 473 01a6 3CE7     		b	.L11
 474              	.LVL73:
 475              	.L30:
 476              		.loc 1 189 0
 477 01a8 1022     		movs	r2, #16
 478              	.LVL74:
 479 01aa B5E7     		b	.L29
 480              	.LVL75:
 481              	.L32:
 482              		.loc 1 196 0
 483 01ac D5F80090 		ldr	r9, [r5]
 484              		.loc 1 197 0
 485 01b0 304B     		ldr	r3, .L79
 486 01b2 B9F1000F 		cmp	r9, #0
 487 01b6 08BF     		it	eq
 488 01b8 9946     		moveq	r9, r3
 489              		.loc 1 199 0
 490 01ba 47F6FF73 		movw	r3, #32767
 491              		.loc 1 200 0
 492 01be 99F80000 		ldrb	r0, [r9]	@ zero_extendqisi2
 493              		.loc 1 196 0
 494 01c2 0435     		adds	r5, r5, #4
 495              	.LVL76:
 496              		.loc 1 199 0
 497 01c4 0029     		cmp	r1, #0
 498 01c6 08BF     		it	eq
 499 01c8 1946     		moveq	r1, r3
 500              	.LVL77:
 501              		.loc 1 200 0
 502 01ca 0028     		cmp	r0, #0
 503 01cc 4CD0     		beq	.L60
 504 01ce 4944     		add	r1, r1, r9
 505 01d0 4B46     		mov	r3, r9
 506 01d2 01E0     		b	.L38
 507              	.LVL78:
 508              	.L36:
 509              		.loc 1 200 0 is_stmt 0 discriminator 2
 510 01d4 9942     		cmp	r1, r3
 511 01d6 38D0     		beq	.L77
 512              	.LVL79:
ARM GAS  /tmp/cc03LCvb.s 			page 10


 513              	.L38:
 514              		.loc 1 200 0 discriminator 1
 515 01d8 5A78     		ldrb	r2, [r3, #1]	@ zero_extendqisi2
 516 01da 0133     		adds	r3, r3, #1
 517              	.LVL80:
 518 01dc 002A     		cmp	r2, #0
 519 01de F9D1     		bne	.L36
 520 01e0 C9EB0300 		rsb	r0, r9, r3
 521 01e4 431E     		subs	r3, r0, #1
 522              	.LVL81:
 523 01e6 0293     		str	r3, [sp, #8]
 524              		.loc 1 195 0 is_stmt 1
 525 01e8 2026     		movs	r6, #32
 526 01ea A2E7     		b	.L33
 527              	.LVL82:
 528              	.L31:
 529 01ec 0398     		ldr	r0, [sp, #12]
 530              		.loc 1 192 0
 531 01ee 2B68     		ldr	r3, [r5]
 532 01f0 8DF81430 		strb	r3, [sp, #20]
 533 01f4 421E     		subs	r2, r0, #1
 534              	.LVL83:
 535 01f6 0435     		adds	r5, r5, #4
 536              	.LVL84:
 537 01f8 0292     		str	r2, [sp, #8]
 538              		.loc 1 191 0
 539 01fa 2026     		movs	r6, #32
 540              		.loc 1 143 0
 541 01fc 0DF11409 		add	r9, sp, #20
 542              		.loc 1 193 0
 543 0200 97E7     		b	.L33
 544              	.LVL85:
 545              	.L28:
 546 0202 0822     		movs	r2, #8
 547 0204 88E7     		b	.L29
 548              	.LVL86:
 549              	.L26:
 550              		.loc 1 208 0
 551 0206 2968     		ldr	r1, [r5]
 552              	.LVL87:
 553              		.loc 1 211 0
 554 0208 0029     		cmp	r1, #0
 555              		.loc 1 208 0
 556 020a 05F10405 		add	r5, r5, #4
 557              	.LVL88:
 558              		.loc 1 211 0
 559 020e 24DB     		blt	.L78
 560              		.loc 1 142 0
 561 0210 05A8     		add	r0, sp, #20
 562              	.LVL89:
 563              	.L41:
 564              	.LBB10:
 565              	.LBB11:
 566              		.loc 1 72 0
 567 0212 0A22     		movs	r2, #10
 568              	.LVL90:
 569 0214 83E7     		b	.L70
ARM GAS  /tmp/cc03LCvb.s 			page 11


 570              	.LVL91:
 571              	.L25:
 572 0216 0398     		ldr	r0, [sp, #12]
 573              	.LBE11:
 574              	.LBE10:
 575              		.loc 1 246 0
 576 0218 8DF81420 		strb	r2, [sp, #20]
 577 021c 421E     		subs	r2, r0, #1
 578              	.LVL92:
 579 021e 0292     		str	r2, [sp, #8]
 580              		.loc 1 143 0
 581 0220 0DF11409 		add	r9, sp, #20
 582              		.loc 1 247 0
 583 0224 85E7     		b	.L33
 584              	.LVL93:
 585              	.L76:
 586              		.loc 1 255 0 discriminator 1
 587 0226 302E     		cmp	r6, #48
 588 0228 8FD1     		bne	.L45
 589              	.LVL94:
 590              		.loc 1 256 0
 591 022a DBF80030 		ldr	r3, [fp]
 592 022e 5846     		mov	r0, fp
 593              	.LVL95:
 594 0230 9B68     		ldr	r3, [r3, #8]
 595 0232 9847     		blx	r3
 596              	.LVL96:
 597 0234 DDF808C0 		ldr	ip, [sp, #8]
 598 0238 0CF1FF3C 		add	ip, ip, #-1
 599 023c 09F10109 		add	r9, r9, #1
 600              	.LVL97:
 601              		.loc 1 257 0
 602 0240 08F10108 		add	r8, r8, #1
 603              	.LVL98:
 604 0244 CDF808C0 		str	ip, [sp, #8]
 605              	.LVL99:
 606 0248 7FE7     		b	.L45
 607              	.LVL100:
 608              	.L77:
 609 024a C9EB0100 		rsb	r0, r9, r1
 610 024e 00F1FF3C 		add	ip, r0, #-1
 611 0252 CDF808C0 		str	ip, [sp, #8]
 612              		.loc 1 195 0
 613 0256 2026     		movs	r6, #32
 614 0258 6BE7     		b	.L33
 615              	.LVL101:
 616              	.L78:
 617              		.loc 1 212 0
 618 025a 2D23     		movs	r3, #45
 619              		.loc 1 213 0
 620 025c 4942     		negs	r1, r1
 621              	.LVL102:
 622              		.loc 1 212 0
 623 025e 8DF81430 		strb	r3, [sp, #20]
 624 0262 0DF11500 		add	r0, sp, #21
 625 0266 D4E7     		b	.L41
 626              	.LVL103:
ARM GAS  /tmp/cc03LCvb.s 			page 12


 627              	.L60:
 628              		.loc 1 200 0
 629 0268 4FF0FF33 		mov	r3, #-1
 630 026c 0293     		str	r3, [sp, #8]
 631              		.loc 1 195 0
 632 026e 2026     		movs	r6, #32
 633 0270 5FE7     		b	.L33
 634              	.L80:
 635 0272 00BF     		.align	2
 636              	.L79:
 637 0274 00000000 		.word	.LC0
 638              		.cfi_endproc
 639              	.LFE229:
 640              		.size	chvprintf, .-chvprintf
 641 0278 AFF30080 		.section	.text.chsnprintf,"ax",%progbits
 641      AFF30080 
 642              		.align	2
 643              		.p2align 4,,15
 644              		.global	chsnprintf
 645              		.thumb
 646              		.thumb_func
 647              		.type	chsnprintf, %function
 648              	chsnprintf:
 649              	.LFB230:
 650              		.loc 1 306 0
 651              		.cfi_startproc
 652              		@ args = 4, pretend = 8, frame = 24
 653              		@ frame_needed = 0, uses_anonymous_args = 1
 654              	.LVL104:
 655 0000 0CB4     		push	{r2, r3}
 656              		.cfi_def_cfa_offset 8
 657              		.cfi_offset 2, -8
 658              		.cfi_offset 3, -4
 659 0002 70B5     		push	{r4, r5, r6, lr}
 660              		.cfi_def_cfa_offset 24
 661              		.cfi_offset 4, -24
 662              		.cfi_offset 5, -20
 663              		.cfi_offset 6, -16
 664              		.cfi_offset 14, -12
 665 0004 86B0     		sub	sp, sp, #24
 666              		.cfi_def_cfa_offset 48
 667              		.loc 1 313 0
 668 0006 0C46     		mov	r4, r1
 669              		.loc 1 306 0
 670 0008 0546     		mov	r5, r0
 671 000a 0A9E     		ldr	r6, [sp, #40]
 672              		.loc 1 313 0
 673 000c B1B1     		cbz	r1, .L82
 674              	.LVL105:
 675              		.loc 1 320 0
 676 000e 01A8     		add	r0, sp, #4
 677              	.LVL106:
 678 0010 2946     		mov	r1, r5
 679              	.LVL107:
 680 0012 621E     		subs	r2, r4, #1
 681              	.LVL108:
 682 0014 0023     		movs	r3, #0
ARM GAS  /tmp/cc03LCvb.s 			page 13


 683 0016 FFF7FEFF 		bl	msObjectInit
 684              	.LVL109:
 685              		.loc 1 324 0
 686 001a 0BAB     		add	r3, sp, #44
 687              		.loc 1 325 0
 688 001c 1A46     		mov	r2, r3
 689 001e 01A8     		add	r0, sp, #4
 690              	.LVL110:
 691 0020 3146     		mov	r1, r6
 692              		.loc 1 324 0
 693 0022 0093     		str	r3, [sp]
 694              		.loc 1 325 0
 695 0024 FFF7FEFF 		bl	chvprintf
 696              	.LVL111:
 697              		.loc 1 329 0
 698 0028 049B     		ldr	r3, [sp, #16]
 699 002a 9C42     		cmp	r4, r3
 700 002c 01D9     		bls	.L84
 701              		.loc 1 330 0
 702 002e 0022     		movs	r2, #0
 703 0030 EA54     		strb	r2, [r5, r3]
 704              	.L84:
 705              		.loc 1 334 0
 706 0032 06B0     		add	sp, sp, #24
 707              		@ sp needed
 708 0034 BDE87040 		pop	{r4, r5, r6, lr}
 709              	.LVL112:
 710 0038 02B0     		add	sp, sp, #8
 711 003a 7047     		bx	lr
 712              	.LVL113:
 713              	.L82:
 714              		.loc 1 320 0
 715 003c 0A46     		mov	r2, r1
 716 003e 2346     		mov	r3, r4
 717 0040 0146     		mov	r1, r0
 718              	.LVL114:
 719 0042 01A8     		add	r0, sp, #4
 720              	.LVL115:
 721 0044 FFF7FEFF 		bl	msObjectInit
 722              	.LVL116:
 723              		.loc 1 324 0
 724 0048 0BAB     		add	r3, sp, #44
 725              		.loc 1 325 0
 726 004a 01A8     		add	r0, sp, #4
 727              	.LVL117:
 728 004c 3146     		mov	r1, r6
 729 004e 1A46     		mov	r2, r3
 730              		.loc 1 324 0
 731 0050 0093     		str	r3, [sp]
 732              		.loc 1 325 0
 733 0052 FFF7FEFF 		bl	chvprintf
 734              	.LVL118:
 735              		.loc 1 334 0
 736 0056 06B0     		add	sp, sp, #24
 737              		@ sp needed
 738 0058 BDE87040 		pop	{r4, r5, r6, lr}
 739              	.LVL119:
ARM GAS  /tmp/cc03LCvb.s 			page 14


 740 005c 02B0     		add	sp, sp, #8
 741 005e 7047     		bx	lr
 742              		.cfi_endproc
 743              	.LFE230:
 744              		.size	chsnprintf, .-chsnprintf
 745              		.section	.rodata.str1.4,"aMS",%progbits,1
 746              		.align	2
 747              	.LC0:
 748 0000 286E756C 		.ascii	"(null)\000"
 748      6C2900
 749 0007 00       		.text
 750              	.Letext0:
 751              		.file 2 "/nfs/nfs5/home/research/hardware/arm2/gcc-arm-embedded/gcc-arm-none-eabi-4_8-2014q2/lib/g
 752              		.file 3 "/nfs/nfs5/home/research/hardware/arm2/gcc-arm-embedded/gcc-arm-none-eabi-4_8-2014q2/arm-n
 753              		.file 4 "/nfs/nfs5/home/research/hardware/arm2/gcc-arm-embedded/gcc-arm-none-eabi-4_8-2014q2/arm-n
 754              		.file 5 "../ChibiOS/os/rt/ports/ARMCMx/compilers/GCC/chtypes.h"
 755              		.file 6 "../ChibiOS/os/rt/include/chsystypes.h"
 756              		.file 7 "../ChibiOS/os/rt/include/chschd.h"
 757              		.file 8 "../ChibiOS/os/rt/ports/ARMCMx/chcore.h"
 758              		.file 9 "../ChibiOS/os/rt/ports/ARMCMx/chcore_v7m.h"
 759              		.file 10 "../ChibiOS/os/rt/include/chtm.h"
 760              		.file 11 "../ChibiOS/os/rt/include/chmtx.h"
 761              		.file 12 "../ChibiOS/os/rt/include/chstreams.h"
 762              		.file 13 "/nfs/nfs5/home/research/hardware/arm2/gcc-arm-embedded/gcc-arm-none-eabi-4_8-2014q2/lib/
 763              		.file 14 "<built-in>"
 764              		.file 15 "../ChibiOS/os/various/memstreams.h"
 765              		.file 16 "../ChibiOS/os/ext/CMSIS/include/core_cm4.h"