ARM GAS  /tmp/ccXNyZoG.s 			page 1


   1              		.syntax unified
   2              		.cpu cortex-m4
   3              		.fpu softvfp
   4              		.eabi_attribute 20, 1
   5              		.eabi_attribute 21, 1
   6              		.eabi_attribute 23, 3
   7              		.eabi_attribute 24, 1
   8              		.eabi_attribute 25, 1
   9              		.eabi_attribute 26, 1
  10              		.eabi_attribute 30, 2
  11              		.eabi_attribute 34, 1
  12              		.eabi_attribute 18, 4
  13              		.thumb
  14              		.file	"chqueues.c"
  15              		.text
  16              	.Ltext0:
  17              		.cfi_sections	.debug_frame
  18              		.section	.text.chIQObjectInit,"ax",%progbits
  19              		.align	2
  20              		.p2align 4,,15
  21              		.global	chIQObjectInit
  22              		.thumb
  23              		.thumb_func
  24              		.type	chIQObjectInit, %function
  25              	chIQObjectInit:
  26              	.LFB226:
  27              		.file 1 "../ChibiOS/os/rt/src/chqueues.c"
  28              		.loc 1 88 0
  29              		.cfi_startproc
  30              		@ args = 4, pretend = 0, frame = 0
  31              		@ frame_needed = 0, uses_anonymous_args = 0
  32              		@ link register save eliminated.
  33              	.LVL0:
  34 0000 30B4     		push	{r4, r5}
  35              		.cfi_def_cfa_offset 8
  36              		.cfi_offset 4, -8
  37              		.cfi_offset 5, -4
  38              		.loc 1 88 0
  39 0002 029C     		ldr	r4, [sp, #8]
  40              		.loc 1 95 0
  41 0004 0462     		str	r4, [r0, #32]
  42              		.loc 1 91 0
  43 0006 0025     		movs	r5, #0
  44              		.loc 1 93 0
  45 0008 0A44     		add	r2, r2, r1
  46              	.LVL1:
  47              		.loc 1 91 0
  48 000a 8560     		str	r5, [r0, #8]
  49              		.loc 1 93 0
  50 000c 0261     		str	r2, [r0, #16]
  51              	.LBB108:
  52              	.LBB109:
  53              	.LBB110:
  54              		.file 2 "../ChibiOS/os/rt/include/chschd.h"
  55              		.loc 2 574 0
  56 000e 4060     		str	r0, [r0, #4]
  57 0010 0060     		str	r0, [r0]
ARM GAS  /tmp/ccXNyZoG.s 			page 2


  58              	.LBE110:
  59              	.LBE109:
  60              	.LBE108:
  61              		.loc 1 92 0
  62 0012 4161     		str	r1, [r0, #20]
  63 0014 8161     		str	r1, [r0, #24]
  64 0016 C160     		str	r1, [r0, #12]
  65              		.loc 1 94 0
  66 0018 C361     		str	r3, [r0, #28]
  67              		.loc 1 96 0
  68 001a 30BC     		pop	{r4, r5}
  69              	.LVL2:
  70 001c 7047     		bx	lr
  71              		.cfi_endproc
  72              	.LFE226:
  73              		.size	chIQObjectInit, .-chIQObjectInit
  74 001e 00BF     		.section	.text.chIQResetI,"ax",%progbits
  75              		.align	2
  76              		.p2align 4,,15
  77              		.global	chIQResetI
  78              		.thumb
  79              		.thumb_func
  80              		.type	chIQResetI, %function
  81              	chIQResetI:
  82              	.LFB227:
  83              		.loc 1 109 0
  84              		.cfi_startproc
  85              		@ args = 0, pretend = 0, frame = 0
  86              		@ frame_needed = 0, uses_anonymous_args = 0
  87              		@ link register save eliminated.
  88              	.LVL3:
  89              		.loc 1 114 0
  90 0000 0021     		movs	r1, #0
  91              		.loc 1 113 0
  92 0002 C268     		ldr	r2, [r0, #12]
  93              		.loc 1 114 0
  94 0004 8160     		str	r1, [r0, #8]
  95              		.loc 1 113 0
  96 0006 4261     		str	r2, [r0, #20]
  97 0008 8261     		str	r2, [r0, #24]
  98              		.loc 1 115 0
  99 000a 6FF00101 		mvn	r1, #1
 100 000e FFF7FEBF 		b	chThdDequeueAllI
 101              	.LVL4:
 102              		.cfi_endproc
 103              	.LFE227:
 104              		.size	chIQResetI, .-chIQResetI
 105 0012 00BFAFF3 		.section	.text.chIQPutI,"ax",%progbits
 105      0080AFF3 
 105      0080AFF3 
 105      0080
 106              		.align	2
 107              		.p2align 4,,15
 108              		.global	chIQPutI
 109              		.thumb
 110              		.thumb_func
 111              		.type	chIQPutI, %function
ARM GAS  /tmp/ccXNyZoG.s 			page 3


 112              	chIQPutI:
 113              	.LFB228:
 114              		.loc 1 131 0
 115              		.cfi_startproc
 116              		@ args = 0, pretend = 0, frame = 0
 117              		@ frame_needed = 0, uses_anonymous_args = 0
 118              	.LVL5:
 119              	.LBB111:
 120              	.LBB112:
 121              		.file 3 "../ChibiOS/os/rt/include/chqueues.h"
 122              		.loc 3 321 0
 123 0000 8269     		ldr	r2, [r0, #24]
 124 0002 4369     		ldr	r3, [r0, #20]
 125 0004 9342     		cmp	r3, r2
 126              	.LBE112:
 127              	.LBE111:
 128              		.loc 1 131 0
 129 0006 10B5     		push	{r4, lr}
 130              		.cfi_def_cfa_offset 8
 131              		.cfi_offset 4, -8
 132              		.cfi_offset 14, -4
 133              	.LBB115:
 134              	.LBB113:
 135              		.loc 3 321 0
 136 0008 8268     		ldr	r2, [r0, #8]
 137 000a 0FD0     		beq	.L12
 138              	.L6:
 139              	.LBE113:
 140              	.LBE115:
 141              		.loc 1 138 0
 142 000c 0132     		adds	r2, r2, #1
 143              		.loc 1 139 0
 144 000e 5C1C     		adds	r4, r3, #1
 145              		.loc 1 138 0
 146 0010 8260     		str	r2, [r0, #8]
 147              		.loc 1 139 0
 148 0012 4461     		str	r4, [r0, #20]
 149 0014 1970     		strb	r1, [r3]
 150              		.loc 1 140 0
 151 0016 4269     		ldr	r2, [r0, #20]
 152 0018 0369     		ldr	r3, [r0, #16]
 153 001a 9A42     		cmp	r2, r3
 154 001c 01D3     		bcc	.L8
 155              		.loc 1 141 0
 156 001e C368     		ldr	r3, [r0, #12]
 157 0020 4361     		str	r3, [r0, #20]
 158              	.L8:
 159              		.loc 1 143 0
 160 0022 0021     		movs	r1, #0
 161              	.LVL6:
 162 0024 FFF7FEFF 		bl	chThdDequeueNextI
 163              	.LVL7:
 164              		.loc 1 145 0
 165 0028 0020     		movs	r0, #0
 166 002a 10BD     		pop	{r4, pc}
 167              	.LVL8:
 168              	.L12:
ARM GAS  /tmp/ccXNyZoG.s 			page 4


 169              	.LBB116:
 170              	.LBB114:
 171              		.loc 3 321 0
 172 002c 002A     		cmp	r2, #0
 173 002e EDD0     		beq	.L6
 174              	.LBE114:
 175              	.LBE116:
 176              		.loc 1 136 0
 177 0030 6FF00300 		mvn	r0, #3
 178              	.LVL9:
 179 0034 10BD     		pop	{r4, pc}
 180              		.cfi_endproc
 181              	.LFE228:
 182              		.size	chIQPutI, .-chIQPutI
 183 0036 00BFAFF3 		.section	.text.chIQGetTimeout,"ax",%progbits
 183      0080AFF3 
 183      0080
 184              		.align	2
 185              		.p2align 4,,15
 186              		.global	chIQGetTimeout
 187              		.thumb
 188              		.thumb_func
 189              		.type	chIQGetTimeout, %function
 190              	chIQGetTimeout:
 191              	.LFB229:
 192              		.loc 1 168 0
 193              		.cfi_startproc
 194              		@ args = 0, pretend = 0, frame = 0
 195              		@ frame_needed = 0, uses_anonymous_args = 0
 196              	.LVL10:
 197 0000 70B5     		push	{r4, r5, r6, lr}
 198              		.cfi_def_cfa_offset 16
 199              		.cfi_offset 4, -16
 200              		.cfi_offset 5, -12
 201              		.cfi_offset 6, -8
 202              		.cfi_offset 14, -4
 203              	.LBB117:
 204              	.LBB118:
 205              	.LBB119:
 206              	.LBB120:
 207              		.file 4 "../ChibiOS/os/ext/CMSIS/include/core_cmFunc.h"
 208              		.loc 4 546 0
 209 0002 2023     		movs	r3, #32
 210              	.LBE120:
 211              	.LBE119:
 212              	.LBE118:
 213              	.LBE117:
 214              		.loc 1 168 0
 215 0004 0E46     		mov	r6, r1
 216 0006 0446     		mov	r4, r0
 217              	.LBB124:
 218              	.LBB123:
 219              	.LBB122:
 220              	.LBB121:
 221              		.loc 4 546 0
 222              	@ 546 "../ChibiOS/os/ext/CMSIS/include/core_cmFunc.h" 1
 223 0008 83F31188 		MSR basepri, r3
ARM GAS  /tmp/ccXNyZoG.s 			page 5


 224              	@ 0 "" 2
 225              		.thumb
 226              	.LBE121:
 227              	.LBE122:
 228              	.LBE123:
 229              	.LBE124:
 230              		.loc 1 172 0
 231 000c C369     		ldr	r3, [r0, #28]
 232 000e 2BB1     		cbz	r3, .L16
 233              		.loc 1 173 0
 234 0010 9847     		blx	r3
 235              	.LVL11:
 236 0012 03E0     		b	.L16
 237              	.LVL12:
 238              	.L18:
 239              	.LBB125:
 240              		.loc 1 177 0
 241 0014 FFF7FEFF 		bl	chThdEnqueueTimeoutS
 242              	.LVL13:
 243 0018 0028     		cmp	r0, #0
 244 001a 15DB     		blt	.L23
 245              	.LVL14:
 246              	.L16:
 247              	.LBE125:
 248              		.loc 1 168 0 discriminator 1
 249 001c A568     		ldr	r5, [r4, #8]
 250              	.LVL15:
 251              	.LBB131:
 252              		.loc 1 177 0 discriminator 1
 253 001e 2046     		mov	r0, r4
 254 0020 3146     		mov	r1, r6
 255              	.LBE131:
 256              		.loc 1 175 0 discriminator 1
 257 0022 002D     		cmp	r5, #0
 258 0024 F6D0     		beq	.L18
 259              	.LVL16:
 260              		.loc 1 184 0
 261 0026 A269     		ldr	r2, [r4, #24]
 262              		.loc 1 185 0
 263 0028 2169     		ldr	r1, [r4, #16]
 264              	.LVL17:
 265              		.loc 1 184 0
 266 002a 531C     		adds	r3, r2, #1
 267              		.loc 1 185 0
 268 002c 8B42     		cmp	r3, r1
 269              		.loc 1 183 0
 270 002e 05F1FF35 		add	r5, r5, #-1
 271              		.loc 1 184 0
 272 0032 A361     		str	r3, [r4, #24]
 273              		.loc 1 183 0
 274 0034 A560     		str	r5, [r4, #8]
 275              		.loc 1 186 0
 276 0036 28BF     		it	cs
 277 0038 E368     		ldrcs	r3, [r4, #12]
 278              		.loc 1 184 0
 279 003a 1078     		ldrb	r0, [r2]	@ zero_extendqisi2
 280              	.LVL18:
ARM GAS  /tmp/ccXNyZoG.s 			page 6


 281              		.loc 1 186 0
 282 003c 28BF     		it	cs
 283 003e A361     		strcs	r3, [r4, #24]
 284              	.LVL19:
 285              	.LBB132:
 286              	.LBB133:
 287              	.LBB134:
 288              	.LBB135:
 289              	.LBB136:
 290              		.loc 4 546 0
 291 0040 0023     		movs	r3, #0
 292              	@ 546 "../ChibiOS/os/ext/CMSIS/include/core_cmFunc.h" 1
 293 0042 83F31188 		MSR basepri, r3
 294              	@ 0 "" 2
 295              		.thumb
 296              	.LBE136:
 297              	.LBE135:
 298              	.LBE134:
 299              	.LBE133:
 300              	.LBE132:
 301              		.loc 1 190 0
 302 0046 70BD     		pop	{r4, r5, r6, pc}
 303              	.LVL20:
 304              	.L23:
 305              	.LBB137:
 306              	.LBB126:
 307              	.LBB127:
 308              	.LBB128:
 309              	.LBB129:
 310              	.LBB130:
 311              		.loc 4 546 0
 312              	@ 546 "../ChibiOS/os/ext/CMSIS/include/core_cmFunc.h" 1
 313 0048 85F31188 		MSR basepri, r5
 314              	@ 0 "" 2
 315              		.thumb
 316              	.LBE130:
 317              	.LBE129:
 318              	.LBE128:
 319              	.LBE127:
 320              	.LBE126:
 321              		.loc 1 179 0
 322 004c 70BD     		pop	{r4, r5, r6, pc}
 323              	.LBE137:
 324              		.cfi_endproc
 325              	.LFE229:
 326              		.size	chIQGetTimeout, .-chIQGetTimeout
 327 004e 00BF     		.section	.text.chIQReadTimeout,"ax",%progbits
 328              		.align	2
 329              		.p2align 4,,15
 330              		.global	chIQReadTimeout
 331              		.thumb
 332              		.thumb_func
 333              		.type	chIQReadTimeout, %function
 334              	chIQReadTimeout:
 335              	.LFB230:
 336              		.loc 1 217 0
 337              		.cfi_startproc
ARM GAS  /tmp/ccXNyZoG.s 			page 7


 338              		@ args = 0, pretend = 0, frame = 0
 339              		@ frame_needed = 0, uses_anonymous_args = 0
 340              	.LVL21:
 341 0000 2DE9F84F 		push	{r3, r4, r5, r6, r7, r8, r9, r10, fp, lr}
 342              		.cfi_def_cfa_offset 40
 343              		.cfi_offset 3, -40
 344              		.cfi_offset 4, -36
 345              		.cfi_offset 5, -32
 346              		.cfi_offset 6, -28
 347              		.cfi_offset 7, -24
 348              		.cfi_offset 8, -20
 349              		.cfi_offset 9, -16
 350              		.cfi_offset 10, -12
 351              		.cfi_offset 11, -8
 352              		.cfi_offset 14, -4
 353              		.loc 1 217 0
 354 0004 0446     		mov	r4, r0
 355 0006 1D46     		mov	r5, r3
 356              		.loc 1 218 0
 357 0008 D0F81C80 		ldr	r8, [r0, #28]
 358              	.LVL22:
 359              	.LBB138:
 360              	.LBB139:
 361              	.LBB140:
 362              	.LBB141:
 363              		.loc 4 546 0
 364 000c 4FF0200B 		mov	fp, #32
 365              	@ 546 "../ChibiOS/os/ext/CMSIS/include/core_cmFunc.h" 1
 366 0010 8BF31188 		MSR basepri, fp
 367              	@ 0 "" 2
 368              		.thumb
 369              	.LBE141:
 370              	.LBE140:
 371              	.LBE139:
 372              	.LBE138:
 373              		.loc 1 219 0
 374 0014 0026     		movs	r6, #0
 375 0016 01EB020A 		add	r10, r1, r2
 376 001a 01F10109 		add	r9, r1, #1
 377              	.LVL23:
 378              	.L31:
 379              		.loc 1 225 0
 380 001e B8F1000F 		cmp	r8, #0
 381 0022 05D0     		beq	.L27
 382              		.loc 1 226 0
 383 0024 2046     		mov	r0, r4
 384              	.LVL24:
 385 0026 C047     		blx	r8
 386              	.LVL25:
 387 0028 02E0     		b	.L27
 388              	.LVL26:
 389              	.L29:
 390              		.loc 1 229 0
 391 002a FFF7FEFF 		bl	chThdEnqueueTimeoutS
 392              	.LVL27:
 393 002e F0B9     		cbnz	r0, .L35
 394              	.LVL28:
ARM GAS  /tmp/ccXNyZoG.s 			page 8


 395              	.L27:
 396              		.loc 1 216 0 discriminator 1
 397 0030 A768     		ldr	r7, [r4, #8]
 398              	.LVL29:
 399              		.loc 1 229 0 discriminator 1
 400 0032 2046     		mov	r0, r4
 401 0034 2946     		mov	r1, r5
 402              		.loc 1 228 0 discriminator 1
 403 0036 002F     		cmp	r7, #0
 404 0038 F7D0     		beq	.L29
 405              	.LVL30:
 406              		.loc 1 236 0
 407 003a A269     		ldr	r2, [r4, #24]
 408              		.loc 1 235 0
 409 003c 7B1E     		subs	r3, r7, #1
 410              		.loc 1 236 0
 411 003e 511C     		adds	r1, r2, #1
 412              	.LVL31:
 413 0040 A161     		str	r1, [r4, #24]
 414              		.loc 1 235 0
 415 0042 A360     		str	r3, [r4, #8]
 416              	.LVL32:
 417              		.loc 1 236 0
 418 0044 1378     		ldrb	r3, [r2]	@ zero_extendqisi2
 419 0046 09F8013C 		strb	r3, [r9, #-1]
 420              		.loc 1 237 0
 421 004a 2369     		ldr	r3, [r4, #16]
 422 004c A269     		ldr	r2, [r4, #24]
 423 004e 9A42     		cmp	r2, r3
 424              		.loc 1 238 0
 425 0050 24BF     		itt	cs
 426 0052 E368     		ldrcs	r3, [r4, #12]
 427 0054 A361     		strcs	r3, [r4, #24]
 428              	.LVL33:
 429              	.LBB142:
 430              	.LBB143:
 431              	.LBB144:
 432              	.LBB145:
 433              	.LBB146:
 434              		.loc 4 546 0
 435 0056 0023     		movs	r3, #0
 436              	@ 546 "../ChibiOS/os/ext/CMSIS/include/core_cmFunc.h" 1
 437 0058 83F31188 		MSR basepri, r3
 438              	@ 0 "" 2
 439              		.thumb
 440              	.LBE146:
 441              	.LBE145:
 442              	.LBE144:
 443              	.LBE143:
 444              	.LBE142:
 445              		.loc 1 242 0
 446 005c D145     		cmp	r9, r10
 447              		.loc 1 241 0
 448 005e 06F10106 		add	r6, r6, #1
 449              	.LVL34:
 450              		.loc 1 242 0
 451 0062 06D0     		beq	.L28
ARM GAS  /tmp/ccXNyZoG.s 			page 9


 452              	.LVL35:
 453              	.LBB147:
 454              	.LBB148:
 455              	.LBB149:
 456              	.LBB150:
 457              		.loc 4 546 0
 458              	@ 546 "../ChibiOS/os/ext/CMSIS/include/core_cmFunc.h" 1
 459 0064 8BF31188 		MSR basepri, fp
 460              	@ 0 "" 2
 461              		.thumb
 462 0068 09F10109 		add	r9, r9, #1
 463 006c D7E7     		b	.L31
 464              	.LVL36:
 465              	.L35:
 466              	.LBE150:
 467              	.LBE149:
 468              	.LBE148:
 469              	.LBE147:
 470              	.LBB151:
 471              	.LBB152:
 472              	.LBB153:
 473              	.LBB154:
 474              	.LBB155:
 475              	@ 546 "../ChibiOS/os/ext/CMSIS/include/core_cmFunc.h" 1
 476 006e 87F31188 		MSR basepri, r7
 477              	@ 0 "" 2
 478              	.LVL37:
 479              		.thumb
 480              	.L28:
 481              	.LBE155:
 482              	.LBE154:
 483              	.LBE153:
 484              	.LBE152:
 485              	.LBE151:
 486              		.loc 1 247 0
 487 0072 3046     		mov	r0, r6
 488 0074 BDE8F88F 		pop	{r3, r4, r5, r6, r7, r8, r9, r10, fp, pc}
 489              		.cfi_endproc
 490              	.LFE230:
 491              		.size	chIQReadTimeout, .-chIQReadTimeout
 492 0078 AFF30080 		.section	.text.chOQObjectInit,"ax",%progbits
 492      AFF30080 
 493              		.align	2
 494              		.p2align 4,,15
 495              		.global	chOQObjectInit
 496              		.thumb
 497              		.thumb_func
 498              		.type	chOQObjectInit, %function
 499              	chOQObjectInit:
 500              	.LFB231:
 501              		.loc 1 266 0
 502              		.cfi_startproc
 503              		@ args = 4, pretend = 0, frame = 0
 504              		@ frame_needed = 0, uses_anonymous_args = 0
 505              		@ link register save eliminated.
 506              	.LVL38:
 507 0000 30B4     		push	{r4, r5}
ARM GAS  /tmp/ccXNyZoG.s 			page 10


 508              		.cfi_def_cfa_offset 8
 509              		.cfi_offset 4, -8
 510              		.cfi_offset 5, -4
 511              		.loc 1 266 0
 512 0002 029C     		ldr	r4, [sp, #8]
 513              		.loc 1 273 0
 514 0004 0462     		str	r4, [r0, #32]
 515              		.loc 1 271 0
 516 0006 8D18     		adds	r5, r1, r2
 517 0008 0561     		str	r5, [r0, #16]
 518              	.LBB156:
 519              	.LBB157:
 520              	.LBB158:
 521              		.loc 2 574 0
 522 000a 4060     		str	r0, [r0, #4]
 523 000c 0060     		str	r0, [r0]
 524              	.LBE158:
 525              	.LBE157:
 526              	.LBE156:
 527              		.loc 1 269 0
 528 000e 8260     		str	r2, [r0, #8]
 529              		.loc 1 270 0
 530 0010 4161     		str	r1, [r0, #20]
 531 0012 8161     		str	r1, [r0, #24]
 532 0014 C160     		str	r1, [r0, #12]
 533              		.loc 1 272 0
 534 0016 C361     		str	r3, [r0, #28]
 535              		.loc 1 274 0
 536 0018 30BC     		pop	{r4, r5}
 537              	.LVL39:
 538 001a 7047     		bx	lr
 539              		.cfi_endproc
 540              	.LFE231:
 541              		.size	chOQObjectInit, .-chOQObjectInit
 542 001c AFF30080 		.section	.text.chOQResetI,"ax",%progbits
 543              		.align	2
 544              		.p2align 4,,15
 545              		.global	chOQResetI
 546              		.thumb
 547              		.thumb_func
 548              		.type	chOQResetI, %function
 549              	chOQResetI:
 550              	.LFB232:
 551              		.loc 1 287 0
 552              		.cfi_startproc
 553              		@ args = 0, pretend = 0, frame = 0
 554              		@ frame_needed = 0, uses_anonymous_args = 0
 555              		@ link register save eliminated.
 556              	.LVL40:
 557              		.loc 1 291 0
 558 0000 C268     		ldr	r2, [r0, #12]
 559 0002 4261     		str	r2, [r0, #20]
 560              		.loc 1 287 0
 561 0004 10B4     		push	{r4}
 562              		.cfi_def_cfa_offset 4
 563              		.cfi_offset 4, -4
 564              		.loc 1 292 0
ARM GAS  /tmp/ccXNyZoG.s 			page 11


 565 0006 0469     		ldr	r4, [r0, #16]
 566              		.loc 1 291 0
 567 0008 8261     		str	r2, [r0, #24]
 568              		.loc 1 292 0
 569 000a A41A     		subs	r4, r4, r2
 570 000c 8460     		str	r4, [r0, #8]
 571              		.loc 1 293 0
 572 000e 6FF00101 		mvn	r1, #1
 573              		.loc 1 294 0
 574 0012 5DF8044B 		ldr	r4, [sp], #4
 575              		.loc 1 293 0
 576 0016 FFF7FEBF 		b	chThdDequeueAllI
 577              	.LVL41:
 578              		.cfi_endproc
 579              	.LFE232:
 580              		.size	chOQResetI, .-chOQResetI
 581 001a 00BFAFF3 		.section	.text.chOQPutTimeout,"ax",%progbits
 581      0080
 582              		.align	2
 583              		.p2align 4,,15
 584              		.global	chOQPutTimeout
 585              		.thumb
 586              		.thumb_func
 587              		.type	chOQPutTimeout, %function
 588              	chOQPutTimeout:
 589              	.LFB233:
 590              		.loc 1 318 0
 591              		.cfi_startproc
 592              		@ args = 0, pretend = 0, frame = 0
 593              		@ frame_needed = 0, uses_anonymous_args = 0
 594              	.LVL42:
 595 0000 F8B5     		push	{r3, r4, r5, r6, r7, lr}
 596              		.cfi_def_cfa_offset 24
 597              		.cfi_offset 3, -24
 598              		.cfi_offset 4, -20
 599              		.cfi_offset 5, -16
 600              		.cfi_offset 6, -12
 601              		.cfi_offset 7, -8
 602              		.cfi_offset 14, -4
 603              		.loc 1 318 0
 604 0002 0446     		mov	r4, r0
 605 0004 0F46     		mov	r7, r1
 606 0006 1646     		mov	r6, r2
 607              	.LBB159:
 608              	.LBB160:
 609              	.LBB161:
 610              	.LBB162:
 611              		.loc 4 546 0
 612 0008 2023     		movs	r3, #32
 613              	@ 546 "../ChibiOS/os/ext/CMSIS/include/core_cmFunc.h" 1
 614 000a 83F31188 		MSR basepri, r3
 615              	@ 0 "" 2
 616              		.thumb
 617 000e 03E0     		b	.L39
 618              	.LVL43:
 619              	.L42:
 620              	.LBE162:
ARM GAS  /tmp/ccXNyZoG.s 			page 12


 621              	.LBE161:
 622              	.LBE160:
 623              	.LBE159:
 624              	.LBB163:
 625              		.loc 1 324 0
 626 0010 FFF7FEFF 		bl	chThdEnqueueTimeoutS
 627              	.LVL44:
 628 0014 0028     		cmp	r0, #0
 629 0016 18DB     		blt	.L48
 630              	.LVL45:
 631              	.L39:
 632              	.LBE163:
 633              		.loc 1 318 0 discriminator 1
 634 0018 A568     		ldr	r5, [r4, #8]
 635              	.LVL46:
 636              	.LBB169:
 637              		.loc 1 324 0 discriminator 1
 638 001a 2046     		mov	r0, r4
 639 001c 3146     		mov	r1, r6
 640              	.LBE169:
 641              		.loc 1 321 0 discriminator 1
 642 001e 002D     		cmp	r5, #0
 643 0020 F6D0     		beq	.L42
 644              	.LVL47:
 645              		.loc 1 331 0
 646 0022 6369     		ldr	r3, [r4, #20]
 647              		.loc 1 330 0
 648 0024 013D     		subs	r5, r5, #1
 649              		.loc 1 331 0
 650 0026 5A1C     		adds	r2, r3, #1
 651 0028 6261     		str	r2, [r4, #20]
 652              		.loc 1 330 0
 653 002a A560     		str	r5, [r4, #8]
 654              		.loc 1 331 0
 655 002c 1F70     		strb	r7, [r3]
 656              		.loc 1 332 0
 657 002e 2369     		ldr	r3, [r4, #16]
 658 0030 6269     		ldr	r2, [r4, #20]
 659 0032 9A42     		cmp	r2, r3
 660              		.loc 1 333 0
 661 0034 24BF     		itt	cs
 662 0036 E368     		ldrcs	r3, [r4, #12]
 663 0038 6361     		strcs	r3, [r4, #20]
 664              		.loc 1 335 0
 665 003a E369     		ldr	r3, [r4, #28]
 666 003c 0BB1     		cbz	r3, .L44
 667              		.loc 1 336 0
 668 003e 2046     		mov	r0, r4
 669              	.LVL48:
 670 0040 9847     		blx	r3
 671              	.LVL49:
 672              	.L44:
 673              	.LBB170:
 674              	.LBB171:
 675              	.LBB172:
 676              	.LBB173:
 677              	.LBB174:
ARM GAS  /tmp/ccXNyZoG.s 			page 13


 678              		.loc 4 546 0
 679 0042 0020     		movs	r0, #0
 680              	@ 546 "../ChibiOS/os/ext/CMSIS/include/core_cmFunc.h" 1
 681 0044 80F31188 		MSR basepri, r0
 682              	@ 0 "" 2
 683              		.thumb
 684              	.LBE174:
 685              	.LBE173:
 686              	.LBE172:
 687              	.LBE171:
 688              	.LBE170:
 689              		.loc 1 340 0
 690 0048 F8BD     		pop	{r3, r4, r5, r6, r7, pc}
 691              	.LVL50:
 692              	.L48:
 693              	.LBB175:
 694              	.LBB164:
 695              	.LBB165:
 696              	.LBB166:
 697              	.LBB167:
 698              	.LBB168:
 699              		.loc 4 546 0
 700              	@ 546 "../ChibiOS/os/ext/CMSIS/include/core_cmFunc.h" 1
 701 004a 85F31188 		MSR basepri, r5
 702              	@ 0 "" 2
 703              		.thumb
 704              	.LBE168:
 705              	.LBE167:
 706              	.LBE166:
 707              	.LBE165:
 708              	.LBE164:
 709              		.loc 1 326 0
 710 004e F8BD     		pop	{r3, r4, r5, r6, r7, pc}
 711              	.LBE175:
 712              		.cfi_endproc
 713              	.LFE233:
 714              		.size	chOQPutTimeout, .-chOQPutTimeout
 715              		.section	.text.chOQGetI,"ax",%progbits
 716              		.align	2
 717              		.p2align 4,,15
 718              		.global	chOQGetI
 719              		.thumb
 720              		.thumb_func
 721              		.type	chOQGetI, %function
 722              	chOQGetI:
 723              	.LFB234:
 724              		.loc 1 352 0
 725              		.cfi_startproc
 726              		@ args = 0, pretend = 0, frame = 0
 727              		@ frame_needed = 0, uses_anonymous_args = 0
 728              	.LVL51:
 729              	.LBB176:
 730              	.LBB177:
 731              		.loc 3 387 0
 732 0000 4269     		ldr	r2, [r0, #20]
 733 0002 8369     		ldr	r3, [r0, #24]
 734 0004 9A42     		cmp	r2, r3
ARM GAS  /tmp/ccXNyZoG.s 			page 14


 735              	.LBE177:
 736              	.LBE176:
 737              		.loc 1 352 0
 738 0006 10B5     		push	{r4, lr}
 739              		.cfi_def_cfa_offset 8
 740              		.cfi_offset 4, -8
 741              		.cfi_offset 14, -4
 742              	.LBB180:
 743              	.LBB178:
 744              		.loc 3 387 0
 745 0008 8268     		ldr	r2, [r0, #8]
 746 000a 0ED0     		beq	.L57
 747              	.L52:
 748              	.LBE178:
 749              	.LBE180:
 750              		.loc 1 362 0
 751 000c 0169     		ldr	r1, [r0, #16]
 752              		.loc 1 360 0
 753 000e 541C     		adds	r4, r2, #1
 754              		.loc 1 361 0
 755 0010 5A1C     		adds	r2, r3, #1
 756              		.loc 1 360 0
 757 0012 8460     		str	r4, [r0, #8]
 758              		.loc 1 361 0
 759 0014 8261     		str	r2, [r0, #24]
 760              		.loc 1 362 0
 761 0016 8A42     		cmp	r2, r1
 762              		.loc 1 361 0
 763 0018 1C78     		ldrb	r4, [r3]	@ zero_extendqisi2
 764              	.LVL52:
 765              		.loc 1 362 0
 766 001a 01D3     		bcc	.L54
 767              		.loc 1 363 0
 768 001c C368     		ldr	r3, [r0, #12]
 769              	.LVL53:
 770 001e 8361     		str	r3, [r0, #24]
 771              	.LVL54:
 772              	.L54:
 773              		.loc 1 365 0
 774 0020 0021     		movs	r1, #0
 775 0022 FFF7FEFF 		bl	chThdDequeueNextI
 776              	.LVL55:
 777              		.loc 1 367 0
 778 0026 2046     		mov	r0, r4
 779 0028 10BD     		pop	{r4, pc}
 780              	.LVL56:
 781              	.L57:
 782              	.LBB181:
 783              	.LBB179:
 784              		.loc 3 387 0
 785 002a 002A     		cmp	r2, #0
 786 002c EED0     		beq	.L52
 787              	.LBE179:
 788              	.LBE181:
 789              		.loc 1 358 0
 790 002e 6FF00200 		mvn	r0, #2
 791              	.LVL57:
ARM GAS  /tmp/ccXNyZoG.s 			page 15


 792 0032 10BD     		pop	{r4, pc}
 793              		.cfi_endproc
 794              	.LFE234:
 795              		.size	chOQGetI, .-chOQGetI
 796 0034 AFF30080 		.section	.text.chOQWriteTimeout,"ax",%progbits
 796      AFF30080 
 796      AFF30080 
 797              		.align	2
 798              		.p2align 4,,15
 799              		.global	chOQWriteTimeout
 800              		.thumb
 801              		.thumb_func
 802              		.type	chOQWriteTimeout, %function
 803              	chOQWriteTimeout:
 804              	.LFB235:
 805              		.loc 1 395 0
 806              		.cfi_startproc
 807              		@ args = 0, pretend = 0, frame = 8
 808              		@ frame_needed = 0, uses_anonymous_args = 0
 809              	.LVL58:
 810 0000 2DE9F04F 		push	{r4, r5, r6, r7, r8, r9, r10, fp, lr}
 811              		.cfi_def_cfa_offset 36
 812              		.cfi_offset 4, -36
 813              		.cfi_offset 5, -32
 814              		.cfi_offset 6, -28
 815              		.cfi_offset 7, -24
 816              		.cfi_offset 8, -20
 817              		.cfi_offset 9, -16
 818              		.cfi_offset 10, -12
 819              		.cfi_offset 11, -8
 820              		.cfi_offset 14, -4
 821 0004 83B0     		sub	sp, sp, #12
 822              		.cfi_def_cfa_offset 48
 823              		.loc 1 395 0
 824 0006 0446     		mov	r4, r0
 825 0008 8B46     		mov	fp, r1
 826 000a 1646     		mov	r6, r2
 827 000c 0193     		str	r3, [sp, #4]
 828              		.loc 1 396 0
 829 000e D0F81C80 		ldr	r8, [r0, #28]
 830              	.LVL59:
 831              	.LBB182:
 832              	.LBB183:
 833              	.LBB184:
 834              	.LBB185:
 835              		.loc 4 546 0
 836 0012 4FF0200A 		mov	r10, #32
 837              	@ 546 "../ChibiOS/os/ext/CMSIS/include/core_cmFunc.h" 1
 838 0016 8AF31188 		MSR basepri, r10
 839              	@ 0 "" 2
 840              		.thumb
 841              	.LBE185:
 842              	.LBE184:
 843              	.LBE183:
 844              	.LBE182:
 845              		.loc 1 397 0
 846 001a 0027     		movs	r7, #0
ARM GAS  /tmp/ccXNyZoG.s 			page 16


 847              	.LBB186:
 848              	.LBB187:
 849              	.LBB188:
 850              	.LBB189:
 851              	.LBB190:
 852              		.loc 4 546 0
 853 001c B946     		mov	r9, r7
 854              	.LVL60:
 855              	.L59:
 856              	.LBE190:
 857              	.LBE189:
 858              	.LBE188:
 859              	.LBE187:
 860              	.LBE186:
 861              		.loc 1 394 0 discriminator 1
 862 001e A568     		ldr	r5, [r4, #8]
 863              		.loc 1 410 0 discriminator 1
 864 0020 0BF1010A 		add	r10, fp, #1
 865              	.LVL61:
 866              		.loc 1 415 0 discriminator 1
 867 0024 2046     		mov	r0, r4
 868              		.loc 1 409 0 discriminator 1
 869 0026 6A1E     		subs	r2, r5, #1
 870              		.loc 1 403 0 discriminator 1
 871 0028 DDB1     		cbz	r5, .L62
 872              	.LVL62:
 873              		.loc 1 410 0
 874 002a 6369     		ldr	r3, [r4, #20]
 875              		.loc 1 409 0
 876 002c A260     		str	r2, [r4, #8]
 877              		.loc 1 410 0
 878 002e 5A1C     		adds	r2, r3, #1
 879 0030 6261     		str	r2, [r4, #20]
 880 0032 9BF80020 		ldrb	r2, [fp]	@ zero_extendqisi2
 881 0036 1A70     		strb	r2, [r3]
 882              		.loc 1 411 0
 883 0038 2369     		ldr	r3, [r4, #16]
 884 003a 6269     		ldr	r2, [r4, #20]
 885 003c 9A42     		cmp	r2, r3
 886              		.loc 1 412 0
 887 003e 24BF     		itt	cs
 888 0040 E368     		ldrcs	r3, [r4, #12]
 889 0042 6361     		strcs	r3, [r4, #20]
 890              		.loc 1 414 0
 891 0044 B8F1000F 		cmp	r8, #0
 892 0048 00D0     		beq	.L64
 893              		.loc 1 415 0
 894 004a C047     		blx	r8
 895              	.LVL63:
 896              	.L64:
 897              	.LBB195:
 898              	.LBB194:
 899              	.LBB193:
 900              	.LBB192:
 901              	.LBB191:
 902              		.loc 4 546 0
 903              	@ 546 "../ChibiOS/os/ext/CMSIS/include/core_cmFunc.h" 1
ARM GAS  /tmp/ccXNyZoG.s 			page 17


 904 004c 89F31188 		MSR basepri, r9
 905              	@ 0 "" 2
 906              	.LVL64:
 907              		.thumb
 908              	.LBE191:
 909              	.LBE192:
 910              	.LBE193:
 911              	.LBE194:
 912              	.LBE195:
 913              		.loc 1 419 0
 914 0050 013E     		subs	r6, r6, #1
 915              	.LVL65:
 916              		.loc 1 418 0
 917 0052 07F10107 		add	r7, r7, #1
 918              	.LVL66:
 919              		.loc 1 419 0
 920 0056 0CD0     		beq	.L61
 921              	.LBB196:
 922              	.LBB197:
 923              	.LBB198:
 924              	.LBB199:
 925              		.loc 4 546 0
 926 0058 2023     		movs	r3, #32
 927              	@ 546 "../ChibiOS/os/ext/CMSIS/include/core_cmFunc.h" 1
 928 005a 83F31188 		MSR basepri, r3
 929              	@ 0 "" 2
 930              		.thumb
 931              	.LBE199:
 932              	.LBE198:
 933              	.LBE197:
 934              	.LBE196:
 935              		.loc 1 410 0
 936 005e D346     		mov	fp, r10
 937 0060 DDE7     		b	.L59
 938              	.LVL67:
 939              	.L62:
 940              		.loc 1 404 0
 941 0062 2046     		mov	r0, r4
 942              	.LVL68:
 943 0064 0199     		ldr	r1, [sp, #4]
 944 0066 FFF7FEFF 		bl	chThdEnqueueTimeoutS
 945              	.LVL69:
 946 006a 0028     		cmp	r0, #0
 947 006c D7D0     		beq	.L59
 948              	.LVL70:
 949              	.LBB200:
 950              	.LBB201:
 951              	.LBB202:
 952              	.LBB203:
 953              	.LBB204:
 954              		.loc 4 546 0
 955              	@ 546 "../ChibiOS/os/ext/CMSIS/include/core_cmFunc.h" 1
 956 006e 85F31188 		MSR basepri, r5
 957              	@ 0 "" 2
 958              	.LVL71:
 959              		.thumb
 960              	.L61:
ARM GAS  /tmp/ccXNyZoG.s 			page 18


 961              	.LBE204:
 962              	.LBE203:
 963              	.LBE202:
 964              	.LBE201:
 965              	.LBE200:
 966              		.loc 1 423 0
 967 0072 3846     		mov	r0, r7
 968 0074 03B0     		add	sp, sp, #12
 969              		@ sp needed
 970 0076 BDE8F08F 		pop	{r4, r5, r6, r7, r8, r9, r10, fp, pc}
 971              		.cfi_endproc
 972              	.LFE235:
 973              		.size	chOQWriteTimeout, .-chOQWriteTimeout
 974 007a 00BFAFF3 		.text
 974      0080
 975              	.Letext0:
 976              		.file 5 "/nfs/nfs5/home/research/hardware/arm2/gcc-arm-embedded/gcc-arm-none-eabi-4_8-2014q2/lib/g
 977              		.file 6 "/nfs/nfs5/home/research/hardware/arm2/gcc-arm-embedded/gcc-arm-none-eabi-4_8-2014q2/arm-n
 978              		.file 7 "/nfs/nfs5/home/research/hardware/arm2/gcc-arm-embedded/gcc-arm-none-eabi-4_8-2014q2/arm-n
 979              		.file 8 "../ChibiOS/os/rt/ports/ARMCMx/compilers/GCC/chtypes.h"
 980              		.file 9 "../ChibiOS/os/rt/include/chsystypes.h"
 981              		.file 10 "../ChibiOS/os/rt/ports/ARMCMx/chcore.h"
 982              		.file 11 "../ChibiOS/os/rt/ports/ARMCMx/chcore_v7m.h"
 983              		.file 12 "../ChibiOS/os/rt/include/chtm.h"
 984              		.file 13 "../ChibiOS/os/rt/include/chmtx.h"
 985              		.file 14 "../ChibiOS/os/rt/include/chthreads.h"
 986              		.file 15 "../ChibiOS/os/rt/include/chsys.h"
 987              		.file 16 "../ChibiOS/os/ext/CMSIS/include/core_cm4.h"