ARM GAS  /tmp/ccXNyZoG.s 			page 1


   1              		.syntax unified
   2              		.cpu cortex-m4
   3              		.fpu softvfp
   4              		.eabi_attribute 20, 1
   5              		.eabi_attribute 21, 1
   6              		.eabi_attribute 23, 3
   7              		.eabi_attribute 24, 1
   8              		.eabi_attribute 25, 1
   9              		.eabi_attribute 26, 1
  10              		.eabi_attribute 30, 2
  11              		.eabi_attribute 34, 1
  12              		.eabi_attribute 18, 4
  13              		.thumb
  14              		.file	"chqueues.c"
  15              		.text
  16              	.Ltext0:
  17              		.cfi_sections	.debug_frame
  18              		.section	.text.chIQObjectInit,"ax",%progbits
  19              		.align	2
  20              		.p2align 4,,15
  21              		.global	chIQObjectInit
  22              		.thumb
  23              		.thumb_func
  24              		.type	chIQObjectInit, %function
  25              	chIQObjectInit:
  26              	.LFB226:
  27              		.file 1 "../ChibiOS/os/rt/src/chqueues.c"
  28              		.loc 1 88 0
  29              		.cfi_startproc
  30              		@ args = 4, pretend = 0, frame = 0
  31              		@ frame_needed = 0, uses_anonymous_args = 0
  32              		@ link register save eliminated.
  33              	.LVL0:
  34 0000 30B4     		push	{r4, r5}
  35              		.cfi_def_cfa_offset 8
  36              		.cfi_offset 4, -8
  37              		.cfi_offset 5, -4
  38              		.loc 1 88 0
  39 0002 029C     		ldr	r4, [sp, #8]
  40              		.loc 1 95 0
  41 0004 0462     		str	r4, [r0, #32]
  42              		.loc 1 91 0
  43 0006 0025     		movs	r5, #0
  44              		.loc 1 93 0
  45 0008 0A44     		add	r2, r2, r1
  46              	.LVL1:
  47              		.loc 1 91 0
  48 000a 8560     		str	r5, [r0, #8]
  49              		.loc 1 93 0
  50 000c 0261     		str	r2, [r0, #16]
  51              	.LBB108:
  52              	.LBB109:
  53              	.LBB110:
  54              		.file 2 "../ChibiOS/os/rt/include/chschd.h"
  55              		.loc 2 574 0
  56 000e 4060     		str	r0, [r0, #4]
  57 0010 0060     		str	r0, [r0]
ARM GAS  /tmp/ccXNyZoG.s 			page 2


  58              	.LBE110:
  59              	.LBE109:
  60              	.LBE108:
  61              		.loc 1 92 0
  62 0012 4161     		str	r1, [r0, #20]
  63 0014 8161     		str	r1, [r0, #24]
  64 0016 C160     		str	r1, [r0, #12]
  65              		.loc 1 94 0
  66 0018 C361     		str	r3, [r0, #28]
  67              		.loc 1 96 0
  68 001a 30BC     		pop	{r4, r5}
  69              	.LVL2:
  70 001c 7047     		bx	lr
  71              		.cfi_endproc
  72              	.LFE226:
  73              		.size	chIQObjectInit, .-chIQObjectInit
  74 001e 00BF     		.section	.text.chIQResetI,"ax",%progbits
  75              		.align	2
  76              		.p2align 4,,15
  77              		.global	chIQResetI
  78              		.thumb
  79              		.thumb_func
  80              		.type	chIQResetI, %function
  81              	chIQResetI:
  82              	.LFB227:
  83              		.loc 1 109 0
  84              		.cfi_startproc
  85              		@ args = 0, pretend = 0, frame = 0
  86              		@ frame_needed = 0, uses_anonymous_args = 0
  87              		@ link register save eliminated.
  88              	.LVL3:
  89              		.loc 1 114 0
  90 0000 0021     		movs	r1, #0
  91              		.loc 1 113 0
  92 0002 C268     		ldr	r2, [r0, #12]
  93              		.loc 1 114 0
  94 0004 8160     		str	r1, [r0, #8]
  95              		.loc 1 113 0
  96 0006 4261     		str	r2, [r0, #20]
  97 0008 8261     		str	r2, [r0, #24]
  98              		.loc 1 115 0
  99 000a 6FF00101 		mvn	r1, #1
 100 000e FFF7FEBF 		b	chThdDequeueAllI
 101              	.LVL4:
 102              		.cfi_endproc
 103              	.LFE227:
 104              		.size	chIQResetI, .-chIQResetI
 105 0012 00BFAFF3 		.section	.text.chIQPutI,"ax",%progbits
 105      0080AFF3 
 105      0080AFF3 
 105      0080
 106              		.align	2
 107              		.p2align 4,,15
 108              		.global	chIQPutI
 109              		.thumb
 110              		.thumb_func
 111              		.type	chIQPutI, %function
ARM GAS  /tmp/ccXNyZoG.s 			page 3


 112              	chIQPutI:
 113              	.LFB228:
 114              		.loc 1 131 0
 115              		.cfi_startproc
 116              		@ args = 0, pretend = 0, frame = 0
 117              		@ frame_needed = 0, uses_anonymous_args = 0
 118              	.LVL5:
 119              	.LBB111:
 120              	.LBB112:
 121              		.file 3 "../ChibiOS/os/rt/include/chqueues.h"
 122              		.loc 3 321 0
 123 0000 8269     		ldr	r2, [r0, #24]
 124 0002 4369     		ldr	r3, [r0, #20]
 125 0004 9342     		cmp	r3, r2
 126              	.LBE112:
 127              	.LBE111:
 128              		.loc 1 131 0
 129 0006 10B5     		push	{r4, lr}
 130              		.cfi_def_cfa_offset 8
 131              		.cfi_offset 4, -8
 132              		.cfi_offset 14, -4
 133              	.LBB115:
 134              	.LBB113:
 135              		.loc 3 321 0
 136 0008 8268     		ldr	r2, [r0, #8]
 137 000a 0FD0     		beq	.L12
 138              	.L6:
 139              	.LBE113:
 140              	.LBE115:
 141              		.loc 1 138 0
 142 000c 0132     		adds	r2, r2, #1
 143              		.loc 1 139 0
 144 000e 5C1C     		adds	r4, r3, #1
 145              		.loc 1 138 0
 146 0010 8260     		str	r2, [r0, #8]
 147              		.loc 1 139 0
 148 0012 4461     		str	r4, [r0, #20]
 149 0014 1970     		strb	r1, [r3]
 150              		.loc 1 140 0
 151 0016 4269     		ldr	r2, [r0, #20]
 152 0018 0369     		ldr	r3, [r0, #16]
 153 001a 9A42     		cmp	r2, r3
 154 001c 01D3     		bcc	.L8
 155              		.loc 1 141 0
 156 001e C368     		ldr	r3, [r0, #12]
 157 0020 4361     		str	r3, [r0, #20]
 158              	.L8:
 159              		.loc 1 143 0
 160 0022 0021     		movs	r1, #0
 161              	.LVL6:
 162 0024 FFF7FEFF 		bl	chThdDequeueNextI
 163              	.LVL7:
 164              		.loc 1 145 0
 165 0028 0020     		movs	r0, #0
 166 002a 10BD     		pop	{r4, pc}
 167              	.LVL8:
 168              	.L12:
ARM GAS  /tmp/ccXNyZoG.s 			page 4


 169              	.LBB116:
 170              	.LBB114:
 171              		.loc 3 321 0
 172 002c 002A     		cmp	r2, #0
 173 002e EDD0     		beq	.L6
 174              	.LBE114:
 175              	.LBE116:
 176              		.loc 1 136 0
 177 0030 6FF00300 		mvn	r0, #3
 178              	.LVL9:
 179 0034 10BD     		pop	{r4, pc}
 180              		.cfi_endproc
 181              	.LFE228:
 182              		.size	chIQPutI, .-chIQPutI
 183 0036 00BFAFF3 		.section	.text.chIQGetTimeout,"ax",%progbits
 183      0080AFF3 
 183      0080
 184              		.align	2
 185              		.p2align 4,,15
 186              		.global	chIQGetTimeout
 187              		.thumb
 188              		.thumb_func
 189              		.type	chIQGetTimeout, %function
 190              	chIQGetTimeout:
 191              	.LFB229:
 192              		.loc 1 168 0
 193              		.cfi_startproc
 194              		@ args = 0, pretend = 0, frame = 0
 195              		@ frame_needed = 0, uses_anonymous_args = 0
 196              	.LVL10:
 197 0000 70B5     		push	{r4, r5, r6, lr}
 198              		.cfi_def_cfa_offset 16
 199              		.cfi_offset 4, -16
 200              		.cfi_offset 5, -12
 201              		.cfi_offset 6, -8
 202              		.cfi_offset 14, -4
 203              	.LBB117:
 204              	.LBB118:
 205              	.LBB119:
 206              	.LBB120:
 207              		.file 4 "../ChibiOS/os/ext/CMSIS/include/core_cmFunc.h"
 208              		.loc 4 546 0
 209 0002 2023     		movs	r3, #32
 210              	.LBE120:
 211              	.LBE119:
 212              	.LBE118:
 213              	.LBE117:
 214              		.loc 1 168 0
 215 0004 0E46     		mov	r6, r1
 216 0006 0446     		mov	r4, r0
 217              	.LBB124:
 218              	.LBB123:
 219              	.LBB122:
 220              	.LBB121:
 221              		.loc 4 546 0
 222              	@ 546 "../ChibiOS/os/ext/CMSIS/include/core_cmFunc.h" 1
 223 0008 83F31188 		MSR basepri, r3
ARM GAS  /tmp/ccXNyZoG.s 			page 5


 224              	@ 0 "" 2
 225              		.thumb
 226              	.LBE121:
 227              	.LBE122:
 228              	.LBE123:
 229              	.LBE124:
 230              		.loc 1 172 0
 231 000c C369     		ldr	r3, [r0, #28]
 232 000e 2BB1     		cbz	r3, .L16
 233              		.loc 1 173 0
 234 0010 9847     		blx	r3
 235              	.LVL11:
 236 0012 03E0     		b	.L16
 237              	.LVL12:
 238              	.L18:
 239              	.LBB125:
 240              		.loc 1 177 0
 241 0014 FFF7FEFF 		bl	chThdEnqueueTimeoutS
 242              	.LVL13:
 243 0018 0028     		cmp	r0, #0
 244 001a 15DB     		blt	.L23
 245              	.LVL14:
 246              	.L16:
 247              	.LBE125:
 248              		.loc 1 168 0 discriminator 1
 249 001c A568     		ldr	r5, [r4, #8]
 250              	.LVL15:
 251              	.LBB131:
 252              		.loc 1 177 0 discriminator 1
 253 001e 2046     		mov	r0, r4
 254 0020 3146     		mov	r1, r6
 255              	.LBE131:
 256              		.loc 1 175 0 discriminator 1
 257 0022 002D     		cmp	r5, #0
 258 0024 F6D0     		beq	.L18
 259              	.LVL16:
 260              		.loc 1 184 0
 261 0026 A269     		ldr	r2, [r4, #24]
 262              		.loc 1 185 0
 263 0028 2169     		ldr	r1, [r4, #16]
 264              	.LVL17:
 265              		.loc 1 184 0
 266 002a 531C     		adds	r3, r2, #1
 267              		.loc 1 185 0
 268 002c 8B42     		cmp	r3, r1
 269              		.loc 1 183 0
 270 002e 05F1FF35 		add	r5, r5, #-1
 271              		.loc 1 184 0
 272 0032 A361     		str	r3, [r4, #24]
 273              		.loc 1 183 0
 274 0034 A560     		str	r5, [r4, #8]
 275              		.loc 1 186 0
 276 0036 28BF     		it	cs
 277 0038 E368     		ldrcs	r3, [r4, #12]
 278              		.loc 1 184 0
 279 003a 1078     		ldrb	r0, [r2]	@ zero_extendqisi2
 280              	.LVL18:
ARM GAS  /tmp/ccXNyZoG.s 			page 6


 281              		.loc 1 186 0
 282 003c 28BF     		it	cs
 283 003e A361     		strcs	r3, [r4, #24]
 284              	.LVL19:
 285              	.LBB132:
 286              	.LBB133:
 287              	.LBB134:
 288              	.LBB135:
 289              	.LBB136:
 290              		.loc 4 546 0
 291 0040 0023     		movs	r3, #0
 292              	@ 546 "../ChibiOS/os/ext/CMSIS/include/core_cmFunc.h" 1
 293 0042 83F31188 		MSR basepri, r3
 294              	@ 0 "" 2
 295              		.thumb
 296              	.LBE136:
 297              	.LBE135:
 298              	.LBE134:
 299              	.LBE133:
 300              	.LBE132:
 301              		.loc 1 190 0
 302 0046 70BD     		pop	{r4, r5, r6, pc}
 303              	.LVL20:
 304              	.L23:
 305              	.LBB137:
 306              	.LBB126:
 307              	.LBB127:
 308              	.LBB128:
 309              	.LBB129:
 310              	.LBB130:
 311              		.loc 4 546 0
 312              	@ 546 "../ChibiOS/os/ext/CMSIS/include/core_cmFunc.h" 1
 313 0048 85F31188 		MSR basepri, r5
 314              	@ 0 "" 2
 315              		.thumb
 316              	.LBE130:
 317              	.LBE129:
 318              	.LBE128:
 319              	.LBE127:
 320              	.LBE126:
 321              		.loc 1 179 0
 322 004c 70BD     		pop	{r4, r5, r6, pc}
 323              	.LBE137:
 324              		.cfi_endproc
 325              	.LFE229:
 326              		.size	chIQGetTimeout, .-chIQGetTimeout
 327 004e 00BF     		.section	.text.chIQReadTimeout,"ax",%progbits
 328              		.align	2
 329              		.p2align 4,,15
 330              		.global	chIQReadTimeout
 331              		.thumb
 332              		.thumb_func
 333              		.type	chIQReadTimeout, %function
 334              	chIQReadTimeout:
 335              	.LFB230:
 336              		.loc 1 217 0
 337              		.cfi_startproc
ARM GAS  /tmp/ccXNyZoG.s 			page 7


 338              		@ args = 0, pretend = 0, frame = 0
 339              		@ frame_needed = 0, uses_anonymous_args = 0
 340              	.LVL21:
 341 0000 2DE9F84F 		push	{r3, r4, r5, r6, r7, r8, r9, r10, fp, lr}
 342              		.cfi_def_cfa_offset 40
 343              		.cfi_offset 3, -40
 344              		.cfi_offset 4, -36
 345              		.cfi_offset 5, -32
 346              		.cfi_offset 6, -28
 347              		.cfi_offset 7, -24
 348              		.cfi_offset 8, -20
 349              		.cfi_offset 9, -16
 350              		.cfi_offset 10, -12
 351              		.cfi_offset 11, -8
 352              		.cfi_offset 14, -4
 353              		.loc 1 217 0
 354 0004 0446     		mov	r4, r0
 355 0006 1D46     		mov	r5, r3
 356              		.loc 1 218 0
 357 0008 D0F81C80 		ldr	r8, [r0, #28]
 358              	.LVL22:
 359              	.LBB138:
 360              	.LBB139:
 361              	.LBB140:
 362              	.LBB141:
 363              		.loc 4 546 0
 364 000c 4FF0200B 		mov	fp, #32
 365              	@ 546 "../ChibiOS/os/ext/CMSIS/include/core_cmFunc.h" 1
 366 0010 8BF31188 		MSR basepri, fp
 367              	@ 0 "" 2
 368              		.thumb
 369              	.LBE141:
 370              	.LBE140:
 371              	.LBE139:
 372              	.LBE138:
 373              		.loc 1 219 0
 374 0014 0026     		movs	r6, #0
 375 0016 01EB020A 		add	r10, r1, r2
 376 001a 01F10109 		add	r9, r1, #1
 377              	.LVL23:
 378              	.L31:
 379              		.loc 1 225 0
 380 001e B8F1000F 		cmp	r8, #0
 381 0022 05D0     		beq	.L27
 382              		.loc 1 226 0
 383 0024 2046     		mov	r0, r4
 384              	.LVL24:
 385 0026 C047     		blx	r8
 386              	.LVL25:
 387 0028 02E0     		b	.L27
 388              	.LVL26:
 389              	.L29:
 390              		.loc 1 229 0
 391 002a FFF7FEFF 		bl	chThdEnqueueTimeoutS
 392              	.LVL27:
 393 002e F0B9     		cbnz	r0, .L35
 394              	.LVL28:
ARM GAS  /tmp/ccXNyZoG.s 			page 8


 395              	.L27:
 396              		.loc 1 216 0 discriminator 1
 397 0030 A768     		ldr	r7, [r4, #8]
 398              	.LVL29:
 399              		.loc 1 229 0 discriminator 1
 400 0032 2046     		mov	r0, r4
 401 0034 2946     		mov	r1, r5
 402              		.loc 1 228 0 discriminator 1
 403 0036 002F     		cmp	r7, #0
 404 0038 F7D0     		beq	.L29
 405              	.LVL30:
 406              		.loc 1 236 0
 407 003a A269     		ldr	r2, [r4, #24]
 408              		.loc 1 235 0
 409 003c 7B1E     		subs	r3, r7, #1
 410              		.loc 1 236 0
 411 003e 511C     		adds	r1, r2, #1
 412              	.LVL31:
 413 0040 A161     		str	r1, [r4, #24]
 414              		.loc 1 235 0
 415 0042 A360     		str	r3, [r4, #8]
 416              	.LVL32:
 417              		.loc 1 236 0
 418 0044 1378     		ldrb	r3, [r2]	@ zero_extendqisi2
 419 0046 09F8013C 		strb	r3, [r9, #-1]
 420              		.loc 1 237 0
 421 004a 2369     		ldr	r3, [r4, #16]
 422 004c A269     		ldr	r2, [r4, #24]
 423 004e 9A42     		cmp	r2, r3
 424              		.loc 1 238 0
 425 0050 24BF     		itt	cs
 426 0052 E368     		ldrcs	r3, [r4, #12]
 427 0054 A361     		strcs	r3, [r4, #24]
 428              	.LVL33:
 429              	.LBB142:
 430              	.LBB143:
 431              	.LBB144:
 432              	.LBB145:
 433              	.LBB146:
 434              		.loc 4 546 0
 435 0056 0023     		movs	r3, #0
 436              	@ 546 "../ChibiOS/os/ext/CMSIS/include/core_cmFunc.h" 1
 437 0058 83F31188 		MSR basepri, r3
 438              	@ 0 "" 2
 439              		.thumb
 440              	.LBE146:
 441              	.LBE145:
 442              	.LBE144:
 443              	.LBE143:
 444              	.LBE142:
 445              		.loc 1 242 0
 446 005c D145     		cmp	r9, r10
 447              		.loc 1 241 0
 448 005e 06F10106 		add	r6, r6, #1
 449              	.LVL34:
 450              		.loc 1 242 0
 451 0062 06D0     		beq	.L28
ARM GAS  /tmp/ccXNyZoG.s 			page 9


 452              	.LVL35:
 453              	.LBB147:
 454              	.LBB148:
 455              	.LBB149:
 456              	.LBB150:
 457              		.loc 4 546 0
 458              	@ 546 "../ChibiOS/os/ext/CMSIS/include/core_cmFunc.h" 1
 459 0064 8BF31188 		MSR basepri, fp
 460              	@ 0 "" 2
 461              		.thumb
 462 0068 09F10109 		add	r9, r9, #1
 463 006c D7E7     		b	.L31
 464              	.LVL36:
 465              	.L35:
 466              	.LBE150:
 467              	.LBE149:
 468              	.LBE148:
 469              	.LBE147:
 470              	.LBB151:
 471              	.LBB152:
 472              	.LBB153:
 473              	.LBB154:
 474              	.LBB155:
 475              	@ 546 "../ChibiOS/os/ext/CMSIS/include/core_cmFunc.h" 1
 476 006e 87F31188 		MSR basepri, r7
 477              	@ 0 "" 2
 478              	.LVL37:
 479              		.thumb
 480              	.L28:
 481              	.LBE155:
 482              	.LBE154:
 483              	.LBE153:
 484              	.LBE152:
 485              	.LBE151:
 486              		.loc 1 247 0
 487 0072 3046     		mov	r0, r6
 488 0074 BDE8F88F 		pop	{r3, r4, r5, r6, r7, r8, r9, r10, fp, pc}
 489              		.cfi_endproc
 490              	.LFE230:
 491              		.size	chIQReadTimeout, .-chIQReadTimeout
 492 0078 AFF30080 		.section	.text.chOQObjectInit,"ax",%progbits
 492      AFF30080 
 493              		.align	2
 494              		.p2align 4,,15
 495              		.global	chOQObjectInit
 496              		.thumb
 497              		.thumb_func
 498              		.type	chOQObjectInit, %function
 499              	chOQObjectInit:
 500              	.LFB231:
 501              		.loc 1 266 0
 502              		.cfi_startproc
 503              		@ args = 4, pretend = 0, frame = 0
 504              		@ frame_needed = 0, uses_anonymous_args = 0
 505              		@ link register save eliminated.
 506              	.LVL38:
 507 0000 30B4     		push	{r4, r5}
ARM GAS  /tmp/ccXNyZoG.s 			page 10


 508              		.cfi_def_cfa_offset 8
 509              		.cfi_offset 4, -8
 510              		.cfi_offset 5, -4
 511              		.loc 1 266 0
 512 0002 029C     		ldr	r4, [sp, #8]
 513              		.loc 1 273 0
 514 0004 0462     		str	r4, [r0, #32]
 515              		.loc 1 271 0
 516 0006 8D18     		adds	r5, r1, r2
 517 0008 0561     		str	r5, [r0, #16]
 518              	.LBB156:
 519              	.LBB157:
 520              	.LBB158:
 521              		.loc 2 574 0
 522 000a 4060     		str	r0, [r0, #4]
 523 000c 0060     		str	r0, [r0]
 524              	.LBE158:
 525              	.LBE157:
 526              	.LBE156:
 527              		.loc 1 269 0
 528 000e 8260     		str	r2, [r0, #8]
 529              		.loc 1 270 0
 530 0010 4161     		str	r1, [r0, #20]
 531 0012 8161     		str	r1, [r0, #24]
 532 0014 C160     		str	r1, [r0, #12]
 533              		.loc 1 272 0
 534 0016 C361     		str	r3, [r0, #28]
 535              		.loc 1 274 0
 536 0018 30BC     		pop	{r4, r5}
 537              	.LVL39:
 538 001a 7047     		bx	lr
 539              		.cfi_endproc
 540              	.LFE231:
 541              		.size	chOQObjectInit, .-chOQObjectInit
 542 001c AFF30080 		.section	.text.chOQResetI,"ax",%progbits
 543              		.align	2
 544              		.p2align 4,,15
 545              		.global	chOQResetI
 546              		.thumb
 547              		.thumb_func
 548              		.type	chOQResetI, %function
 549              	chOQResetI:
 550              	.LFB232:
 551              		.loc 1 287 0
 552              		.cfi_startproc
 553              		@ args = 0, pretend = 0, frame = 0
 554              		@ frame_needed = 0, uses_anonymous_args = 0
 555              		@ link register save eliminated.
 556              	.LVL40:
 557              		.loc 1 291 0
 558 0000 C268     		ldr	r2, [r0, #12]
 559 0002 4261     		str	r2, [r0, #20]
 560              		.loc 1 287 0
 561 0004 10B4     		push	{r4}
 562              		.cfi_def_cfa_offset 4
 563              		.cfi_offset 4, -4
 564              		.loc 1 292 0
ARM GAS  /tmp/ccXNyZoG.s 			page 11


 565 0006 0469     		ldr	r4, [r0, #16]
 566              		.loc 1 291 0
 567 0008 8261     		str	r2, [r0, #24]
 568              		.loc 1 292 0
 569 000a A41A     		subs	r4, r4, r2
 570 000c 8460     		str	r4, [r0, #8]
 571              		.loc 1 293 0
 572 000e 6FF00101 		mvn	r1, #1
 573              		.loc 1 294 0
 574 0012 5DF8044B 		ldr	r4, [sp], #4
 575              		.loc 1 293 0
 576 0016 FFF7FEBF 		b	chThdDequeueAllI
 577              	.LVL41:
 578              		.cfi_endproc
 579              	.LFE232:
 580              		.size	chOQResetI, .-chOQResetI
 581 001a 00BFAFF3 		.section	.text.chOQPutTimeout,"ax",%progbits
 581      0080
 582              		.align	2
 583              		.p2align 4,,15
 584              		.global	chOQPutTimeout
 585              		.thumb
 586              		.thumb_func
 587              		.type	chOQPutTimeout, %function
 588              	chOQPutTimeout:
 589              	.LFB233:
 590              		.loc 1 318 0
 591              		.cfi_startproc
 592              		@ args = 0, pretend = 0, frame = 0
 593              		@ frame_needed = 0, uses_anonymous_args = 0
 594              	.LVL42:
 595 0000 F8B5     		push	{r3, r4, r5, r6, r7, lr}
 596              		.cfi_def_cfa_offset 24
 597              		.cfi_offset 3, -24
 598              		.cfi_offset 4, -20
 599              		.cfi_offset 5, -16
 600              		.cfi_offset 6, -12
 601              		.cfi_offset 7, -8
 602              		.cfi_offset 14, -4
 603              		.loc 1 318 0
 604 0002 0446     		mov	r4, r0
 605 0004 0F46     		mov	r7, r1
 606 0006 1646     		mov	r6, r2
 607              	.LBB159:
 608              	.LBB160:
 609              	.LBB161:
 610              	.LBB162:
 611              		.loc 4 546 0
 612 0008 2023     		movs	r3, #32
 613              	@ 546 "../ChibiOS/os/ext/CMSIS/include/core_cmFunc.h" 1
 614 000a 83F31188 		MSR basepri, r3
 615              	@ 0 "" 2
 616              		.thumb
 617 000e 03E0     		b	.L39
 618              	.LVL43:
 619              	.L42:
 620              	.LBE162:
ARM GAS  /tmp/ccXNyZoG.s 			page 12


 621              	.LBE161:
 622              	.LBE160:
 623              	.LBE159:
 624              	.LBB163:
 625              		.loc 1 324 0
 626 0010 FFF7FEFF 		bl	chThdEnqueueTimeoutS
 627              	.LVL44:
 628 0014 0028     		cmp	r0, #0
 629 0016 18DB     		blt	.L48
 630              	.LVL45:
 631              	.L39:
 632              	.LBE163:
 633              		.loc 1 318 0 discriminator 1
 634 0018 A568     		ldr	r5, [r4, #8]
 635              	.LVL46:
 636              	.LBB169:
 637              		.loc 1 324 0 discriminator 1
 638 001a 2046     		mov	r0, r4
 639 001c 3146     		mov	r1, r6
 640              	.LBE169:
 641              		.loc 1 321 0 discriminator 1
 642 001e 002D     		cmp	r5, #0
 643 0020 F6D0     		beq	.L42
 644              	.LVL47:
 645              		.loc 1 331 0
 646 0022 6369     		ldr	r3, [r4, #20]
 647              		.loc 1 330 0
 648 0024 013D     		subs	r5, r5, #1
 649              		.loc 1 331 0
 650 0026 5A1C     		adds	r2, r3, #1
 651 0028 6261     		str	r2, [r4, #20]
 652              		.loc 1 330 0
 653 002a A560     		str	r5, [r4, #8]
 654              		.loc 1 331 0
 655 002c 1F70     		strb	r7, [r3]
 656              		.loc 1 332 0
 657 002e 2369     		ldr	r3, [r4, #16]
 658 0030 6269     		ldr	r2, [r4, #20]
 659 0032 9A42     		cmp	r2, r3
 660              		.loc 1 333 0
 661 0034 24BF     		itt	cs
 662 0036 E368     		ldrcs	r3, [r4, #12]
 663 0038 6361     		strcs	r3, [r4, #20]
 664              		.loc 1 335 0
 665 003a E369     		ldr	r3, [r4, #28]
 666 003c 0BB1     		cbz	r3, .L44
 667              		.loc 1 336 0
 668 003e 2046     		mov	r0, r4
 669              	.LVL48:
 670 0040 9847     		blx	r3
 671              	.LVL49:
 672              	.L44:
 673              	.LBB170:
 674              	.LBB171:
 675              	.LBB172:
 676              	.LBB173:
 677              	.LBB174:
ARM GAS  /tmp/ccXNyZoG.s 			page 13


 678              		.loc 4 546 0
 679 0042 0020     		movs	r0, #0
 680              	@ 546 "../ChibiOS/os/ext/CMSIS/include/core_cmFunc.h" 1
 681 0044 80F31188 		MSR basepri, r0
 682              	@ 0 "" 2
 683              		.thumb
 684              	.LBE174:
 685              	.LBE173:
 686              	.LBE172:
 687              	.LBE171:
 688              	.LBE170:
 689              		.loc 1 340 0
 690 0048 F8BD     		pop	{r3, r4, r5, r6, r7, pc}
 691              	.LVL50:
 692              	.L48:
 693              	.LBB175:
 694              	.LBB164:
 695              	.LBB165:
 696              	.LBB166:
 697              	.LBB167:
 698              	.LBB168:
 699              		.loc 4 546 0
 700              	@ 546 "../ChibiOS/os/ext/CMSIS/include/core_cmFunc.h" 1
 701 004a 85F31188 		MSR basepri, r5
 702              	@ 0 "" 2
 703              		.thumb
 704              	.LBE168:
 705              	.LBE167:
 706              	.LBE166:
 707              	.LBE165:
 708              	.LBE164:
 709              		.loc 1 326 0
 710 004e F8BD     		pop	{r3, r4, r5, r6, r7, pc}
 711              	.LBE175:
 712              		.cfi_endproc
 713              	.LFE233:
 714              		.size	chOQPutTimeout, .-chOQPutTimeout
 715              		.section	.text.chOQGetI,"ax",%progbits
 716              		.align	2
 717              		.p2align 4,,15
 718              		.global	chOQGetI
 719              		.thumb
 720              		.thumb_func
 721              		.type	chOQGetI, %function
 722              	chOQGetI:
 723              	.LFB234:
 724              		.loc 1 352 0
 725              		.cfi_startproc
 726              		@ args = 0, pretend = 0, frame = 0
 727              		@ frame_needed = 0, uses_anonymous_args = 0
 728              	.LVL51:
 729              	.LBB176:
 730              	.LBB177:
 731              		.loc 3 387 0
 732 0000 4269     		ldr	r2, [r0, #20]
 733 0002 8369     		ldr	r3, [r0, #24]
 734 0004 9A42     		cmp	r2, r3
ARM GAS  /tmp/ccXNyZoG.s 			page 14


 735              	.LBE177:
 736              	.LBE176:
 737              		.loc 1 352 0
 738 0006 10B5     		push	{r4, lr}
 739              		.cfi_def_cfa_offset 8
 740              		.cfi_offset 4, -8
 741              		.cfi_offset 14, -4
 742              	.LBB180:
 743              	.LBB178:
 744              		.loc 3 387 0
 745 0008 8268     		ldr	r2, [r0, #8]
 746 000a 0ED0     		beq	.L57
 747              	.L52:
 748              	.LBE178:
 749              	.LBE180:
 750              		.loc 1 362 0
 751 000c 0169     		ldr	r1, [r0, #16]
 752              		.loc 1 360 0
 753 000e 541C     		adds	r4, r2, #1
 754              		.loc 1 361 0
 755 0010 5A1C     		adds	r2, r3, #1
 756              		.loc 1 360 0
 757 0012 8460     		str	r4, [r0, #8]
 758              		.loc 1 361 0
 759 0014 8261     		str	r2, [r0, #24]
 760              		.loc 1 362 0
 761 0016 8A42     		cmp	r2, r1
 762              		.loc 1 361 0
 763 0018 1C78     		ldrb	r4, [r3]	@ zero_extendqisi2
 764              	.LVL52:
 765              		.loc 1 362 0
 766 001a 01D3     		bcc	.L54
 767              		.loc 1 363 0
 768 001c C368     		ldr	r3, [r0, #12]
 769              	.LVL53:
 770 001e 8361     		str	r3, [r0, #24]
 771              	.LVL54:
 772              	.L54:
 773              		.loc 1 365 0
 774 0020 0021     		movs	r1, #0
 775 0022 FFF7FEFF 		bl	chThdDequeueNextI
 776              	.LVL55:
 777              		.loc 1 367 0
 778 0026 2046     		mov	r0, r4
 779 0028 10BD     		pop	{r4, pc}
 780              	.LVL56:
 781              	.L57:
 782              	.LBB181:
 783              	.LBB179:
 784              		.loc 3 387 0
 785 002a 002A     		cmp	r2, #0
 786 002c EED0     		beq	.L52
 787              	.LBE179:
 788              	.LBE181:
 789              		.loc 1 358 0
 790 002e 6FF00200 		mvn	r0, #2
 791              	.LVL57:
ARM GAS  /tmp/ccXNyZoG.s 			page 15


 792 0032 10BD     		pop	{r4, pc}
 793              		.cfi_endproc
 794              	.LFE234:
 795              		.size	chOQGetI, .-chOQGetI
 796 0034 AFF30080 		.section	.text.chOQWriteTimeout,"ax",%progbits
 796      AFF30080 
 796      AFF30080 
 797              		.align	2
 798              		.p2align 4,,15
 799              		.global	chOQWriteTimeout
 800              		.thumb
 801              		.thumb_func
 802              		.type	chOQWriteTimeout, %function
 803              	chOQWriteTimeout:
 804              	.LFB235:
 805              		.loc 1 395 0
 806              		.cfi_startproc
 807              		@ args = 0, pretend = 0, frame = 8
 808              		@ frame_needed = 0, uses_anonymous_args = 0
 809              	.LVL58:
 810 0000 2DE9F04F 		push	{r4, r5, r6, r7, r8, r9, r10, fp, lr}
 811              		.cfi_def_cfa_offset 36
 812              		.cfi_offset 4, -36
 813              		.cfi_offset 5, -32
 814              		.cfi_offset 6, -28
 815              		.cfi_offset 7, -24
 816              		.cfi_offset 8, -20
 817              		.cfi_offset 9, -16
 818              		.cfi_offset 10, -12
 819              		.cfi_offset 11, -8
 820              		.cfi_offset 14, -4
 821 0004 83B0     		sub	sp, sp, #12
 822              		.cfi_def_cfa_offset 48
 823              		.loc 1 395 0
 824 0006 0446     		mov	r4, r0
 825 0008 8B46     		mov	fp, r1
 826 000a 1646     		mov	r6, r2
 827 000c 0193     		str	r3, [sp, #4]
 828              		.loc 1 396 0
 829 000e D0F81C80 		ldr	r8, [r0, #28]
 830              	.LVL59:
 831              	.LBB182:
 832              	.LBB183:
 833              	.LBB184:
 834              	.LBB185:
 835              		.loc 4 546 0
 836 0012 4FF0200A 		mov	r10, #32
 837              	@ 546 "../ChibiOS/os/ext/CMSIS/include/core_cmFunc.h" 1
 838 0016 8AF31188 		MSR basepri, r10
 839              	@ 0 "" 2
 840              		.thumb
 841              	.LBE185:
 842              	.LBE184:
 843              	.LBE183:
 844              	.LBE182:
 845              		.loc 1 397 0
 846 001a 0027     		movs	r7, #0
ARM GAS  /tmp/ccXNyZoG.s 			page 16


 847              	.LBB186:
 848              	.LBB187:
 849              	.LBB188:
 850              	.LBB189:
 851              	.LBB190:
 852              		.loc 4 546 0
 853 001c B946     		mov	r9, r7
 854              	.LVL60:
 855              	.L59:
 856              	.LBE190:
 857              	.LBE189:
 858              	.LBE188:
 859              	.LBE187:
 860              	.LBE186:
 861              		.loc 1 394 0 discriminator 1
 862 001e A568     		ldr	r5, [r4, #8]
 863              		.loc 1 410 0 discriminator 1
 864 0020 0BF1010A 		add	r10, fp, #1
 865              	.LVL61:
 866              		.loc 1 415 0 discriminator 1
 867 0024 2046     		mov	r0, r4
 868              		.loc 1 409 0 discriminator 1
 869 0026 6A1E     		subs	r2, r5, #1
 870              		.loc 1 403 0 discriminator 1
 871 0028 DDB1     		cbz	r5, .L62
 872              	.LVL62:
 873              		.loc 1 410 0
 874 002a 6369     		ldr	r3, [r4, #20]
 875              		.loc 1 409 0
 876 002c A260     		str	r2, [r4, #8]
 877              		.loc 1 410 0
 878 002e 5A1C     		adds	r2, r3, #1
 879 0030 6261     		str	r2, [r4, #20]
 880 0032 9BF80020 		ldrb	r2, [fp]	@ zero_extendqisi2
 881 0036 1A70     		strb	r2, [r3]
 882              		.loc 1 411 0
 883 0038 2369     		ldr	r3, [r4, #16]
 884 003a 6269     		ldr	r2, [r4, #20]
 885 003c 9A42     		cmp	r2, r3
 886              		.loc 1 412 0
 887 003e 24BF     		itt	cs
 888 0040 E368     		ldrcs	r3, [r4, #12]
 889 0042 6361     		strcs	r3, [r4, #20]
 890              		.loc 1 414 0
 891 0044 B8F1000F 		cmp	r8, #0
 892 0048 00D0     		beq	.L64
 893              		.loc 1 415 0
 894 004a C047     		blx	r8
 895              	.LVL63:
 896              	.L64:
 897              	.LBB195:
 898              	.LBB194:
 899              	.LBB193:
 900              	.LBB192:
 901              	.LBB191:
 902              		.loc 4 546 0
 903              	@ 546 "../ChibiOS/os/ext/CMSIS/include/core_cmFunc.h" 1
ARM GAS  /tmp/ccXNyZoG.s 			page 17


 904 004c 89F31188 		MSR basepri, r9
 905              	@ 0 "" 2
 906              	.LVL64:
 907              		.thumb
 908              	.LBE191:
 909              	.LBE192:
 910              	.LBE193:
 911              	.LBE194:
 912              	.LBE195:
 913              		.loc 1 419 0
 914 0050 013E     		subs	r6, r6, #1
 915              	.LVL65:
 916              		.loc 1 418 0
 917 0052 07F10107 		add	r7, r7, #1
 918              	.LVL66:
 919              		.loc 1 419 0
 920 0056 0CD0     		beq	.L61
 921              	.LBB196:
 922              	.LBB197:
 923              	.LBB198:
 924              	.LBB199:
 925              		.loc 4 546 0
 926 0058 2023     		movs	r3, #32
 927              	@ 546 "../ChibiOS/os/ext/CMSIS/include/core_cmFunc.h" 1
 928 005a 83F31188 		MSR basepri, r3
 929              	@ 0 "" 2
 930              		.thumb
 931              	.LBE199:
 932              	.LBE198:
 933              	.LBE197:
 934              	.LBE196:
 935              		.loc 1 410 0
 936 005e D346     		mov	fp, r10
 937 0060 DDE7     		b	.L59
 938              	.LVL67:
 939              	.L62:
 940              		.loc 1 404 0
 941 0062 2046     		mov	r0, r4
 942              	.LVL68:
 943 0064 0199     		ldr	r1, [sp, #4]
 944 0066 FFF7FEFF 		bl	chThdEnqueueTimeoutS
 945              	.LVL69:
 946 006a 0028     		cmp	r0, #0
 947 006c D7D0     		beq	.L59
 948              	.LVL70:
 949              	.LBB200:
 950              	.LBB201:
 951              	.LBB202:
 952              	.LBB203:
 953              	.LBB204:
 954              		.loc 4 546 0
 955              	@ 546 "../ChibiOS/os/ext/CMSIS/include/core_cmFunc.h" 1
 956 006e 85F31188 		MSR basepri, r5
 957              	@ 0 "" 2
 958              	.LVL71:
 959              		.thumb
 960              	.L61:
ARM GAS  /tmp/ccXNyZoG.s 			page 18


 961              	.LBE204:
 962              	.LBE203:
 963              	.LBE202:
 964              	.LBE201:
 965              	.LBE200:
 966              		.loc 1 423 0
 967 0072 3846     		mov	r0, r7
 968 0074 03B0     		add	sp, sp, #12
 969              		@ sp needed
 970 0076 BDE8F08F 		pop	{r4, r5, r6, r7, r8, r9, r10, fp, pc}
 971              		.cfi_endproc
 972              	.LFE235:
 973              		.size	chOQWriteTimeout, .-chOQWriteTimeout
 974 007a 00BFAFF3 		.text
 974      0080
 975              	.Letext0:
 976              		.file 5 "/nfs/nfs5/home/research/hardware/arm2/gcc-arm-embedded/gcc-arm-none-eabi-4_8-2014q2/lib/g
 977              		.file 6 "/nfs/nfs5/home/research/hardware/arm2/gcc-arm-embedded/gcc-arm-none-eabi-4_8-2014q2/arm-n
 978              		.file 7 "/nfs/nfs5/home/research/hardware/arm2/gcc-arm-embedded/gcc-arm-none-eabi-4_8-2014q2/arm-n
 979              		.file 8 "../ChibiOS/os/rt/ports/ARMCMx/compilers/GCC/chtypes.h"
 980              		.file 9 "../ChibiOS/os/rt/include/chsystypes.h"
 981              		.file 10 "../ChibiOS/os/rt/ports/ARMCMx/chcore.h"
 982              		.file 11 "../ChibiOS/os/rt/ports/ARMCMx/chcore_v7m.h"
 983              		.file 12 "../ChibiOS/os/rt/include/chtm.h"
 984              		.file 13 "../ChibiOS/os/rt/include/chmtx.h"
 985              		.file 14 "../ChibiOS/os/rt/include/chthreads.h"
 986              		.file 15 "../ChibiOS/os/rt/include/chsys.h"
 987              		.file 16 "../ChibiOS/os/ext/CMSIS/include/core_cm4.h"
 988              		.section	.debug_info,"",%progbits
 989              	.Ldebug_info0:
 990 0000 77100000 		.4byte	0x1077
 991 0004 0400     		.2byte	0x4
 992 0006 00000000 		.4byte	.Ldebug_abbrev0
 993 000a 04       		.byte	0x4
 994 000b 01       		.uleb128 0x1
 995 000c F4040000 		.4byte	.LASF140
 996 0010 01       		.byte	0x1
 997 0011 A6020000 		.4byte	.LASF141
 998 0015 B1010000 		.4byte	.LASF142
 999 0019 B0000000 		.4byte	.Ldebug_ranges0+0xb0
 1000 001d 00000000 		.4byte	0
 1001 0021 00000000 		.4byte	.Ldebug_line0
 1002 0025 02       		.uleb128 0x2
 1003 0026 04       		.byte	0x4
 1004 0027 05       		.byte	0x5
 1005 0028 696E7400 		.ascii	"int\000"
 1006 002c 03       		.uleb128 0x3
 1007 002d 21000000 		.4byte	.LASF2
 1008 0031 05       		.byte	0x5
 1009 0032 D4       		.byte	0xd4
 1010 0033 37000000 		.4byte	0x37
 1011 0037 04       		.uleb128 0x4
 1012 0038 04       		.byte	0x4
 1013 0039 07       		.byte	0x7
 1014 003a 44020000 		.4byte	.LASF0
 1015 003e 04       		.uleb128 0x4
 1016 003f 01       		.byte	0x1
ARM GAS  /tmp/ccXNyZoG.s 			page 19


 1017 0040 06       		.byte	0x6
 1018 0041 2B010000 		.4byte	.LASF1
 1019 0045 03       		.uleb128 0x3
 1020 0046 49000000 		.4byte	.LASF3
 1021 004a 06       		.byte	0x6
 1022 004b 1C       		.byte	0x1c
 1023 004c 50000000 		.4byte	0x50
 1024 0050 04       		.uleb128 0x4
 1025 0051 01       		.byte	0x1
 1026 0052 08       		.byte	0x8
 1027 0053 05040000 		.4byte	.LASF4
 1028 0057 04       		.uleb128 0x4
 1029 0058 02       		.byte	0x2
 1030 0059 05       		.byte	0x5
 1031 005a 33040000 		.4byte	.LASF5
 1032 005e 04       		.uleb128 0x4
 1033 005f 02       		.byte	0x2
 1034 0060 07       		.byte	0x7
 1035 0061 6F020000 		.4byte	.LASF6
 1036 0065 03       		.uleb128 0x3
 1037 0066 E0020000 		.4byte	.LASF7
 1038 006a 06       		.byte	0x6
 1039 006b 37       		.byte	0x37
 1040 006c 70000000 		.4byte	0x70
 1041 0070 04       		.uleb128 0x4
 1042 0071 04       		.byte	0x4
 1043 0072 05       		.byte	0x5
 1044 0073 73010000 		.4byte	.LASF8
 1045 0077 03       		.uleb128 0x3
 1046 0078 F3050000 		.4byte	.LASF9
 1047 007c 06       		.byte	0x6
 1048 007d 38       		.byte	0x38
 1049 007e 82000000 		.4byte	0x82
 1050 0082 04       		.uleb128 0x4
 1051 0083 04       		.byte	0x4
 1052 0084 07       		.byte	0x7
 1053 0085 D4040000 		.4byte	.LASF10
 1054 0089 04       		.uleb128 0x4
 1055 008a 08       		.byte	0x8
 1056 008b 05       		.byte	0x5
 1057 008c 1D010000 		.4byte	.LASF11
 1058 0090 03       		.uleb128 0x3
 1059 0091 91030000 		.4byte	.LASF12
 1060 0095 06       		.byte	0x6
 1061 0096 4E       		.byte	0x4e
 1062 0097 9B000000 		.4byte	0x9b
 1063 009b 04       		.uleb128 0x4
 1064 009c 08       		.byte	0x8
 1065 009d 07       		.byte	0x7
 1066 009e A2000000 		.4byte	.LASF13
 1067 00a2 03       		.uleb128 0x3
 1068 00a3 77060000 		.4byte	.LASF14
 1069 00a7 07       		.byte	0x7
 1070 00a8 2A       		.byte	0x2a
 1071 00a9 45000000 		.4byte	0x45
 1072 00ad 03       		.uleb128 0x3
 1073 00ae FD030000 		.4byte	.LASF15
ARM GAS  /tmp/ccXNyZoG.s 			page 20


 1074 00b2 07       		.byte	0x7
 1075 00b3 41       		.byte	0x41
 1076 00b4 65000000 		.4byte	0x65
 1077 00b8 03       		.uleb128 0x3
 1078 00b9 AA040000 		.4byte	.LASF16
 1079 00bd 07       		.byte	0x7
 1080 00be 42       		.byte	0x42
 1081 00bf 77000000 		.4byte	0x77
 1082 00c3 03       		.uleb128 0x3
 1083 00c4 2F000000 		.4byte	.LASF17
 1084 00c8 07       		.byte	0x7
 1085 00c9 4E       		.byte	0x4e
 1086 00ca 90000000 		.4byte	0x90
 1087 00ce 05       		.uleb128 0x5
 1088 00cf AD000000 		.4byte	0xad
 1089 00d3 03       		.uleb128 0x3
 1090 00d4 30060000 		.4byte	.LASF18
 1091 00d8 08       		.byte	0x8
 1092 00d9 45       		.byte	0x45
 1093 00da B8000000 		.4byte	0xb8
 1094 00de 03       		.uleb128 0x3
 1095 00df 9E020000 		.4byte	.LASF19
 1096 00e3 08       		.byte	0x8
 1097 00e4 48       		.byte	0x48
 1098 00e5 A2000000 		.4byte	0xa2
 1099 00e9 03       		.uleb128 0x3
 1100 00ea 7C010000 		.4byte	.LASF20
 1101 00ee 08       		.byte	0x8
 1102 00ef 49       		.byte	0x49
 1103 00f0 A2000000 		.4byte	0xa2
 1104 00f4 03       		.uleb128 0x3
 1105 00f5 9C030000 		.4byte	.LASF21
 1106 00f9 08       		.byte	0x8
 1107 00fa 4A       		.byte	0x4a
 1108 00fb A2000000 		.4byte	0xa2
 1109 00ff 03       		.uleb128 0x3
 1110 0100 D1030000 		.4byte	.LASF22
 1111 0104 08       		.byte	0x8
 1112 0105 4C       		.byte	0x4c
 1113 0106 B8000000 		.4byte	0xb8
 1114 010a 03       		.uleb128 0x3
 1115 010b 8C020000 		.4byte	.LASF23
 1116 010f 08       		.byte	0x8
 1117 0110 4D       		.byte	0x4d
 1118 0111 AD000000 		.4byte	0xad
 1119 0115 03       		.uleb128 0x3
 1120 0116 D4020000 		.4byte	.LASF24
 1121 011a 08       		.byte	0x8
 1122 011b 4F       		.byte	0x4f
 1123 011c B8000000 		.4byte	0xb8
 1124 0120 03       		.uleb128 0x3
 1125 0121 D5050000 		.4byte	.LASF25
 1126 0125 09       		.byte	0x9
 1127 0126 33       		.byte	0x33
 1128 0127 B8000000 		.4byte	0xb8
 1129 012b 03       		.uleb128 0x3
 1130 012c EB040000 		.4byte	.LASF26
ARM GAS  /tmp/ccXNyZoG.s 			page 21


 1131 0130 09       		.byte	0x9
 1132 0131 3F       		.byte	0x3f
 1133 0132 36010000 		.4byte	0x136
 1134 0136 06       		.uleb128 0x6
 1135 0137 82020000 		.4byte	.LASF45
 1136 013b 44       		.byte	0x44
 1137 013c 02       		.byte	0x2
 1138 013d BE       		.byte	0xbe
 1139 013e 23020000 		.4byte	0x223
 1140 0142 07       		.uleb128 0x7
 1141 0143 4B040000 		.4byte	.LASF27
 1142 0147 02       		.byte	0x2
 1143 0148 BF       		.byte	0xbf
 1144 0149 07050000 		.4byte	0x507
 1145 014d 00       		.byte	0
 1146 014e 07       		.uleb128 0x7
 1147 014f BE030000 		.4byte	.LASF28
 1148 0153 02       		.byte	0x2
 1149 0154 C1       		.byte	0xc1
 1150 0155 07050000 		.4byte	0x507
 1151 0159 04       		.byte	0x4
 1152 015a 07       		.uleb128 0x7
 1153 015b 0C010000 		.4byte	.LASF29
 1154 015f 02       		.byte	0x2
 1155 0160 C3       		.byte	0xc3
 1156 0161 FF000000 		.4byte	0xff
 1157 0165 08       		.byte	0x8
 1158 0166 07       		.uleb128 0x7
 1159 0167 CF060000 		.4byte	.LASF30
 1160 016b 02       		.byte	0x2
 1161 016c C4       		.byte	0xc4
 1162 016d 4D040000 		.4byte	0x44d
 1163 0171 0C       		.byte	0xc
 1164 0172 07       		.uleb128 0x7
 1165 0173 EF010000 		.4byte	.LASF31
 1166 0177 02       		.byte	0x2
 1167 0178 C6       		.byte	0xc6
 1168 0179 07050000 		.4byte	0x507
 1169 017d 10       		.byte	0x10
 1170 017e 07       		.uleb128 0x7
 1171 017f 5B030000 		.4byte	.LASF32
 1172 0183 02       		.byte	0x2
 1173 0184 C7       		.byte	0xc7
 1174 0185 07050000 		.4byte	0x507
 1175 0189 14       		.byte	0x14
 1176 018a 07       		.uleb128 0x7
 1177 018b 86060000 		.4byte	.LASF33
 1178 018f 02       		.byte	0x2
 1179 0190 CE       		.byte	0xce
 1180 0191 45050000 		.4byte	0x545
 1181 0195 18       		.byte	0x18
 1182 0196 07       		.uleb128 0x7
 1183 0197 21040000 		.4byte	.LASF34
 1184 019b 02       		.byte	0x2
 1185 019c D9       		.byte	0xd9
 1186 019d E9000000 		.4byte	0xe9
 1187 01a1 1C       		.byte	0x1c
ARM GAS  /tmp/ccXNyZoG.s 			page 22


 1188 01a2 07       		.uleb128 0x7
 1189 01a3 57040000 		.4byte	.LASF35
 1190 01a7 02       		.byte	0x2
 1191 01a8 DD       		.byte	0xdd
 1192 01a9 DE000000 		.4byte	0xde
 1193 01ad 1D       		.byte	0x1d
 1194 01ae 07       		.uleb128 0x7
 1195 01af 54060000 		.4byte	.LASF36
 1196 01b3 02       		.byte	0x2
 1197 01b4 E2       		.byte	0xe2
 1198 01b5 F4000000 		.4byte	0xf4
 1199 01b9 1E       		.byte	0x1e
 1200 01ba 08       		.uleb128 0x8
 1201 01bb 705F7500 		.ascii	"p_u\000"
 1202 01bf 02       		.byte	0x2
 1203 01c0 1401     		.2byte	0x114
 1204 01c2 0D050000 		.4byte	0x50d
 1205 01c6 20       		.byte	0x20
 1206 01c7 09       		.uleb128 0x9
 1207 01c8 1B030000 		.4byte	.LASF37
 1208 01cc 02       		.byte	0x2
 1209 01cd 1901     		.2byte	0x119
 1210 01cf 23020000 		.4byte	0x223
 1211 01d3 24       		.byte	0x24
 1212 01d4 09       		.uleb128 0x9
 1213 01d5 64020000 		.4byte	.LASF38
 1214 01d9 02       		.byte	0x2
 1215 01da 1F01     		.2byte	0x11f
 1216 01dc 47020000 		.4byte	0x247
 1217 01e0 28       		.byte	0x28
 1218 01e1 09       		.uleb128 0x9
 1219 01e2 BA060000 		.4byte	.LASF39
 1220 01e6 02       		.byte	0x2
 1221 01e7 2301     		.2byte	0x123
 1222 01e9 0A010000 		.4byte	0x10a
 1223 01ed 30       		.byte	0x30
 1224 01ee 09       		.uleb128 0x9
 1225 01ef 93040000 		.4byte	.LASF40
 1226 01f3 02       		.byte	0x2
 1227 01f4 2901     		.2byte	0x129
 1228 01f6 15010000 		.4byte	0x115
 1229 01fa 34       		.byte	0x34
 1230 01fb 09       		.uleb128 0x9
 1231 01fc 29040000 		.4byte	.LASF41
 1232 0200 02       		.byte	0x2
 1233 0201 3001     		.2byte	0x130
 1234 0203 88050000 		.4byte	0x588
 1235 0207 38       		.byte	0x38
 1236 0208 09       		.uleb128 0x9
 1237 0209 DF050000 		.4byte	.LASF42
 1238 020d 02       		.byte	0x2
 1239 020e 3401     		.2byte	0x134
 1240 0210 FF000000 		.4byte	0xff
 1241 0214 3C       		.byte	0x3c
 1242 0215 09       		.uleb128 0x9
 1243 0216 37010000 		.4byte	.LASF43
 1244 021a 02       		.byte	0x2
ARM GAS  /tmp/ccXNyZoG.s 			page 23


 1245 021b 3A01     		.2byte	0x13a
 1246 021d FA020000 		.4byte	0x2fa
 1247 0221 40       		.byte	0x40
 1248 0222 00       		.byte	0
 1249 0223 03       		.uleb128 0x3
 1250 0224 9F060000 		.4byte	.LASF44
 1251 0228 09       		.byte	0x9
 1252 0229 44       		.byte	0x44
 1253 022a 2E020000 		.4byte	0x22e
 1254 022e 06       		.uleb128 0x6
 1255 022f C4040000 		.4byte	.LASF46
 1256 0233 04       		.byte	0x4
 1257 0234 02       		.byte	0x2
 1258 0235 AC       		.byte	0xac
 1259 0236 47020000 		.4byte	0x247
 1260 023a 07       		.uleb128 0x7
 1261 023b 4B040000 		.4byte	.LASF27
 1262 023f 02       		.byte	0x2
 1263 0240 AD       		.byte	0xad
 1264 0241 07050000 		.4byte	0x507
 1265 0245 00       		.byte	0
 1266 0246 00       		.byte	0
 1267 0247 03       		.uleb128 0x3
 1268 0248 72040000 		.4byte	.LASF47
 1269 024c 09       		.byte	0x9
 1270 024d 4B       		.byte	0x4b
 1271 024e 52020000 		.4byte	0x252
 1272 0252 06       		.uleb128 0x6
 1273 0253 FB000000 		.4byte	.LASF48
 1274 0257 08       		.byte	0x8
 1275 0258 02       		.byte	0x2
 1276 0259 B3       		.byte	0xb3
 1277 025a 77020000 		.4byte	0x277
 1278 025e 07       		.uleb128 0x7
 1279 025f 4B040000 		.4byte	.LASF27
 1280 0263 02       		.byte	0x2
 1281 0264 B4       		.byte	0xb4
 1282 0265 07050000 		.4byte	0x507
 1283 0269 00       		.byte	0
 1284 026a 07       		.uleb128 0x7
 1285 026b BE030000 		.4byte	.LASF28
 1286 026f 02       		.byte	0x2
 1287 0270 B5       		.byte	0xb5
 1288 0271 07050000 		.4byte	0x507
 1289 0275 04       		.byte	0x4
 1290 0276 00       		.byte	0
 1291 0277 03       		.uleb128 0x3
 1292 0278 0F000000 		.4byte	.LASF49
 1293 027c 09       		.byte	0x9
 1294 027d 52       		.byte	0x52
 1295 027e 82020000 		.4byte	0x282
 1296 0282 0A       		.uleb128 0xa
 1297 0283 C6020000 		.4byte	.LASF50
 1298 0287 1C       		.byte	0x1c
 1299 0288 02       		.byte	0x2
 1300 0289 7201     		.2byte	0x172
 1301 028b DE020000 		.4byte	0x2de
ARM GAS  /tmp/ccXNyZoG.s 			page 24


 1302 028f 09       		.uleb128 0x9
 1303 0290 B3040000 		.4byte	.LASF51
 1304 0294 02       		.byte	0x2
 1305 0295 7301     		.2byte	0x173
 1306 0297 47020000 		.4byte	0x247
 1307 029b 00       		.byte	0
 1308 029c 09       		.uleb128 0x9
 1309 029d 3D040000 		.4byte	.LASF52
 1310 02a1 02       		.byte	0x2
 1311 02a2 7401     		.2byte	0x174
 1312 02a4 FF000000 		.4byte	0xff
 1313 02a8 08       		.byte	0x8
 1314 02a9 09       		.uleb128 0x9
 1315 02aa 63030000 		.4byte	.LASF53
 1316 02ae 02       		.byte	0x2
 1317 02af 7601     		.2byte	0x176
 1318 02b1 4D040000 		.4byte	0x44d
 1319 02b5 0C       		.byte	0xc
 1320 02b6 09       		.uleb128 0x9
 1321 02b7 F7010000 		.4byte	.LASF54
 1322 02bb 02       		.byte	0x2
 1323 02bc 7901     		.2byte	0x179
 1324 02be 07050000 		.4byte	0x507
 1325 02c2 10       		.byte	0x10
 1326 02c3 09       		.uleb128 0x9
 1327 02c4 89030000 		.4byte	.LASF55
 1328 02c8 02       		.byte	0x2
 1329 02c9 7A01     		.2byte	0x17a
 1330 02cb 07050000 		.4byte	0x507
 1331 02cf 14       		.byte	0x14
 1332 02d0 09       		.uleb128 0x9
 1333 02d1 7F030000 		.4byte	.LASF56
 1334 02d5 02       		.byte	0x2
 1335 02d6 7D01     		.2byte	0x17d
 1336 02d8 07050000 		.4byte	0x507
 1337 02dc 18       		.byte	0x18
 1338 02dd 00       		.byte	0
 1339 02de 03       		.uleb128 0x3
 1340 02df EA050000 		.4byte	.LASF57
 1341 02e3 09       		.byte	0x9
 1342 02e4 57       		.byte	0x57
 1343 02e5 E9020000 		.4byte	0x2e9
 1344 02e9 0B       		.uleb128 0xb
 1345 02ea 04       		.byte	0x4
 1346 02eb EF020000 		.4byte	0x2ef
 1347 02ef 0C       		.uleb128 0xc
 1348 02f0 FA020000 		.4byte	0x2fa
 1349 02f4 0D       		.uleb128 0xd
 1350 02f5 FA020000 		.4byte	0x2fa
 1351 02f9 00       		.byte	0
 1352 02fa 0E       		.uleb128 0xe
 1353 02fb 04       		.byte	0x4
 1354 02fc 03       		.uleb128 0x3
 1355 02fd AE030000 		.4byte	.LASF58
 1356 0301 09       		.byte	0x9
 1357 0302 5C       		.byte	0x5c
 1358 0303 07030000 		.4byte	0x307
ARM GAS  /tmp/ccXNyZoG.s 			page 25


 1359 0307 0A       		.uleb128 0xa
 1360 0308 82040000 		.4byte	.LASF59
 1361 030c 14       		.byte	0x14
 1362 030d 02       		.byte	0x2
 1363 030e 4D01     		.2byte	0x14d
 1364 0310 56030000 		.4byte	0x356
 1365 0314 09       		.uleb128 0x9
 1366 0315 51020000 		.4byte	.LASF60
 1367 0319 02       		.byte	0x2
 1368 031a 4E01     		.2byte	0x14e
 1369 031c 8E050000 		.4byte	0x58e
 1370 0320 00       		.byte	0
 1371 0321 09       		.uleb128 0x9
 1372 0322 08020000 		.4byte	.LASF61
 1373 0326 02       		.byte	0x2
 1374 0327 4F01     		.2byte	0x14f
 1375 0329 8E050000 		.4byte	0x58e
 1376 032d 04       		.byte	0x4
 1377 032e 09       		.uleb128 0x9
 1378 032f BB040000 		.4byte	.LASF62
 1379 0333 02       		.byte	0x2
 1380 0334 5001     		.2byte	0x150
 1381 0336 20010000 		.4byte	0x120
 1382 033a 08       		.byte	0x8
 1383 033b 09       		.uleb128 0x9
 1384 033c D5060000 		.4byte	.LASF63
 1385 0340 02       		.byte	0x2
 1386 0341 5101     		.2byte	0x151
 1387 0343 DE020000 		.4byte	0x2de
 1388 0347 0C       		.byte	0xc
 1389 0348 09       		.uleb128 0x9
 1390 0349 38060000 		.4byte	.LASF64
 1391 034d 02       		.byte	0x2
 1392 034e 5301     		.2byte	0x153
 1393 0350 FA020000 		.4byte	0x2fa
 1394 0354 10       		.byte	0x10
 1395 0355 00       		.byte	0
 1396 0356 03       		.uleb128 0x3
 1397 0357 CD000000 		.4byte	.LASF65
 1398 035b 09       		.byte	0x9
 1399 035c 61       		.byte	0x61
 1400 035d 61030000 		.4byte	0x361
 1401 0361 0A       		.uleb128 0xa
 1402 0362 2E030000 		.4byte	.LASF66
 1403 0366 10       		.byte	0x10
 1404 0367 02       		.byte	0x2
 1405 0368 5D01     		.2byte	0x15d
 1406 036a A3030000 		.4byte	0x3a3
 1407 036e 09       		.uleb128 0x9
 1408 036f 51020000 		.4byte	.LASF60
 1409 0373 02       		.byte	0x2
 1410 0374 5E01     		.2byte	0x15e
 1411 0376 8E050000 		.4byte	0x58e
 1412 037a 00       		.byte	0
 1413 037b 09       		.uleb128 0x9
 1414 037c 08020000 		.4byte	.LASF61
 1415 0380 02       		.byte	0x2
ARM GAS  /tmp/ccXNyZoG.s 			page 26


 1416 0381 6001     		.2byte	0x160
 1417 0383 8E050000 		.4byte	0x58e
 1418 0387 04       		.byte	0x4
 1419 0388 09       		.uleb128 0x9
 1420 0389 BB040000 		.4byte	.LASF62
 1421 038d 02       		.byte	0x2
 1422 038e 6201     		.2byte	0x162
 1423 0390 20010000 		.4byte	0x120
 1424 0394 08       		.byte	0x8
 1425 0395 09       		.uleb128 0x9
 1426 0396 4F030000 		.4byte	.LASF67
 1427 039a 02       		.byte	0x2
 1428 039b 6A01     		.2byte	0x16a
 1429 039d 20010000 		.4byte	0x120
 1430 03a1 0C       		.byte	0xc
 1431 03a2 00       		.byte	0
 1432 03a3 03       		.uleb128 0x3
 1433 03a4 5F000000 		.4byte	.LASF68
 1434 03a8 09       		.byte	0x9
 1435 03a9 66       		.byte	0x66
 1436 03aa AE030000 		.4byte	0x3ae
 1437 03ae 0A       		.uleb128 0xa
 1438 03af E7030000 		.4byte	.LASF69
 1439 03b3 04       		.byte	0x4
 1440 03b4 02       		.byte	0x2
 1441 03b5 8401     		.2byte	0x184
 1442 03b7 C9030000 		.4byte	0x3c9
 1443 03bb 09       		.uleb128 0x9
 1444 03bc 0C060000 		.4byte	.LASF70
 1445 03c0 02       		.byte	0x2
 1446 03c1 8C01     		.2byte	0x18c
 1447 03c3 94050000 		.4byte	0x594
 1448 03c7 00       		.byte	0
 1449 03c8 00       		.byte	0
 1450 03c9 03       		.uleb128 0x3
 1451 03ca 92020000 		.4byte	.LASF71
 1452 03ce 09       		.byte	0x9
 1453 03cf 6B       		.byte	0x6b
 1454 03d0 D4030000 		.4byte	0x3d4
 1455 03d4 0F       		.uleb128 0xf
 1456 03d5 69010000 		.4byte	.LASF72
 1457 03d9 5001     		.2byte	0x150
 1458 03db 02       		.byte	0x2
 1459 03dc A401     		.2byte	0x1a4
 1460 03de 30040000 		.4byte	0x430
 1461 03e2 09       		.uleb128 0x9
 1462 03e3 71060000 		.4byte	.LASF73
 1463 03e7 02       		.byte	0x2
 1464 03e8 A801     		.2byte	0x1a8
 1465 03ea 77020000 		.4byte	0x277
 1466 03ee 00       		.byte	0
 1467 03ef 09       		.uleb128 0x9
 1468 03f0 47010000 		.4byte	.LASF74
 1469 03f4 02       		.byte	0x2
 1470 03f5 AC01     		.2byte	0x1ac
 1471 03f7 56030000 		.4byte	0x356
 1472 03fb 1C       		.byte	0x1c
ARM GAS  /tmp/ccXNyZoG.s 			page 27


 1473 03fc 08       		.uleb128 0x8
 1474 03fd 64626700 		.ascii	"dbg\000"
 1475 0401 02       		.byte	0x2
 1476 0402 B001     		.2byte	0x1b0
 1477 0404 A3030000 		.4byte	0x3a3
 1478 0408 2C       		.byte	0x2c
 1479 0409 09       		.uleb128 0x9
 1480 040a C2000000 		.4byte	.LASF75
 1481 040e 02       		.byte	0x2
 1482 040f B401     		.2byte	0x1b4
 1483 0411 2B010000 		.4byte	0x12b
 1484 0415 30       		.byte	0x30
 1485 0416 08       		.uleb128 0x8
 1486 0417 746D00   		.ascii	"tm\000"
 1487 041a 02       		.byte	0x2
 1488 041b B901     		.2byte	0x1b9
 1489 041d FC040000 		.4byte	0x4fc
 1490 0421 74       		.byte	0x74
 1491 0422 09       		.uleb128 0x9
 1492 0423 35020000 		.4byte	.LASF76
 1493 0427 02       		.byte	0x2
 1494 0428 C501     		.2byte	0x1c5
 1495 042a 99050000 		.4byte	0x599
 1496 042e 78       		.byte	0x78
 1497 042f 00       		.byte	0
 1498 0430 04       		.uleb128 0x4
 1499 0431 04       		.byte	0x4
 1500 0432 07       		.byte	0x7
 1501 0433 25030000 		.4byte	.LASF77
 1502 0437 03       		.uleb128 0x3
 1503 0438 FF010000 		.4byte	.LASF78
 1504 043c 0A       		.byte	0xa
 1505 043d 85       		.byte	0x85
 1506 043e FA020000 		.4byte	0x2fa
 1507 0442 03       		.uleb128 0x3
 1508 0443 EA020000 		.4byte	.LASF79
 1509 0447 0A       		.byte	0xa
 1510 0448 8D       		.byte	0x8d
 1511 0449 C3000000 		.4byte	0xc3
 1512 044d 06       		.uleb128 0x6
 1513 044e 28060000 		.4byte	.LASF80
 1514 0452 04       		.byte	0x4
 1515 0453 0A       		.byte	0xa
 1516 0454 A9       		.byte	0xa9
 1517 0455 66040000 		.4byte	0x466
 1518 0459 10       		.uleb128 0x10
 1519 045a 72313300 		.ascii	"r13\000"
 1520 045e 0A       		.byte	0xa
 1521 045f AA       		.byte	0xaa
 1522 0460 E1040000 		.4byte	0x4e1
 1523 0464 00       		.byte	0
 1524 0465 00       		.byte	0
 1525 0466 06       		.uleb128 0x6
 1526 0467 53000000 		.4byte	.LASF81
 1527 046b 24       		.byte	0x24
 1528 046c 0B       		.byte	0xb
 1529 046d F4       		.byte	0xf4
ARM GAS  /tmp/ccXNyZoG.s 			page 28


 1530 046e E1040000 		.4byte	0x4e1
 1531 0472 08       		.uleb128 0x8
 1532 0473 723400   		.ascii	"r4\000"
 1533 0476 0B       		.byte	0xb
 1534 0477 0701     		.2byte	0x107
 1535 0479 37040000 		.4byte	0x437
 1536 047d 00       		.byte	0
 1537 047e 08       		.uleb128 0x8
 1538 047f 723500   		.ascii	"r5\000"
 1539 0482 0B       		.byte	0xb
 1540 0483 0801     		.2byte	0x108
 1541 0485 37040000 		.4byte	0x437
 1542 0489 04       		.byte	0x4
 1543 048a 08       		.uleb128 0x8
 1544 048b 723600   		.ascii	"r6\000"
 1545 048e 0B       		.byte	0xb
 1546 048f 0901     		.2byte	0x109
 1547 0491 37040000 		.4byte	0x437
 1548 0495 08       		.byte	0x8
 1549 0496 08       		.uleb128 0x8
 1550 0497 723700   		.ascii	"r7\000"
 1551 049a 0B       		.byte	0xb
 1552 049b 0A01     		.2byte	0x10a
 1553 049d 37040000 		.4byte	0x437
 1554 04a1 0C       		.byte	0xc
 1555 04a2 08       		.uleb128 0x8
 1556 04a3 723800   		.ascii	"r8\000"
 1557 04a6 0B       		.byte	0xb
 1558 04a7 0B01     		.2byte	0x10b
 1559 04a9 37040000 		.4byte	0x437
 1560 04ad 10       		.byte	0x10
 1561 04ae 08       		.uleb128 0x8
 1562 04af 723900   		.ascii	"r9\000"
 1563 04b2 0B       		.byte	0xb
 1564 04b3 0C01     		.2byte	0x10c
 1565 04b5 37040000 		.4byte	0x437
 1566 04b9 14       		.byte	0x14
 1567 04ba 08       		.uleb128 0x8
 1568 04bb 72313000 		.ascii	"r10\000"
 1569 04bf 0B       		.byte	0xb
 1570 04c0 0D01     		.2byte	0x10d
 1571 04c2 37040000 		.4byte	0x437
 1572 04c6 18       		.byte	0x18
 1573 04c7 08       		.uleb128 0x8
 1574 04c8 72313100 		.ascii	"r11\000"
 1575 04cc 0B       		.byte	0xb
 1576 04cd 0E01     		.2byte	0x10e
 1577 04cf 37040000 		.4byte	0x437
 1578 04d3 1C       		.byte	0x1c
 1579 04d4 08       		.uleb128 0x8
 1580 04d5 6C7200   		.ascii	"lr\000"
 1581 04d8 0B       		.byte	0xb
 1582 04d9 0F01     		.2byte	0x10f
 1583 04db 37040000 		.4byte	0x437
 1584 04df 20       		.byte	0x20
 1585 04e0 00       		.byte	0
 1586 04e1 0B       		.uleb128 0xb
ARM GAS  /tmp/ccXNyZoG.s 			page 29


 1587 04e2 04       		.byte	0x4
 1588 04e3 66040000 		.4byte	0x466
 1589 04e7 11       		.uleb128 0x11
 1590 04e8 04       		.byte	0x4
 1591 04e9 0C       		.byte	0xc
 1592 04ea 38       		.byte	0x38
 1593 04eb FC040000 		.4byte	0x4fc
 1594 04ef 07       		.uleb128 0x7
 1595 04f0 16060000 		.4byte	.LASF82
 1596 04f4 0C       		.byte	0xc
 1597 04f5 3C       		.byte	0x3c
 1598 04f6 D3000000 		.4byte	0xd3
 1599 04fa 00       		.byte	0
 1600 04fb 00       		.byte	0
 1601 04fc 03       		.uleb128 0x3
 1602 04fd 69030000 		.4byte	.LASF83
 1603 0501 0C       		.byte	0xc
 1604 0502 3D       		.byte	0x3d
 1605 0503 E7040000 		.4byte	0x4e7
 1606 0507 0B       		.uleb128 0xb
 1607 0508 04       		.byte	0x4
 1608 0509 2B010000 		.4byte	0x12b
 1609 050d 12       		.uleb128 0x12
 1610 050e 04       		.byte	0x4
 1611 050f 02       		.byte	0x2
 1612 0510 F6       		.byte	0xf6
 1613 0511 45050000 		.4byte	0x545
 1614 0515 13       		.uleb128 0x13
 1615 0516 28000000 		.4byte	.LASF84
 1616 051a 02       		.byte	0x2
 1617 051b FD       		.byte	0xfd
 1618 051c 0A010000 		.4byte	0x10a
 1619 0520 14       		.uleb128 0x14
 1620 0521 B9000000 		.4byte	.LASF85
 1621 0525 02       		.byte	0x2
 1622 0526 0401     		.2byte	0x104
 1623 0528 0A010000 		.4byte	0x10a
 1624 052c 14       		.uleb128 0x14
 1625 052d 7F060000 		.4byte	.LASF86
 1626 0531 02       		.byte	0x2
 1627 0532 0B01     		.2byte	0x10b
 1628 0534 FA020000 		.4byte	0x2fa
 1629 0538 14       		.uleb128 0x14
 1630 0539 44040000 		.4byte	.LASF87
 1631 053d 02       		.byte	0x2
 1632 053e 1201     		.2byte	0x112
 1633 0540 15010000 		.4byte	0x115
 1634 0544 00       		.byte	0
 1635 0545 0B       		.uleb128 0xb
 1636 0546 04       		.byte	0x4
 1637 0547 4B050000 		.4byte	0x54b
 1638 054b 15       		.uleb128 0x15
 1639 054c 50050000 		.4byte	0x550
 1640 0550 04       		.uleb128 0x4
 1641 0551 01       		.byte	0x1
 1642 0552 08       		.byte	0x8
 1643 0553 E6040000 		.4byte	.LASF88
ARM GAS  /tmp/ccXNyZoG.s 			page 30


 1644 0557 06       		.uleb128 0x6
 1645 0558 E1030000 		.4byte	.LASF89
 1646 055c 10       		.byte	0x10
 1647 055d 0D       		.byte	0xd
 1648 055e 39       		.byte	0x39
 1649 055f 88050000 		.4byte	0x588
 1650 0563 07       		.uleb128 0x7
 1651 0564 3F010000 		.4byte	.LASF90
 1652 0568 0D       		.byte	0xd
 1653 0569 3A       		.byte	0x3a
 1654 056a 47020000 		.4byte	0x247
 1655 056e 00       		.byte	0
 1656 056f 07       		.uleb128 0x7
 1657 0570 C7060000 		.4byte	.LASF91
 1658 0574 0D       		.byte	0xd
 1659 0575 3C       		.byte	0x3c
 1660 0576 07050000 		.4byte	0x507
 1661 057a 08       		.byte	0x8
 1662 057b 07       		.uleb128 0x7
 1663 057c CE050000 		.4byte	.LASF92
 1664 0580 0D       		.byte	0xd
 1665 0581 3E       		.byte	0x3e
 1666 0582 B4050000 		.4byte	0x5b4
 1667 0586 0C       		.byte	0xc
 1668 0587 00       		.byte	0
 1669 0588 0B       		.uleb128 0xb
 1670 0589 04       		.byte	0x4
 1671 058a 57050000 		.4byte	0x557
 1672 058e 0B       		.uleb128 0xb
 1673 058f 04       		.byte	0x4
 1674 0590 FC020000 		.4byte	0x2fc
 1675 0594 05       		.uleb128 0x5
 1676 0595 45050000 		.4byte	0x545
 1677 0599 16       		.uleb128 0x16
 1678 059a 42040000 		.4byte	0x442
 1679 059e A9050000 		.4byte	0x5a9
 1680 05a2 17       		.uleb128 0x17
 1681 05a3 30040000 		.4byte	0x430
 1682 05a7 1A       		.byte	0x1a
 1683 05a8 00       		.byte	0
 1684 05a9 03       		.uleb128 0x3
 1685 05aa 1E020000 		.4byte	.LASF93
 1686 05ae 0D       		.byte	0xd
 1687 05af 34       		.byte	0x34
 1688 05b0 57050000 		.4byte	0x557
 1689 05b4 0B       		.uleb128 0xb
 1690 05b5 04       		.byte	0x4
 1691 05b6 A9050000 		.4byte	0x5a9
 1692 05ba 03       		.uleb128 0x3
 1693 05bb F0000000 		.4byte	.LASF94
 1694 05bf 03       		.byte	0x3
 1695 05c0 3F       		.byte	0x3f
 1696 05c1 C5050000 		.4byte	0x5c5
 1697 05c5 06       		.uleb128 0x6
 1698 05c6 2C020000 		.4byte	.LASF95
 1699 05ca 24       		.byte	0x24
 1700 05cb 03       		.byte	0x3
ARM GAS  /tmp/ccXNyZoG.s 			page 31


 1701 05cc 4D       		.byte	0x4d
 1702 05cd 32060000 		.4byte	0x632
 1703 05d1 07       		.uleb128 0x7
 1704 05d2 13010000 		.4byte	.LASF96
 1705 05d6 03       		.byte	0x3
 1706 05d7 4E       		.byte	0x4e
 1707 05d8 47020000 		.4byte	0x247
 1708 05dc 00       		.byte	0
 1709 05dd 07       		.uleb128 0x7
 1710 05de 45030000 		.4byte	.LASF97
 1711 05e2 03       		.byte	0x3
 1712 05e3 4F       		.byte	0x4f
 1713 05e4 2C000000 		.4byte	0x2c
 1714 05e8 08       		.byte	0x8
 1715 05e9 07       		.uleb128 0x7
 1716 05ea 8E010000 		.4byte	.LASF98
 1717 05ee 03       		.byte	0x3
 1718 05ef 50       		.byte	0x50
 1719 05f0 54060000 		.4byte	0x654
 1720 05f4 0C       		.byte	0xc
 1721 05f5 07       		.uleb128 0x7
 1722 05f6 4E060000 		.4byte	.LASF99
 1723 05fa 03       		.byte	0x3
 1724 05fb 51       		.byte	0x51
 1725 05fc 54060000 		.4byte	0x654
 1726 0600 10       		.byte	0x10
 1727 0601 07       		.uleb128 0x7
 1728 0602 97010000 		.4byte	.LASF100
 1729 0606 03       		.byte	0x3
 1730 0607 53       		.byte	0x53
 1731 0608 54060000 		.4byte	0x654
 1732 060c 14       		.byte	0x14
 1733 060d 07       		.uleb128 0x7
 1734 060e D9030000 		.4byte	.LASF101
 1735 0612 03       		.byte	0x3
 1736 0613 54       		.byte	0x54
 1737 0614 54060000 		.4byte	0x654
 1738 0618 18       		.byte	0x18
 1739 0619 07       		.uleb128 0x7
 1740 061a 68060000 		.4byte	.LASF102
 1741 061e 03       		.byte	0x3
 1742 061f 55       		.byte	0x55
 1743 0620 32060000 		.4byte	0x632
 1744 0624 1C       		.byte	0x1c
 1745 0625 07       		.uleb128 0x7
 1746 0626 C0060000 		.4byte	.LASF103
 1747 062a 03       		.byte	0x3
 1748 062b 56       		.byte	0x56
 1749 062c FA020000 		.4byte	0x2fa
 1750 0630 20       		.byte	0x20
 1751 0631 00       		.byte	0
 1752 0632 03       		.uleb128 0x3
 1753 0633 A4030000 		.4byte	.LASF104
 1754 0637 03       		.byte	0x3
 1755 0638 42       		.byte	0x42
 1756 0639 3D060000 		.4byte	0x63d
 1757 063d 0B       		.uleb128 0xb
ARM GAS  /tmp/ccXNyZoG.s 			page 32


 1758 063e 04       		.byte	0x4
 1759 063f 43060000 		.4byte	0x643
 1760 0643 0C       		.uleb128 0xc
 1761 0644 4E060000 		.4byte	0x64e
 1762 0648 0D       		.uleb128 0xd
 1763 0649 4E060000 		.4byte	0x64e
 1764 064d 00       		.byte	0
 1765 064e 0B       		.uleb128 0xb
 1766 064f 04       		.byte	0x4
 1767 0650 BA050000 		.4byte	0x5ba
 1768 0654 0B       		.uleb128 0xb
 1769 0655 04       		.byte	0x4
 1770 0656 A2000000 		.4byte	0xa2
 1771 065a 03       		.uleb128 0x3
 1772 065b 13040000 		.4byte	.LASF105
 1773 065f 03       		.byte	0x3
 1774 0660 64       		.byte	0x64
 1775 0661 BA050000 		.4byte	0x5ba
 1776 0665 03       		.uleb128 0x3
 1777 0666 5A010000 		.4byte	.LASF106
 1778 066a 03       		.byte	0x3
 1779 066b 71       		.byte	0x71
 1780 066c BA050000 		.4byte	0x5ba
 1781 0670 0B       		.uleb128 0xb
 1782 0671 04       		.byte	0x4
 1783 0672 76060000 		.4byte	0x676
 1784 0676 15       		.uleb128 0x15
 1785 0677 A2000000 		.4byte	0xa2
 1786 067b 18       		.uleb128 0x18
 1787 067c FE050000 		.4byte	.LASF109
 1788 0680 04       		.byte	0x4
 1789 0681 2002     		.2byte	0x220
 1790 0683 03       		.byte	0x3
 1791 0684 95060000 		.4byte	0x695
 1792 0688 19       		.uleb128 0x19
 1793 0689 26020000 		.4byte	.LASF111
 1794 068d 04       		.byte	0x4
 1795 068e 2002     		.2byte	0x220
 1796 0690 B8000000 		.4byte	0xb8
 1797 0694 00       		.byte	0
 1798 0695 1A       		.uleb128 0x1a
 1799 0696 89000000 		.4byte	.LASF107
 1800 069a 0B       		.byte	0xb
 1801 069b BB01     		.2byte	0x1bb
 1802 069d 03       		.byte	0x3
 1803 069e 1A       		.uleb128 0x1a
 1804 069f 4E010000 		.4byte	.LASF108
 1805 06a3 0B       		.byte	0xb
 1806 06a4 C901     		.2byte	0x1c9
 1807 06a6 03       		.byte	0x3
 1808 06a7 18       		.uleb128 0x18
 1809 06a8 7E000000 		.4byte	.LASF110
 1810 06ac 02       		.byte	0x2
 1811 06ad 3C02     		.2byte	0x23c
 1812 06af 03       		.byte	0x3
 1813 06b0 C1060000 		.4byte	0x6c1
 1814 06b4 1B       		.uleb128 0x1b
ARM GAS  /tmp/ccXNyZoG.s 			page 33


 1815 06b5 74717000 		.ascii	"tqp\000"
 1816 06b9 02       		.byte	0x2
 1817 06ba 3C02     		.2byte	0x23c
 1818 06bc C1060000 		.4byte	0x6c1
 1819 06c0 00       		.byte	0
 1820 06c1 0B       		.uleb128 0xb
 1821 06c2 04       		.byte	0x4
 1822 06c3 47020000 		.4byte	0x247
 1823 06c7 1C       		.uleb128 0x1c
 1824 06c8 5B060000 		.4byte	.LASF113
 1825 06cc 03       		.byte	0x3
 1826 06cd 2C01     		.2byte	0x12c
 1827 06cf E5060000 		.4byte	0x6e5
 1828 06d3 03       		.byte	0x3
 1829 06d4 E5060000 		.4byte	0x6e5
 1830 06d8 1B       		.uleb128 0x1b
 1831 06d9 69717000 		.ascii	"iqp\000"
 1832 06dd 03       		.byte	0x3
 1833 06de 2C01     		.2byte	0x12c
 1834 06e0 EC060000 		.4byte	0x6ec
 1835 06e4 00       		.byte	0
 1836 06e5 04       		.uleb128 0x4
 1837 06e6 01       		.byte	0x1
 1838 06e7 02       		.byte	0x2
 1839 06e8 F7030000 		.4byte	.LASF112
 1840 06ec 0B       		.uleb128 0xb
 1841 06ed 04       		.byte	0x4
 1842 06ee 5A060000 		.4byte	0x65a
 1843 06f2 1C       		.uleb128 0x1c
 1844 06f3 C5030000 		.4byte	.LASF114
 1845 06f7 03       		.byte	0x3
 1846 06f8 9001     		.2byte	0x190
 1847 06fa E5060000 		.4byte	0x6e5
 1848 06fe 03       		.byte	0x3
 1849 06ff 10070000 		.4byte	0x710
 1850 0703 1B       		.uleb128 0x1b
 1851 0704 6F717000 		.ascii	"oqp\000"
 1852 0708 03       		.byte	0x3
 1853 0709 9001     		.2byte	0x190
 1854 070b 10070000 		.4byte	0x710
 1855 070f 00       		.byte	0
 1856 0710 0B       		.uleb128 0xb
 1857 0711 04       		.byte	0x4
 1858 0712 65060000 		.4byte	0x665
 1859 0716 18       		.uleb128 0x18
 1860 0717 06030000 		.4byte	.LASF115
 1861 071b 0E       		.byte	0xe
 1862 071c 1901     		.2byte	0x119
 1863 071e 03       		.byte	0x3
 1864 071f 30070000 		.4byte	0x730
 1865 0723 1B       		.uleb128 0x1b
 1866 0724 74717000 		.ascii	"tqp\000"
 1867 0728 0E       		.byte	0xe
 1868 0729 1901     		.2byte	0x119
 1869 072b C1060000 		.4byte	0x6c1
 1870 072f 00       		.byte	0
 1871 0730 1C       		.uleb128 0x1c
ARM GAS  /tmp/ccXNyZoG.s 			page 34


 1872 0731 9E040000 		.4byte	.LASF116
 1873 0735 03       		.byte	0x3
 1874 0736 3D01     		.2byte	0x13d
 1875 0738 E5060000 		.4byte	0x6e5
 1876 073c 03       		.byte	0x3
 1877 073d 4E070000 		.4byte	0x74e
 1878 0741 1B       		.uleb128 0x1b
 1879 0742 69717000 		.ascii	"iqp\000"
 1880 0746 03       		.byte	0x3
 1881 0747 3D01     		.2byte	0x13d
 1882 0749 EC060000 		.4byte	0x6ec
 1883 074d 00       		.byte	0
 1884 074e 1A       		.uleb128 0x1a
 1885 074f 68040000 		.4byte	.LASF117
 1886 0753 0F       		.byte	0xf
 1887 0754 2901     		.2byte	0x129
 1888 0756 03       		.byte	0x3
 1889 0757 18       		.uleb128 0x18
 1890 0758 AE060000 		.4byte	.LASF118
 1891 075c 0F       		.byte	0xf
 1892 075d 3501     		.2byte	0x135
 1893 075f 03       		.byte	0x3
 1894 0760 72070000 		.4byte	0x772
 1895 0764 1D       		.uleb128 0x1d
 1896 0765 5F040000 		.4byte	.LASF135
 1897 0769 82070000 		.4byte	0x782
 1898 076d AE060000 		.4byte	.LASF118
 1899 0771 00       		.byte	0
 1900 0772 16       		.uleb128 0x16
 1901 0773 50050000 		.4byte	0x550
 1902 0777 82070000 		.4byte	0x782
 1903 077b 17       		.uleb128 0x17
 1904 077c 30040000 		.4byte	0x430
 1905 0780 0B       		.byte	0xb
 1906 0781 00       		.byte	0
 1907 0782 15       		.uleb128 0x15
 1908 0783 72070000 		.4byte	0x772
 1909 0787 1C       		.uleb128 0x1c
 1910 0788 92060000 		.4byte	.LASF119
 1911 078c 03       		.byte	0x3
 1912 078d 7F01     		.2byte	0x17f
 1913 078f E5060000 		.4byte	0x6e5
 1914 0793 03       		.byte	0x3
 1915 0794 A5070000 		.4byte	0x7a5
 1916 0798 1B       		.uleb128 0x1b
 1917 0799 6F717000 		.ascii	"oqp\000"
 1918 079d 03       		.byte	0x3
 1919 079e 7F01     		.2byte	0x17f
 1920 07a0 10070000 		.4byte	0x710
 1921 07a4 00       		.byte	0
 1922 07a5 1E       		.uleb128 0x1e
 1923 07a6 93000000 		.4byte	.LASF123
 1924 07aa 01       		.byte	0x1
 1925 07ab 57       		.byte	0x57
 1926 07ac 00000000 		.4byte	.LFB226
 1927 07b0 1E000000 		.4byte	.LFE226-.LFB226
 1928 07b4 01       		.uleb128 0x1
ARM GAS  /tmp/ccXNyZoG.s 			page 35


 1929 07b5 9C       		.byte	0x9c
 1930 07b6 2E080000 		.4byte	0x82e
 1931 07ba 1F       		.uleb128 0x1f
 1932 07bb 69717000 		.ascii	"iqp\000"
 1933 07bf 01       		.byte	0x1
 1934 07c0 57       		.byte	0x57
 1935 07c1 EC060000 		.4byte	0x6ec
 1936 07c5 01       		.uleb128 0x1
 1937 07c6 50       		.byte	0x50
 1938 07c7 1F       		.uleb128 0x1f
 1939 07c8 627000   		.ascii	"bp\000"
 1940 07cb 01       		.byte	0x1
 1941 07cc 57       		.byte	0x57
 1942 07cd 54060000 		.4byte	0x654
 1943 07d1 01       		.uleb128 0x1
 1944 07d2 51       		.byte	0x51
 1945 07d3 20       		.uleb128 0x20
 1946 07d4 8D060000 		.4byte	.LASF120
 1947 07d8 01       		.byte	0x1
 1948 07d9 57       		.byte	0x57
 1949 07da 2C000000 		.4byte	0x2c
 1950 07de 00000000 		.4byte	.LLST0
 1951 07e2 21       		.uleb128 0x21
 1952 07e3 52040000 		.4byte	.LASF121
 1953 07e7 01       		.byte	0x1
 1954 07e8 58       		.byte	0x58
 1955 07e9 32060000 		.4byte	0x632
 1956 07ed 01       		.uleb128 0x1
 1957 07ee 53       		.byte	0x53
 1958 07ef 20       		.uleb128 0x20
 1959 07f0 10020000 		.4byte	.LASF122
 1960 07f4 01       		.byte	0x1
 1961 07f5 58       		.byte	0x58
 1962 07f6 FA020000 		.4byte	0x2fa
 1963 07fa 21000000 		.4byte	.LLST1
 1964 07fe 22       		.uleb128 0x22
 1965 07ff 16070000 		.4byte	0x716
 1966 0803 0E000000 		.4byte	.LBB108
 1967 0807 04000000 		.4byte	.LBE108-.LBB108
 1968 080b 01       		.byte	0x1
 1969 080c 5A       		.byte	0x5a
 1970 080d 23       		.uleb128 0x23
 1971 080e 23070000 		.4byte	0x723
 1972 0812 01       		.uleb128 0x1
 1973 0813 50       		.byte	0x50
 1974 0814 24       		.uleb128 0x24
 1975 0815 A7060000 		.4byte	0x6a7
 1976 0819 0E000000 		.4byte	.LBB109
 1977 081d 04000000 		.4byte	.LBE109-.LBB109
 1978 0821 0E       		.byte	0xe
 1979 0822 1B01     		.2byte	0x11b
 1980 0824 23       		.uleb128 0x23
 1981 0825 B4060000 		.4byte	0x6b4
 1982 0829 01       		.uleb128 0x1
 1983 082a 50       		.byte	0x50
 1984 082b 00       		.byte	0
 1985 082c 00       		.byte	0
ARM GAS  /tmp/ccXNyZoG.s 			page 36


 1986 082d 00       		.byte	0
 1987 082e 1E       		.uleb128 0x1e
 1988 082f 59020000 		.4byte	.LASF124
 1989 0833 01       		.byte	0x1
 1990 0834 6D       		.byte	0x6d
 1991 0835 00000000 		.4byte	.LFB227
 1992 0839 12000000 		.4byte	.LFE227-.LFB227
 1993 083d 01       		.uleb128 0x1
 1994 083e 9C       		.byte	0x9c
 1995 083f 6A080000 		.4byte	0x86a
 1996 0843 25       		.uleb128 0x25
 1997 0844 69717000 		.ascii	"iqp\000"
 1998 0848 01       		.byte	0x1
 1999 0849 6D       		.byte	0x6d
 2000 084a EC060000 		.4byte	0x6ec
 2001 084e 41000000 		.4byte	.LLST2
 2002 0852 26       		.uleb128 0x26
 2003 0853 12000000 		.4byte	.LVL4
 2004 0857 38100000 		.4byte	0x1038
 2005 085b 27       		.uleb128 0x27
 2006 085c 01       		.uleb128 0x1
 2007 085d 51       		.byte	0x51
 2008 085e 02       		.uleb128 0x2
 2009 085f 09       		.byte	0x9
 2010 0860 FE       		.byte	0xfe
 2011 0861 27       		.uleb128 0x27
 2012 0862 01       		.uleb128 0x1
 2013 0863 50       		.byte	0x50
 2014 0864 03       		.uleb128 0x3
 2015 0865 F3       		.byte	0xf3
 2016 0866 01       		.uleb128 0x1
 2017 0867 50       		.byte	0x50
 2018 0868 00       		.byte	0
 2019 0869 00       		.byte	0
 2020 086a 28       		.uleb128 0x28
 2021 086b 15020000 		.4byte	.LASF125
 2022 086f 01       		.byte	0x1
 2023 0870 83       		.byte	0x83
 2024 0871 0A010000 		.4byte	0x10a
 2025 0875 00000000 		.4byte	.LFB228
 2026 0879 36000000 		.4byte	.LFE228-.LFB228
 2027 087d 01       		.uleb128 0x1
 2028 087e 9C       		.byte	0x9c
 2029 087f CC080000 		.4byte	0x8cc
 2030 0883 25       		.uleb128 0x25
 2031 0884 69717000 		.ascii	"iqp\000"
 2032 0888 01       		.byte	0x1
 2033 0889 83       		.byte	0x83
 2034 088a EC060000 		.4byte	0x6ec
 2035 088e 62000000 		.4byte	.LLST3
 2036 0892 25       		.uleb128 0x25
 2037 0893 6200     		.ascii	"b\000"
 2038 0895 01       		.byte	0x1
 2039 0896 83       		.byte	0x83
 2040 0897 A2000000 		.4byte	0xa2
 2041 089b 9C000000 		.4byte	.LLST4
 2042 089f 29       		.uleb128 0x29
ARM GAS  /tmp/ccXNyZoG.s 			page 37


 2043 08a0 30070000 		.4byte	0x730
 2044 08a4 00000000 		.4byte	.LBB111
 2045 08a8 00000000 		.4byte	.Ldebug_ranges0+0
 2046 08ac 01       		.byte	0x1
 2047 08ad 87       		.byte	0x87
 2048 08ae BC080000 		.4byte	0x8bc
 2049 08b2 2A       		.uleb128 0x2a
 2050 08b3 41070000 		.4byte	0x741
 2051 08b7 62000000 		.4byte	.LLST3
 2052 08bb 00       		.byte	0
 2053 08bc 2B       		.uleb128 0x2b
 2054 08bd 28000000 		.4byte	.LVL7
 2055 08c1 4E100000 		.4byte	0x104e
 2056 08c5 27       		.uleb128 0x27
 2057 08c6 01       		.uleb128 0x1
 2058 08c7 51       		.byte	0x51
 2059 08c8 01       		.uleb128 0x1
 2060 08c9 30       		.byte	0x30
 2061 08ca 00       		.byte	0
 2062 08cb 00       		.byte	0
 2063 08cc 28       		.uleb128 0x28
 2064 08cd DD060000 		.4byte	.LASF126
 2065 08d1 01       		.byte	0x1
 2066 08d2 A8       		.byte	0xa8
 2067 08d3 0A010000 		.4byte	0x10a
 2068 08d7 00000000 		.4byte	.LFB229
 2069 08db 4E000000 		.4byte	.LFE229-.LFB229
 2070 08df 01       		.uleb128 0x1
 2071 08e0 9C       		.byte	0x9c
 2072 08e1 140A0000 		.4byte	0xa14
 2073 08e5 25       		.uleb128 0x25
 2074 08e6 69717000 		.ascii	"iqp\000"
 2075 08ea 01       		.byte	0x1
 2076 08eb A8       		.byte	0xa8
 2077 08ec EC060000 		.4byte	0x6ec
 2078 08f0 C8000000 		.4byte	.LLST6
 2079 08f4 20       		.uleb128 0x20
 2080 08f5 7A030000 		.4byte	.LASF127
 2081 08f9 01       		.byte	0x1
 2082 08fa A8       		.byte	0xa8
 2083 08fb 20010000 		.4byte	0x120
 2084 08ff 12010000 		.4byte	.LLST7
 2085 0903 2C       		.uleb128 0x2c
 2086 0904 6200     		.ascii	"b\000"
 2087 0906 01       		.byte	0x1
 2088 0907 A9       		.byte	0xa9
 2089 0908 A2000000 		.4byte	0xa2
 2090 090c 5C010000 		.4byte	.LLST8
 2091 0910 29       		.uleb128 0x29
 2092 0911 4E070000 		.4byte	0x74e
 2093 0915 02000000 		.4byte	.LBB117
 2094 0919 20000000 		.4byte	.Ldebug_ranges0+0x20
 2095 091d 01       		.byte	0x1
 2096 091e AB       		.byte	0xab
 2097 091f 4C090000 		.4byte	0x94c
 2098 0923 2D       		.uleb128 0x2d
 2099 0924 95060000 		.4byte	0x695
ARM GAS  /tmp/ccXNyZoG.s 			page 38


 2100 0928 02000000 		.4byte	.LBB118
 2101 092c 20000000 		.4byte	.Ldebug_ranges0+0x20
 2102 0930 0F       		.byte	0xf
 2103 0931 2B01     		.2byte	0x12b
 2104 0933 2D       		.uleb128 0x2d
 2105 0934 7B060000 		.4byte	0x67b
 2106 0938 02000000 		.4byte	.LBB119
 2107 093c 20000000 		.4byte	.Ldebug_ranges0+0x20
 2108 0940 0B       		.byte	0xb
 2109 0941 BE01     		.2byte	0x1be
 2110 0943 2E       		.uleb128 0x2e
 2111 0944 88060000 		.4byte	0x688
 2112 0948 20       		.byte	0x20
 2113 0949 00       		.byte	0
 2114 094a 00       		.byte	0
 2115 094b 00       		.byte	0
 2116 094c 2F       		.uleb128 0x2f
 2117 094d 38000000 		.4byte	.Ldebug_ranges0+0x38
 2118 0951 B9090000 		.4byte	0x9b9
 2119 0955 2C       		.uleb128 0x2c
 2120 0956 6D736700 		.ascii	"msg\000"
 2121 095a 01       		.byte	0x1
 2122 095b B0       		.byte	0xb0
 2123 095c 0A010000 		.4byte	0x10a
 2124 0960 7B010000 		.4byte	.LLST9
 2125 0964 30       		.uleb128 0x30
 2126 0965 57070000 		.4byte	0x757
 2127 0969 48000000 		.4byte	.LBB126
 2128 096d 04000000 		.4byte	.LBE126-.LBB126
 2129 0971 01       		.byte	0x1
 2130 0972 B2       		.byte	0xb2
 2131 0973 AF090000 		.4byte	0x9af
 2132 0977 31       		.uleb128 0x31
 2133 0978 48000000 		.4byte	.LBB127
 2134 097c 04000000 		.4byte	.LBE127-.LBB127
 2135 0980 32       		.uleb128 0x32
 2136 0981 64070000 		.4byte	0x764
 2137 0985 24       		.uleb128 0x24
 2138 0986 9E060000 		.4byte	0x69e
 2139 098a 48000000 		.4byte	.LBB128
 2140 098e 04000000 		.4byte	.LBE128-.LBB128
 2141 0992 0F       		.byte	0xf
 2142 0993 4101     		.2byte	0x141
 2143 0995 24       		.uleb128 0x24
 2144 0996 7B060000 		.4byte	0x67b
 2145 099a 48000000 		.4byte	.LBB129
 2146 099e 04000000 		.4byte	.LBE129-.LBB129
 2147 09a2 0B       		.byte	0xb
 2148 09a3 CC01     		.2byte	0x1cc
 2149 09a5 2E       		.uleb128 0x2e
 2150 09a6 88060000 		.4byte	0x688
 2151 09aa 00       		.byte	0
 2152 09ab 00       		.byte	0
 2153 09ac 00       		.byte	0
 2154 09ad 00       		.byte	0
 2155 09ae 00       		.byte	0
 2156 09af 33       		.uleb128 0x33
ARM GAS  /tmp/ccXNyZoG.s 			page 39


 2157 09b0 18000000 		.4byte	.LVL13
 2158 09b4 64100000 		.4byte	0x1064
 2159 09b8 00       		.byte	0
 2160 09b9 30       		.uleb128 0x30
 2161 09ba 57070000 		.4byte	0x757
 2162 09be 40000000 		.4byte	.LBB132
 2163 09c2 06000000 		.4byte	.LBE132-.LBB132
 2164 09c6 01       		.byte	0x1
 2165 09c7 BC       		.byte	0xbc
 2166 09c8 070A0000 		.4byte	0xa07
 2167 09cc 31       		.uleb128 0x31
 2168 09cd 40000000 		.4byte	.LBB133
 2169 09d1 06000000 		.4byte	.LBE133-.LBB133
 2170 09d5 32       		.uleb128 0x32
 2171 09d6 64070000 		.4byte	0x764
 2172 09da 24       		.uleb128 0x24
 2173 09db 9E060000 		.4byte	0x69e
 2174 09df 40000000 		.4byte	.LBB134
 2175 09e3 06000000 		.4byte	.LBE134-.LBB134
 2176 09e7 0F       		.byte	0xf
 2177 09e8 4101     		.2byte	0x141
 2178 09ea 24       		.uleb128 0x24
 2179 09eb 7B060000 		.4byte	0x67b
 2180 09ef 40000000 		.4byte	.LBB135
 2181 09f3 06000000 		.4byte	.LBE135-.LBB135
 2182 09f7 0B       		.byte	0xb
 2183 09f8 CC01     		.2byte	0x1cc
 2184 09fa 2A       		.uleb128 0x2a
 2185 09fb 88060000 		.4byte	0x688
 2186 09ff 99010000 		.4byte	.LLST10
 2187 0a03 00       		.byte	0
 2188 0a04 00       		.byte	0
 2189 0a05 00       		.byte	0
 2190 0a06 00       		.byte	0
 2191 0a07 34       		.uleb128 0x34
 2192 0a08 12000000 		.4byte	.LVL11
 2193 0a0c 27       		.uleb128 0x27
 2194 0a0d 01       		.uleb128 0x1
 2195 0a0e 50       		.byte	0x50
 2196 0a0f 02       		.uleb128 0x2
 2197 0a10 74       		.byte	0x74
 2198 0a11 00       		.sleb128 0
 2199 0a12 00       		.byte	0
 2200 0a13 00       		.byte	0
 2201 0a14 28       		.uleb128 0x28
 2202 0a15 6E000000 		.4byte	.LASF128
 2203 0a19 01       		.byte	0x1
 2204 0a1a D8       		.byte	0xd8
 2205 0a1b 2C000000 		.4byte	0x2c
 2206 0a1f 00000000 		.4byte	.LFB230
 2207 0a23 78000000 		.4byte	.LFE230-.LFB230
 2208 0a27 01       		.uleb128 0x1
 2209 0a28 9C       		.byte	0x9c
 2210 0a29 BA0B0000 		.4byte	0xbba
 2211 0a2d 25       		.uleb128 0x25
 2212 0a2e 69717000 		.ascii	"iqp\000"
 2213 0a32 01       		.byte	0x1
ARM GAS  /tmp/ccXNyZoG.s 			page 40


 2214 0a33 D8       		.byte	0xd8
 2215 0a34 EC060000 		.4byte	0x6ec
 2216 0a38 AD010000 		.4byte	.LLST11
 2217 0a3c 25       		.uleb128 0x25
 2218 0a3d 627000   		.ascii	"bp\000"
 2219 0a40 01       		.byte	0x1
 2220 0a41 D8       		.byte	0xd8
 2221 0a42 54060000 		.4byte	0x654
 2222 0a46 F7010000 		.4byte	.LLST12
 2223 0a4a 25       		.uleb128 0x25
 2224 0a4b 6E00     		.ascii	"n\000"
 2225 0a4d 01       		.byte	0x1
 2226 0a4e D9       		.byte	0xd9
 2227 0a4f 2C000000 		.4byte	0x2c
 2228 0a53 50020000 		.4byte	.LLST13
 2229 0a57 20       		.uleb128 0x20
 2230 0a58 7A030000 		.4byte	.LASF127
 2231 0a5c 01       		.byte	0x1
 2232 0a5d D9       		.byte	0xd9
 2233 0a5e 20010000 		.4byte	0x120
 2234 0a62 74020000 		.4byte	.LLST14
 2235 0a66 35       		.uleb128 0x35
 2236 0a67 6E667900 		.ascii	"nfy\000"
 2237 0a6b 01       		.byte	0x1
 2238 0a6c DA       		.byte	0xda
 2239 0a6d 32060000 		.4byte	0x632
 2240 0a71 01       		.uleb128 0x1
 2241 0a72 58       		.byte	0x58
 2242 0a73 2C       		.uleb128 0x2c
 2243 0a74 7200     		.ascii	"r\000"
 2244 0a76 01       		.byte	0x1
 2245 0a77 DB       		.byte	0xdb
 2246 0a78 2C000000 		.4byte	0x2c
 2247 0a7c BE020000 		.4byte	.LLST15
 2248 0a80 36       		.uleb128 0x36
 2249 0a81 5F040000 		.4byte	.LASF135
 2250 0a85 CA0B0000 		.4byte	0xbca
 2251 0a89 30       		.uleb128 0x30
 2252 0a8a 4E070000 		.4byte	0x74e
 2253 0a8e 0C000000 		.4byte	.LBB138
 2254 0a92 08000000 		.4byte	.LBE138-.LBB138
 2255 0a96 01       		.byte	0x1
 2256 0a97 DF       		.byte	0xdf
 2257 0a98 C50A0000 		.4byte	0xac5
 2258 0a9c 24       		.uleb128 0x24
 2259 0a9d 95060000 		.4byte	0x695
 2260 0aa1 0C000000 		.4byte	.LBB139
 2261 0aa5 08000000 		.4byte	.LBE139-.LBB139
 2262 0aa9 0F       		.byte	0xf
 2263 0aaa 2B01     		.2byte	0x12b
 2264 0aac 24       		.uleb128 0x24
 2265 0aad 7B060000 		.4byte	0x67b
 2266 0ab1 0C000000 		.4byte	.LBB140
 2267 0ab5 08000000 		.4byte	.LBE140-.LBB140
 2268 0ab9 0B       		.byte	0xb
 2269 0aba BE01     		.2byte	0x1be
 2270 0abc 2E       		.uleb128 0x2e
ARM GAS  /tmp/ccXNyZoG.s 			page 41


 2271 0abd 88060000 		.4byte	0x688
 2272 0ac1 20       		.byte	0x20
 2273 0ac2 00       		.byte	0
 2274 0ac3 00       		.byte	0
 2275 0ac4 00       		.byte	0
 2276 0ac5 30       		.uleb128 0x30
 2277 0ac6 57070000 		.4byte	0x757
 2278 0aca 56000000 		.4byte	.LBB142
 2279 0ace 06000000 		.4byte	.LBE142-.LBB142
 2280 0ad2 01       		.byte	0x1
 2281 0ad3 F0       		.byte	0xf0
 2282 0ad4 130B0000 		.4byte	0xb13
 2283 0ad8 31       		.uleb128 0x31
 2284 0ad9 56000000 		.4byte	.LBB143
 2285 0add 06000000 		.4byte	.LBE143-.LBB143
 2286 0ae1 32       		.uleb128 0x32
 2287 0ae2 64070000 		.4byte	0x764
 2288 0ae6 24       		.uleb128 0x24
 2289 0ae7 9E060000 		.4byte	0x69e
 2290 0aeb 56000000 		.4byte	.LBB144
 2291 0aef 06000000 		.4byte	.LBE144-.LBB144
 2292 0af3 0F       		.byte	0xf
 2293 0af4 4101     		.2byte	0x141
 2294 0af6 24       		.uleb128 0x24
 2295 0af7 7B060000 		.4byte	0x67b
 2296 0afb 56000000 		.4byte	.LBB145
 2297 0aff 06000000 		.4byte	.LBE145-.LBB145
 2298 0b03 0B       		.byte	0xb
 2299 0b04 CC01     		.2byte	0x1cc
 2300 0b06 2A       		.uleb128 0x2a
 2301 0b07 88060000 		.4byte	0x688
 2302 0b0b DD020000 		.4byte	.LLST16
 2303 0b0f 00       		.byte	0
 2304 0b10 00       		.byte	0
 2305 0b11 00       		.byte	0
 2306 0b12 00       		.byte	0
 2307 0b13 30       		.uleb128 0x30
 2308 0b14 4E070000 		.4byte	0x74e
 2309 0b18 64000000 		.4byte	.LBB147
 2310 0b1c 0A000000 		.4byte	.LBE147-.LBB147
 2311 0b20 01       		.byte	0x1
 2312 0b21 F5       		.byte	0xf5
 2313 0b22 520B0000 		.4byte	0xb52
 2314 0b26 24       		.uleb128 0x24
 2315 0b27 95060000 		.4byte	0x695
 2316 0b2b 64000000 		.4byte	.LBB148
 2317 0b2f 0A000000 		.4byte	.LBE148-.LBB148
 2318 0b33 0F       		.byte	0xf
 2319 0b34 2B01     		.2byte	0x12b
 2320 0b36 24       		.uleb128 0x24
 2321 0b37 7B060000 		.4byte	0x67b
 2322 0b3b 64000000 		.4byte	.LBB149
 2323 0b3f 0A000000 		.4byte	.LBE149-.LBB149
 2324 0b43 0B       		.byte	0xb
 2325 0b44 BE01     		.2byte	0x1be
 2326 0b46 2A       		.uleb128 0x2a
 2327 0b47 88060000 		.4byte	0x688
ARM GAS  /tmp/ccXNyZoG.s 			page 42


 2328 0b4b F1020000 		.4byte	.LLST17
 2329 0b4f 00       		.byte	0
 2330 0b50 00       		.byte	0
 2331 0b51 00       		.byte	0
 2332 0b52 30       		.uleb128 0x30
 2333 0b53 57070000 		.4byte	0x757
 2334 0b57 6E000000 		.4byte	.LBB151
 2335 0b5b 04000000 		.4byte	.LBE151-.LBB151
 2336 0b5f 01       		.byte	0x1
 2337 0b60 E6       		.byte	0xe6
 2338 0b61 A00B0000 		.4byte	0xba0
 2339 0b65 31       		.uleb128 0x31
 2340 0b66 6E000000 		.4byte	.LBB152
 2341 0b6a 04000000 		.4byte	.LBE152-.LBB152
 2342 0b6e 32       		.uleb128 0x32
 2343 0b6f 64070000 		.4byte	0x764
 2344 0b73 24       		.uleb128 0x24
 2345 0b74 9E060000 		.4byte	0x69e
 2346 0b78 6E000000 		.4byte	.LBB153
 2347 0b7c 04000000 		.4byte	.LBE153-.LBB153
 2348 0b80 0F       		.byte	0xf
 2349 0b81 4101     		.2byte	0x141
 2350 0b83 24       		.uleb128 0x24
 2351 0b84 7B060000 		.4byte	0x67b
 2352 0b88 6E000000 		.4byte	.LBB154
 2353 0b8c 04000000 		.4byte	.LBE154-.LBB154
 2354 0b90 0B       		.byte	0xb
 2355 0b91 CC01     		.2byte	0x1cc
 2356 0b93 2A       		.uleb128 0x2a
 2357 0b94 88060000 		.4byte	0x688
 2358 0b98 06030000 		.4byte	.LLST18
 2359 0b9c 00       		.byte	0
 2360 0b9d 00       		.byte	0
 2361 0b9e 00       		.byte	0
 2362 0b9f 00       		.byte	0
 2363 0ba0 37       		.uleb128 0x37
 2364 0ba1 28000000 		.4byte	.LVL25
 2365 0ba5 B00B0000 		.4byte	0xbb0
 2366 0ba9 27       		.uleb128 0x27
 2367 0baa 01       		.uleb128 0x1
 2368 0bab 50       		.byte	0x50
 2369 0bac 02       		.uleb128 0x2
 2370 0bad 74       		.byte	0x74
 2371 0bae 00       		.sleb128 0
 2372 0baf 00       		.byte	0
 2373 0bb0 33       		.uleb128 0x33
 2374 0bb1 2E000000 		.4byte	.LVL27
 2375 0bb5 64100000 		.4byte	0x1064
 2376 0bb9 00       		.byte	0
 2377 0bba 16       		.uleb128 0x16
 2378 0bbb 50050000 		.4byte	0x550
 2379 0bbf CA0B0000 		.4byte	0xbca
 2380 0bc3 17       		.uleb128 0x17
 2381 0bc4 30040000 		.4byte	0x430
 2382 0bc8 0F       		.byte	0xf
 2383 0bc9 00       		.byte	0
 2384 0bca 15       		.uleb128 0x15
ARM GAS  /tmp/ccXNyZoG.s 			page 43


 2385 0bcb BA0B0000 		.4byte	0xbba
 2386 0bcf 38       		.uleb128 0x38
 2387 0bd0 3F060000 		.4byte	.LASF129
 2388 0bd4 01       		.byte	0x1
 2389 0bd5 0901     		.2byte	0x109
 2390 0bd7 00000000 		.4byte	.LFB231
 2391 0bdb 1C000000 		.4byte	.LFE231-.LFB231
 2392 0bdf 01       		.uleb128 0x1
 2393 0be0 9C       		.byte	0x9c
 2394 0be1 5D0C0000 		.4byte	0xc5d
 2395 0be5 39       		.uleb128 0x39
 2396 0be6 6F717000 		.ascii	"oqp\000"
 2397 0bea 01       		.byte	0x1
 2398 0beb 0901     		.2byte	0x109
 2399 0bed 10070000 		.4byte	0x710
 2400 0bf1 01       		.uleb128 0x1
 2401 0bf2 50       		.byte	0x50
 2402 0bf3 39       		.uleb128 0x39
 2403 0bf4 627000   		.ascii	"bp\000"
 2404 0bf7 01       		.byte	0x1
 2405 0bf8 0901     		.2byte	0x109
 2406 0bfa 54060000 		.4byte	0x654
 2407 0bfe 01       		.uleb128 0x1
 2408 0bff 51       		.byte	0x51
 2409 0c00 3A       		.uleb128 0x3a
 2410 0c01 8D060000 		.4byte	.LASF120
 2411 0c05 01       		.byte	0x1
 2412 0c06 0901     		.2byte	0x109
 2413 0c08 2C000000 		.4byte	0x2c
 2414 0c0c 01       		.uleb128 0x1
 2415 0c0d 52       		.byte	0x52
 2416 0c0e 3A       		.uleb128 0x3a
 2417 0c0f 1C000000 		.4byte	.LASF130
 2418 0c13 01       		.byte	0x1
 2419 0c14 0A01     		.2byte	0x10a
 2420 0c16 32060000 		.4byte	0x632
 2421 0c1a 01       		.uleb128 0x1
 2422 0c1b 53       		.byte	0x53
 2423 0c1c 3B       		.uleb128 0x3b
 2424 0c1d 10020000 		.4byte	.LASF122
 2425 0c21 01       		.byte	0x1
 2426 0c22 0A01     		.2byte	0x10a
 2427 0c24 FA020000 		.4byte	0x2fa
 2428 0c28 1A030000 		.4byte	.LLST19
 2429 0c2c 24       		.uleb128 0x24
 2430 0c2d 16070000 		.4byte	0x716
 2431 0c31 0A000000 		.4byte	.LBB156
 2432 0c35 04000000 		.4byte	.LBE156-.LBB156
 2433 0c39 01       		.byte	0x1
 2434 0c3a 0C01     		.2byte	0x10c
 2435 0c3c 23       		.uleb128 0x23
 2436 0c3d 23070000 		.4byte	0x723
 2437 0c41 01       		.uleb128 0x1
 2438 0c42 50       		.byte	0x50
 2439 0c43 24       		.uleb128 0x24
 2440 0c44 A7060000 		.4byte	0x6a7
 2441 0c48 0A000000 		.4byte	.LBB157
ARM GAS  /tmp/ccXNyZoG.s 			page 44


 2442 0c4c 04000000 		.4byte	.LBE157-.LBB157
 2443 0c50 0E       		.byte	0xe
 2444 0c51 1B01     		.2byte	0x11b
 2445 0c53 23       		.uleb128 0x23
 2446 0c54 B4060000 		.4byte	0x6b4
 2447 0c58 01       		.uleb128 0x1
 2448 0c59 50       		.byte	0x50
 2449 0c5a 00       		.byte	0
 2450 0c5b 00       		.byte	0
 2451 0c5c 00       		.byte	0
 2452 0c5d 38       		.uleb128 0x38
 2453 0c5e 1D060000 		.4byte	.LASF131
 2454 0c62 01       		.byte	0x1
 2455 0c63 1F01     		.2byte	0x11f
 2456 0c65 00000000 		.4byte	.LFB232
 2457 0c69 1A000000 		.4byte	.LFE232-.LFB232
 2458 0c6d 01       		.uleb128 0x1
 2459 0c6e 9C       		.byte	0x9c
 2460 0c6f 9B0C0000 		.4byte	0xc9b
 2461 0c73 3C       		.uleb128 0x3c
 2462 0c74 6F717000 		.ascii	"oqp\000"
 2463 0c78 01       		.byte	0x1
 2464 0c79 1F01     		.2byte	0x11f
 2465 0c7b 10070000 		.4byte	0x710
 2466 0c7f 3A030000 		.4byte	.LLST20
 2467 0c83 26       		.uleb128 0x26
 2468 0c84 1A000000 		.4byte	.LVL41
 2469 0c88 38100000 		.4byte	0x1038
 2470 0c8c 27       		.uleb128 0x27
 2471 0c8d 01       		.uleb128 0x1
 2472 0c8e 51       		.byte	0x51
 2473 0c8f 02       		.uleb128 0x2
 2474 0c90 09       		.byte	0x9
 2475 0c91 FE       		.byte	0xfe
 2476 0c92 27       		.uleb128 0x27
 2477 0c93 01       		.uleb128 0x1
 2478 0c94 50       		.byte	0x50
 2479 0c95 03       		.uleb128 0x3
 2480 0c96 F3       		.byte	0xf3
 2481 0c97 01       		.uleb128 0x1
 2482 0c98 50       		.byte	0x50
 2483 0c99 00       		.byte	0
 2484 0c9a 00       		.byte	0
 2485 0c9b 3D       		.uleb128 0x3d
 2486 0c9c 00000000 		.4byte	.LASF132
 2487 0ca0 01       		.byte	0x1
 2488 0ca1 3E01     		.2byte	0x13e
 2489 0ca3 0A010000 		.4byte	0x10a
 2490 0ca7 00000000 		.4byte	.LFB233
 2491 0cab 50000000 		.4byte	.LFE233-.LFB233
 2492 0caf 01       		.uleb128 0x1
 2493 0cb0 9C       		.byte	0x9c
 2494 0cb1 EB0D0000 		.4byte	0xdeb
 2495 0cb5 3C       		.uleb128 0x3c
 2496 0cb6 6F717000 		.ascii	"oqp\000"
 2497 0cba 01       		.byte	0x1
 2498 0cbb 3E01     		.2byte	0x13e
ARM GAS  /tmp/ccXNyZoG.s 			page 45


 2499 0cbd 10070000 		.4byte	0x710
 2500 0cc1 5B030000 		.4byte	.LLST21
 2501 0cc5 3C       		.uleb128 0x3c
 2502 0cc6 6200     		.ascii	"b\000"
 2503 0cc8 01       		.byte	0x1
 2504 0cc9 3E01     		.2byte	0x13e
 2505 0ccb A2000000 		.4byte	0xa2
 2506 0ccf 8F030000 		.4byte	.LLST22
 2507 0cd3 3B       		.uleb128 0x3b
 2508 0cd4 7A030000 		.4byte	.LASF127
 2509 0cd8 01       		.byte	0x1
 2510 0cd9 3E01     		.2byte	0x13e
 2511 0cdb 20010000 		.4byte	0x120
 2512 0cdf B0030000 		.4byte	.LLST23
 2513 0ce3 3E       		.uleb128 0x3e
 2514 0ce4 4E070000 		.4byte	0x74e
 2515 0ce8 08000000 		.4byte	.LBB159
 2516 0cec 08000000 		.4byte	.LBE159-.LBB159
 2517 0cf0 01       		.byte	0x1
 2518 0cf1 4001     		.2byte	0x140
 2519 0cf3 200D0000 		.4byte	0xd20
 2520 0cf7 24       		.uleb128 0x24
 2521 0cf8 95060000 		.4byte	0x695
 2522 0cfc 08000000 		.4byte	.LBB160
 2523 0d00 08000000 		.4byte	.LBE160-.LBB160
 2524 0d04 0F       		.byte	0xf
 2525 0d05 2B01     		.2byte	0x12b
 2526 0d07 24       		.uleb128 0x24
 2527 0d08 7B060000 		.4byte	0x67b
 2528 0d0c 08000000 		.4byte	.LBB161
 2529 0d10 08000000 		.4byte	.LBE161-.LBB161
 2530 0d14 0B       		.byte	0xb
 2531 0d15 BE01     		.2byte	0x1be
 2532 0d17 2E       		.uleb128 0x2e
 2533 0d18 88060000 		.4byte	0x688
 2534 0d1c 20       		.byte	0x20
 2535 0d1d 00       		.byte	0
 2536 0d1e 00       		.byte	0
 2537 0d1f 00       		.byte	0
 2538 0d20 2F       		.uleb128 0x2f
 2539 0d21 58000000 		.4byte	.Ldebug_ranges0+0x58
 2540 0d25 8F0D0000 		.4byte	0xd8f
 2541 0d29 3F       		.uleb128 0x3f
 2542 0d2a 6D736700 		.ascii	"msg\000"
 2543 0d2e 01       		.byte	0x1
 2544 0d2f 4201     		.2byte	0x142
 2545 0d31 0A010000 		.4byte	0x10a
 2546 0d35 EF030000 		.4byte	.LLST24
 2547 0d39 3E       		.uleb128 0x3e
 2548 0d3a 57070000 		.4byte	0x757
 2549 0d3e 4A000000 		.4byte	.LBB164
 2550 0d42 04000000 		.4byte	.LBE164-.LBB164
 2551 0d46 01       		.byte	0x1
 2552 0d47 4501     		.2byte	0x145
 2553 0d49 850D0000 		.4byte	0xd85
 2554 0d4d 31       		.uleb128 0x31
 2555 0d4e 4A000000 		.4byte	.LBB165
ARM GAS  /tmp/ccXNyZoG.s 			page 46


 2556 0d52 04000000 		.4byte	.LBE165-.LBB165
 2557 0d56 32       		.uleb128 0x32
 2558 0d57 64070000 		.4byte	0x764
 2559 0d5b 24       		.uleb128 0x24
 2560 0d5c 9E060000 		.4byte	0x69e
 2561 0d60 4A000000 		.4byte	.LBB166
 2562 0d64 04000000 		.4byte	.LBE166-.LBB166
 2563 0d68 0F       		.byte	0xf
 2564 0d69 4101     		.2byte	0x141
 2565 0d6b 24       		.uleb128 0x24
 2566 0d6c 7B060000 		.4byte	0x67b
 2567 0d70 4A000000 		.4byte	.LBB167
 2568 0d74 04000000 		.4byte	.LBE167-.LBB167
 2569 0d78 0B       		.byte	0xb
 2570 0d79 CC01     		.2byte	0x1cc
 2571 0d7b 2E       		.uleb128 0x2e
 2572 0d7c 88060000 		.4byte	0x688
 2573 0d80 00       		.byte	0
 2574 0d81 00       		.byte	0
 2575 0d82 00       		.byte	0
 2576 0d83 00       		.byte	0
 2577 0d84 00       		.byte	0
 2578 0d85 33       		.uleb128 0x33
 2579 0d86 14000000 		.4byte	.LVL44
 2580 0d8a 64100000 		.4byte	0x1064
 2581 0d8e 00       		.byte	0
 2582 0d8f 3E       		.uleb128 0x3e
 2583 0d90 57070000 		.4byte	0x757
 2584 0d94 42000000 		.4byte	.LBB170
 2585 0d98 06000000 		.4byte	.LBE170-.LBB170
 2586 0d9c 01       		.byte	0x1
 2587 0d9d 5201     		.2byte	0x152
 2588 0d9f DE0D0000 		.4byte	0xdde
 2589 0da3 31       		.uleb128 0x31
 2590 0da4 42000000 		.4byte	.LBB171
 2591 0da8 06000000 		.4byte	.LBE171-.LBB171
 2592 0dac 32       		.uleb128 0x32
 2593 0dad 64070000 		.4byte	0x764
 2594 0db1 24       		.uleb128 0x24
 2595 0db2 9E060000 		.4byte	0x69e
 2596 0db6 42000000 		.4byte	.LBB172
 2597 0dba 06000000 		.4byte	.LBE172-.LBB172
 2598 0dbe 0F       		.byte	0xf
 2599 0dbf 4101     		.2byte	0x141
 2600 0dc1 24       		.uleb128 0x24
 2601 0dc2 7B060000 		.4byte	0x67b
 2602 0dc6 42000000 		.4byte	.LBB173
 2603 0dca 06000000 		.4byte	.LBE173-.LBB173
 2604 0dce 0B       		.byte	0xb
 2605 0dcf CC01     		.2byte	0x1cc
 2606 0dd1 2A       		.uleb128 0x2a
 2607 0dd2 88060000 		.4byte	0x688
 2608 0dd6 0D040000 		.4byte	.LLST25
 2609 0dda 00       		.byte	0
 2610 0ddb 00       		.byte	0
 2611 0ddc 00       		.byte	0
 2612 0ddd 00       		.byte	0
ARM GAS  /tmp/ccXNyZoG.s 			page 47


 2613 0dde 34       		.uleb128 0x34
 2614 0ddf 42000000 		.4byte	.LVL49
 2615 0de3 27       		.uleb128 0x27
 2616 0de4 01       		.uleb128 0x1
 2617 0de5 50       		.byte	0x50
 2618 0de6 02       		.uleb128 0x2
 2619 0de7 74       		.byte	0x74
 2620 0de8 00       		.sleb128 0
 2621 0de9 00       		.byte	0
 2622 0dea 00       		.byte	0
 2623 0deb 3D       		.uleb128 0x3d
 2624 0dec 85010000 		.4byte	.LASF133
 2625 0df0 01       		.byte	0x1
 2626 0df1 6001     		.2byte	0x160
 2627 0df3 0A010000 		.4byte	0x10a
 2628 0df7 00000000 		.4byte	.LFB234
 2629 0dfb 34000000 		.4byte	.LFE234-.LFB234
 2630 0dff 01       		.uleb128 0x1
 2631 0e00 9C       		.byte	0x9c
 2632 0e01 510E0000 		.4byte	0xe51
 2633 0e05 3C       		.uleb128 0x3c
 2634 0e06 6F717000 		.ascii	"oqp\000"
 2635 0e0a 01       		.byte	0x1
 2636 0e0b 6001     		.2byte	0x160
 2637 0e0d 10070000 		.4byte	0x710
 2638 0e11 21040000 		.4byte	.LLST26
 2639 0e15 3F       		.uleb128 0x3f
 2640 0e16 6200     		.ascii	"b\000"
 2641 0e18 01       		.byte	0x1
 2642 0e19 6101     		.2byte	0x161
 2643 0e1b A2000000 		.4byte	0xa2
 2644 0e1f 5B040000 		.4byte	.LLST27
 2645 0e23 40       		.uleb128 0x40
 2646 0e24 87070000 		.4byte	0x787
 2647 0e28 00000000 		.4byte	.LBB176
 2648 0e2c 78000000 		.4byte	.Ldebug_ranges0+0x78
 2649 0e30 01       		.byte	0x1
 2650 0e31 6501     		.2byte	0x165
 2651 0e33 410E0000 		.4byte	0xe41
 2652 0e37 2A       		.uleb128 0x2a
 2653 0e38 98070000 		.4byte	0x798
 2654 0e3c 21040000 		.4byte	.LLST26
 2655 0e40 00       		.byte	0
 2656 0e41 2B       		.uleb128 0x2b
 2657 0e42 26000000 		.4byte	.LVL55
 2658 0e46 4E100000 		.4byte	0x104e
 2659 0e4a 27       		.uleb128 0x27
 2660 0e4b 01       		.uleb128 0x1
 2661 0e4c 51       		.byte	0x51
 2662 0e4d 01       		.uleb128 0x1
 2663 0e4e 30       		.byte	0x30
 2664 0e4f 00       		.byte	0
 2665 0e50 00       		.byte	0
 2666 0e51 3D       		.uleb128 0x3d
 2667 0e52 F5020000 		.4byte	.LASF134
 2668 0e56 01       		.byte	0x1
 2669 0e57 8A01     		.2byte	0x18a
ARM GAS  /tmp/ccXNyZoG.s 			page 48


 2670 0e59 2C000000 		.4byte	0x2c
 2671 0e5d 00000000 		.4byte	.LFB235
 2672 0e61 7A000000 		.4byte	.LFE235-.LFB235
 2673 0e65 01       		.uleb128 0x1
 2674 0e66 9C       		.byte	0x9c
 2675 0e67 0C100000 		.4byte	0x100c
 2676 0e6b 3C       		.uleb128 0x3c
 2677 0e6c 6F717000 		.ascii	"oqp\000"
 2678 0e70 01       		.byte	0x1
 2679 0e71 8A01     		.2byte	0x18a
 2680 0e73 10070000 		.4byte	0x710
 2681 0e77 86040000 		.4byte	.LLST29
 2682 0e7b 3C       		.uleb128 0x3c
 2683 0e7c 627000   		.ascii	"bp\000"
 2684 0e7f 01       		.byte	0x1
 2685 0e80 8A01     		.2byte	0x18a
 2686 0e82 70060000 		.4byte	0x670
 2687 0e86 D0040000 		.4byte	.LLST30
 2688 0e8a 3C       		.uleb128 0x3c
 2689 0e8b 6E00     		.ascii	"n\000"
 2690 0e8d 01       		.byte	0x1
 2691 0e8e 8B01     		.2byte	0x18b
 2692 0e90 2C000000 		.4byte	0x2c
 2693 0e94 F9040000 		.4byte	.LLST31
 2694 0e98 3B       		.uleb128 0x3b
 2695 0e99 7A030000 		.4byte	.LASF127
 2696 0e9d 01       		.byte	0x1
 2697 0e9e 8B01     		.2byte	0x18b
 2698 0ea0 20010000 		.4byte	0x120
 2699 0ea4 2F050000 		.4byte	.LLST32
 2700 0ea8 41       		.uleb128 0x41
 2701 0ea9 6E667900 		.ascii	"nfy\000"
 2702 0ead 01       		.byte	0x1
 2703 0eae 8C01     		.2byte	0x18c
 2704 0eb0 32060000 		.4byte	0x632
 2705 0eb4 01       		.uleb128 0x1
 2706 0eb5 58       		.byte	0x58
 2707 0eb6 3F       		.uleb128 0x3f
 2708 0eb7 7700     		.ascii	"w\000"
 2709 0eb9 01       		.byte	0x1
 2710 0eba 8D01     		.2byte	0x18d
 2711 0ebc 2C000000 		.4byte	0x2c
 2712 0ec0 4E050000 		.4byte	.LLST33
 2713 0ec4 36       		.uleb128 0x36
 2714 0ec5 5F040000 		.4byte	.LASF135
 2715 0ec9 1C100000 		.4byte	0x101c
 2716 0ecd 3E       		.uleb128 0x3e
 2717 0ece 4E070000 		.4byte	0x74e
 2718 0ed2 12000000 		.4byte	.LBB182
 2719 0ed6 08000000 		.4byte	.LBE182-.LBB182
 2720 0eda 01       		.byte	0x1
 2721 0edb 9101     		.2byte	0x191
 2722 0edd 0A0F0000 		.4byte	0xf0a
 2723 0ee1 24       		.uleb128 0x24
 2724 0ee2 95060000 		.4byte	0x695
 2725 0ee6 12000000 		.4byte	.LBB183
 2726 0eea 08000000 		.4byte	.LBE183-.LBB183
ARM GAS  /tmp/ccXNyZoG.s 			page 49


 2727 0eee 0F       		.byte	0xf
 2728 0eef 2B01     		.2byte	0x12b
 2729 0ef1 24       		.uleb128 0x24
 2730 0ef2 7B060000 		.4byte	0x67b
 2731 0ef6 12000000 		.4byte	.LBB184
 2732 0efa 08000000 		.4byte	.LBE184-.LBB184
 2733 0efe 0B       		.byte	0xb
 2734 0eff BE01     		.2byte	0x1be
 2735 0f01 2E       		.uleb128 0x2e
 2736 0f02 88060000 		.4byte	0x688
 2737 0f06 20       		.byte	0x20
 2738 0f07 00       		.byte	0
 2739 0f08 00       		.byte	0
 2740 0f09 00       		.byte	0
 2741 0f0a 40       		.uleb128 0x40
 2742 0f0b 57070000 		.4byte	0x757
 2743 0f0f 1C000000 		.4byte	.LBB186
 2744 0f13 98000000 		.4byte	.Ldebug_ranges0+0x98
 2745 0f17 01       		.byte	0x1
 2746 0f18 A101     		.2byte	0x1a1
 2747 0f1a 550F0000 		.4byte	0xf55
 2748 0f1e 42       		.uleb128 0x42
 2749 0f1f 98000000 		.4byte	.Ldebug_ranges0+0x98
 2750 0f23 32       		.uleb128 0x32
 2751 0f24 64070000 		.4byte	0x764
 2752 0f28 2D       		.uleb128 0x2d
 2753 0f29 9E060000 		.4byte	0x69e
 2754 0f2d 1C000000 		.4byte	.LBB188
 2755 0f31 98000000 		.4byte	.Ldebug_ranges0+0x98
 2756 0f35 0F       		.byte	0xf
 2757 0f36 4101     		.2byte	0x141
 2758 0f38 2D       		.uleb128 0x2d
 2759 0f39 7B060000 		.4byte	0x67b
 2760 0f3d 1C000000 		.4byte	.LBB189
 2761 0f41 98000000 		.4byte	.Ldebug_ranges0+0x98
 2762 0f45 0B       		.byte	0xb
 2763 0f46 CC01     		.2byte	0x1cc
 2764 0f48 2A       		.uleb128 0x2a
 2765 0f49 88060000 		.4byte	0x688
 2766 0f4d 6D050000 		.4byte	.LLST34
 2767 0f51 00       		.byte	0
 2768 0f52 00       		.byte	0
 2769 0f53 00       		.byte	0
 2770 0f54 00       		.byte	0
 2771 0f55 3E       		.uleb128 0x3e
 2772 0f56 4E070000 		.4byte	0x74e
 2773 0f5a 58000000 		.4byte	.LBB196
 2774 0f5e 06000000 		.4byte	.LBE196-.LBB196
 2775 0f62 01       		.byte	0x1
 2776 0f63 A501     		.2byte	0x1a5
 2777 0f65 950F0000 		.4byte	0xf95
 2778 0f69 24       		.uleb128 0x24
 2779 0f6a 95060000 		.4byte	0x695
 2780 0f6e 58000000 		.4byte	.LBB197
 2781 0f72 06000000 		.4byte	.LBE197-.LBB197
 2782 0f76 0F       		.byte	0xf
 2783 0f77 2B01     		.2byte	0x12b
ARM GAS  /tmp/ccXNyZoG.s 			page 50


 2784 0f79 24       		.uleb128 0x24
 2785 0f7a 7B060000 		.4byte	0x67b
 2786 0f7e 58000000 		.4byte	.LBB198
 2787 0f82 06000000 		.4byte	.LBE198-.LBB198
 2788 0f86 0B       		.byte	0xb
 2789 0f87 BE01     		.2byte	0x1be
 2790 0f89 2A       		.uleb128 0x2a
 2791 0f8a 88060000 		.4byte	0x688
 2792 0f8e 81050000 		.4byte	.LLST35
 2793 0f92 00       		.byte	0
 2794 0f93 00       		.byte	0
 2795 0f94 00       		.byte	0
 2796 0f95 3E       		.uleb128 0x3e
 2797 0f96 57070000 		.4byte	0x757
 2798 0f9a 6E000000 		.4byte	.LBB200
 2799 0f9e 04000000 		.4byte	.LBE200-.LBB200
 2800 0fa2 01       		.byte	0x1
 2801 0fa3 9501     		.2byte	0x195
 2802 0fa5 E40F0000 		.4byte	0xfe4
 2803 0fa9 31       		.uleb128 0x31
 2804 0faa 6E000000 		.4byte	.LBB201
 2805 0fae 04000000 		.4byte	.LBE201-.LBB201
 2806 0fb2 32       		.uleb128 0x32
 2807 0fb3 64070000 		.4byte	0x764
 2808 0fb7 24       		.uleb128 0x24
 2809 0fb8 9E060000 		.4byte	0x69e
 2810 0fbc 6E000000 		.4byte	.LBB202
 2811 0fc0 04000000 		.4byte	.LBE202-.LBB202
 2812 0fc4 0F       		.byte	0xf
 2813 0fc5 4101     		.2byte	0x141
 2814 0fc7 24       		.uleb128 0x24
 2815 0fc8 7B060000 		.4byte	0x67b
 2816 0fcc 6E000000 		.4byte	.LBB203
 2817 0fd0 04000000 		.4byte	.LBE203-.LBB203
 2818 0fd4 0B       		.byte	0xb
 2819 0fd5 CC01     		.2byte	0x1cc
 2820 0fd7 2A       		.uleb128 0x2a
 2821 0fd8 88060000 		.4byte	0x688
 2822 0fdc 96050000 		.4byte	.LLST36
 2823 0fe0 00       		.byte	0
 2824 0fe1 00       		.byte	0
 2825 0fe2 00       		.byte	0
 2826 0fe3 00       		.byte	0
 2827 0fe4 37       		.uleb128 0x37
 2828 0fe5 4C000000 		.4byte	.LVL63
 2829 0fe9 F40F0000 		.4byte	0xff4
 2830 0fed 27       		.uleb128 0x27
 2831 0fee 01       		.uleb128 0x1
 2832 0fef 50       		.byte	0x50
 2833 0ff0 02       		.uleb128 0x2
 2834 0ff1 74       		.byte	0x74
 2835 0ff2 00       		.sleb128 0
 2836 0ff3 00       		.byte	0
 2837 0ff4 2B       		.uleb128 0x2b
 2838 0ff5 6A000000 		.4byte	.LVL69
 2839 0ff9 64100000 		.4byte	0x1064
 2840 0ffd 27       		.uleb128 0x27
ARM GAS  /tmp/ccXNyZoG.s 			page 51


 2841 0ffe 01       		.uleb128 0x1
 2842 0fff 51       		.byte	0x51
 2843 1000 03       		.uleb128 0x3
 2844 1001 91       		.byte	0x91
 2845 1002 54       		.sleb128 -44
 2846 1003 06       		.byte	0x6
 2847 1004 27       		.uleb128 0x27
 2848 1005 01       		.uleb128 0x1
 2849 1006 50       		.byte	0x50
 2850 1007 02       		.uleb128 0x2
 2851 1008 74       		.byte	0x74
 2852 1009 00       		.sleb128 0
 2853 100a 00       		.byte	0
 2854 100b 00       		.byte	0
 2855 100c 16       		.uleb128 0x16
 2856 100d 50050000 		.4byte	0x550
 2857 1011 1C100000 		.4byte	0x101c
 2858 1015 17       		.uleb128 0x17
 2859 1016 30040000 		.4byte	0x430
 2860 101a 10       		.byte	0x10
 2861 101b 00       		.byte	0
 2862 101c 15       		.uleb128 0x15
 2863 101d 0C100000 		.4byte	0x100c
 2864 1021 43       		.uleb128 0x43
 2865 1022 E3000000 		.4byte	.LASF136
 2866 1026 10       		.byte	0x10
 2867 1027 A706     		.2byte	0x6a7
 2868 1029 CE000000 		.4byte	0xce
 2869 102d 44       		.uleb128 0x44
 2870 102e 636800   		.ascii	"ch\000"
 2871 1031 02       		.byte	0x2
 2872 1032 EB01     		.2byte	0x1eb
 2873 1034 C9030000 		.4byte	0x3c9
 2874 1038 45       		.uleb128 0x45
 2875 1039 38000000 		.4byte	.LASF137
 2876 103d 0E       		.byte	0xe
 2877 103e 97       		.byte	0x97
 2878 103f 4E100000 		.4byte	0x104e
 2879 1043 0D       		.uleb128 0xd
 2880 1044 C1060000 		.4byte	0x6c1
 2881 1048 0D       		.uleb128 0xd
 2882 1049 0A010000 		.4byte	0x10a
 2883 104d 00       		.byte	0
 2884 104e 45       		.uleb128 0x45
 2885 104f 9F010000 		.4byte	.LASF138
 2886 1053 0E       		.byte	0xe
 2887 1054 96       		.byte	0x96
 2888 1055 64100000 		.4byte	0x1064
 2889 1059 0D       		.uleb128 0xd
 2890 105a C1060000 		.4byte	0x6c1
 2891 105e 0D       		.uleb128 0xd
 2892 105f 0A010000 		.4byte	0x10a
 2893 1063 00       		.byte	0
 2894 1064 46       		.uleb128 0x46
 2895 1065 EC060000 		.4byte	.LASF139
 2896 1069 0E       		.byte	0xe
 2897 106a 95       		.byte	0x95
ARM GAS  /tmp/ccXNyZoG.s 			page 52


 2898 106b 0A010000 		.4byte	0x10a
 2899 106f 0D       		.uleb128 0xd
 2900 1070 C1060000 		.4byte	0x6c1
 2901 1074 0D       		.uleb128 0xd
 2902 1075 20010000 		.4byte	0x120
 2903 1079 00       		.byte	0
 2904 107a 00       		.byte	0
 2905              		.section	.debug_abbrev,"",%progbits
 2906              	.Ldebug_abbrev0:
 2907 0000 01       		.uleb128 0x1
 2908 0001 11       		.uleb128 0x11
 2909 0002 01       		.byte	0x1
 2910 0003 25       		.uleb128 0x25
 2911 0004 0E       		.uleb128 0xe
 2912 0005 13       		.uleb128 0x13
 2913 0006 0B       		.uleb128 0xb
 2914 0007 03       		.uleb128 0x3
 2915 0008 0E       		.uleb128 0xe
 2916 0009 1B       		.uleb128 0x1b
 2917 000a 0E       		.uleb128 0xe
 2918 000b 55       		.uleb128 0x55
 2919 000c 17       		.uleb128 0x17
 2920 000d 11       		.uleb128 0x11
 2921 000e 01       		.uleb128 0x1
 2922 000f 10       		.uleb128 0x10
 2923 0010 17       		.uleb128 0x17
 2924 0011 00       		.byte	0
 2925 0012 00       		.byte	0
 2926 0013 02       		.uleb128 0x2
 2927 0014 24       		.uleb128 0x24
 2928 0015 00       		.byte	0
 2929 0016 0B       		.uleb128 0xb
 2930 0017 0B       		.uleb128 0xb
 2931 0018 3E       		.uleb128 0x3e
 2932 0019 0B       		.uleb128 0xb
 2933 001a 03       		.uleb128 0x3
 2934 001b 08       		.uleb128 0x8
 2935 001c 00       		.byte	0
 2936 001d 00       		.byte	0
 2937 001e 03       		.uleb128 0x3
 2938 001f 16       		.uleb128 0x16
 2939 0020 00       		.byte	0
 2940 0021 03       		.uleb128 0x3
 2941 0022 0E       		.uleb128 0xe
 2942 0023 3A       		.uleb128 0x3a
 2943 0024 0B       		.uleb128 0xb
 2944 0025 3B       		.uleb128 0x3b
 2945 0026 0B       		.uleb128 0xb
 2946 0027 49       		.uleb128 0x49
 2947 0028 13       		.uleb128 0x13
 2948 0029 00       		.byte	0
 2949 002a 00       		.byte	0
 2950 002b 04       		.uleb128 0x4
 2951 002c 24       		.uleb128 0x24
 2952 002d 00       		.byte	0
 2953 002e 0B       		.uleb128 0xb
 2954 002f 0B       		.uleb128 0xb
ARM GAS  /tmp/ccXNyZoG.s 			page 53


 2955 0030 3E       		.uleb128 0x3e
 2956 0031 0B       		.uleb128 0xb
 2957 0032 03       		.uleb128 0x3
 2958 0033 0E       		.uleb128 0xe
 2959 0034 00       		.byte	0
 2960 0035 00       		.byte	0
 2961 0036 05       		.uleb128 0x5
 2962 0037 35       		.uleb128 0x35
 2963 0038 00       		.byte	0
 2964 0039 49       		.uleb128 0x49
 2965 003a 13       		.uleb128 0x13
 2966 003b 00       		.byte	0
 2967 003c 00       		.byte	0
 2968 003d 06       		.uleb128 0x6
 2969 003e 13       		.uleb128 0x13
 2970 003f 01       		.byte	0x1
 2971 0040 03       		.uleb128 0x3
 2972 0041 0E       		.uleb128 0xe
 2973 0042 0B       		.uleb128 0xb
 2974 0043 0B       		.uleb128 0xb
 2975 0044 3A       		.uleb128 0x3a
 2976 0045 0B       		.uleb128 0xb
 2977 0046 3B       		.uleb128 0x3b
 2978 0047 0B       		.uleb128 0xb
 2979 0048 01       		.uleb128 0x1
 2980 0049 13       		.uleb128 0x13
 2981 004a 00       		.byte	0
 2982 004b 00       		.byte	0
 2983 004c 07       		.uleb128 0x7
 2984 004d 0D       		.uleb128 0xd
 2985 004e 00       		.byte	0
 2986 004f 03       		.uleb128 0x3
 2987 0050 0E       		.uleb128 0xe
 2988 0051 3A       		.uleb128 0x3a
 2989 0052 0B       		.uleb128 0xb
 2990 0053 3B       		.uleb128 0x3b
 2991 0054 0B       		.uleb128 0xb
 2992 0055 49       		.uleb128 0x49
 2993 0056 13       		.uleb128 0x13
 2994 0057 38       		.uleb128 0x38
 2995 0058 0B       		.uleb128 0xb
 2996 0059 00       		.byte	0
 2997 005a 00       		.byte	0
 2998 005b 08       		.uleb128 0x8
 2999 005c 0D       		.uleb128 0xd
 3000 005d 00       		.byte	0
 3001 005e 03       		.uleb128 0x3
 3002 005f 08       		.uleb128 0x8
 3003 0060 3A       		.uleb128 0x3a
 3004 0061 0B       		.uleb128 0xb
 3005 0062 3B       		.uleb128 0x3b
 3006 0063 05       		.uleb128 0x5
 3007 0064 49       		.uleb128 0x49
 3008 0065 13       		.uleb128 0x13
 3009 0066 38       		.uleb128 0x38
 3010 0067 0B       		.uleb128 0xb
 3011 0068 00       		.byte	0
ARM GAS  /tmp/ccXNyZoG.s 			page 54


 3012 0069 00       		.byte	0
 3013 006a 09       		.uleb128 0x9
 3014 006b 0D       		.uleb128 0xd
 3015 006c 00       		.byte	0
 3016 006d 03       		.uleb128 0x3
 3017 006e 0E       		.uleb128 0xe
 3018 006f 3A       		.uleb128 0x3a
 3019 0070 0B       		.uleb128 0xb
 3020 0071 3B       		.uleb128 0x3b
 3021 0072 05       		.uleb128 0x5
 3022 0073 49       		.uleb128 0x49
 3023 0074 13       		.uleb128 0x13
 3024 0075 38       		.uleb128 0x38
 3025 0076 0B       		.uleb128 0xb
 3026 0077 00       		.byte	0
 3027 0078 00       		.byte	0
 3028 0079 0A       		.uleb128 0xa
 3029 007a 13       		.uleb128 0x13
 3030 007b 01       		.byte	0x1
 3031 007c 03       		.uleb128 0x3
 3032 007d 0E       		.uleb128 0xe
 3033 007e 0B       		.uleb128 0xb
 3034 007f 0B       		.uleb128 0xb
 3035 0080 3A       		.uleb128 0x3a
 3036 0081 0B       		.uleb128 0xb
 3037 0082 3B       		.uleb128 0x3b
 3038 0083 05       		.uleb128 0x5
 3039 0084 01       		.uleb128 0x1
 3040 0085 13       		.uleb128 0x13
 3041 0086 00       		.byte	0
 3042 0087 00       		.byte	0
 3043 0088 0B       		.uleb128 0xb
 3044 0089 0F       		.uleb128 0xf
 3045 008a 00       		.byte	0
 3046 008b 0B       		.uleb128 0xb
 3047 008c 0B       		.uleb128 0xb
 3048 008d 49       		.uleb128 0x49
 3049 008e 13       		.uleb128 0x13
 3050 008f 00       		.byte	0
 3051 0090 00       		.byte	0
 3052 0091 0C       		.uleb128 0xc
 3053 0092 15       		.uleb128 0x15
 3054 0093 01       		.byte	0x1
 3055 0094 27       		.uleb128 0x27
 3056 0095 19       		.uleb128 0x19
 3057 0096 01       		.uleb128 0x1
 3058 0097 13       		.uleb128 0x13
 3059 0098 00       		.byte	0
 3060 0099 00       		.byte	0
 3061 009a 0D       		.uleb128 0xd
 3062 009b 05       		.uleb128 0x5
 3063 009c 00       		.byte	0
 3064 009d 49       		.uleb128 0x49
 3065 009e 13       		.uleb128 0x13
 3066 009f 00       		.byte	0
 3067 00a0 00       		.byte	0
 3068 00a1 0E       		.uleb128 0xe
ARM GAS  /tmp/ccXNyZoG.s 			page 55


 3069 00a2 0F       		.uleb128 0xf
 3070 00a3 00       		.byte	0
 3071 00a4 0B       		.uleb128 0xb
 3072 00a5 0B       		.uleb128 0xb
 3073 00a6 00       		.byte	0
 3074 00a7 00       		.byte	0
 3075 00a8 0F       		.uleb128 0xf
 3076 00a9 13       		.uleb128 0x13
 3077 00aa 01       		.byte	0x1
 3078 00ab 03       		.uleb128 0x3
 3079 00ac 0E       		.uleb128 0xe
 3080 00ad 0B       		.uleb128 0xb
 3081 00ae 05       		.uleb128 0x5
 3082 00af 3A       		.uleb128 0x3a
 3083 00b0 0B       		.uleb128 0xb
 3084 00b1 3B       		.uleb128 0x3b
 3085 00b2 05       		.uleb128 0x5
 3086 00b3 01       		.uleb128 0x1
 3087 00b4 13       		.uleb128 0x13
 3088 00b5 00       		.byte	0
 3089 00b6 00       		.byte	0
 3090 00b7 10       		.uleb128 0x10
 3091 00b8 0D       		.uleb128 0xd
 3092 00b9 00       		.byte	0
 3093 00ba 03       		.uleb128 0x3
 3094 00bb 08       		.uleb128 0x8
 3095 00bc 3A       		.uleb128 0x3a
 3096 00bd 0B       		.uleb128 0xb
 3097 00be 3B       		.uleb128 0x3b
 3098 00bf 0B       		.uleb128 0xb
 3099 00c0 49       		.uleb128 0x49
 3100 00c1 13       		.uleb128 0x13
 3101 00c2 38       		.uleb128 0x38
 3102 00c3 0B       		.uleb128 0xb
 3103 00c4 00       		.byte	0
 3104 00c5 00       		.byte	0
 3105 00c6 11       		.uleb128 0x11
 3106 00c7 13       		.uleb128 0x13
 3107 00c8 01       		.byte	0x1
 3108 00c9 0B       		.uleb128 0xb
 3109 00ca 0B       		.uleb128 0xb
 3110 00cb 3A       		.uleb128 0x3a
 3111 00cc 0B       		.uleb128 0xb
 3112 00cd 3B       		.uleb128 0x3b
 3113 00ce 0B       		.uleb128 0xb
 3114 00cf 01       		.uleb128 0x1
 3115 00d0 13       		.uleb128 0x13
 3116 00d1 00       		.byte	0
 3117 00d2 00       		.byte	0
 3118 00d3 12       		.uleb128 0x12
 3119 00d4 17       		.uleb128 0x17
 3120 00d5 01       		.byte	0x1
 3121 00d6 0B       		.uleb128 0xb
 3122 00d7 0B       		.uleb128 0xb
 3123 00d8 3A       		.uleb128 0x3a
 3124 00d9 0B       		.uleb128 0xb
 3125 00da 3B       		.uleb128 0x3b
ARM GAS  /tmp/ccXNyZoG.s 			page 56


 3126 00db 0B       		.uleb128 0xb
 3127 00dc 01       		.uleb128 0x1
 3128 00dd 13       		.uleb128 0x13
 3129 00de 00       		.byte	0
 3130 00df 00       		.byte	0
 3131 00e0 13       		.uleb128 0x13
 3132 00e1 0D       		.uleb128 0xd
 3133 00e2 00       		.byte	0
 3134 00e3 03       		.uleb128 0x3
 3135 00e4 0E       		.uleb128 0xe
 3136 00e5 3A       		.uleb128 0x3a
 3137 00e6 0B       		.uleb128 0xb
 3138 00e7 3B       		.uleb128 0x3b
 3139 00e8 0B       		.uleb128 0xb
 3140 00e9 49       		.uleb128 0x49
 3141 00ea 13       		.uleb128 0x13
 3142 00eb 00       		.byte	0
 3143 00ec 00       		.byte	0
 3144 00ed 14       		.uleb128 0x14
 3145 00ee 0D       		.uleb128 0xd
 3146 00ef 00       		.byte	0
 3147 00f0 03       		.uleb128 0x3
 3148 00f1 0E       		.uleb128 0xe
 3149 00f2 3A       		.uleb128 0x3a
 3150 00f3 0B       		.uleb128 0xb
 3151 00f4 3B       		.uleb128 0x3b
 3152 00f5 05       		.uleb128 0x5
 3153 00f6 49       		.uleb128 0x49
 3154 00f7 13       		.uleb128 0x13
 3155 00f8 00       		.byte	0
 3156 00f9 00       		.byte	0
 3157 00fa 15       		.uleb128 0x15
 3158 00fb 26       		.uleb128 0x26
 3159 00fc 00       		.byte	0
 3160 00fd 49       		.uleb128 0x49
 3161 00fe 13       		.uleb128 0x13
 3162 00ff 00       		.byte	0
 3163 0100 00       		.byte	0
 3164 0101 16       		.uleb128 0x16
 3165 0102 01       		.uleb128 0x1
 3166 0103 01       		.byte	0x1
 3167 0104 49       		.uleb128 0x49
 3168 0105 13       		.uleb128 0x13
 3169 0106 01       		.uleb128 0x1
 3170 0107 13       		.uleb128 0x13
 3171 0108 00       		.byte	0
 3172 0109 00       		.byte	0
 3173 010a 17       		.uleb128 0x17
 3174 010b 21       		.uleb128 0x21
 3175 010c 00       		.byte	0
 3176 010d 49       		.uleb128 0x49
 3177 010e 13       		.uleb128 0x13
 3178 010f 2F       		.uleb128 0x2f
 3179 0110 0B       		.uleb128 0xb
 3180 0111 00       		.byte	0
 3181 0112 00       		.byte	0
 3182 0113 18       		.uleb128 0x18
ARM GAS  /tmp/ccXNyZoG.s 			page 57


 3183 0114 2E       		.uleb128 0x2e
 3184 0115 01       		.byte	0x1
 3185 0116 03       		.uleb128 0x3
 3186 0117 0E       		.uleb128 0xe
 3187 0118 3A       		.uleb128 0x3a
 3188 0119 0B       		.uleb128 0xb
 3189 011a 3B       		.uleb128 0x3b
 3190 011b 05       		.uleb128 0x5
 3191 011c 27       		.uleb128 0x27
 3192 011d 19       		.uleb128 0x19
 3193 011e 20       		.uleb128 0x20
 3194 011f 0B       		.uleb128 0xb
 3195 0120 01       		.uleb128 0x1
 3196 0121 13       		.uleb128 0x13
 3197 0122 00       		.byte	0
 3198 0123 00       		.byte	0
 3199 0124 19       		.uleb128 0x19
 3200 0125 05       		.uleb128 0x5
 3201 0126 00       		.byte	0
 3202 0127 03       		.uleb128 0x3
 3203 0128 0E       		.uleb128 0xe
 3204 0129 3A       		.uleb128 0x3a
 3205 012a 0B       		.uleb128 0xb
 3206 012b 3B       		.uleb128 0x3b
 3207 012c 05       		.uleb128 0x5
 3208 012d 49       		.uleb128 0x49
 3209 012e 13       		.uleb128 0x13
 3210 012f 00       		.byte	0
 3211 0130 00       		.byte	0
 3212 0131 1A       		.uleb128 0x1a
 3213 0132 2E       		.uleb128 0x2e
 3214 0133 00       		.byte	0
 3215 0134 03       		.uleb128 0x3
 3216 0135 0E       		.uleb128 0xe
 3217 0136 3A       		.uleb128 0x3a
 3218 0137 0B       		.uleb128 0xb
 3219 0138 3B       		.uleb128 0x3b
 3220 0139 05       		.uleb128 0x5
 3221 013a 27       		.uleb128 0x27
 3222 013b 19       		.uleb128 0x19
 3223 013c 20       		.uleb128 0x20
 3224 013d 0B       		.uleb128 0xb
 3225 013e 00       		.byte	0
 3226 013f 00       		.byte	0
 3227 0140 1B       		.uleb128 0x1b
 3228 0141 05       		.uleb128 0x5
 3229 0142 00       		.byte	0
 3230 0143 03       		.uleb128 0x3
 3231 0144 08       		.uleb128 0x8
 3232 0145 3A       		.uleb128 0x3a
 3233 0146 0B       		.uleb128 0xb
 3234 0147 3B       		.uleb128 0x3b
 3235 0148 05       		.uleb128 0x5
 3236 0149 49       		.uleb128 0x49
 3237 014a 13       		.uleb128 0x13
 3238 014b 00       		.byte	0
 3239 014c 00       		.byte	0
ARM GAS  /tmp/ccXNyZoG.s 			page 58


 3240 014d 1C       		.uleb128 0x1c
 3241 014e 2E       		.uleb128 0x2e
 3242 014f 01       		.byte	0x1
 3243 0150 03       		.uleb128 0x3
 3244 0151 0E       		.uleb128 0xe
 3245 0152 3A       		.uleb128 0x3a
 3246 0153 0B       		.uleb128 0xb
 3247 0154 3B       		.uleb128 0x3b
 3248 0155 05       		.uleb128 0x5
 3249 0156 27       		.uleb128 0x27
 3250 0157 19       		.uleb128 0x19
 3251 0158 49       		.uleb128 0x49
 3252 0159 13       		.uleb128 0x13
 3253 015a 20       		.uleb128 0x20
 3254 015b 0B       		.uleb128 0xb
 3255 015c 01       		.uleb128 0x1
 3256 015d 13       		.uleb128 0x13
 3257 015e 00       		.byte	0
 3258 015f 00       		.byte	0
 3259 0160 1D       		.uleb128 0x1d
 3260 0161 34       		.uleb128 0x34
 3261 0162 00       		.byte	0
 3262 0163 03       		.uleb128 0x3
 3263 0164 0E       		.uleb128 0xe
 3264 0165 49       		.uleb128 0x49
 3265 0166 13       		.uleb128 0x13
 3266 0167 34       		.uleb128 0x34
 3267 0168 19       		.uleb128 0x19
 3268 0169 1C       		.uleb128 0x1c
 3269 016a 0E       		.uleb128 0xe
 3270 016b 00       		.byte	0
 3271 016c 00       		.byte	0
 3272 016d 1E       		.uleb128 0x1e
 3273 016e 2E       		.uleb128 0x2e
 3274 016f 01       		.byte	0x1
 3275 0170 3F       		.uleb128 0x3f
 3276 0171 19       		.uleb128 0x19
 3277 0172 03       		.uleb128 0x3
 3278 0173 0E       		.uleb128 0xe
 3279 0174 3A       		.uleb128 0x3a
 3280 0175 0B       		.uleb128 0xb
 3281 0176 3B       		.uleb128 0x3b
 3282 0177 0B       		.uleb128 0xb
 3283 0178 27       		.uleb128 0x27
 3284 0179 19       		.uleb128 0x19
 3285 017a 11       		.uleb128 0x11
 3286 017b 01       		.uleb128 0x1
 3287 017c 12       		.uleb128 0x12
 3288 017d 06       		.uleb128 0x6
 3289 017e 40       		.uleb128 0x40
 3290 017f 18       		.uleb128 0x18
 3291 0180 9742     		.uleb128 0x2117
 3292 0182 19       		.uleb128 0x19
 3293 0183 01       		.uleb128 0x1
 3294 0184 13       		.uleb128 0x13
 3295 0185 00       		.byte	0
 3296 0186 00       		.byte	0
ARM GAS  /tmp/ccXNyZoG.s 			page 59


 3297 0187 1F       		.uleb128 0x1f
 3298 0188 05       		.uleb128 0x5
 3299 0189 00       		.byte	0
 3300 018a 03       		.uleb128 0x3
 3301 018b 08       		.uleb128 0x8
 3302 018c 3A       		.uleb128 0x3a
 3303 018d 0B       		.uleb128 0xb
 3304 018e 3B       		.uleb128 0x3b
 3305 018f 0B       		.uleb128 0xb
 3306 0190 49       		.uleb128 0x49
 3307 0191 13       		.uleb128 0x13
 3308 0192 02       		.uleb128 0x2
 3309 0193 18       		.uleb128 0x18
 3310 0194 00       		.byte	0
 3311 0195 00       		.byte	0
 3312 0196 20       		.uleb128 0x20
 3313 0197 05       		.uleb128 0x5
 3314 0198 00       		.byte	0
 3315 0199 03       		.uleb128 0x3
 3316 019a 0E       		.uleb128 0xe
 3317 019b 3A       		.uleb128 0x3a
 3318 019c 0B       		.uleb128 0xb
 3319 019d 3B       		.uleb128 0x3b
 3320 019e 0B       		.uleb128 0xb
 3321 019f 49       		.uleb128 0x49
 3322 01a0 13       		.uleb128 0x13
 3323 01a1 02       		.uleb128 0x2
 3324 01a2 17       		.uleb128 0x17
 3325 01a3 00       		.byte	0
 3326 01a4 00       		.byte	0
 3327 01a5 21       		.uleb128 0x21
 3328 01a6 05       		.uleb128 0x5
 3329 01a7 00       		.byte	0
 3330 01a8 03       		.uleb128 0x3
 3331 01a9 0E       		.uleb128 0xe
 3332 01aa 3A       		.uleb128 0x3a
 3333 01ab 0B       		.uleb128 0xb
 3334 01ac 3B       		.uleb128 0x3b
 3335 01ad 0B       		.uleb128 0xb
 3336 01ae 49       		.uleb128 0x49
 3337 01af 13       		.uleb128 0x13
 3338 01b0 02       		.uleb128 0x2
 3339 01b1 18       		.uleb128 0x18
 3340 01b2 00       		.byte	0
 3341 01b3 00       		.byte	0
 3342 01b4 22       		.uleb128 0x22
 3343 01b5 1D       		.uleb128 0x1d
 3344 01b6 01       		.byte	0x1
 3345 01b7 31       		.uleb128 0x31
 3346 01b8 13       		.uleb128 0x13
 3347 01b9 11       		.uleb128 0x11
 3348 01ba 01       		.uleb128 0x1
 3349 01bb 12       		.uleb128 0x12
 3350 01bc 06       		.uleb128 0x6
 3351 01bd 58       		.uleb128 0x58
 3352 01be 0B       		.uleb128 0xb
 3353 01bf 59       		.uleb128 0x59
ARM GAS  /tmp/ccXNyZoG.s 			page 60


 3354 01c0 0B       		.uleb128 0xb
 3355 01c1 00       		.byte	0
 3356 01c2 00       		.byte	0
 3357 01c3 23       		.uleb128 0x23
 3358 01c4 05       		.uleb128 0x5
 3359 01c5 00       		.byte	0
 3360 01c6 31       		.uleb128 0x31
 3361 01c7 13       		.uleb128 0x13
 3362 01c8 02       		.uleb128 0x2
 3363 01c9 18       		.uleb128 0x18
 3364 01ca 00       		.byte	0
 3365 01cb 00       		.byte	0
 3366 01cc 24       		.uleb128 0x24
 3367 01cd 1D       		.uleb128 0x1d
 3368 01ce 01       		.byte	0x1
 3369 01cf 31       		.uleb128 0x31
 3370 01d0 13       		.uleb128 0x13
 3371 01d1 11       		.uleb128 0x11
 3372 01d2 01       		.uleb128 0x1
 3373 01d3 12       		.uleb128 0x12
 3374 01d4 06       		.uleb128 0x6
 3375 01d5 58       		.uleb128 0x58
 3376 01d6 0B       		.uleb128 0xb
 3377 01d7 59       		.uleb128 0x59
 3378 01d8 05       		.uleb128 0x5
 3379 01d9 00       		.byte	0
 3380 01da 00       		.byte	0
 3381 01db 25       		.uleb128 0x25
 3382 01dc 05       		.uleb128 0x5
 3383 01dd 00       		.byte	0
 3384 01de 03       		.uleb128 0x3
 3385 01df 08       		.uleb128 0x8
 3386 01e0 3A       		.uleb128 0x3a
 3387 01e1 0B       		.uleb128 0xb
 3388 01e2 3B       		.uleb128 0x3b
 3389 01e3 0B       		.uleb128 0xb
 3390 01e4 49       		.uleb128 0x49
 3391 01e5 13       		.uleb128 0x13
 3392 01e6 02       		.uleb128 0x2
 3393 01e7 17       		.uleb128 0x17
 3394 01e8 00       		.byte	0
 3395 01e9 00       		.byte	0
 3396 01ea 26       		.uleb128 0x26
 3397 01eb 898201   		.uleb128 0x4109
 3398 01ee 01       		.byte	0x1
 3399 01ef 11       		.uleb128 0x11
 3400 01f0 01       		.uleb128 0x1
 3401 01f1 9542     		.uleb128 0x2115
 3402 01f3 19       		.uleb128 0x19
 3403 01f4 31       		.uleb128 0x31
 3404 01f5 13       		.uleb128 0x13
 3405 01f6 00       		.byte	0
 3406 01f7 00       		.byte	0
 3407 01f8 27       		.uleb128 0x27
 3408 01f9 8A8201   		.uleb128 0x410a
 3409 01fc 00       		.byte	0
 3410 01fd 02       		.uleb128 0x2
ARM GAS  /tmp/ccXNyZoG.s 			page 61


 3411 01fe 18       		.uleb128 0x18
 3412 01ff 9142     		.uleb128 0x2111
 3413 0201 18       		.uleb128 0x18
 3414 0202 00       		.byte	0
 3415 0203 00       		.byte	0
 3416 0204 28       		.uleb128 0x28
 3417 0205 2E       		.uleb128 0x2e
 3418 0206 01       		.byte	0x1
 3419 0207 3F       		.uleb128 0x3f
 3420 0208 19       		.uleb128 0x19
 3421 0209 03       		.uleb128 0x3
 3422 020a 0E       		.uleb128 0xe
 3423 020b 3A       		.uleb128 0x3a
 3424 020c 0B       		.uleb128 0xb
 3425 020d 3B       		.uleb128 0x3b
 3426 020e 0B       		.uleb128 0xb
 3427 020f 27       		.uleb128 0x27
 3428 0210 19       		.uleb128 0x19
 3429 0211 49       		.uleb128 0x49
 3430 0212 13       		.uleb128 0x13
 3431 0213 11       		.uleb128 0x11
 3432 0214 01       		.uleb128 0x1
 3433 0215 12       		.uleb128 0x12
 3434 0216 06       		.uleb128 0x6
 3435 0217 40       		.uleb128 0x40
 3436 0218 18       		.uleb128 0x18
 3437 0219 9742     		.uleb128 0x2117
 3438 021b 19       		.uleb128 0x19
 3439 021c 01       		.uleb128 0x1
 3440 021d 13       		.uleb128 0x13
 3441 021e 00       		.byte	0
 3442 021f 00       		.byte	0
 3443 0220 29       		.uleb128 0x29
 3444 0221 1D       		.uleb128 0x1d
 3445 0222 01       		.byte	0x1
 3446 0223 31       		.uleb128 0x31
 3447 0224 13       		.uleb128 0x13
 3448 0225 52       		.uleb128 0x52
 3449 0226 01       		.uleb128 0x1
 3450 0227 55       		.uleb128 0x55
 3451 0228 17       		.uleb128 0x17
 3452 0229 58       		.uleb128 0x58
 3453 022a 0B       		.uleb128 0xb
 3454 022b 59       		.uleb128 0x59
 3455 022c 0B       		.uleb128 0xb
 3456 022d 01       		.uleb128 0x1
 3457 022e 13       		.uleb128 0x13
 3458 022f 00       		.byte	0
 3459 0230 00       		.byte	0
 3460 0231 2A       		.uleb128 0x2a
 3461 0232 05       		.uleb128 0x5
 3462 0233 00       		.byte	0
 3463 0234 31       		.uleb128 0x31
 3464 0235 13       		.uleb128 0x13
 3465 0236 02       		.uleb128 0x2
 3466 0237 17       		.uleb128 0x17
 3467 0238 00       		.byte	0
ARM GAS  /tmp/ccXNyZoG.s 			page 62


 3468 0239 00       		.byte	0
 3469 023a 2B       		.uleb128 0x2b
 3470 023b 898201   		.uleb128 0x4109
 3471 023e 01       		.byte	0x1
 3472 023f 11       		.uleb128 0x11
 3473 0240 01       		.uleb128 0x1
 3474 0241 31       		.uleb128 0x31
 3475 0242 13       		.uleb128 0x13
 3476 0243 00       		.byte	0
 3477 0244 00       		.byte	0
 3478 0245 2C       		.uleb128 0x2c
 3479 0246 34       		.uleb128 0x34
 3480 0247 00       		.byte	0
 3481 0248 03       		.uleb128 0x3
 3482 0249 08       		.uleb128 0x8
 3483 024a 3A       		.uleb128 0x3a
 3484 024b 0B       		.uleb128 0xb
 3485 024c 3B       		.uleb128 0x3b
 3486 024d 0B       		.uleb128 0xb
 3487 024e 49       		.uleb128 0x49
 3488 024f 13       		.uleb128 0x13
 3489 0250 02       		.uleb128 0x2
 3490 0251 17       		.uleb128 0x17
 3491 0252 00       		.byte	0
 3492 0253 00       		.byte	0
 3493 0254 2D       		.uleb128 0x2d
 3494 0255 1D       		.uleb128 0x1d
 3495 0256 01       		.byte	0x1
 3496 0257 31       		.uleb128 0x31
 3497 0258 13       		.uleb128 0x13
 3498 0259 52       		.uleb128 0x52
 3499 025a 01       		.uleb128 0x1
 3500 025b 55       		.uleb128 0x55
 3501 025c 17       		.uleb128 0x17
 3502 025d 58       		.uleb128 0x58
 3503 025e 0B       		.uleb128 0xb
 3504 025f 59       		.uleb128 0x59
 3505 0260 05       		.uleb128 0x5
 3506 0261 00       		.byte	0
 3507 0262 00       		.byte	0
 3508 0263 2E       		.uleb128 0x2e
 3509 0264 05       		.uleb128 0x5
 3510 0265 00       		.byte	0
 3511 0266 31       		.uleb128 0x31
 3512 0267 13       		.uleb128 0x13
 3513 0268 1C       		.uleb128 0x1c
 3514 0269 0B       		.uleb128 0xb
 3515 026a 00       		.byte	0
 3516 026b 00       		.byte	0
 3517 026c 2F       		.uleb128 0x2f
 3518 026d 0B       		.uleb128 0xb
 3519 026e 01       		.byte	0x1
 3520 026f 55       		.uleb128 0x55
 3521 0270 17       		.uleb128 0x17
 3522 0271 01       		.uleb128 0x1
 3523 0272 13       		.uleb128 0x13
 3524 0273 00       		.byte	0
ARM GAS  /tmp/ccXNyZoG.s 			page 63


 3525 0274 00       		.byte	0
 3526 0275 30       		.uleb128 0x30
 3527 0276 1D       		.uleb128 0x1d
 3528 0277 01       		.byte	0x1
 3529 0278 31       		.uleb128 0x31
 3530 0279 13       		.uleb128 0x13
 3531 027a 11       		.uleb128 0x11
 3532 027b 01       		.uleb128 0x1
 3533 027c 12       		.uleb128 0x12
 3534 027d 06       		.uleb128 0x6
 3535 027e 58       		.uleb128 0x58
 3536 027f 0B       		.uleb128 0xb
 3537 0280 59       		.uleb128 0x59
 3538 0281 0B       		.uleb128 0xb
 3539 0282 01       		.uleb128 0x1
 3540 0283 13       		.uleb128 0x13
 3541 0284 00       		.byte	0
 3542 0285 00       		.byte	0
 3543 0286 31       		.uleb128 0x31
 3544 0287 0B       		.uleb128 0xb
 3545 0288 01       		.byte	0x1
 3546 0289 11       		.uleb128 0x11
 3547 028a 01       		.uleb128 0x1
 3548 028b 12       		.uleb128 0x12
 3549 028c 06       		.uleb128 0x6
 3550 028d 00       		.byte	0
 3551 028e 00       		.byte	0
 3552 028f 32       		.uleb128 0x32
 3553 0290 34       		.uleb128 0x34
 3554 0291 00       		.byte	0
 3555 0292 31       		.uleb128 0x31
 3556 0293 13       		.uleb128 0x13
 3557 0294 00       		.byte	0
 3558 0295 00       		.byte	0
 3559 0296 33       		.uleb128 0x33
 3560 0297 898201   		.uleb128 0x4109
 3561 029a 00       		.byte	0
 3562 029b 11       		.uleb128 0x11
 3563 029c 01       		.uleb128 0x1
 3564 029d 31       		.uleb128 0x31
 3565 029e 13       		.uleb128 0x13
 3566 029f 00       		.byte	0
 3567 02a0 00       		.byte	0
 3568 02a1 34       		.uleb128 0x34
 3569 02a2 898201   		.uleb128 0x4109
 3570 02a5 01       		.byte	0x1
 3571 02a6 11       		.uleb128 0x11
 3572 02a7 01       		.uleb128 0x1
 3573 02a8 00       		.byte	0
 3574 02a9 00       		.byte	0
 3575 02aa 35       		.uleb128 0x35
 3576 02ab 34       		.uleb128 0x34
 3577 02ac 00       		.byte	0
 3578 02ad 03       		.uleb128 0x3
 3579 02ae 08       		.uleb128 0x8
 3580 02af 3A       		.uleb128 0x3a
 3581 02b0 0B       		.uleb128 0xb
ARM GAS  /tmp/ccXNyZoG.s 			page 64


 3582 02b1 3B       		.uleb128 0x3b
 3583 02b2 0B       		.uleb128 0xb
 3584 02b3 49       		.uleb128 0x49
 3585 02b4 13       		.uleb128 0x13
 3586 02b5 02       		.uleb128 0x2
 3587 02b6 18       		.uleb128 0x18
 3588 02b7 00       		.byte	0
 3589 02b8 00       		.byte	0
 3590 02b9 36       		.uleb128 0x36
 3591 02ba 34       		.uleb128 0x34
 3592 02bb 00       		.byte	0
 3593 02bc 03       		.uleb128 0x3
 3594 02bd 0E       		.uleb128 0xe
 3595 02be 49       		.uleb128 0x49
 3596 02bf 13       		.uleb128 0x13
 3597 02c0 34       		.uleb128 0x34
 3598 02c1 19       		.uleb128 0x19
 3599 02c2 00       		.byte	0
 3600 02c3 00       		.byte	0
 3601 02c4 37       		.uleb128 0x37
 3602 02c5 898201   		.uleb128 0x4109
 3603 02c8 01       		.byte	0x1
 3604 02c9 11       		.uleb128 0x11
 3605 02ca 01       		.uleb128 0x1
 3606 02cb 01       		.uleb128 0x1
 3607 02cc 13       		.uleb128 0x13
 3608 02cd 00       		.byte	0
 3609 02ce 00       		.byte	0
 3610 02cf 38       		.uleb128 0x38
 3611 02d0 2E       		.uleb128 0x2e
 3612 02d1 01       		.byte	0x1
 3613 02d2 3F       		.uleb128 0x3f
 3614 02d3 19       		.uleb128 0x19
 3615 02d4 03       		.uleb128 0x3
 3616 02d5 0E       		.uleb128 0xe
 3617 02d6 3A       		.uleb128 0x3a
 3618 02d7 0B       		.uleb128 0xb
 3619 02d8 3B       		.uleb128 0x3b
 3620 02d9 05       		.uleb128 0x5
 3621 02da 27       		.uleb128 0x27
 3622 02db 19       		.uleb128 0x19
 3623 02dc 11       		.uleb128 0x11
 3624 02dd 01       		.uleb128 0x1
 3625 02de 12       		.uleb128 0x12
 3626 02df 06       		.uleb128 0x6
 3627 02e0 40       		.uleb128 0x40
 3628 02e1 18       		.uleb128 0x18
 3629 02e2 9742     		.uleb128 0x2117
 3630 02e4 19       		.uleb128 0x19
 3631 02e5 01       		.uleb128 0x1
 3632 02e6 13       		.uleb128 0x13
 3633 02e7 00       		.byte	0
 3634 02e8 00       		.byte	0
 3635 02e9 39       		.uleb128 0x39
 3636 02ea 05       		.uleb128 0x5
 3637 02eb 00       		.byte	0
 3638 02ec 03       		.uleb128 0x3
ARM GAS  /tmp/ccXNyZoG.s 			page 65


 3639 02ed 08       		.uleb128 0x8
 3640 02ee 3A       		.uleb128 0x3a
 3641 02ef 0B       		.uleb128 0xb
 3642 02f0 3B       		.uleb128 0x3b
 3643 02f1 05       		.uleb128 0x5
 3644 02f2 49       		.uleb128 0x49
 3645 02f3 13       		.uleb128 0x13
 3646 02f4 02       		.uleb128 0x2
 3647 02f5 18       		.uleb128 0x18
 3648 02f6 00       		.byte	0
 3649 02f7 00       		.byte	0
 3650 02f8 3A       		.uleb128 0x3a
 3651 02f9 05       		.uleb128 0x5
 3652 02fa 00       		.byte	0
 3653 02fb 03       		.uleb128 0x3
 3654 02fc 0E       		.uleb128 0xe
 3655 02fd 3A       		.uleb128 0x3a
 3656 02fe 0B       		.uleb128 0xb
 3657 02ff 3B       		.uleb128 0x3b
 3658 0300 05       		.uleb128 0x5
 3659 0301 49       		.uleb128 0x49
 3660 0302 13       		.uleb128 0x13
 3661 0303 02       		.uleb128 0x2
 3662 0304 18       		.uleb128 0x18
 3663 0305 00       		.byte	0
 3664 0306 00       		.byte	0
 3665 0307 3B       		.uleb128 0x3b
 3666 0308 05       		.uleb128 0x5
 3667 0309 00       		.byte	0
 3668 030a 03       		.uleb128 0x3
 3669 030b 0E       		.uleb128 0xe
 3670 030c 3A       		.uleb128 0x3a
 3671 030d 0B       		.uleb128 0xb
 3672 030e 3B       		.uleb128 0x3b
 3673 030f 05       		.uleb128 0x5
 3674 0310 49       		.uleb128 0x49
 3675 0311 13       		.uleb128 0x13
 3676 0312 02       		.uleb128 0x2
 3677 0313 17       		.uleb128 0x17
 3678 0314 00       		.byte	0
 3679 0315 00       		.byte	0
 3680 0316 3C       		.uleb128 0x3c
 3681 0317 05       		.uleb128 0x5
 3682 0318 00       		.byte	0
 3683 0319 03       		.uleb128 0x3
 3684 031a 08       		.uleb128 0x8
 3685 031b 3A       		.uleb128 0x3a
 3686 031c 0B       		.uleb128 0xb
 3687 031d 3B       		.uleb128 0x3b
 3688 031e 05       		.uleb128 0x5
 3689 031f 49       		.uleb128 0x49
 3690 0320 13       		.uleb128 0x13
 3691 0321 02       		.uleb128 0x2
 3692 0322 17       		.uleb128 0x17
 3693 0323 00       		.byte	0
 3694 0324 00       		.byte	0
 3695 0325 3D       		.uleb128 0x3d
ARM GAS  /tmp/ccXNyZoG.s 			page 66


 3696 0326 2E       		.uleb128 0x2e
 3697 0327 01       		.byte	0x1
 3698 0328 3F       		.uleb128 0x3f
 3699 0329 19       		.uleb128 0x19
 3700 032a 03       		.uleb128 0x3
 3701 032b 0E       		.uleb128 0xe
 3702 032c 3A       		.uleb128 0x3a
 3703 032d 0B       		.uleb128 0xb
 3704 032e 3B       		.uleb128 0x3b
 3705 032f 05       		.uleb128 0x5
 3706 0330 27       		.uleb128 0x27
 3707 0331 19       		.uleb128 0x19
 3708 0332 49       		.uleb128 0x49
 3709 0333 13       		.uleb128 0x13
 3710 0334 11       		.uleb128 0x11
 3711 0335 01       		.uleb128 0x1
 3712 0336 12       		.uleb128 0x12
 3713 0337 06       		.uleb128 0x6
 3714 0338 40       		.uleb128 0x40
 3715 0339 18       		.uleb128 0x18
 3716 033a 9742     		.uleb128 0x2117
 3717 033c 19       		.uleb128 0x19
 3718 033d 01       		.uleb128 0x1
 3719 033e 13       		.uleb128 0x13
 3720 033f 00       		.byte	0
 3721 0340 00       		.byte	0
 3722 0341 3E       		.uleb128 0x3e
 3723 0342 1D       		.uleb128 0x1d
 3724 0343 01       		.byte	0x1
 3725 0344 31       		.uleb128 0x31
 3726 0345 13       		.uleb128 0x13
 3727 0346 11       		.uleb128 0x11
 3728 0347 01       		.uleb128 0x1
 3729 0348 12       		.uleb128 0x12
 3730 0349 06       		.uleb128 0x6
 3731 034a 58       		.uleb128 0x58
 3732 034b 0B       		.uleb128 0xb
 3733 034c 59       		.uleb128 0x59
 3734 034d 05       		.uleb128 0x5
 3735 034e 01       		.uleb128 0x1
 3736 034f 13       		.uleb128 0x13
 3737 0350 00       		.byte	0
 3738 0351 00       		.byte	0
 3739 0352 3F       		.uleb128 0x3f
 3740 0353 34       		.uleb128 0x34
 3741 0354 00       		.byte	0
 3742 0355 03       		.uleb128 0x3
 3743 0356 08       		.uleb128 0x8
 3744 0357 3A       		.uleb128 0x3a
 3745 0358 0B       		.uleb128 0xb
 3746 0359 3B       		.uleb128 0x3b
 3747 035a 05       		.uleb128 0x5
 3748 035b 49       		.uleb128 0x49
 3749 035c 13       		.uleb128 0x13
 3750 035d 02       		.uleb128 0x2
 3751 035e 17       		.uleb128 0x17
 3752 035f 00       		.byte	0
ARM GAS  /tmp/ccXNyZoG.s 			page 67


 3753 0360 00       		.byte	0
 3754 0361 40       		.uleb128 0x40
 3755 0362 1D       		.uleb128 0x1d
 3756 0363 01       		.byte	0x1
 3757 0364 31       		.uleb128 0x31
 3758 0365 13       		.uleb128 0x13
 3759 0366 52       		.uleb128 0x52
 3760 0367 01       		.uleb128 0x1
 3761 0368 55       		.uleb128 0x55
 3762 0369 17       		.uleb128 0x17
 3763 036a 58       		.uleb128 0x58
 3764 036b 0B       		.uleb128 0xb
 3765 036c 59       		.uleb128 0x59
 3766 036d 05       		.uleb128 0x5
 3767 036e 01       		.uleb128 0x1
 3768 036f 13       		.uleb128 0x13
 3769 0370 00       		.byte	0
 3770 0371 00       		.byte	0
 3771 0372 41       		.uleb128 0x41
 3772 0373 34       		.uleb128 0x34
 3773 0374 00       		.byte	0
 3774 0375 03       		.uleb128 0x3
 3775 0376 08       		.uleb128 0x8
 3776 0377 3A       		.uleb128 0x3a
 3777 0378 0B       		.uleb128 0xb
 3778 0379 3B       		.uleb128 0x3b
 3779 037a 05       		.uleb128 0x5
 3780 037b 49       		.uleb128 0x49
 3781 037c 13       		.uleb128 0x13
 3782 037d 02       		.uleb128 0x2
 3783 037e 18       		.uleb128 0x18
 3784 037f 00       		.byte	0
 3785 0380 00       		.byte	0
 3786 0381 42       		.uleb128 0x42
 3787 0382 0B       		.uleb128 0xb
 3788 0383 01       		.byte	0x1
 3789 0384 55       		.uleb128 0x55
 3790 0385 17       		.uleb128 0x17
 3791 0386 00       		.byte	0
 3792 0387 00       		.byte	0
 3793 0388 43       		.uleb128 0x43
 3794 0389 34       		.uleb128 0x34
 3795 038a 00       		.byte	0
 3796 038b 03       		.uleb128 0x3
 3797 038c 0E       		.uleb128 0xe
 3798 038d 3A       		.uleb128 0x3a
 3799 038e 0B       		.uleb128 0xb
 3800 038f 3B       		.uleb128 0x3b
 3801 0390 05       		.uleb128 0x5
 3802 0391 49       		.uleb128 0x49
 3803 0392 13       		.uleb128 0x13
 3804 0393 3F       		.uleb128 0x3f
 3805 0394 19       		.uleb128 0x19
 3806 0395 3C       		.uleb128 0x3c
 3807 0396 19       		.uleb128 0x19
 3808 0397 00       		.byte	0
 3809 0398 00       		.byte	0
ARM GAS  /tmp/ccXNyZoG.s 			page 68


 3810 0399 44       		.uleb128 0x44
 3811 039a 34       		.uleb128 0x34
 3812 039b 00       		.byte	0
 3813 039c 03       		.uleb128 0x3
 3814 039d 08       		.uleb128 0x8
 3815 039e 3A       		.uleb128 0x3a
 3816 039f 0B       		.uleb128 0xb
 3817 03a0 3B       		.uleb128 0x3b
 3818 03a1 05       		.uleb128 0x5
 3819 03a2 49       		.uleb128 0x49
 3820 03a3 13       		.uleb128 0x13
 3821 03a4 3F       		.uleb128 0x3f
 3822 03a5 19       		.uleb128 0x19
 3823 03a6 3C       		.uleb128 0x3c
 3824 03a7 19       		.uleb128 0x19
 3825 03a8 00       		.byte	0
 3826 03a9 00       		.byte	0
 3827 03aa 45       		.uleb128 0x45
 3828 03ab 2E       		.uleb128 0x2e
 3829 03ac 01       		.byte	0x1
 3830 03ad 3F       		.uleb128 0x3f
 3831 03ae 19       		.uleb128 0x19
 3832 03af 03       		.uleb128 0x3
 3833 03b0 0E       		.uleb128 0xe
 3834 03b1 3A       		.uleb128 0x3a
 3835 03b2 0B       		.uleb128 0xb
 3836 03b3 3B       		.uleb128 0x3b
 3837 03b4 0B       		.uleb128 0xb
 3838 03b5 27       		.uleb128 0x27
 3839 03b6 19       		.uleb128 0x19
 3840 03b7 3C       		.uleb128 0x3c
 3841 03b8 19       		.uleb128 0x19
 3842 03b9 01       		.uleb128 0x1
 3843 03ba 13       		.uleb128 0x13
 3844 03bb 00       		.byte	0
 3845 03bc 00       		.byte	0
 3846 03bd 46       		.uleb128 0x46
 3847 03be 2E       		.uleb128 0x2e
 3848 03bf 01       		.byte	0x1
 3849 03c0 3F       		.uleb128 0x3f
 3850 03c1 19       		.uleb128 0x19
 3851 03c2 03       		.uleb128 0x3
 3852 03c3 0E       		.uleb128 0xe
 3853 03c4 3A       		.uleb128 0x3a
 3854 03c5 0B       		.uleb128 0xb
 3855 03c6 3B       		.uleb128 0x3b
 3856 03c7 0B       		.uleb128 0xb
 3857 03c8 27       		.uleb128 0x27
 3858 03c9 19       		.uleb128 0x19
 3859 03ca 49       		.uleb128 0x49
 3860 03cb 13       		.uleb128 0x13
 3861 03cc 3C       		.uleb128 0x3c
 3862 03cd 19       		.uleb128 0x19
 3863 03ce 00       		.byte	0
 3864 03cf 00       		.byte	0
 3865 03d0 00       		.byte	0
 3866              		.section	.debug_loc,"",%progbits
ARM GAS  /tmp/ccXNyZoG.s 			page 69


 3867              	.Ldebug_loc0:
 3868              	.LLST0:
 3869 0000 00000000 		.4byte	.LVL0
 3870 0004 0A000000 		.4byte	.LVL1
 3871 0008 0100     		.2byte	0x1
 3872 000a 52       		.byte	0x52
 3873 000b 0A000000 		.4byte	.LVL1
 3874 000f 1E000000 		.4byte	.LFE226
 3875 0013 0400     		.2byte	0x4
 3876 0015 F3       		.byte	0xf3
 3877 0016 01       		.uleb128 0x1
 3878 0017 52       		.byte	0x52
 3879 0018 9F       		.byte	0x9f
 3880 0019 00000000 		.4byte	0
 3881 001d 00000000 		.4byte	0
 3882              	.LLST1:
 3883 0021 00000000 		.4byte	.LVL0
 3884 0025 1C000000 		.4byte	.LVL2
 3885 0029 0200     		.2byte	0x2
 3886 002b 91       		.byte	0x91
 3887 002c 00       		.sleb128 0
 3888 002d 1C000000 		.4byte	.LVL2
 3889 0031 1E000000 		.4byte	.LFE226
 3890 0035 0200     		.2byte	0x2
 3891 0037 7D       		.byte	0x7d
 3892 0038 00       		.sleb128 0
 3893 0039 00000000 		.4byte	0
 3894 003d 00000000 		.4byte	0
 3895              	.LLST2:
 3896 0041 00000000 		.4byte	.LVL3
 3897 0045 11000000 		.4byte	.LVL4-1
 3898 0049 0100     		.2byte	0x1
 3899 004b 50       		.byte	0x50
 3900 004c 11000000 		.4byte	.LVL4-1
 3901 0050 12000000 		.4byte	.LFE227
 3902 0054 0400     		.2byte	0x4
 3903 0056 F3       		.byte	0xf3
 3904 0057 01       		.uleb128 0x1
 3905 0058 50       		.byte	0x50
 3906 0059 9F       		.byte	0x9f
 3907 005a 00000000 		.4byte	0
 3908 005e 00000000 		.4byte	0
 3909              	.LLST3:
 3910 0062 00000000 		.4byte	.LVL5
 3911 0066 27000000 		.4byte	.LVL7-1
 3912 006a 0100     		.2byte	0x1
 3913 006c 50       		.byte	0x50
 3914 006d 27000000 		.4byte	.LVL7-1
 3915 0071 2C000000 		.4byte	.LVL8
 3916 0075 0400     		.2byte	0x4
 3917 0077 F3       		.byte	0xf3
 3918 0078 01       		.uleb128 0x1
 3919 0079 50       		.byte	0x50
 3920 007a 9F       		.byte	0x9f
 3921 007b 2C000000 		.4byte	.LVL8
 3922 007f 34000000 		.4byte	.LVL9
 3923 0083 0100     		.2byte	0x1
ARM GAS  /tmp/ccXNyZoG.s 			page 70


 3924 0085 50       		.byte	0x50
 3925 0086 34000000 		.4byte	.LVL9
 3926 008a 36000000 		.4byte	.LFE228
 3927 008e 0400     		.2byte	0x4
 3928 0090 F3       		.byte	0xf3
 3929 0091 01       		.uleb128 0x1
 3930 0092 50       		.byte	0x50
 3931 0093 9F       		.byte	0x9f
 3932 0094 00000000 		.4byte	0
 3933 0098 00000000 		.4byte	0
 3934              	.LLST4:
 3935 009c 00000000 		.4byte	.LVL5
 3936 00a0 24000000 		.4byte	.LVL6
 3937 00a4 0100     		.2byte	0x1
 3938 00a6 51       		.byte	0x51
 3939 00a7 24000000 		.4byte	.LVL6
 3940 00ab 2C000000 		.4byte	.LVL8
 3941 00af 0400     		.2byte	0x4
 3942 00b1 F3       		.byte	0xf3
 3943 00b2 01       		.uleb128 0x1
 3944 00b3 51       		.byte	0x51
 3945 00b4 9F       		.byte	0x9f
 3946 00b5 2C000000 		.4byte	.LVL8
 3947 00b9 36000000 		.4byte	.LFE228
 3948 00bd 0100     		.2byte	0x1
 3949 00bf 51       		.byte	0x51
 3950 00c0 00000000 		.4byte	0
 3951 00c4 00000000 		.4byte	0
 3952              	.LLST6:
 3953 00c8 00000000 		.4byte	.LVL10
 3954 00cc 11000000 		.4byte	.LVL11-1
 3955 00d0 0100     		.2byte	0x1
 3956 00d2 50       		.byte	0x50
 3957 00d3 11000000 		.4byte	.LVL11-1
 3958 00d7 14000000 		.4byte	.LVL12
 3959 00db 0100     		.2byte	0x1
 3960 00dd 54       		.byte	0x54
 3961 00de 14000000 		.4byte	.LVL12
 3962 00e2 17000000 		.4byte	.LVL13-1
 3963 00e6 0100     		.2byte	0x1
 3964 00e8 50       		.byte	0x50
 3965 00e9 17000000 		.4byte	.LVL13-1
 3966 00ed 26000000 		.4byte	.LVL16
 3967 00f1 0100     		.2byte	0x1
 3968 00f3 54       		.byte	0x54
 3969 00f4 26000000 		.4byte	.LVL16
 3970 00f8 3C000000 		.4byte	.LVL18
 3971 00fc 0100     		.2byte	0x1
 3972 00fe 50       		.byte	0x50
 3973 00ff 3C000000 		.4byte	.LVL18
 3974 0103 4E000000 		.4byte	.LFE229
 3975 0107 0100     		.2byte	0x1
 3976 0109 54       		.byte	0x54
 3977 010a 00000000 		.4byte	0
 3978 010e 00000000 		.4byte	0
 3979              	.LLST7:
 3980 0112 00000000 		.4byte	.LVL10
ARM GAS  /tmp/ccXNyZoG.s 			page 71


 3981 0116 11000000 		.4byte	.LVL11-1
 3982 011a 0100     		.2byte	0x1
 3983 011c 51       		.byte	0x51
 3984 011d 11000000 		.4byte	.LVL11-1
 3985 0121 14000000 		.4byte	.LVL12
 3986 0125 0100     		.2byte	0x1
 3987 0127 56       		.byte	0x56
 3988 0128 14000000 		.4byte	.LVL12
 3989 012c 17000000 		.4byte	.LVL13-1
 3990 0130 0100     		.2byte	0x1
 3991 0132 51       		.byte	0x51
 3992 0133 17000000 		.4byte	.LVL13-1
 3993 0137 26000000 		.4byte	.LVL16
 3994 013b 0100     		.2byte	0x1
 3995 013d 56       		.byte	0x56
 3996 013e 26000000 		.4byte	.LVL16
 3997 0142 2A000000 		.4byte	.LVL17
 3998 0146 0100     		.2byte	0x1
 3999 0148 51       		.byte	0x51
 4000 0149 2A000000 		.4byte	.LVL17
 4001 014d 4E000000 		.4byte	.LFE229
 4002 0151 0100     		.2byte	0x1
 4003 0153 56       		.byte	0x56
 4004 0154 00000000 		.4byte	0
 4005 0158 00000000 		.4byte	0
 4006              	.LLST8:
 4007 015c 3C000000 		.4byte	.LVL18
 4008 0160 40000000 		.4byte	.LVL19
 4009 0164 0200     		.2byte	0x2
 4010 0166 72       		.byte	0x72
 4011 0167 00       		.sleb128 0
 4012 0168 40000000 		.4byte	.LVL19
 4013 016c 48000000 		.4byte	.LVL20
 4014 0170 0100     		.2byte	0x1
 4015 0172 50       		.byte	0x50
 4016 0173 00000000 		.4byte	0
 4017 0177 00000000 		.4byte	0
 4018              	.LLST9:
 4019 017b 18000000 		.4byte	.LVL13
 4020 017f 1C000000 		.4byte	.LVL14
 4021 0183 0100     		.2byte	0x1
 4022 0185 50       		.byte	0x50
 4023 0186 48000000 		.4byte	.LVL20
 4024 018a 4E000000 		.4byte	.LFE229
 4025 018e 0100     		.2byte	0x1
 4026 0190 50       		.byte	0x50
 4027 0191 00000000 		.4byte	0
 4028 0195 00000000 		.4byte	0
 4029              	.LLST10:
 4030 0199 40000000 		.4byte	.LVL19
 4031 019d 48000000 		.4byte	.LVL20
 4032 01a1 0200     		.2byte	0x2
 4033 01a3 30       		.byte	0x30
 4034 01a4 9F       		.byte	0x9f
 4035 01a5 00000000 		.4byte	0
 4036 01a9 00000000 		.4byte	0
 4037              	.LLST11:
ARM GAS  /tmp/ccXNyZoG.s 			page 72


 4038 01ad 00000000 		.4byte	.LVL21
 4039 01b1 26000000 		.4byte	.LVL24
 4040 01b5 0100     		.2byte	0x1
 4041 01b7 50       		.byte	0x50
 4042 01b8 26000000 		.4byte	.LVL24
 4043 01bc 2A000000 		.4byte	.LVL26
 4044 01c0 0100     		.2byte	0x1
 4045 01c2 54       		.byte	0x54
 4046 01c3 2A000000 		.4byte	.LVL26
 4047 01c7 2D000000 		.4byte	.LVL27-1
 4048 01cb 0100     		.2byte	0x1
 4049 01cd 50       		.byte	0x50
 4050 01ce 2D000000 		.4byte	.LVL27-1
 4051 01d2 3A000000 		.4byte	.LVL30
 4052 01d6 0100     		.2byte	0x1
 4053 01d8 54       		.byte	0x54
 4054 01d9 3A000000 		.4byte	.LVL30
 4055 01dd 6E000000 		.4byte	.LVL36
 4056 01e1 0100     		.2byte	0x1
 4057 01e3 50       		.byte	0x50
 4058 01e4 6E000000 		.4byte	.LVL36
 4059 01e8 78000000 		.4byte	.LFE230
 4060 01ec 0100     		.2byte	0x1
 4061 01ee 54       		.byte	0x54
 4062 01ef 00000000 		.4byte	0
 4063 01f3 00000000 		.4byte	0
 4064              	.LLST12:
 4065 01f7 00000000 		.4byte	.LVL21
 4066 01fb 1E000000 		.4byte	.LVL23
 4067 01ff 0100     		.2byte	0x1
 4068 0201 51       		.byte	0x51
 4069 0202 1E000000 		.4byte	.LVL23
 4070 0206 44000000 		.4byte	.LVL32
 4071 020a 0700     		.2byte	0x7
 4072 020c F3       		.byte	0xf3
 4073 020d 01       		.uleb128 0x1
 4074 020e 51       		.byte	0x51
 4075 020f 76       		.byte	0x76
 4076 0210 00       		.sleb128 0
 4077 0211 22       		.byte	0x22
 4078 0212 9F       		.byte	0x9f
 4079 0213 44000000 		.4byte	.LVL32
 4080 0217 62000000 		.4byte	.LVL34
 4081 021b 0900     		.2byte	0x9
 4082 021d F3       		.byte	0xf3
 4083 021e 01       		.uleb128 0x1
 4084 021f 51       		.byte	0x51
 4085 0220 76       		.byte	0x76
 4086 0221 00       		.sleb128 0
 4087 0222 22       		.byte	0x22
 4088 0223 23       		.byte	0x23
 4089 0224 01       		.uleb128 0x1
 4090 0225 9F       		.byte	0x9f
 4091 0226 62000000 		.4byte	.LVL34
 4092 022a 6E000000 		.4byte	.LVL36
 4093 022e 0700     		.2byte	0x7
 4094 0230 76       		.byte	0x76
ARM GAS  /tmp/ccXNyZoG.s 			page 73


 4095 0231 00       		.sleb128 0
 4096 0232 F3       		.byte	0xf3
 4097 0233 01       		.uleb128 0x1
 4098 0234 51       		.byte	0x51
 4099 0235 22       		.byte	0x22
 4100 0236 9F       		.byte	0x9f
 4101 0237 6E000000 		.4byte	.LVL36
 4102 023b 72000000 		.4byte	.LVL37
 4103 023f 0700     		.2byte	0x7
 4104 0241 F3       		.byte	0xf3
 4105 0242 01       		.uleb128 0x1
 4106 0243 51       		.byte	0x51
 4107 0244 76       		.byte	0x76
 4108 0245 00       		.sleb128 0
 4109 0246 22       		.byte	0x22
 4110 0247 9F       		.byte	0x9f
 4111 0248 00000000 		.4byte	0
 4112 024c 00000000 		.4byte	0
 4113              	.LLST13:
 4114 0250 00000000 		.4byte	.LVL21
 4115 0254 1E000000 		.4byte	.LVL23
 4116 0258 0100     		.2byte	0x1
 4117 025a 52       		.byte	0x52
 4118 025b 1E000000 		.4byte	.LVL23
 4119 025f 72000000 		.4byte	.LVL37
 4120 0263 0700     		.2byte	0x7
 4121 0265 F3       		.byte	0xf3
 4122 0266 01       		.uleb128 0x1
 4123 0267 52       		.byte	0x52
 4124 0268 76       		.byte	0x76
 4125 0269 00       		.sleb128 0
 4126 026a 1C       		.byte	0x1c
 4127 026b 9F       		.byte	0x9f
 4128 026c 00000000 		.4byte	0
 4129 0270 00000000 		.4byte	0
 4130              	.LLST14:
 4131 0274 00000000 		.4byte	.LVL21
 4132 0278 1E000000 		.4byte	.LVL23
 4133 027c 0100     		.2byte	0x1
 4134 027e 53       		.byte	0x53
 4135 027f 1E000000 		.4byte	.LVL23
 4136 0283 2A000000 		.4byte	.LVL26
 4137 0287 0100     		.2byte	0x1
 4138 0289 55       		.byte	0x55
 4139 028a 2A000000 		.4byte	.LVL26
 4140 028e 2D000000 		.4byte	.LVL27-1
 4141 0292 0100     		.2byte	0x1
 4142 0294 51       		.byte	0x51
 4143 0295 2D000000 		.4byte	.LVL27-1
 4144 0299 3A000000 		.4byte	.LVL30
 4145 029d 0100     		.2byte	0x1
 4146 029f 55       		.byte	0x55
 4147 02a0 3A000000 		.4byte	.LVL30
 4148 02a4 40000000 		.4byte	.LVL31
 4149 02a8 0100     		.2byte	0x1
 4150 02aa 51       		.byte	0x51
 4151 02ab 40000000 		.4byte	.LVL31
ARM GAS  /tmp/ccXNyZoG.s 			page 74


 4152 02af 78000000 		.4byte	.LFE230
 4153 02b3 0100     		.2byte	0x1
 4154 02b5 55       		.byte	0x55
 4155 02b6 00000000 		.4byte	0
 4156 02ba 00000000 		.4byte	0
 4157              	.LLST15:
 4158 02be 0C000000 		.4byte	.LVL22
 4159 02c2 1E000000 		.4byte	.LVL23
 4160 02c6 0200     		.2byte	0x2
 4161 02c8 30       		.byte	0x30
 4162 02c9 9F       		.byte	0x9f
 4163 02ca 1E000000 		.4byte	.LVL23
 4164 02ce 78000000 		.4byte	.LFE230
 4165 02d2 0100     		.2byte	0x1
 4166 02d4 56       		.byte	0x56
 4167 02d5 00000000 		.4byte	0
 4168 02d9 00000000 		.4byte	0
 4169              	.LLST16:
 4170 02dd 56000000 		.4byte	.LVL33
 4171 02e1 6E000000 		.4byte	.LVL36
 4172 02e5 0200     		.2byte	0x2
 4173 02e7 30       		.byte	0x30
 4174 02e8 9F       		.byte	0x9f
 4175 02e9 00000000 		.4byte	0
 4176 02ed 00000000 		.4byte	0
 4177              	.LLST17:
 4178 02f1 64000000 		.4byte	.LVL35
 4179 02f5 6E000000 		.4byte	.LVL36
 4180 02f9 0300     		.2byte	0x3
 4181 02fb 08       		.byte	0x8
 4182 02fc 20       		.byte	0x20
 4183 02fd 9F       		.byte	0x9f
 4184 02fe 00000000 		.4byte	0
 4185 0302 00000000 		.4byte	0
 4186              	.LLST18:
 4187 0306 6E000000 		.4byte	.LVL36
 4188 030a 72000000 		.4byte	.LVL37
 4189 030e 0200     		.2byte	0x2
 4190 0310 30       		.byte	0x30
 4191 0311 9F       		.byte	0x9f
 4192 0312 00000000 		.4byte	0
 4193 0316 00000000 		.4byte	0
 4194              	.LLST19:
 4195 031a 00000000 		.4byte	.LVL38
 4196 031e 1A000000 		.4byte	.LVL39
 4197 0322 0200     		.2byte	0x2
 4198 0324 91       		.byte	0x91
 4199 0325 00       		.sleb128 0
 4200 0326 1A000000 		.4byte	.LVL39
 4201 032a 1C000000 		.4byte	.LFE231
 4202 032e 0200     		.2byte	0x2
 4203 0330 7D       		.byte	0x7d
 4204 0331 00       		.sleb128 0
 4205 0332 00000000 		.4byte	0
 4206 0336 00000000 		.4byte	0
 4207              	.LLST20:
 4208 033a 00000000 		.4byte	.LVL40
ARM GAS  /tmp/ccXNyZoG.s 			page 75


 4209 033e 19000000 		.4byte	.LVL41-1
 4210 0342 0100     		.2byte	0x1
 4211 0344 50       		.byte	0x50
 4212 0345 19000000 		.4byte	.LVL41-1
 4213 0349 1A000000 		.4byte	.LFE232
 4214 034d 0400     		.2byte	0x4
 4215 034f F3       		.byte	0xf3
 4216 0350 01       		.uleb128 0x1
 4217 0351 50       		.byte	0x50
 4218 0352 9F       		.byte	0x9f
 4219 0353 00000000 		.4byte	0
 4220 0357 00000000 		.4byte	0
 4221              	.LLST21:
 4222 035b 00000000 		.4byte	.LVL42
 4223 035f 13000000 		.4byte	.LVL44-1
 4224 0363 0100     		.2byte	0x1
 4225 0365 50       		.byte	0x50
 4226 0366 13000000 		.4byte	.LVL44-1
 4227 036a 22000000 		.4byte	.LVL47
 4228 036e 0100     		.2byte	0x1
 4229 0370 54       		.byte	0x54
 4230 0371 22000000 		.4byte	.LVL47
 4231 0375 40000000 		.4byte	.LVL48
 4232 0379 0100     		.2byte	0x1
 4233 037b 50       		.byte	0x50
 4234 037c 40000000 		.4byte	.LVL48
 4235 0380 50000000 		.4byte	.LFE233
 4236 0384 0100     		.2byte	0x1
 4237 0386 54       		.byte	0x54
 4238 0387 00000000 		.4byte	0
 4239 038b 00000000 		.4byte	0
 4240              	.LLST22:
 4241 038f 00000000 		.4byte	.LVL42
 4242 0393 10000000 		.4byte	.LVL43
 4243 0397 0100     		.2byte	0x1
 4244 0399 51       		.byte	0x51
 4245 039a 10000000 		.4byte	.LVL43
 4246 039e 50000000 		.4byte	.LFE233
 4247 03a2 0400     		.2byte	0x4
 4248 03a4 F3       		.byte	0xf3
 4249 03a5 01       		.uleb128 0x1
 4250 03a6 51       		.byte	0x51
 4251 03a7 9F       		.byte	0x9f
 4252 03a8 00000000 		.4byte	0
 4253 03ac 00000000 		.4byte	0
 4254              	.LLST23:
 4255 03b0 00000000 		.4byte	.LVL42
 4256 03b4 10000000 		.4byte	.LVL43
 4257 03b8 0100     		.2byte	0x1
 4258 03ba 52       		.byte	0x52
 4259 03bb 10000000 		.4byte	.LVL43
 4260 03bf 13000000 		.4byte	.LVL44-1
 4261 03c3 0100     		.2byte	0x1
 4262 03c5 51       		.byte	0x51
 4263 03c6 13000000 		.4byte	.LVL44-1
 4264 03ca 22000000 		.4byte	.LVL47
 4265 03ce 0100     		.2byte	0x1
ARM GAS  /tmp/ccXNyZoG.s 			page 76


 4266 03d0 56       		.byte	0x56
 4267 03d1 22000000 		.4byte	.LVL47
 4268 03d5 41000000 		.4byte	.LVL49-1
 4269 03d9 0100     		.2byte	0x1
 4270 03db 51       		.byte	0x51
 4271 03dc 41000000 		.4byte	.LVL49-1
 4272 03e0 50000000 		.4byte	.LFE233
 4273 03e4 0100     		.2byte	0x1
 4274 03e6 56       		.byte	0x56
 4275 03e7 00000000 		.4byte	0
 4276 03eb 00000000 		.4byte	0
 4277              	.LLST24:
 4278 03ef 14000000 		.4byte	.LVL44
 4279 03f3 18000000 		.4byte	.LVL45
 4280 03f7 0100     		.2byte	0x1
 4281 03f9 50       		.byte	0x50
 4282 03fa 4A000000 		.4byte	.LVL50
 4283 03fe 50000000 		.4byte	.LFE233
 4284 0402 0100     		.2byte	0x1
 4285 0404 50       		.byte	0x50
 4286 0405 00000000 		.4byte	0
 4287 0409 00000000 		.4byte	0
 4288              	.LLST25:
 4289 040d 42000000 		.4byte	.LVL49
 4290 0411 4A000000 		.4byte	.LVL50
 4291 0415 0200     		.2byte	0x2
 4292 0417 30       		.byte	0x30
 4293 0418 9F       		.byte	0x9f
 4294 0419 00000000 		.4byte	0
 4295 041d 00000000 		.4byte	0
 4296              	.LLST26:
 4297 0421 00000000 		.4byte	.LVL51
 4298 0425 25000000 		.4byte	.LVL55-1
 4299 0429 0100     		.2byte	0x1
 4300 042b 50       		.byte	0x50
 4301 042c 25000000 		.4byte	.LVL55-1
 4302 0430 2A000000 		.4byte	.LVL56
 4303 0434 0400     		.2byte	0x4
 4304 0436 F3       		.byte	0xf3
 4305 0437 01       		.uleb128 0x1
 4306 0438 50       		.byte	0x50
 4307 0439 9F       		.byte	0x9f
 4308 043a 2A000000 		.4byte	.LVL56
 4309 043e 32000000 		.4byte	.LVL57
 4310 0442 0100     		.2byte	0x1
 4311 0444 50       		.byte	0x50
 4312 0445 32000000 		.4byte	.LVL57
 4313 0449 34000000 		.4byte	.LFE234
 4314 044d 0400     		.2byte	0x4
 4315 044f F3       		.byte	0xf3
 4316 0450 01       		.uleb128 0x1
 4317 0451 50       		.byte	0x50
 4318 0452 9F       		.byte	0x9f
 4319 0453 00000000 		.4byte	0
 4320 0457 00000000 		.4byte	0
 4321              	.LLST27:
 4322 045b 1A000000 		.4byte	.LVL52
ARM GAS  /tmp/ccXNyZoG.s 			page 77


 4323 045f 1E000000 		.4byte	.LVL53
 4324 0463 0200     		.2byte	0x2
 4325 0465 73       		.byte	0x73
 4326 0466 00       		.sleb128 0
 4327 0467 1E000000 		.4byte	.LVL53
 4328 046b 20000000 		.4byte	.LVL54
 4329 046f 0200     		.2byte	0x2
 4330 0471 72       		.byte	0x72
 4331 0472 7F       		.sleb128 -1
 4332 0473 20000000 		.4byte	.LVL54
 4333 0477 2A000000 		.4byte	.LVL56
 4334 047b 0100     		.2byte	0x1
 4335 047d 54       		.byte	0x54
 4336 047e 00000000 		.4byte	0
 4337 0482 00000000 		.4byte	0
 4338              	.LLST29:
 4339 0486 00000000 		.4byte	.LVL58
 4340 048a 1E000000 		.4byte	.LVL60
 4341 048e 0100     		.2byte	0x1
 4342 0490 50       		.byte	0x50
 4343 0491 1E000000 		.4byte	.LVL60
 4344 0495 2A000000 		.4byte	.LVL62
 4345 0499 0100     		.2byte	0x1
 4346 049b 54       		.byte	0x54
 4347 049c 2A000000 		.4byte	.LVL62
 4348 04a0 4B000000 		.4byte	.LVL63-1
 4349 04a4 0100     		.2byte	0x1
 4350 04a6 50       		.byte	0x50
 4351 04a7 4B000000 		.4byte	.LVL63-1
 4352 04ab 62000000 		.4byte	.LVL67
 4353 04af 0100     		.2byte	0x1
 4354 04b1 54       		.byte	0x54
 4355 04b2 62000000 		.4byte	.LVL67
 4356 04b6 64000000 		.4byte	.LVL68
 4357 04ba 0100     		.2byte	0x1
 4358 04bc 50       		.byte	0x50
 4359 04bd 64000000 		.4byte	.LVL68
 4360 04c1 7A000000 		.4byte	.LFE235
 4361 04c5 0100     		.2byte	0x1
 4362 04c7 54       		.byte	0x54
 4363 04c8 00000000 		.4byte	0
 4364 04cc 00000000 		.4byte	0
 4365              	.LLST30:
 4366 04d0 00000000 		.4byte	.LVL58
 4367 04d4 1E000000 		.4byte	.LVL60
 4368 04d8 0100     		.2byte	0x1
 4369 04da 51       		.byte	0x51
 4370 04db 1E000000 		.4byte	.LVL60
 4371 04df 24000000 		.4byte	.LVL61
 4372 04e3 0100     		.2byte	0x1
 4373 04e5 5B       		.byte	0x5b
 4374 04e6 24000000 		.4byte	.LVL61
 4375 04ea 7A000000 		.4byte	.LFE235
 4376 04ee 0100     		.2byte	0x1
 4377 04f0 5A       		.byte	0x5a
 4378 04f1 00000000 		.4byte	0
 4379 04f5 00000000 		.4byte	0
ARM GAS  /tmp/ccXNyZoG.s 			page 78


 4380              	.LLST31:
 4381 04f9 00000000 		.4byte	.LVL58
 4382 04fd 1E000000 		.4byte	.LVL60
 4383 0501 0100     		.2byte	0x1
 4384 0503 52       		.byte	0x52
 4385 0504 1E000000 		.4byte	.LVL60
 4386 0508 52000000 		.4byte	.LVL65
 4387 050c 0100     		.2byte	0x1
 4388 050e 56       		.byte	0x56
 4389 050f 52000000 		.4byte	.LVL65
 4390 0513 56000000 		.4byte	.LVL66
 4391 0517 0300     		.2byte	0x3
 4392 0519 76       		.byte	0x76
 4393 051a 01       		.sleb128 1
 4394 051b 9F       		.byte	0x9f
 4395 051c 62000000 		.4byte	.LVL67
 4396 0520 72000000 		.4byte	.LVL71
 4397 0524 0100     		.2byte	0x1
 4398 0526 56       		.byte	0x56
 4399 0527 00000000 		.4byte	0
 4400 052b 00000000 		.4byte	0
 4401              	.LLST32:
 4402 052f 00000000 		.4byte	.LVL58
 4403 0533 1E000000 		.4byte	.LVL60
 4404 0537 0100     		.2byte	0x1
 4405 0539 53       		.byte	0x53
 4406 053a 1E000000 		.4byte	.LVL60
 4407 053e 7A000000 		.4byte	.LFE235
 4408 0542 0200     		.2byte	0x2
 4409 0544 91       		.byte	0x91
 4410 0545 54       		.sleb128 -44
 4411 0546 00000000 		.4byte	0
 4412 054a 00000000 		.4byte	0
 4413              	.LLST33:
 4414 054e 12000000 		.4byte	.LVL59
 4415 0552 1E000000 		.4byte	.LVL60
 4416 0556 0200     		.2byte	0x2
 4417 0558 30       		.byte	0x30
 4418 0559 9F       		.byte	0x9f
 4419 055a 1E000000 		.4byte	.LVL60
 4420 055e 7A000000 		.4byte	.LFE235
 4421 0562 0100     		.2byte	0x1
 4422 0564 57       		.byte	0x57
 4423 0565 00000000 		.4byte	0
 4424 0569 00000000 		.4byte	0
 4425              	.LLST34:
 4426 056d 4C000000 		.4byte	.LVL63
 4427 0571 62000000 		.4byte	.LVL67
 4428 0575 0200     		.2byte	0x2
 4429 0577 30       		.byte	0x30
 4430 0578 9F       		.byte	0x9f
 4431 0579 00000000 		.4byte	0
 4432 057d 00000000 		.4byte	0
 4433              	.LLST35:
 4434 0581 50000000 		.4byte	.LVL64
 4435 0585 62000000 		.4byte	.LVL67
 4436 0589 0300     		.2byte	0x3
ARM GAS  /tmp/ccXNyZoG.s 			page 79


 4437 058b 08       		.byte	0x8
 4438 058c 20       		.byte	0x20
 4439 058d 9F       		.byte	0x9f
 4440 058e 00000000 		.4byte	0
 4441 0592 00000000 		.4byte	0
 4442              	.LLST36:
 4443 0596 6E000000 		.4byte	.LVL70
 4444 059a 72000000 		.4byte	.LVL71
 4445 059e 0200     		.2byte	0x2
 4446 05a0 30       		.byte	0x30
 4447 05a1 9F       		.byte	0x9f
 4448 05a2 00000000 		.4byte	0
 4449 05a6 00000000 		.4byte	0
 4450              		.section	.debug_aranges,"",%progbits
 4451 0000 64000000 		.4byte	0x64
 4452 0004 0200     		.2byte	0x2
 4453 0006 00000000 		.4byte	.Ldebug_info0
 4454 000a 04       		.byte	0x4
 4455 000b 00       		.byte	0
 4456 000c 0000     		.2byte	0
 4457 000e 0000     		.2byte	0
 4458 0010 00000000 		.4byte	.LFB226
 4459 0014 1E000000 		.4byte	.LFE226-.LFB226
 4460 0018 00000000 		.4byte	.LFB227
 4461 001c 12000000 		.4byte	.LFE227-.LFB227
 4462 0020 00000000 		.4byte	.LFB228
 4463 0024 36000000 		.4byte	.LFE228-.LFB228
 4464 0028 00000000 		.4byte	.LFB229
 4465 002c 4E000000 		.4byte	.LFE229-.LFB229
 4466 0030 00000000 		.4byte	.LFB230
 4467 0034 78000000 		.4byte	.LFE230-.LFB230
 4468 0038 00000000 		.4byte	.LFB231
 4469 003c 1C000000 		.4byte	.LFE231-.LFB231
 4470 0040 00000000 		.4byte	.LFB232
 4471 0044 1A000000 		.4byte	.LFE232-.LFB232
 4472 0048 00000000 		.4byte	.LFB233
 4473 004c 50000000 		.4byte	.LFE233-.LFB233
 4474 0050 00000000 		.4byte	.LFB234
 4475 0054 34000000 		.4byte	.LFE234-.LFB234
 4476 0058 00000000 		.4byte	.LFB235
 4477 005c 7A000000 		.4byte	.LFE235-.LFB235
 4478 0060 00000000 		.4byte	0
 4479 0064 00000000 		.4byte	0
 4480              		.section	.debug_ranges,"",%progbits
 4481              	.Ldebug_ranges0:
 4482 0000 00000000 		.4byte	.LBB111
 4483 0004 06000000 		.4byte	.LBE111
 4484 0008 08000000 		.4byte	.LBB115
 4485 000c 0C000000 		.4byte	.LBE115
 4486 0010 2C000000 		.4byte	.LBB116
 4487 0014 30000000 		.4byte	.LBE116
 4488 0018 00000000 		.4byte	0
 4489 001c 00000000 		.4byte	0
 4490 0020 02000000 		.4byte	.LBB117
 4491 0024 04000000 		.4byte	.LBE117
 4492 0028 08000000 		.4byte	.LBB124
 4493 002c 0C000000 		.4byte	.LBE124
ARM GAS  /tmp/ccXNyZoG.s 			page 80


 4494 0030 00000000 		.4byte	0
 4495 0034 00000000 		.4byte	0
 4496 0038 14000000 		.4byte	.LBB125
 4497 003c 1C000000 		.4byte	.LBE125
 4498 0040 1E000000 		.4byte	.LBB131
 4499 0044 22000000 		.4byte	.LBE131
 4500 0048 48000000 		.4byte	.LBB137
 4501 004c 4E000000 		.4byte	.LBE137
 4502 0050 00000000 		.4byte	0
 4503 0054 00000000 		.4byte	0
 4504 0058 10000000 		.4byte	.LBB163
 4505 005c 18000000 		.4byte	.LBE163
 4506 0060 1A000000 		.4byte	.LBB169
 4507 0064 1E000000 		.4byte	.LBE169
 4508 0068 4A000000 		.4byte	.LBB175
 4509 006c 50000000 		.4byte	.LBE175
 4510 0070 00000000 		.4byte	0
 4511 0074 00000000 		.4byte	0
 4512 0078 00000000 		.4byte	.LBB176
 4513 007c 06000000 		.4byte	.LBE176
 4514 0080 08000000 		.4byte	.LBB180
 4515 0084 0C000000 		.4byte	.LBE180
 4516 0088 2A000000 		.4byte	.LBB181
 4517 008c 2E000000 		.4byte	.LBE181
 4518 0090 00000000 		.4byte	0
 4519 0094 00000000 		.4byte	0
 4520 0098 1C000000 		.4byte	.LBB186
 4521 009c 1E000000 		.4byte	.LBE186
 4522 00a0 4C000000 		.4byte	.LBB195
 4523 00a4 50000000 		.4byte	.LBE195
 4524 00a8 00000000 		.4byte	0
 4525 00ac 00000000 		.4byte	0
 4526 00b0 00000000 		.4byte	.LFB226
 4527 00b4 1E000000 		.4byte	.LFE226
 4528 00b8 00000000 		.4byte	.LFB227
 4529 00bc 12000000 		.4byte	.LFE227
 4530 00c0 00000000 		.4byte	.LFB228
 4531 00c4 36000000 		.4byte	.LFE228
 4532 00c8 00000000 		.4byte	.LFB229
 4533 00cc 4E000000 		.4byte	.LFE229
 4534 00d0 00000000 		.4byte	.LFB230
 4535 00d4 78000000 		.4byte	.LFE230
 4536 00d8 00000000 		.4byte	.LFB231
 4537 00dc 1C000000 		.4byte	.LFE231
 4538 00e0 00000000 		.4byte	.LFB232
 4539 00e4 1A000000 		.4byte	.LFE232
 4540 00e8 00000000 		.4byte	.LFB233
 4541 00ec 50000000 		.4byte	.LFE233
 4542 00f0 00000000 		.4byte	.LFB234
 4543 00f4 34000000 		.4byte	.LFE234
 4544 00f8 00000000 		.4byte	.LFB235
 4545 00fc 7A000000 		.4byte	.LFE235
 4546 0100 00000000 		.4byte	0
 4547 0104 00000000 		.4byte	0
 4548              		.section	.debug_line,"",%progbits
 4549              	.Ldebug_line0:
 4550 0000 45050000 		.section	.debug_str,"MS",%progbits,1
ARM GAS  /tmp/ccXNyZoG.s 			page 81


 4550      0200DA02 
 4550      00000201 
 4550      FB0E0D00 
 4550      01010101 
 4551              	.LASF132:
 4552 0000 63684F51 		.ascii	"chOQPutTimeout\000"
 4552      50757454 
 4552      696D656F 
 4552      757400
 4553              	.LASF49:
 4554 000f 72656164 		.ascii	"ready_list_t\000"
 4554      795F6C69 
 4554      73745F74 
 4554      00
 4555              	.LASF130:
 4556 001c 6F6E6679 		.ascii	"onfy\000"
 4556      00
 4557              	.LASF2:
 4558 0021 73697A65 		.ascii	"size_t\000"
 4558      5F7400
 4559              	.LASF84:
 4560 0028 7264796D 		.ascii	"rdymsg\000"
 4560      736700
 4561              	.LASF17:
 4562 002f 75696E74 		.ascii	"uint64_t\000"
 4562      36345F74 
 4562      00
 4563              	.LASF137:
 4564 0038 63685468 		.ascii	"chThdDequeueAllI\000"
 4564      64446571 
 4564      75657565 
 4564      416C6C49 
 4564      00
 4565              	.LASF3:
 4566 0049 5F5F7569 		.ascii	"__uint8_t\000"
 4566      6E74385F 
 4566      7400
 4567              	.LASF81:
 4568 0053 706F7274 		.ascii	"port_intctx\000"
 4568      5F696E74 
 4568      63747800 
 4569              	.LASF68:
 4570 005f 73797374 		.ascii	"system_debug_t\000"
 4570      656D5F64 
 4570      65627567 
 4570      5F7400
 4571              	.LASF128:
 4572 006e 63684951 		.ascii	"chIQReadTimeout\000"
 4572      52656164 
 4572      54696D65 
 4572      6F757400 
 4573              	.LASF110:
 4574 007e 71756575 		.ascii	"queue_init\000"
 4574      655F696E 
 4574      697400
 4575              	.LASF107:
 4576 0089 706F7274 		.ascii	"port_lock\000"
ARM GAS  /tmp/ccXNyZoG.s 			page 82


 4576      5F6C6F63 
 4576      6B00
 4577              	.LASF123:
 4578 0093 63684951 		.ascii	"chIQObjectInit\000"
 4578      4F626A65 
 4578      6374496E 
 4578      697400
 4579              	.LASF13:
 4580 00a2 6C6F6E67 		.ascii	"long long unsigned int\000"
 4580      206C6F6E 
 4580      6720756E 
 4580      7369676E 
 4580      65642069 
 4581              	.LASF85:
 4582 00b9 65786974 		.ascii	"exitcode\000"
 4582      636F6465 
 4582      00
 4583              	.LASF75:
 4584 00c2 6D61696E 		.ascii	"mainthread\000"
 4584      74687265 
 4584      616400
 4585              	.LASF65:
 4586 00cd 76697274 		.ascii	"virtual_timers_list_t\000"
 4586      75616C5F 
 4586      74696D65 
 4586      72735F6C 
 4586      6973745F 
 4587              	.LASF136:
 4588 00e3 49544D5F 		.ascii	"ITM_RxBuffer\000"
 4588      52784275 
 4588      66666572 
 4588      00
 4589              	.LASF94:
 4590 00f0 696F5F71 		.ascii	"io_queue_t\000"
 4590      75657565 
 4590      5F7400
 4591              	.LASF48:
 4592 00fb 63685F74 		.ascii	"ch_threads_queue\000"
 4592      68726561 
 4592      64735F71 
 4592      75657565 
 4592      00
 4593              	.LASF29:
 4594 010c 705F7072 		.ascii	"p_prio\000"
 4594      696F00
 4595              	.LASF96:
 4596 0113 715F7761 		.ascii	"q_waiting\000"
 4596      6974696E 
 4596      6700
 4597              	.LASF11:
 4598 011d 6C6F6E67 		.ascii	"long long int\000"
 4598      206C6F6E 
 4598      6720696E 
 4598      7400
 4599              	.LASF1:
 4600 012b 7369676E 		.ascii	"signed char\000"
 4600      65642063 
ARM GAS  /tmp/ccXNyZoG.s 			page 83


 4600      68617200 
 4601              	.LASF43:
 4602 0137 705F6D70 		.ascii	"p_mpool\000"
 4602      6F6F6C00 
 4603              	.LASF90:
 4604 013f 6D5F7175 		.ascii	"m_queue\000"
 4604      65756500 
 4605              	.LASF74:
 4606 0147 76746C69 		.ascii	"vtlist\000"
 4606      737400
 4607              	.LASF108:
 4608 014e 706F7274 		.ascii	"port_unlock\000"
 4608      5F756E6C 
 4608      6F636B00 
 4609              	.LASF106:
 4610 015a 6F757470 		.ascii	"output_queue_t\000"
 4610      75745F71 
 4610      75657565 
 4610      5F7400
 4611              	.LASF72:
 4612 0169 63685F73 		.ascii	"ch_system\000"
 4612      79737465 
 4612      6D00
 4613              	.LASF8:
 4614 0173 6C6F6E67 		.ascii	"long int\000"
 4614      20696E74 
 4614      00
 4615              	.LASF20:
 4616 017c 74737461 		.ascii	"tstate_t\000"
 4616      74655F74 
 4616      00
 4617              	.LASF133:
 4618 0185 63684F51 		.ascii	"chOQGetI\000"
 4618      47657449 
 4618      00
 4619              	.LASF98:
 4620 018e 715F6275 		.ascii	"q_buffer\000"
 4620      66666572 
 4620      00
 4621              	.LASF100:
 4622 0197 715F7772 		.ascii	"q_wrptr\000"
 4622      70747200 
 4623              	.LASF138:
 4624 019f 63685468 		.ascii	"chThdDequeueNextI\000"
 4624      64446571 
 4624      75657565 
 4624      4E657874 
 4624      4900
 4625              	.LASF142:
 4626 01b1 2F6E6673 		.ascii	"/nfs/nfs4/home/ruswang/p442-submissions/p442-submis"
 4626      2F6E6673 
 4626      342F686F 
 4626      6D652F72 
 4626      75737761 
 4627 01e4 73696F6E 		.ascii	"sions/lab1\000"
 4627      732F6C61 
 4627      623100
ARM GAS  /tmp/ccXNyZoG.s 			page 84


 4628              	.LASF31:
 4629 01ef 705F6E65 		.ascii	"p_newer\000"
 4629      77657200 
 4630              	.LASF54:
 4631 01f7 725F6E65 		.ascii	"r_newer\000"
 4631      77657200 
 4632              	.LASF78:
 4633 01ff 72656761 		.ascii	"regarm_t\000"
 4633      726D5F74 
 4633      00
 4634              	.LASF61:
 4635 0208 76745F70 		.ascii	"vt_prev\000"
 4635      72657600 
 4636              	.LASF122:
 4637 0210 6C696E6B 		.ascii	"link\000"
 4637      00
 4638              	.LASF125:
 4639 0215 63684951 		.ascii	"chIQPutI\000"
 4639      50757449 
 4639      00
 4640              	.LASF93:
 4641 021e 6D757465 		.ascii	"mutex_t\000"
 4641      785F7400 
 4642              	.LASF111:
 4643 0226 76616C75 		.ascii	"value\000"
 4643      6500
 4644              	.LASF95:
 4645 022c 696F5F71 		.ascii	"io_queue\000"
 4645      75657565 
 4645      00
 4646              	.LASF76:
 4647 0235 69646C65 		.ascii	"idle_thread_wa\000"
 4647      5F746872 
 4647      6561645F 
 4647      776100
 4648              	.LASF0:
 4649 0244 756E7369 		.ascii	"unsigned int\000"
 4649      676E6564 
 4649      20696E74 
 4649      00
 4650              	.LASF60:
 4651 0251 76745F6E 		.ascii	"vt_next\000"
 4651      65787400 
 4652              	.LASF124:
 4653 0259 63684951 		.ascii	"chIQResetI\000"
 4653      52657365 
 4653      744900
 4654              	.LASF38:
 4655 0264 705F6D73 		.ascii	"p_msgqueue\000"
 4655      67717565 
 4655      756500
 4656              	.LASF6:
 4657 026f 73686F72 		.ascii	"short unsigned int\000"
 4657      7420756E 
 4657      7369676E 
 4657      65642069 
 4657      6E7400
ARM GAS  /tmp/ccXNyZoG.s 			page 85


 4658              	.LASF45:
 4659 0282 63685F74 		.ascii	"ch_thread\000"
 4659      68726561 
 4659      6400
 4660              	.LASF23:
 4661 028c 6D73675F 		.ascii	"msg_t\000"
 4661      7400
 4662              	.LASF71:
 4663 0292 63685F73 		.ascii	"ch_system_t\000"
 4663      79737465 
 4663      6D5F7400 
 4664              	.LASF19:
 4665 029e 746D6F64 		.ascii	"tmode_t\000"
 4665      655F7400 
 4666              	.LASF141:
 4667 02a6 2E2E2F43 		.ascii	"../ChibiOS/os/rt/src/chqueues.c\000"
 4667      68696269 
 4667      4F532F6F 
 4667      732F7274 
 4667      2F737263 
 4668              	.LASF50:
 4669 02c6 63685F72 		.ascii	"ch_ready_list\000"
 4669      65616479 
 4669      5F6C6973 
 4669      7400
 4670              	.LASF24:
 4671 02d4 6576656E 		.ascii	"eventmask_t\000"
 4671      746D6173 
 4671      6B5F7400 
 4672              	.LASF7:
 4673 02e0 5F5F696E 		.ascii	"__int32_t\000"
 4673      7433325F 
 4673      7400
 4674              	.LASF79:
 4675 02ea 73746B61 		.ascii	"stkalign_t\000"
 4675      6C69676E 
 4675      5F7400
 4676              	.LASF134:
 4677 02f5 63684F51 		.ascii	"chOQWriteTimeout\000"
 4677      57726974 
 4677      6554696D 
 4677      656F7574 
 4677      00
 4678              	.LASF115:
 4679 0306 63685468 		.ascii	"chThdQueueObjectInit\000"
 4679      64517565 
 4679      75654F62 
 4679      6A656374 
 4679      496E6974 
 4680              	.LASF37:
 4681 031b 705F7761 		.ascii	"p_waiting\000"
 4681      6974696E 
 4681      6700
 4682              	.LASF77:
 4683 0325 73697A65 		.ascii	"sizetype\000"
 4683      74797065 
 4683      00
ARM GAS  /tmp/ccXNyZoG.s 			page 86


 4684              	.LASF66:
 4685 032e 63685F76 		.ascii	"ch_virtual_timers_list\000"
 4685      69727475 
 4685      616C5F74 
 4685      696D6572 
 4685      735F6C69 
 4686              	.LASF97:
 4687 0345 715F636F 		.ascii	"q_counter\000"
 4687      756E7465 
 4687      7200
 4688              	.LASF67:
 4689 034f 76745F6C 		.ascii	"vt_lasttime\000"
 4689      61737474 
 4689      696D6500 
 4690              	.LASF32:
 4691 035b 705F6F6C 		.ascii	"p_older\000"
 4691      64657200 
 4692              	.LASF53:
 4693 0363 725F6374 		.ascii	"r_ctx\000"
 4693      7800
 4694              	.LASF83:
 4695 0369 746D5F63 		.ascii	"tm_calibration_t\000"
 4695      616C6962 
 4695      72617469 
 4695      6F6E5F74 
 4695      00
 4696              	.LASF127:
 4697 037a 74696D65 		.ascii	"time\000"
 4697      00
 4698              	.LASF56:
 4699 037f 725F6375 		.ascii	"r_current\000"
 4699      7272656E 
 4699      7400
 4700              	.LASF55:
 4701 0389 725F6F6C 		.ascii	"r_older\000"
 4701      64657200 
 4702              	.LASF12:
 4703 0391 5F5F7569 		.ascii	"__uint64_t\000"
 4703      6E743634 
 4703      5F7400
 4704              	.LASF21:
 4705 039c 74726566 		.ascii	"trefs_t\000"
 4705      735F7400 
 4706              	.LASF104:
 4707 03a4 716E6F74 		.ascii	"qnotify_t\000"
 4707      6966795F 
 4707      7400
 4708              	.LASF58:
 4709 03ae 76697274 		.ascii	"virtual_timer_t\000"
 4709      75616C5F 
 4709      74696D65 
 4709      725F7400 
 4710              	.LASF28:
 4711 03be 705F7072 		.ascii	"p_prev\000"
 4711      657600
 4712              	.LASF114:
 4713 03c5 63684F51 		.ascii	"chOQIsFullI\000"
ARM GAS  /tmp/ccXNyZoG.s 			page 87


 4713      49734675 
 4713      6C6C4900 
 4714              	.LASF22:
 4715 03d1 74707269 		.ascii	"tprio_t\000"
 4715      6F5F7400 
 4716              	.LASF101:
 4717 03d9 715F7264 		.ascii	"q_rdptr\000"
 4717      70747200 
 4718              	.LASF89:
 4719 03e1 6D757465 		.ascii	"mutex\000"
 4719      7800
 4720              	.LASF69:
 4721 03e7 63685F73 		.ascii	"ch_system_debug\000"
 4721      79737465 
 4721      6D5F6465 
 4721      62756700 
 4722              	.LASF112:
 4723 03f7 5F426F6F 		.ascii	"_Bool\000"
 4723      6C00
 4724              	.LASF15:
 4725 03fd 696E7433 		.ascii	"int32_t\000"
 4725      325F7400 
 4726              	.LASF4:
 4727 0405 756E7369 		.ascii	"unsigned char\000"
 4727      676E6564 
 4727      20636861 
 4727      7200
 4728              	.LASF105:
 4729 0413 696E7075 		.ascii	"input_queue_t\000"
 4729      745F7175 
 4729      6575655F 
 4729      7400
 4730              	.LASF34:
 4731 0421 705F7374 		.ascii	"p_state\000"
 4731      61746500 
 4732              	.LASF41:
 4733 0429 705F6D74 		.ascii	"p_mtxlist\000"
 4733      786C6973 
 4733      7400
 4734              	.LASF5:
 4735 0433 73686F72 		.ascii	"short int\000"
 4735      7420696E 
 4735      7400
 4736              	.LASF52:
 4737 043d 725F7072 		.ascii	"r_prio\000"
 4737      696F00
 4738              	.LASF87:
 4739 0444 65776D61 		.ascii	"ewmask\000"
 4739      736B00
 4740              	.LASF27:
 4741 044b 705F6E65 		.ascii	"p_next\000"
 4741      787400
 4742              	.LASF121:
 4743 0452 696E6679 		.ascii	"infy\000"
 4743      00
 4744              	.LASF35:
 4745 0457 705F666C 		.ascii	"p_flags\000"
ARM GAS  /tmp/ccXNyZoG.s 			page 88


 4745      61677300 
 4746              	.LASF135:
 4747 045f 5F5F6675 		.ascii	"__func__\000"
 4747      6E635F5F 
 4747      00
 4748              	.LASF117:
 4749 0468 63685379 		.ascii	"chSysLock\000"
 4749      734C6F63 
 4749      6B00
 4750              	.LASF47:
 4751 0472 74687265 		.ascii	"threads_queue_t\000"
 4751      6164735F 
 4751      71756575 
 4751      655F7400 
 4752              	.LASF59:
 4753 0482 63685F76 		.ascii	"ch_virtual_timer\000"
 4753      69727475 
 4753      616C5F74 
 4753      696D6572 
 4753      00
 4754              	.LASF40:
 4755 0493 705F6570 		.ascii	"p_epending\000"
 4755      656E6469 
 4755      6E6700
 4756              	.LASF116:
 4757 049e 63684951 		.ascii	"chIQIsFullI\000"
 4757      49734675 
 4757      6C6C4900 
 4758              	.LASF16:
 4759 04aa 75696E74 		.ascii	"uint32_t\000"
 4759      33325F74 
 4759      00
 4760              	.LASF51:
 4761 04b3 725F7175 		.ascii	"r_queue\000"
 4761      65756500 
 4762              	.LASF62:
 4763 04bb 76745F64 		.ascii	"vt_delta\000"
 4763      656C7461 
 4763      00
 4764              	.LASF46:
 4765 04c4 63685F74 		.ascii	"ch_threads_list\000"
 4765      68726561 
 4765      64735F6C 
 4765      69737400 
 4766              	.LASF10:
 4767 04d4 6C6F6E67 		.ascii	"long unsigned int\000"
 4767      20756E73 
 4767      69676E65 
 4767      6420696E 
 4767      7400
 4768              	.LASF88:
 4769 04e6 63686172 		.ascii	"char\000"
 4769      00
 4770              	.LASF26:
 4771 04eb 74687265 		.ascii	"thread_t\000"
 4771      61645F74 
 4771      00
ARM GAS  /tmp/ccXNyZoG.s 			page 89


 4772              	.LASF140:
 4773 04f4 474E5520 		.ascii	"GNU C 4.8.4 20140526 (release) [ARM/embedded-4_8-br"
 4773      4320342E 
 4773      382E3420 
 4773      32303134 
 4773      30353236 
 4774 0527 616E6368 		.ascii	"anch revision 211358] -mcpu=cortex-m4 -mno-thumb-in"
 4774      20726576 
 4774      6973696F 
 4774      6E203231 
 4774      31333538 
 4775 055a 74657277 		.ascii	"terwork -mthumb -ggdb -O2 -fomit-frame-pointer -fal"
 4775      6F726B20 
 4775      2D6D7468 
 4775      756D6220 
 4775      2D676764 
 4776 058d 69676E2D 		.ascii	"ign-functions=16 -ffunction-sections -fdata-section"
 4776      66756E63 
 4776      74696F6E 
 4776      733D3136 
 4776      202D6666 
 4777 05c0 73202D66 		.ascii	"s -fno-common\000"
 4777      6E6F2D63 
 4777      6F6D6D6F 
 4777      6E00
 4778              	.LASF92:
 4779 05ce 6D5F6E65 		.ascii	"m_next\000"
 4779      787400
 4780              	.LASF25:
 4781 05d5 73797374 		.ascii	"systime_t\000"
 4781      696D655F 
 4781      7400
 4782              	.LASF42:
 4783 05df 705F7265 		.ascii	"p_realprio\000"
 4783      616C7072 
 4783      696F00
 4784              	.LASF57:
 4785 05ea 76746675 		.ascii	"vtfunc_t\000"
 4785      6E635F74 
 4785      00
 4786              	.LASF9:
 4787 05f3 5F5F7569 		.ascii	"__uint32_t\000"
 4787      6E743332 
 4787      5F7400
 4788              	.LASF109:
 4789 05fe 5F5F7365 		.ascii	"__set_BASEPRI\000"
 4789      745F4241 
 4789      53455052 
 4789      4900
 4790              	.LASF70:
 4791 060c 70616E69 		.ascii	"panic_msg\000"
 4791      635F6D73 
 4791      6700
 4792              	.LASF82:
 4793 0616 6F666673 		.ascii	"offset\000"
 4793      657400
 4794              	.LASF131:
ARM GAS  /tmp/ccXNyZoG.s 			page 90


 4795 061d 63684F51 		.ascii	"chOQResetI\000"
 4795      52657365 
 4795      744900
 4796              	.LASF80:
 4797 0628 636F6E74 		.ascii	"context\000"
 4797      65787400 
 4798              	.LASF18:
 4799 0630 7274636E 		.ascii	"rtcnt_t\000"
 4799      745F7400 
 4800              	.LASF64:
 4801 0638 76745F70 		.ascii	"vt_par\000"
 4801      617200
 4802              	.LASF129:
 4803 063f 63684F51 		.ascii	"chOQObjectInit\000"
 4803      4F626A65 
 4803      6374496E 
 4803      697400
 4804              	.LASF99:
 4805 064e 715F746F 		.ascii	"q_top\000"
 4805      7000
 4806              	.LASF36:
 4807 0654 705F7265 		.ascii	"p_refs\000"
 4807      667300
 4808              	.LASF113:
 4809 065b 63684951 		.ascii	"chIQIsEmptyI\000"
 4809      4973456D 
 4809      70747949 
 4809      00
 4810              	.LASF102:
 4811 0668 715F6E6F 		.ascii	"q_notify\000"
 4811      74696679 
 4811      00
 4812              	.LASF73:
 4813 0671 726C6973 		.ascii	"rlist\000"
 4813      7400
 4814              	.LASF14:
 4815 0677 75696E74 		.ascii	"uint8_t\000"
 4815      385F7400 
 4816              	.LASF86:
 4817 067f 77746F62 		.ascii	"wtobjp\000"
 4817      6A7000
 4818              	.LASF33:
 4819 0686 705F6E61 		.ascii	"p_name\000"
 4819      6D6500
 4820              	.LASF120:
 4821 068d 73697A65 		.ascii	"size\000"
 4821      00
 4822              	.LASF119:
 4823 0692 63684F51 		.ascii	"chOQIsEmptyI\000"
 4823      4973456D 
 4823      70747949 
 4823      00
 4824              	.LASF44:
 4825 069f 74687265 		.ascii	"threads_list_t\000"
 4825      6164735F 
 4825      6C697374 
 4825      5F7400
ARM GAS  /tmp/ccXNyZoG.s 			page 91


 4826              	.LASF118:
 4827 06ae 63685379 		.ascii	"chSysUnlock\000"
 4827      73556E6C 
 4827      6F636B00 
 4828              	.LASF39:
 4829 06ba 705F6D73 		.ascii	"p_msg\000"
 4829      6700
 4830              	.LASF103:
 4831 06c0 715F6C69 		.ascii	"q_link\000"
 4831      6E6B00
 4832              	.LASF91:
 4833 06c7 6D5F6F77 		.ascii	"m_owner\000"
 4833      6E657200 
 4834              	.LASF30:
 4835 06cf 705F6374 		.ascii	"p_ctx\000"
 4835      7800
 4836              	.LASF63:
 4837 06d5 76745F66 		.ascii	"vt_func\000"
 4837      756E6300 
 4838              	.LASF126:
 4839 06dd 63684951 		.ascii	"chIQGetTimeout\000"
 4839      47657454 
 4839      696D656F 
 4839      757400
 4840              	.LASF139:
 4841 06ec 63685468 		.ascii	"chThdEnqueueTimeoutS\000"
 4841      64456E71 
 4841      75657565 
 4841      54696D65 
 4841      6F757453 
 4842              		.ident	"GCC: (GNU Tools for ARM Embedded Processors) 4.8.4 20140526 (release) [ARM/embedded-4_8-br
ARM GAS  /tmp/ccXNyZoG.s 			page 92


DEFINED SYMBOLS
                            *ABS*:00000000 chqueues.c
     /tmp/ccXNyZoG.s:19     .text.chIQObjectInit:00000000 $t
     /tmp/ccXNyZoG.s:25     .text.chIQObjectInit:00000000 chIQObjectInit
     /tmp/ccXNyZoG.s:75     .text.chIQResetI:00000000 $t
     /tmp/ccXNyZoG.s:81     .text.chIQResetI:00000000 chIQResetI
     /tmp/ccXNyZoG.s:106    .text.chIQPutI:00000000 $t
     /tmp/ccXNyZoG.s:112    .text.chIQPutI:00000000 chIQPutI
     /tmp/ccXNyZoG.s:184    .text.chIQGetTimeout:00000000 $t
     /tmp/ccXNyZoG.s:190    .text.chIQGetTimeout:00000000 chIQGetTimeout
     /tmp/ccXNyZoG.s:328    .text.chIQReadTimeout:00000000 $t
     /tmp/ccXNyZoG.s:334    .text.chIQReadTimeout:00000000 chIQReadTimeout
     /tmp/ccXNyZoG.s:493    .text.chOQObjectInit:00000000 $t
     /tmp/ccXNyZoG.s:499    .text.chOQObjectInit:00000000 chOQObjectInit
     /tmp/ccXNyZoG.s:543    .text.chOQResetI:00000000 $t
     /tmp/ccXNyZoG.s:549    .text.chOQResetI:00000000 chOQResetI
     /tmp/ccXNyZoG.s:582    .text.chOQPutTimeout:00000000 $t
     /tmp/ccXNyZoG.s:588    .text.chOQPutTimeout:00000000 chOQPutTimeout
     /tmp/ccXNyZoG.s:716    .text.chOQGetI:00000000 $t
     /tmp/ccXNyZoG.s:722    .text.chOQGetI:00000000 chOQGetI
     /tmp/ccXNyZoG.s:797    .text.chOQWriteTimeout:00000000 $t
     /tmp/ccXNyZoG.s:803    .text.chOQWriteTimeout:00000000 chOQWriteTimeout
                     .debug_frame:00000010 $d

UNDEFINED SYMBOLS
chThdDequeueAllI
chThdDequeueNextI
chThdEnqueueTimeoutS
