ARM GAS  /tmp/ccT6KVHs.s 			page 1


   1              		.syntax unified
   2              		.cpu cortex-m4
   3              		.fpu softvfp
   4              		.eabi_attribute 20, 1
   5              		.eabi_attribute 21, 1
   6              		.eabi_attribute 23, 3
   7              		.eabi_attribute 24, 1
   8              		.eabi_attribute 25, 1
   9              		.eabi_attribute 26, 1
  10              		.eabi_attribute 30, 2
  11              		.eabi_attribute 34, 1
  12              		.eabi_attribute 18, 4
  13              		.thumb
  14              		.file	"chschd.c"
  15              		.text
  16              	.Ltext0:
  17              		.cfi_sections	.debug_frame
  18              		.section	.text.wakeup,"ax",%progbits
  19              		.align	2
  20              		.p2align 4,,15
  21              		.thumb
  22              		.thumb_func
  23              		.type	wakeup, %function
  24              	wakeup:
  25              	.LFB229:
  26              		.file 1 "../ChibiOS/os/rt/src/chschd.c"
  27              		.loc 1 267 0
  28              		.cfi_startproc
  29              		@ args = 0, pretend = 0, frame = 0
  30              		@ frame_needed = 0, uses_anonymous_args = 0
  31              		@ link register save eliminated.
  32              	.LVL0:
  33 0000 10B4     		push	{r4}
  34              		.cfi_def_cfa_offset 4
  35              		.cfi_offset 4, -4
  36              	.LBB68:
  37              	.LBB69:
  38              	.LBB70:
  39              	.LBB71:
  40              	.LBB72:
  41              		.file 2 "../ChibiOS/os/ext/CMSIS/include/core_cmFunc.h"
  42              		.loc 2 546 0
  43 0002 2023     		movs	r3, #32
  44              	@ 546 "../ChibiOS/os/ext/CMSIS/include/core_cmFunc.h" 1
  45 0004 83F31188 		MSR basepri, r3
  46              	@ 0 "" 2
  47              		.thumb
  48              	.LBE72:
  49              	.LBE71:
  50              	.LBE70:
  51              	.LBE69:
  52              	.LBE68:
  53              		.loc 1 271 0
  54 0008 037F     		ldrb	r3, [r0, #28]	@ zero_extendqisi2
  55 000a 072B     		cmp	r3, #7
  56 000c 0ED8     		bhi	.L2
  57 000e DFE803F0 		tbb	[pc, r3]
ARM GAS  /tmp/ccT6KVHs.s 			page 2


  58              	.L4:
  59 0012 27       		.byte	(.L3-.L4)/2
  60 0013 0D       		.byte	(.L2-.L4)/2
  61 0014 0D       		.byte	(.L2-.L4)/2
  62 0015 23       		.byte	(.L5-.L4)/2
  63 0016 08       		.byte	(.L6-.L4)/2
  64 0017 04       		.byte	(.L7-.L4)/2
  65 0018 0D       		.byte	(.L2-.L4)/2
  66 0019 08       		.byte	(.L6-.L4)/2
  67              		.p2align 1
  68              	.L7:
  69              		.loc 1 282 0
  70 001a 036A     		ldr	r3, [r0, #32]
  71              	.LVL1:
  72              	.LBB73:
  73              	.LBB74:
  74              		.file 3 "../ChibiOS/os/rt/include/chsem.h"
  75              		.loc 3 138 0
  76 001c 9A68     		ldr	r2, [r3, #8]
  77 001e 0132     		adds	r2, r2, #1
  78 0020 9A60     		str	r2, [r3, #8]
  79              	.LVL2:
  80              	.L6:
  81              	.LBE74:
  82              	.LBE73:
  83              	.LBB75:
  84              	.LBB76:
  85              		.file 4 "../ChibiOS/os/rt/include/chschd.h"
  86              		.loc 4 653 0
  87 0022 90E80C00 		ldmia	r0, {r2, r3}
  88 0026 1A60     		str	r2, [r3]
  89              		.loc 4 654 0
  90 0028 0268     		ldr	r2, [r0]
  91 002a 5360     		str	r3, [r2, #4]
  92              	.LVL3:
  93              	.L2:
  94              	.LBE76:
  95              	.LBE75:
  96              		.loc 1 292 0
  97 002c 4FF0FF34 		mov	r4, #-1
  98              	.LBB77:
  99              	.LBB78:
 100              		.loc 1 222 0
 101 0030 0022     		movs	r2, #0
 102 0032 8168     		ldr	r1, [r0, #8]
 103              		.loc 1 223 0
 104 0034 0D4B     		ldr	r3, .L12
 105              	.LBE78:
 106              	.LBE77:
 107              		.loc 1 292 0
 108 0036 0462     		str	r4, [r0, #32]
 109              	.LVL4:
 110              	.LBB81:
 111              	.LBB79:
 112              		.loc 1 222 0
 113 0038 0277     		strb	r2, [r0, #28]
 114              	.LVL5:
ARM GAS  /tmp/ccT6KVHs.s 			page 3


 115              	.L10:
 116              		.loc 1 225 0
 117 003a 1B68     		ldr	r3, [r3]
 118              	.LVL6:
 119              		.loc 1 226 0
 120 003c 9A68     		ldr	r2, [r3, #8]
 121 003e 8A42     		cmp	r2, r1
 122 0040 FBD2     		bcs	.L10
 123              		.loc 1 229 0
 124 0042 5A68     		ldr	r2, [r3, #4]
 125 0044 4260     		str	r2, [r0, #4]
 126              		.loc 1 228 0
 127 0046 0360     		str	r3, [r0]
 128              	.LBE79:
 129              	.LBE81:
 130              	.LBB82:
 131              	.LBB83:
 132              	.LBB84:
 133              	.LBB85:
 134              	.LBB86:
 135              		.loc 2 546 0
 136 0048 0021     		movs	r1, #0
 137              	.LBE86:
 138              	.LBE85:
 139              	.LBE84:
 140              	.LBE83:
 141              	.LBE82:
 142              	.LBB91:
 143              	.LBB80:
 144              		.loc 1 230 0
 145 004a 5860     		str	r0, [r3, #4]
 146 004c 1060     		str	r0, [r2]
 147              	.LVL7:
 148              	.LBE80:
 149              	.LBE91:
 150              	.LBB92:
 151              	.LBB90:
 152              	.LBB89:
 153              	.LBB88:
 154              	.LBB87:
 155              		.loc 2 546 0
 156              	@ 546 "../ChibiOS/os/ext/CMSIS/include/core_cmFunc.h" 1
 157 004e 81F31188 		MSR basepri, r1
 158              	@ 0 "" 2
 159              		.thumb
 160              	.LBE87:
 161              	.LBE88:
 162              	.LBE89:
 163              	.LBE90:
 164              	.LBE92:
 165              		.loc 1 295 0
 166 0052 5DF8044B 		ldr	r4, [sp], #4
 167 0056 7047     		bx	lr
 168              	.LVL8:
 169              	.L5:
 170              		.loc 1 278 0
 171 0058 036A     		ldr	r3, [r0, #32]
ARM GAS  /tmp/ccT6KVHs.s 			page 4


 172 005a 0022     		movs	r2, #0
 173 005c 1A60     		str	r2, [r3]
 174              		.loc 1 279 0
 175 005e E5E7     		b	.L2
 176              	.L3:
 177              	.LVL9:
 178              	.LBB93:
 179              	.LBB94:
 180              	.LBB95:
 181              	.LBB96:
 182              	.LBB97:
 183              		.loc 2 546 0
 184 0060 0023     		movs	r3, #0
 185              	@ 546 "../ChibiOS/os/ext/CMSIS/include/core_cmFunc.h" 1
 186 0062 83F31188 		MSR basepri, r3
 187              	@ 0 "" 2
 188              		.thumb
 189              	.LBE97:
 190              	.LBE96:
 191              	.LBE95:
 192              	.LBE94:
 193              	.LBE93:
 194              		.loc 1 295 0
 195 0066 5DF8044B 		ldr	r4, [sp], #4
 196 006a 7047     		bx	lr
 197              	.L13:
 198              		.align	2
 199              	.L12:
 200 006c 00000000 		.word	.LANCHOR0
 201              		.cfi_endproc
 202              	.LFE229:
 203              		.size	wakeup, .-wakeup
 204              		.section	.text._scheduler_init,"ax",%progbits
 205              		.align	2
 206              		.p2align 4,,15
 207              		.global	_scheduler_init
 208              		.thumb
 209              		.thumb_func
 210              		.type	_scheduler_init, %function
 211              	_scheduler_init:
 212              	.LFB226:
 213              		.loc 1 65 0
 214              		.cfi_startproc
 215              		@ args = 0, pretend = 0, frame = 0
 216              		@ frame_needed = 0, uses_anonymous_args = 0
 217              		@ link register save eliminated.
 218              	.LVL10:
 219              	.LBB98:
 220              	.LBB99:
 221              		.loc 4 574 0
 222 0000 034B     		ldr	r3, .L15
 223              	.LBE99:
 224              	.LBE98:
 225              		.loc 1 68 0
 226 0002 0022     		movs	r2, #0
 227              	.LBB101:
 228              	.LBB100:
ARM GAS  /tmp/ccT6KVHs.s 			page 5


 229              		.loc 4 574 0
 230 0004 5B60     		str	r3, [r3, #4]
 231 0006 1B60     		str	r3, [r3]
 232              	.LBE100:
 233              	.LBE101:
 234              		.loc 1 70 0
 235 0008 5B61     		str	r3, [r3, #20]
 236 000a 1B61     		str	r3, [r3, #16]
 237              		.loc 1 68 0
 238 000c 9A60     		str	r2, [r3, #8]
 239 000e 7047     		bx	lr
 240              	.L16:
 241              		.align	2
 242              	.L15:
 243 0010 00000000 		.word	.LANCHOR0
 244              		.cfi_endproc
 245              	.LFE226:
 246              		.size	_scheduler_init, .-_scheduler_init
 247 0014 AFF30080 		.section	.text.chSchReadyI,"ax",%progbits
 247      AFF30080 
 247      AFF30080 
 248              		.align	2
 249              		.p2align 4,,15
 250              		.global	chSchReadyI
 251              		.thumb
 252              		.thumb_func
 253              		.type	chSchReadyI, %function
 254              	chSchReadyI:
 255              	.LFB227:
 256              		.loc 1 213 0
 257              		.cfi_startproc
 258              		@ args = 0, pretend = 0, frame = 0
 259              		@ frame_needed = 0, uses_anonymous_args = 0
 260              		@ link register save eliminated.
 261              	.LVL11:
 262              		.loc 1 222 0
 263 0000 0022     		movs	r2, #0
 264 0002 8168     		ldr	r1, [r0, #8]
 265              		.loc 1 223 0
 266 0004 084B     		ldr	r3, .L20
 267              		.loc 1 213 0
 268 0006 10B4     		push	{r4}
 269              		.cfi_def_cfa_offset 4
 270              		.cfi_offset 4, -4
 271              		.loc 1 213 0
 272 0008 0446     		mov	r4, r0
 273              		.loc 1 222 0
 274 000a 0277     		strb	r2, [r0, #28]
 275              	.LVL12:
 276              	.L19:
 277              		.loc 1 225 0 discriminator 1
 278 000c 1B68     		ldr	r3, [r3]
 279              	.LVL13:
 280              		.loc 1 226 0 discriminator 1
 281 000e 9A68     		ldr	r2, [r3, #8]
 282 0010 8A42     		cmp	r2, r1
 283 0012 FBD2     		bcs	.L19
ARM GAS  /tmp/ccT6KVHs.s 			page 6


 284              		.loc 1 229 0
 285 0014 5A68     		ldr	r2, [r3, #4]
 286 0016 6260     		str	r2, [r4, #4]
 287              		.loc 1 228 0
 288 0018 2360     		str	r3, [r4]
 289              		.loc 1 232 0
 290 001a 2046     		mov	r0, r4
 291              	.LVL14:
 292              		.loc 1 230 0
 293 001c 5C60     		str	r4, [r3, #4]
 294 001e 1460     		str	r4, [r2]
 295              		.loc 1 232 0
 296 0020 5DF8044B 		ldr	r4, [sp], #4
 297              	.LVL15:
 298 0024 7047     		bx	lr
 299              	.L21:
 300 0026 00BF     		.align	2
 301              	.L20:
 302 0028 00000000 		.word	.LANCHOR0
 303              		.cfi_endproc
 304              	.LFE227:
 305              		.size	chSchReadyI, .-chSchReadyI
 306 002c AFF30080 		.section	.text.chSchGoSleepS,"ax",%progbits
 307              		.align	2
 308              		.p2align 4,,15
 309              		.global	chSchGoSleepS
 310              		.thumb
 311              		.thumb_func
 312              		.type	chSchGoSleepS, %function
 313              	chSchGoSleepS:
 314              	.LFB228:
 315              		.loc 1 243 0
 316              		.cfi_startproc
 317              		@ args = 0, pretend = 0, frame = 0
 318              		@ frame_needed = 0, uses_anonymous_args = 0
 319              		@ link register save eliminated.
 320              	.LVL16:
 321              		.loc 1 248 0
 322 0000 074B     		ldr	r3, .L23
 323              		.loc 1 243 0
 324 0002 30B4     		push	{r4, r5}
 325              		.cfi_def_cfa_offset 8
 326              		.cfi_offset 4, -8
 327              		.cfi_offset 5, -4
 328              	.LBB102:
 329              	.LBB103:
 330              		.loc 4 638 0
 331 0004 1A68     		ldr	r2, [r3]
 332              	.LBE103:
 333              	.LBE102:
 334              		.loc 1 248 0
 335 0006 9969     		ldr	r1, [r3, #24]
 336              	.LVL17:
 337              	.LBB107:
 338              	.LBB104:
 339              		.loc 4 640 0
 340 0008 1468     		ldr	r4, [r2]
ARM GAS  /tmp/ccT6KVHs.s 			page 7


 341              	.LBE104:
 342              	.LBE107:
 343              		.loc 1 248 0
 344 000a 0877     		strb	r0, [r1, #28]
 345              	.LVL18:
 346              		.loc 1 260 0
 347 000c 0125     		movs	r5, #1
 348              	.LBB108:
 349              	.LBB105:
 350              		.loc 4 640 0
 351 000e 6360     		str	r3, [r4, #4]
 352              	.LBE105:
 353              	.LBE108:
 354              		.loc 1 260 0
 355 0010 1577     		strb	r5, [r2, #28]
 356              	.LBB109:
 357              	.LBB106:
 358              		.loc 4 640 0
 359 0012 1C60     		str	r4, [r3]
 360              	.LBE106:
 361              	.LBE109:
 362              		.loc 1 261 0
 363 0014 1046     		mov	r0, r2
 364              	.LVL19:
 365              		.loc 1 262 0
 366 0016 30BC     		pop	{r4, r5}
 367              		.loc 1 254 0
 368 0018 9A61     		str	r2, [r3, #24]
 369              		.loc 1 261 0
 370 001a FFF7FEBF 		b	_port_switch
 371              	.LVL20:
 372              	.L24:
 373 001e 00BF     		.align	2
 374              	.L23:
 375 0020 00000000 		.word	.LANCHOR0
 376              		.cfi_endproc
 377              	.LFE228:
 378              		.size	chSchGoSleepS, .-chSchGoSleepS
 379 0024 AFF30080 		.section	.text.chSchGoSleepTimeoutS,"ax",%progbits
 379      AFF30080 
 379      AFF30080 
 380              		.align	2
 381              		.p2align 4,,15
 382              		.global	chSchGoSleepTimeoutS
 383              		.thumb
 384              		.thumb_func
 385              		.type	chSchGoSleepTimeoutS, %function
 386              	chSchGoSleepTimeoutS:
 387              	.LFB230:
 388              		.loc 1 318 0
 389              		.cfi_startproc
 390              		@ args = 0, pretend = 0, frame = 24
 391              		@ frame_needed = 0, uses_anonymous_args = 0
 392              	.LVL21:
 393 0000 30B5     		push	{r4, r5, lr}
 394              		.cfi_def_cfa_offset 12
 395              		.cfi_offset 4, -12
ARM GAS  /tmp/ccT6KVHs.s 			page 8


 396              		.cfi_offset 5, -8
 397              		.cfi_offset 14, -4
 398              		.loc 1 322 0
 399 0002 4B1C     		adds	r3, r1, #1
 400              		.loc 1 318 0
 401 0004 87B0     		sub	sp, sp, #28
 402              		.cfi_def_cfa_offset 40
 403              		.loc 1 318 0
 404 0006 0546     		mov	r5, r0
 405              		.loc 1 322 0
 406 0008 11D0     		beq	.L26
 407              	.LBB110:
 408              		.loc 1 325 0
 409 000a 0C4C     		ldr	r4, .L32
 410 000c 0C4A     		ldr	r2, .L32+4
 411 000e A369     		ldr	r3, [r4, #24]
 412 0010 01A8     		add	r0, sp, #4
 413              	.LVL22:
 414 0012 FFF7FEFF 		bl	chVTDoSetI
 415              	.LVL23:
 416              		.loc 1 326 0
 417 0016 2846     		mov	r0, r5
 418 0018 FFF7FEFF 		bl	chSchGoSleepS
 419              	.LVL24:
 420              		.loc 1 327 0
 421 001c 049B     		ldr	r3, [sp, #16]
 422 001e 13B1     		cbz	r3, .L28
 423              		.loc 1 328 0
 424 0020 01A8     		add	r0, sp, #4
 425              	.LVL25:
 426 0022 FFF7FEFF 		bl	chVTDoResetI
 427              	.LVL26:
 428              	.L28:
 429              	.LBE110:
 430              		.loc 1 332 0
 431 0026 A369     		ldr	r3, [r4, #24]
 432              		.loc 1 333 0
 433 0028 186A     		ldr	r0, [r3, #32]
 434 002a 07B0     		add	sp, sp, #28
 435              		@ sp needed
 436 002c 30BD     		pop	{r4, r5, pc}
 437              	.LVL27:
 438              	.L26:
 439 002e 034C     		ldr	r4, .L32
 440              		.loc 1 331 0
 441 0030 FFF7FEFF 		bl	chSchGoSleepS
 442              	.LVL28:
 443              		.loc 1 332 0
 444 0034 A369     		ldr	r3, [r4, #24]
 445              		.loc 1 333 0
 446 0036 186A     		ldr	r0, [r3, #32]
 447 0038 07B0     		add	sp, sp, #28
 448              		@ sp needed
 449 003a 30BD     		pop	{r4, r5, pc}
 450              	.L33:
 451              		.align	2
 452              	.L32:
ARM GAS  /tmp/ccT6KVHs.s 			page 9


 453 003c 00000000 		.word	.LANCHOR0
 454 0040 00000000 		.word	wakeup
 455              		.cfi_endproc
 456              	.LFE230:
 457              		.size	chSchGoSleepTimeoutS, .-chSchGoSleepTimeoutS
 458 0044 AFF30080 		.section	.text.chSchWakeupS,"ax",%progbits
 458      AFF30080 
 458      AFF30080 
 459              		.align	2
 460              		.p2align 4,,15
 461              		.global	chSchWakeupS
 462              		.thumb
 463              		.thumb_func
 464              		.type	chSchWakeupS, %function
 465              	chSchWakeupS:
 466              	.LFB231:
 467              		.loc 1 352 0
 468              		.cfi_startproc
 469              		@ args = 0, pretend = 0, frame = 0
 470              		@ frame_needed = 0, uses_anonymous_args = 0
 471              		@ link register save eliminated.
 472              	.LVL29:
 473              		.loc 1 364 0
 474 0000 DFF858C0 		ldr	ip, .L42
 475              		.loc 1 352 0
 476 0004 F0B4     		push	{r4, r5, r6, r7}
 477              		.cfi_def_cfa_offset 16
 478              		.cfi_offset 4, -16
 479              		.cfi_offset 5, -12
 480              		.cfi_offset 6, -8
 481              		.cfi_offset 7, -4
 482              		.loc 1 364 0
 483 0006 DCF81870 		ldr	r7, [ip, #24]
 484 000a 8568     		ldr	r5, [r0, #8]
 485 000c BC68     		ldr	r4, [r7, #8]
 486              		.loc 1 358 0
 487 000e 0162     		str	r1, [r0, #32]
 488              		.loc 1 364 0
 489 0010 A542     		cmp	r5, r4
 490              		.loc 1 352 0
 491 0012 0646     		mov	r6, r0
 492              		.loc 1 364 0
 493 0014 0DD8     		bhi	.L35
 494              	.LVL30:
 495              	.LBB111:
 496              	.LBB112:
 497              		.loc 1 222 0
 498 0016 0022     		movs	r2, #0
 499              		.loc 1 223 0
 500 0018 6346     		mov	r3, ip
 501              		.loc 1 222 0
 502 001a 0277     		strb	r2, [r0, #28]
 503              	.LVL31:
 504              	.L37:
 505              		.loc 1 225 0
 506 001c 1B68     		ldr	r3, [r3]
 507              	.LVL32:
ARM GAS  /tmp/ccT6KVHs.s 			page 10


 508              		.loc 1 226 0
 509 001e 9A68     		ldr	r2, [r3, #8]
 510 0020 9542     		cmp	r5, r2
 511 0022 FBD9     		bls	.L37
 512              		.loc 1 229 0
 513 0024 5A68     		ldr	r2, [r3, #4]
 514 0026 7260     		str	r2, [r6, #4]
 515              		.loc 1 228 0
 516 0028 3360     		str	r3, [r6]
 517              		.loc 1 230 0
 518 002a 5E60     		str	r6, [r3, #4]
 519 002c 1660     		str	r6, [r2]
 520              	.LBE112:
 521              	.LBE111:
 522              		.loc 1 378 0
 523 002e F0BC     		pop	{r4, r5, r6, r7}
 524 0030 7047     		bx	lr
 525              	.LVL33:
 526              	.L35:
 527              	.LBB113:
 528              	.LBB114:
 529              	.LBB115:
 530              		.loc 1 222 0
 531 0032 0023     		movs	r3, #0
 532 0034 3B77     		strb	r3, [r7, #28]
 533              	.LVL34:
 534              		.loc 1 223 0
 535 0036 6346     		mov	r3, ip
 536              	.LVL35:
 537              	.L40:
 538              		.loc 1 225 0
 539 0038 1B68     		ldr	r3, [r3]
 540              	.LVL36:
 541              		.loc 1 226 0
 542 003a 9A68     		ldr	r2, [r3, #8]
 543 003c 9442     		cmp	r4, r2
 544 003e FBD9     		bls	.L40
 545              		.loc 1 229 0
 546 0040 5A68     		ldr	r2, [r3, #4]
 547 0042 7A60     		str	r2, [r7, #4]
 548              	.LBE115:
 549              	.LBE114:
 550              		.loc 1 375 0
 551 0044 0124     		movs	r4, #1
 552              	.LBB117:
 553              	.LBB116:
 554              		.loc 1 228 0
 555 0046 3B60     		str	r3, [r7]
 556              		.loc 1 230 0
 557 0048 5F60     		str	r7, [r3, #4]
 558 004a 1760     		str	r7, [r2]
 559              	.LBE116:
 560              	.LBE117:
 561              		.loc 1 375 0
 562 004c 3477     		strb	r4, [r6, #28]
 563              		.loc 1 376 0
 564 004e 3946     		mov	r1, r7
ARM GAS  /tmp/ccT6KVHs.s 			page 11


 565              	.LVL37:
 566 0050 3046     		mov	r0, r6
 567              	.LVL38:
 568              		.loc 1 369 0
 569 0052 CCF81860 		str	r6, [ip, #24]
 570              	.LBE113:
 571              		.loc 1 378 0
 572 0056 F0BC     		pop	{r4, r5, r6, r7}
 573              	.LVL39:
 574              	.LBB118:
 575              		.loc 1 376 0
 576 0058 FFF7FEBF 		b	_port_switch
 577              	.LVL40:
 578              	.L43:
 579              		.align	2
 580              	.L42:
 581 005c 00000000 		.word	.LANCHOR0
 582              	.LBE118:
 583              		.cfi_endproc
 584              	.LFE231:
 585              		.size	chSchWakeupS, .-chSchWakeupS
 586              		.section	.text.chSchIsPreemptionRequired,"ax",%progbits
 587              		.align	2
 588              		.p2align 4,,15
 589              		.global	chSchIsPreemptionRequired
 590              		.thumb
 591              		.thumb_func
 592              		.type	chSchIsPreemptionRequired, %function
 593              	chSchIsPreemptionRequired:
 594              	.LFB233:
 595              		.loc 1 408 0
 596              		.cfi_startproc
 597              		@ args = 0, pretend = 0, frame = 0
 598              		@ frame_needed = 0, uses_anonymous_args = 0
 599              		@ link register save eliminated.
 600              	.LVL41:
 601              		.loc 1 409 0
 602 0000 044B     		ldr	r3, .L45
 603 0002 1A68     		ldr	r2, [r3]
 604              		.loc 1 410 0
 605 0004 9B69     		ldr	r3, [r3, #24]
 606              		.loc 1 420 0
 607 0006 9068     		ldr	r0, [r2, #8]
 608 0008 9B68     		ldr	r3, [r3, #8]
 609              		.loc 1 422 0
 610 000a 9842     		cmp	r0, r3
 611 000c 94BF     		ite	ls
 612 000e 0020     		movls	r0, #0
 613 0010 0120     		movhi	r0, #1
 614 0012 7047     		bx	lr
 615              	.L46:
 616              		.align	2
 617              	.L45:
 618 0014 00000000 		.word	.LANCHOR0
 619              		.cfi_endproc
 620              	.LFE233:
 621              		.size	chSchIsPreemptionRequired, .-chSchIsPreemptionRequired
ARM GAS  /tmp/ccT6KVHs.s 			page 12


 622 0018 AFF30080 		.section	.text.chSchDoRescheduleBehind,"ax",%progbits
 622      AFF30080 
 623              		.align	2
 624              		.p2align 4,,15
 625              		.global	chSchDoRescheduleBehind
 626              		.thumb
 627              		.thumb_func
 628              		.type	chSchDoRescheduleBehind, %function
 629              	chSchDoRescheduleBehind:
 630              	.LFB234:
 631              		.loc 1 434 0
 632              		.cfi_startproc
 633              		@ args = 0, pretend = 0, frame = 0
 634              		@ frame_needed = 0, uses_anonymous_args = 0
 635              		@ link register save eliminated.
 636              		.loc 1 437 0
 637 0000 0D4A     		ldr	r2, .L51
 638              	.LBB119:
 639              	.LBB120:
 640              		.loc 4 638 0
 641 0002 1068     		ldr	r0, [r2]
 642              	.LBE120:
 643              	.LBE119:
 644              		.loc 1 434 0
 645 0004 70B4     		push	{r4, r5, r6}
 646              		.cfi_def_cfa_offset 12
 647              		.cfi_offset 4, -12
 648              		.cfi_offset 5, -8
 649              		.cfi_offset 6, -4
 650              	.LBB124:
 651              	.LBB121:
 652              		.loc 4 640 0
 653 0006 0368     		ldr	r3, [r0]
 654              	.LBE121:
 655              	.LBE124:
 656              		.loc 1 437 0
 657 0008 9569     		ldr	r5, [r2, #24]
 658              	.LVL42:
 659              	.LBB125:
 660              	.LBB122:
 661              		.loc 4 640 0
 662 000a 1360     		str	r3, [r2]
 663              	.LBE122:
 664              	.LBE125:
 665              		.loc 1 445 0
 666 000c 0126     		movs	r6, #1
 667              	.LBB126:
 668              	.LBB127:
 669              		.loc 1 222 0
 670 000e 0021     		movs	r1, #0
 671 0010 AC68     		ldr	r4, [r5, #8]
 672              	.LBE127:
 673              	.LBE126:
 674              	.LBB130:
 675              	.LBB123:
 676              		.loc 4 640 0
 677 0012 5A60     		str	r2, [r3, #4]
ARM GAS  /tmp/ccT6KVHs.s 			page 13


 678              	.LBE123:
 679              	.LBE130:
 680              		.loc 1 445 0
 681 0014 0677     		strb	r6, [r0, #28]
 682              	.LVL43:
 683              		.loc 1 439 0
 684 0016 9061     		str	r0, [r2, #24]
 685              	.LBB131:
 686              	.LBB128:
 687              		.loc 1 222 0
 688 0018 2977     		strb	r1, [r5, #28]
 689              	.LVL44:
 690 001a 00E0     		b	.L49
 691              	.LVL45:
 692              	.L50:
 693 001c 1B68     		ldr	r3, [r3]
 694              	.LVL46:
 695              	.L49:
 696              		.loc 1 226 0
 697 001e 9A68     		ldr	r2, [r3, #8]
 698 0020 A242     		cmp	r2, r4
 699 0022 FBD2     		bcs	.L50
 700              		.loc 1 229 0
 701 0024 5A68     		ldr	r2, [r3, #4]
 702 0026 6A60     		str	r2, [r5, #4]
 703              		.loc 1 228 0
 704 0028 2B60     		str	r3, [r5]
 705              	.LBE128:
 706              	.LBE131:
 707              		.loc 1 450 0
 708 002a 2946     		mov	r1, r5
 709              	.LBB132:
 710              	.LBB129:
 711              		.loc 1 230 0
 712 002c 5D60     		str	r5, [r3, #4]
 713 002e 1560     		str	r5, [r2]
 714              	.LBE129:
 715              	.LBE132:
 716              		.loc 1 451 0
 717 0030 70BC     		pop	{r4, r5, r6}
 718              	.LVL47:
 719              		.loc 1 450 0
 720 0032 FFF7FEBF 		b	_port_switch
 721              	.LVL48:
 722              	.L52:
 723 0036 00BF     		.align	2
 724              	.L51:
 725 0038 00000000 		.word	.LANCHOR0
 726              		.cfi_endproc
 727              	.LFE234:
 728              		.size	chSchDoRescheduleBehind, .-chSchDoRescheduleBehind
 729 003c AFF30080 		.section	.text.chSchDoRescheduleAhead,"ax",%progbits
 730              		.align	2
 731              		.p2align 4,,15
 732              		.global	chSchDoRescheduleAhead
 733              		.thumb
 734              		.thumb_func
ARM GAS  /tmp/ccT6KVHs.s 			page 14


 735              		.type	chSchDoRescheduleAhead, %function
 736              	chSchDoRescheduleAhead:
 737              	.LFB235:
 738              		.loc 1 462 0
 739              		.cfi_startproc
 740              		@ args = 0, pretend = 0, frame = 0
 741              		@ frame_needed = 0, uses_anonymous_args = 0
 742              		@ link register save eliminated.
 743              		.loc 1 465 0
 744 0000 0D4A     		ldr	r2, .L57
 745              	.LBB133:
 746              	.LBB134:
 747              		.loc 4 638 0
 748 0002 1068     		ldr	r0, [r2]
 749              	.LBE134:
 750              	.LBE133:
 751              		.loc 1 462 0
 752 0004 70B4     		push	{r4, r5, r6}
 753              		.cfi_def_cfa_offset 12
 754              		.cfi_offset 4, -12
 755              		.cfi_offset 5, -8
 756              		.cfi_offset 6, -4
 757              	.LBB138:
 758              	.LBB135:
 759              		.loc 4 640 0
 760 0006 0368     		ldr	r3, [r0]
 761              	.LBE135:
 762              	.LBE138:
 763              		.loc 1 465 0
 764 0008 9569     		ldr	r5, [r2, #24]
 765              	.LVL49:
 766              	.LBB139:
 767              	.LBB136:
 768              		.loc 4 640 0
 769 000a 1360     		str	r3, [r2]
 770              	.LBE136:
 771              	.LBE139:
 772              		.loc 1 473 0
 773 000c 0126     		movs	r6, #1
 774              		.loc 1 475 0
 775 000e 0021     		movs	r1, #0
 776 0010 AC68     		ldr	r4, [r5, #8]
 777              	.LBB140:
 778              	.LBB137:
 779              		.loc 4 640 0
 780 0012 5A60     		str	r2, [r3, #4]
 781              	.LBE137:
 782              	.LBE140:
 783              		.loc 1 473 0
 784 0014 0677     		strb	r6, [r0, #28]
 785              		.loc 1 467 0
 786 0016 9061     		str	r0, [r2, #24]
 787              		.loc 1 475 0
 788 0018 2977     		strb	r1, [r5, #28]
 789              	.LVL50:
 790 001a 00E0     		b	.L55
 791              	.LVL51:
ARM GAS  /tmp/ccT6KVHs.s 			page 15


 792              	.L56:
 793 001c 1B68     		ldr	r3, [r3]
 794              	.LVL52:
 795              	.L55:
 796              		.loc 1 479 0 discriminator 1
 797 001e 9A68     		ldr	r2, [r3, #8]
 798 0020 A242     		cmp	r2, r4
 799 0022 FBD8     		bhi	.L56
 800              		.loc 1 482 0
 801 0024 5A68     		ldr	r2, [r3, #4]
 802 0026 6A60     		str	r2, [r5, #4]
 803              		.loc 1 481 0
 804 0028 2B60     		str	r3, [r5]
 805              		.loc 1 485 0
 806 002a 2946     		mov	r1, r5
 807              		.loc 1 483 0
 808 002c 5D60     		str	r5, [r3, #4]
 809 002e 1560     		str	r5, [r2]
 810              		.loc 1 486 0
 811 0030 70BC     		pop	{r4, r5, r6}
 812              	.LVL53:
 813              		.loc 1 485 0
 814 0032 FFF7FEBF 		b	_port_switch
 815              	.LVL54:
 816              	.L58:
 817 0036 00BF     		.align	2
 818              	.L57:
 819 0038 00000000 		.word	.LANCHOR0
 820              		.cfi_endproc
 821              	.LFE235:
 822              		.size	chSchDoRescheduleAhead, .-chSchDoRescheduleAhead
 823 003c AFF30080 		.section	.text.chSchRescheduleS,"ax",%progbits
 824              		.align	2
 825              		.p2align 4,,15
 826              		.global	chSchRescheduleS
 827              		.thumb
 828              		.thumb_func
 829              		.type	chSchRescheduleS, %function
 830              	chSchRescheduleS:
 831              	.LFB232:
 832              		.loc 1 387 0
 833              		.cfi_startproc
 834              		@ args = 0, pretend = 0, frame = 0
 835              		@ frame_needed = 0, uses_anonymous_args = 0
 836              		@ link register save eliminated.
 837              	.LBB141:
 838              	.LBB142:
 839              		.loc 4 674 0
 840 0000 044B     		ldr	r3, .L62
 841 0002 1A68     		ldr	r2, [r3]
 842 0004 9B69     		ldr	r3, [r3, #24]
 843              	.LBE142:
 844              	.LBE141:
 845              		.loc 1 391 0
 846 0006 9268     		ldr	r2, [r2, #8]
 847 0008 9B68     		ldr	r3, [r3, #8]
 848 000a 9A42     		cmp	r2, r3
ARM GAS  /tmp/ccT6KVHs.s 			page 16


 849 000c 00D8     		bhi	.L61
 850 000e 7047     		bx	lr
 851              	.L61:
 852              		.loc 1 392 0
 853 0010 FFF7FEBF 		b	chSchDoRescheduleAhead
 854              	.LVL55:
 855              	.L63:
 856              		.align	2
 857              	.L62:
 858 0014 00000000 		.word	.LANCHOR0
 859              		.cfi_endproc
 860              	.LFE232:
 861              		.size	chSchRescheduleS, .-chSchRescheduleS
 862 0018 AFF30080 		.section	.text.chSchDoReschedule,"ax",%progbits
 862      AFF30080 
 863              		.align	2
 864              		.p2align 4,,15
 865              		.global	chSchDoReschedule
 866              		.thumb
 867              		.thumb_func
 868              		.type	chSchDoReschedule, %function
 869              	chSchDoReschedule:
 870              	.LFB236:
 871              		.loc 1 498 0
 872              		.cfi_startproc
 873              		@ args = 0, pretend = 0, frame = 0
 874              		@ frame_needed = 0, uses_anonymous_args = 0
 875              		@ link register save eliminated.
 876              		.loc 1 516 0
 877 0000 FFF7FEBF 		b	chSchDoRescheduleAhead
 878              	.LVL56:
 879              		.cfi_endproc
 880              	.LFE236:
 881              		.size	chSchDoReschedule, .-chSchDoReschedule
 882              		.global	ch
 883 0004 AFF30080 		.section	.bss.ch,"aw",%nobits
 883      AFF30080 
 883      AFF30080 
 884              		.align	3
 885              		.set	.LANCHOR0,. + 0
 886              		.type	ch, %object
 887              		.size	ch, 336
 888              	ch:
 889 0000 00000000 		.space	336
 889      00000000 
 889      00000000 
 889      00000000 
 889      00000000 
 890              		.text
 891              	.Letext0:
 892              		.file 5 "/nfs/nfs5/home/research/hardware/arm2/gcc-arm-embedded/gcc-arm-none-eabi-4_8-2014q2/arm-n
 893              		.file 6 "/nfs/nfs5/home/research/hardware/arm2/gcc-arm-embedded/gcc-arm-none-eabi-4_8-2014q2/arm-n
 894              		.file 7 "../ChibiOS/os/rt/ports/ARMCMx/compilers/GCC/chtypes.h"
 895              		.file 8 "../ChibiOS/os/rt/include/chsystypes.h"
 896              		.file 9 "../ChibiOS/os/rt/ports/ARMCMx/chcore.h"
 897              		.file 10 "../ChibiOS/os/rt/ports/ARMCMx/chcore_v7m.h"
 898              		.file 11 "../ChibiOS/os/rt/include/chtm.h"
ARM GAS  /tmp/ccT6KVHs.s 			page 17


 899              		.file 12 "../ChibiOS/os/rt/include/chmtx.h"
 900              		.file 13 "../ChibiOS/os/rt/include/chthreads.h"
 901              		.file 14 "../ChibiOS/os/rt/include/chvt.h"
 902              		.file 15 "../ChibiOS/os/rt/include/chsys.h"
 903              		.file 16 "../ChibiOS/os/ext/CMSIS/include/core_cm4.h"