ARM GAS  /tmp/cc2ngWep.s 			page 1


   1              		.syntax unified
   2              		.cpu cortex-m4
   3              		.fpu softvfp
   4              		.eabi_attribute 20, 1
   5              		.eabi_attribute 21, 1
   6              		.eabi_attribute 23, 3
   7              		.eabi_attribute 24, 1
   8              		.eabi_attribute 25, 1
   9              		.eabi_attribute 26, 1
  10              		.eabi_attribute 30, 2
  11              		.eabi_attribute 34, 1
  12              		.eabi_attribute 18, 4
  13              		.thumb
  14              		.file	"chsem.c"
  15              		.text
  16              	.Ltext0:
  17              		.cfi_sections	.debug_frame
  18              		.section	.text.chSemObjectInit,"ax",%progbits
  19              		.align	2
  20              		.p2align 4,,15
  21              		.global	chSemObjectInit
  22              		.thumb
  23              		.thumb_func
  24              		.type	chSemObjectInit, %function
  25              	chSemObjectInit:
  26              	.LFB226:
  27              		.file 1 "../ChibiOS/os/rt/src/chsem.c"
  28              		.loc 1 97 0
  29              		.cfi_startproc
  30              		@ args = 0, pretend = 0, frame = 0
  31              		@ frame_needed = 0, uses_anonymous_args = 0
  32              		@ link register save eliminated.
  33              	.LVL0:
  34              	.LBB84:
  35              	.LBB85:
  36              		.file 2 "../ChibiOS/os/rt/include/chschd.h"
  37              		.loc 2 574 0
  38 0000 4060     		str	r0, [r0, #4]
  39 0002 0060     		str	r0, [r0]
  40              	.LBE85:
  41              	.LBE84:
  42              		.loc 1 102 0
  43 0004 8160     		str	r1, [r0, #8]
  44 0006 7047     		bx	lr
  45              		.cfi_endproc
  46              	.LFE226:
  47              		.size	chSemObjectInit, .-chSemObjectInit
  48 0008 AFF30080 		.section	.text.chSemResetI,"ax",%progbits
  48      AFF30080 
  49              		.align	2
  50              		.p2align 4,,15
  51              		.global	chSemResetI
  52              		.thumb
  53              		.thumb_func
  54              		.type	chSemResetI, %function
  55              	chSemResetI:
  56              	.LFB228:
ARM GAS  /tmp/cc2ngWep.s 			page 2


  57              		.loc 1 147 0
  58              		.cfi_startproc
  59              		@ args = 0, pretend = 0, frame = 0
  60              		@ frame_needed = 0, uses_anonymous_args = 0
  61              	.LVL1:
  62 0000 70B5     		push	{r4, r5, r6, lr}
  63              		.cfi_def_cfa_offset 16
  64              		.cfi_offset 4, -16
  65              		.cfi_offset 5, -12
  66              		.cfi_offset 6, -8
  67              		.cfi_offset 14, -4
  68              		.loc 1 156 0
  69 0002 8568     		ldr	r5, [r0, #8]
  70              	.LVL2:
  71              		.loc 1 157 0
  72 0004 8160     		str	r1, [r0, #8]
  73              		.loc 1 158 0
  74 0006 0135     		adds	r5, r5, #1
  75              	.LVL3:
  76 0008 002D     		cmp	r5, #0
  77              		.loc 1 147 0
  78 000a 0446     		mov	r4, r0
  79              		.loc 1 158 0
  80 000c 0BDC     		bgt	.L2
  81              		.loc 1 159 0
  82 000e 6FF00106 		mvn	r6, #1
  83              	.LVL4:
  84              	.L5:
  85              	.LBB86:
  86              	.LBB87:
  87              		.loc 2 645 0
  88 0012 6068     		ldr	r0, [r4, #4]
  89              	.LVL5:
  90              		.loc 2 647 0
  91 0014 4368     		ldr	r3, [r0, #4]
  92 0016 6360     		str	r3, [r4, #4]
  93 0018 1C60     		str	r4, [r3]
  94              	.LBE87:
  95              	.LBE86:
  96              		.loc 1 159 0
  97 001a FFF7FEFF 		bl	chSchReadyI
  98              	.LVL6:
  99              		.loc 1 158 0
 100 001e 0135     		adds	r5, r5, #1
 101              	.LVL7:
 102 0020 012D     		cmp	r5, #1
 103              		.loc 1 159 0
 104 0022 0662     		str	r6, [r0, #32]
 105              	.LVL8:
 106              		.loc 1 158 0
 107 0024 F5D1     		bne	.L5
 108              	.LVL9:
 109              	.L2:
 110 0026 70BD     		pop	{r4, r5, r6, pc}
 111              		.cfi_endproc
 112              	.LFE228:
 113              		.size	chSemResetI, .-chSemResetI
ARM GAS  /tmp/cc2ngWep.s 			page 3


 114 0028 AFF30080 		.section	.text.chSemReset,"ax",%progbits
 114      AFF30080 
 115              		.align	2
 116              		.p2align 4,,15
 117              		.global	chSemReset
 118              		.thumb
 119              		.thumb_func
 120              		.type	chSemReset, %function
 121              	chSemReset:
 122              	.LFB227:
 123              		.loc 1 120 0
 124              		.cfi_startproc
 125              		@ args = 0, pretend = 0, frame = 0
 126              		@ frame_needed = 0, uses_anonymous_args = 0
 127              	.LVL10:
 128 0000 08B5     		push	{r3, lr}
 129              		.cfi_def_cfa_offset 8
 130              		.cfi_offset 3, -8
 131              		.cfi_offset 14, -4
 132              	.LBB88:
 133              	.LBB89:
 134              	.LBB90:
 135              	.LBB91:
 136              		.file 3 "../ChibiOS/os/ext/CMSIS/include/core_cmFunc.h"
 137              		.loc 3 546 0
 138 0002 2023     		movs	r3, #32
 139              	@ 546 "../ChibiOS/os/ext/CMSIS/include/core_cmFunc.h" 1
 140 0004 83F31188 		MSR basepri, r3
 141              	@ 0 "" 2
 142              		.thumb
 143              	.LBE91:
 144              	.LBE90:
 145              	.LBE89:
 146              	.LBE88:
 147              		.loc 1 123 0
 148 0008 FFF7FEFF 		bl	chSemResetI
 149              	.LVL11:
 150              		.loc 1 124 0
 151 000c FFF7FEFF 		bl	chSchRescheduleS
 152              	.LVL12:
 153              	.LBB92:
 154              	.LBB93:
 155              	.LBB94:
 156              	.LBB95:
 157              	.LBB96:
 158              		.loc 3 546 0
 159 0010 0023     		movs	r3, #0
 160              	@ 546 "../ChibiOS/os/ext/CMSIS/include/core_cmFunc.h" 1
 161 0012 83F31188 		MSR basepri, r3
 162              	@ 0 "" 2
 163              		.thumb
 164 0016 08BD     		pop	{r3, pc}
 165              	.LBE96:
 166              	.LBE95:
 167              	.LBE94:
 168              	.LBE93:
 169              	.LBE92:
ARM GAS  /tmp/cc2ngWep.s 			page 4


 170              		.cfi_endproc
 171              	.LFE227:
 172              		.size	chSemReset, .-chSemReset
 173 0018 AFF30080 		.section	.text.chSemWaitS,"ax",%progbits
 173      AFF30080 
 174              		.align	2
 175              		.p2align 4,,15
 176              		.global	chSemWaitS
 177              		.thumb
 178              		.thumb_func
 179              		.type	chSemWaitS, %function
 180              	chSemWaitS:
 181              	.LFB230:
 182              		.loc 1 195 0
 183              		.cfi_startproc
 184              		@ args = 0, pretend = 0, frame = 0
 185              		@ frame_needed = 0, uses_anonymous_args = 0
 186              	.LVL13:
 187              		.loc 1 203 0
 188 0000 8268     		ldr	r2, [r0, #8]
 189 0002 013A     		subs	r2, r2, #1
 190 0004 002A     		cmp	r2, #0
 191              		.loc 1 195 0
 192 0006 10B5     		push	{r4, lr}
 193              		.cfi_def_cfa_offset 8
 194              		.cfi_offset 4, -8
 195              		.cfi_offset 14, -4
 196              		.loc 1 195 0
 197 0008 0346     		mov	r3, r0
 198              		.loc 1 203 0
 199 000a 8260     		str	r2, [r0, #8]
 200 000c 01DB     		blt	.L14
 201              		.loc 1 209 0
 202 000e 0020     		movs	r0, #0
 203              	.LVL14:
 204              		.loc 1 210 0
 205 0010 10BD     		pop	{r4, pc}
 206              	.LVL15:
 207              	.L14:
 208              		.loc 1 204 0
 209 0012 074C     		ldr	r4, .L15
 210 0014 A269     		ldr	r2, [r4, #24]
 211 0016 1062     		str	r0, [r2, #32]
 212              	.LVL16:
 213              	.LBB97:
 214              	.LBB98:
 215              		.loc 2 633 0
 216 0018 4168     		ldr	r1, [r0, #4]
 217 001a 5160     		str	r1, [r2, #4]
 218              		.loc 2 632 0
 219 001c 1060     		str	r0, [r2]
 220              		.loc 2 634 0
 221 001e 5A60     		str	r2, [r3, #4]
 222              	.LVL17:
 223              	.LBE98:
 224              	.LBE97:
 225              		.loc 1 206 0
ARM GAS  /tmp/cc2ngWep.s 			page 5


 226 0020 0520     		movs	r0, #5
 227              	.LVL18:
 228              	.LBB100:
 229              	.LBB99:
 230              		.loc 2 634 0
 231 0022 0A60     		str	r2, [r1]
 232              	.LVL19:
 233              	.LBE99:
 234              	.LBE100:
 235              		.loc 1 206 0
 236 0024 FFF7FEFF 		bl	chSchGoSleepS
 237              	.LVL20:
 238              		.loc 1 207 0
 239 0028 A369     		ldr	r3, [r4, #24]
 240 002a 186A     		ldr	r0, [r3, #32]
 241 002c 10BD     		pop	{r4, pc}
 242              	.L16:
 243 002e 00BF     		.align	2
 244              	.L15:
 245 0030 00000000 		.word	ch
 246              		.cfi_endproc
 247              	.LFE230:
 248              		.size	chSemWaitS, .-chSemWaitS
 249 0034 AFF30080 		.section	.text.chSemWait,"ax",%progbits
 249      AFF30080 
 249      AFF30080 
 250              		.align	2
 251              		.p2align 4,,15
 252              		.global	chSemWait
 253              		.thumb
 254              		.thumb_func
 255              		.type	chSemWait, %function
 256              	chSemWait:
 257              	.LFB229:
 258              		.loc 1 174 0
 259              		.cfi_startproc
 260              		@ args = 0, pretend = 0, frame = 0
 261              		@ frame_needed = 0, uses_anonymous_args = 0
 262              	.LVL21:
 263 0000 08B5     		push	{r3, lr}
 264              		.cfi_def_cfa_offset 8
 265              		.cfi_offset 3, -8
 266              		.cfi_offset 14, -4
 267              	.LBB101:
 268              	.LBB102:
 269              	.LBB103:
 270              	.LBB104:
 271              		.loc 3 546 0
 272 0002 2023     		movs	r3, #32
 273              	@ 546 "../ChibiOS/os/ext/CMSIS/include/core_cmFunc.h" 1
 274 0004 83F31188 		MSR basepri, r3
 275              	@ 0 "" 2
 276              		.thumb
 277              	.LBE104:
 278              	.LBE103:
 279              	.LBE102:
 280              	.LBE101:
ARM GAS  /tmp/cc2ngWep.s 			page 6


 281              		.loc 1 178 0
 282 0008 FFF7FEFF 		bl	chSemWaitS
 283              	.LVL22:
 284              	.LBB105:
 285              	.LBB106:
 286              	.LBB107:
 287              	.LBB108:
 288              	.LBB109:
 289              		.loc 3 546 0
 290 000c 0023     		movs	r3, #0
 291              	@ 546 "../ChibiOS/os/ext/CMSIS/include/core_cmFunc.h" 1
 292 000e 83F31188 		MSR basepri, r3
 293              	@ 0 "" 2
 294              		.thumb
 295              	.LBE109:
 296              	.LBE108:
 297              	.LBE107:
 298              	.LBE106:
 299              	.LBE105:
 300              		.loc 1 181 0
 301 0012 08BD     		pop	{r3, pc}
 302              		.cfi_endproc
 303              	.LFE229:
 304              		.size	chSemWait, .-chSemWait
 305 0014 AFF30080 		.section	.text.chSemWaitTimeoutS,"ax",%progbits
 305      AFF30080 
 305      AFF30080 
 306              		.align	2
 307              		.p2align 4,,15
 308              		.global	chSemWaitTimeoutS
 309              		.thumb
 310              		.thumb_func
 311              		.type	chSemWaitTimeoutS, %function
 312              	chSemWaitTimeoutS:
 313              	.LFB232:
 314              		.loc 1 259 0
 315              		.cfi_startproc
 316              		@ args = 0, pretend = 0, frame = 0
 317              		@ frame_needed = 0, uses_anonymous_args = 0
 318              		@ link register save eliminated.
 319              	.LVL23:
 320 0000 0346     		mov	r3, r0
 321              		.loc 1 267 0
 322 0002 8068     		ldr	r0, [r0, #8]
 323              	.LVL24:
 324 0004 421E     		subs	r2, r0, #1
 325 0006 002A     		cmp	r2, #0
 326              		.loc 1 259 0
 327 0008 10B4     		push	{r4}
 328              		.cfi_def_cfa_offset 4
 329              		.cfi_offset 4, -4
 330              		.loc 1 267 0
 331 000a 9A60     		str	r2, [r3, #8]
 332 000c 03DB     		blt	.L22
 333              		.loc 1 276 0
 334 000e 0020     		movs	r0, #0
 335              	.L19:
ARM GAS  /tmp/cc2ngWep.s 			page 7


 336              		.loc 1 277 0
 337 0010 5DF8044B 		ldr	r4, [sp], #4
 338 0014 7047     		bx	lr
 339              	.L22:
 340              		.loc 1 268 0
 341 0016 61B1     		cbz	r1, .L23
 342              		.loc 1 272 0
 343 0018 084A     		ldr	r2, .L24
 344 001a 9269     		ldr	r2, [r2, #24]
 345 001c 1362     		str	r3, [r2, #32]
 346              	.LVL25:
 347              	.LBB110:
 348              	.LBB111:
 349              		.loc 2 633 0
 350 001e 5C68     		ldr	r4, [r3, #4]
 351              	.LBE111:
 352              	.LBE110:
 353              		.loc 1 274 0
 354 0020 0520     		movs	r0, #5
 355              	.LBB113:
 356              	.LBB112:
 357              		.loc 2 633 0
 358 0022 82E81800 		stmia	r2, {r3, r4}
 359              		.loc 2 634 0
 360 0026 5A60     		str	r2, [r3, #4]
 361              	.LVL26:
 362 0028 2260     		str	r2, [r4]
 363              	.LVL27:
 364              	.LBE112:
 365              	.LBE113:
 366              		.loc 1 277 0
 367 002a 5DF8044B 		ldr	r4, [sp], #4
 368              		.loc 1 274 0
 369 002e FFF7FEBF 		b	chSchGoSleepTimeoutS
 370              	.LVL28:
 371              	.L23:
 372              		.loc 1 269 0
 373 0032 9860     		str	r0, [r3, #8]
 374              		.loc 1 270 0
 375 0034 4FF0FF30 		mov	r0, #-1
 376 0038 EAE7     		b	.L19
 377              	.L25:
 378 003a 00BF     		.align	2
 379              	.L24:
 380 003c 00000000 		.word	ch
 381              		.cfi_endproc
 382              	.LFE232:
 383              		.size	chSemWaitTimeoutS, .-chSemWaitTimeoutS
 384              		.section	.text.chSemWaitTimeout,"ax",%progbits
 385              		.align	2
 386              		.p2align 4,,15
 387              		.global	chSemWaitTimeout
 388              		.thumb
 389              		.thumb_func
 390              		.type	chSemWaitTimeout, %function
 391              	chSemWaitTimeout:
 392              	.LFB231:
ARM GAS  /tmp/cc2ngWep.s 			page 8


 393              		.loc 1 231 0
 394              		.cfi_startproc
 395              		@ args = 0, pretend = 0, frame = 0
 396              		@ frame_needed = 0, uses_anonymous_args = 0
 397              	.LVL29:
 398 0000 08B5     		push	{r3, lr}
 399              		.cfi_def_cfa_offset 8
 400              		.cfi_offset 3, -8
 401              		.cfi_offset 14, -4
 402              	.LBB114:
 403              	.LBB115:
 404              	.LBB116:
 405              	.LBB117:
 406              		.loc 3 546 0
 407 0002 2023     		movs	r3, #32
 408              	@ 546 "../ChibiOS/os/ext/CMSIS/include/core_cmFunc.h" 1
 409 0004 83F31188 		MSR basepri, r3
 410              	@ 0 "" 2
 411              		.thumb
 412              	.LBE117:
 413              	.LBE116:
 414              	.LBE115:
 415              	.LBE114:
 416              		.loc 1 235 0
 417 0008 FFF7FEFF 		bl	chSemWaitTimeoutS
 418              	.LVL30:
 419              	.LBB118:
 420              	.LBB119:
 421              	.LBB120:
 422              	.LBB121:
 423              	.LBB122:
 424              		.loc 3 546 0
 425 000c 0023     		movs	r3, #0
 426              	@ 546 "../ChibiOS/os/ext/CMSIS/include/core_cmFunc.h" 1
 427 000e 83F31188 		MSR basepri, r3
 428              	@ 0 "" 2
 429              		.thumb
 430              	.LBE122:
 431              	.LBE121:
 432              	.LBE120:
 433              	.LBE119:
 434              	.LBE118:
 435              		.loc 1 238 0
 436 0012 08BD     		pop	{r3, pc}
 437              		.cfi_endproc
 438              	.LFE231:
 439              		.size	chSemWaitTimeout, .-chSemWaitTimeout
 440 0014 AFF30080 		.section	.text.chSemSignal,"ax",%progbits
 440      AFF30080 
 440      AFF30080 
 441              		.align	2
 442              		.p2align 4,,15
 443              		.global	chSemSignal
 444              		.thumb
 445              		.thumb_func
 446              		.type	chSemSignal, %function
 447              	chSemSignal:
ARM GAS  /tmp/cc2ngWep.s 			page 9


 448              	.LFB233:
 449              		.loc 1 286 0
 450              		.cfi_startproc
 451              		@ args = 0, pretend = 0, frame = 0
 452              		@ frame_needed = 0, uses_anonymous_args = 0
 453              	.LVL31:
 454 0000 08B5     		push	{r3, lr}
 455              		.cfi_def_cfa_offset 8
 456              		.cfi_offset 3, -8
 457              		.cfi_offset 14, -4
 458              	.LBB123:
 459              	.LBB124:
 460              	.LBB125:
 461              	.LBB126:
 462              		.loc 3 546 0
 463 0002 2022     		movs	r2, #32
 464              	.LBE126:
 465              	.LBE125:
 466              	.LBE124:
 467              	.LBE123:
 468              		.loc 1 286 0
 469 0004 0346     		mov	r3, r0
 470              	.LBB130:
 471              	.LBB129:
 472              	.LBB128:
 473              	.LBB127:
 474              		.loc 3 546 0
 475              	@ 546 "../ChibiOS/os/ext/CMSIS/include/core_cmFunc.h" 1
 476 0006 82F31188 		MSR basepri, r2
 477              	@ 0 "" 2
 478              		.thumb
 479              	.LBE127:
 480              	.LBE128:
 481              	.LBE129:
 482              	.LBE130:
 483              		.loc 1 294 0
 484 000a 8268     		ldr	r2, [r0, #8]
 485 000c 0132     		adds	r2, r2, #1
 486 000e 002A     		cmp	r2, #0
 487 0010 8260     		str	r2, [r0, #8]
 488 0012 03DD     		ble	.L29
 489              	.LVL32:
 490              	.LBB131:
 491              	.LBB132:
 492              	.LBB133:
 493              	.LBB134:
 494              	.LBB135:
 495              		.loc 3 546 0
 496 0014 0023     		movs	r3, #0
 497              	@ 546 "../ChibiOS/os/ext/CMSIS/include/core_cmFunc.h" 1
 498 0016 83F31188 		MSR basepri, r3
 499              	@ 0 "" 2
 500              		.thumb
 501 001a 08BD     		pop	{r3, pc}
 502              	.LVL33:
 503              	.L29:
 504              	.LBE135:
ARM GAS  /tmp/cc2ngWep.s 			page 10


 505              	.LBE134:
 506              	.LBE133:
 507              	.LBE132:
 508              	.LBE131:
 509              	.LBB140:
 510              	.LBB141:
 511              		.loc 2 638 0
 512 001c 0068     		ldr	r0, [r0]
 513              	.LVL34:
 514              		.loc 2 640 0
 515 001e 0268     		ldr	r2, [r0]
 516 0020 1A60     		str	r2, [r3]
 517              	.LBE141:
 518              	.LBE140:
 519              		.loc 1 295 0
 520 0022 0021     		movs	r1, #0
 521              	.LBB143:
 522              	.LBB142:
 523              		.loc 2 640 0
 524 0024 5360     		str	r3, [r2, #4]
 525              	.LBE142:
 526              	.LBE143:
 527              		.loc 1 295 0
 528 0026 FFF7FEFF 		bl	chSchWakeupS
 529              	.LVL35:
 530              	.LBB144:
 531              	.LBB139:
 532              	.LBB138:
 533              	.LBB137:
 534              	.LBB136:
 535              		.loc 3 546 0
 536 002a 0023     		movs	r3, #0
 537              	@ 546 "../ChibiOS/os/ext/CMSIS/include/core_cmFunc.h" 1
 538 002c 83F31188 		MSR basepri, r3
 539              	@ 0 "" 2
 540              		.thumb
 541 0030 08BD     		pop	{r3, pc}
 542              	.LBE136:
 543              	.LBE137:
 544              	.LBE138:
 545              	.LBE139:
 546              	.LBE144:
 547              		.cfi_endproc
 548              	.LFE233:
 549              		.size	chSemSignal, .-chSemSignal
 550 0032 00BFAFF3 		.section	.text.chSemSignalI,"ax",%progbits
 550      0080AFF3 
 550      0080AFF3 
 550      0080
 551              		.align	2
 552              		.p2align 4,,15
 553              		.global	chSemSignalI
 554              		.thumb
 555              		.thumb_func
 556              		.type	chSemSignalI, %function
 557              	chSemSignalI:
 558              	.LFB234:
ARM GAS  /tmp/cc2ngWep.s 			page 11


 559              		.loc 1 310 0
 560              		.cfi_startproc
 561              		@ args = 0, pretend = 0, frame = 0
 562              		@ frame_needed = 0, uses_anonymous_args = 0
 563              		@ link register save eliminated.
 564              	.LVL36:
 565              		.loc 1 318 0
 566 0000 8368     		ldr	r3, [r0, #8]
 567 0002 0133     		adds	r3, r3, #1
 568 0004 002B     		cmp	r3, #0
 569 0006 8360     		str	r3, [r0, #8]
 570 0008 00DD     		ble	.L32
 571 000a 7047     		bx	lr
 572              	.L32:
 573              	.LVL37:
 574              	.LBB145:
 575              	.LBB146:
 576              	.LBB147:
 577              		.loc 2 638 0
 578 000c 0368     		ldr	r3, [r0]
 579              	.LVL38:
 580              		.loc 2 640 0
 581 000e 1A68     		ldr	r2, [r3]
 582 0010 0260     		str	r2, [r0]
 583              	.LBE147:
 584              	.LBE146:
 585              		.loc 1 322 0
 586 0012 0021     		movs	r1, #0
 587              	.LBB149:
 588              	.LBB148:
 589              		.loc 2 640 0
 590 0014 5060     		str	r0, [r2, #4]
 591              	.LBE148:
 592              	.LBE149:
 593              		.loc 1 323 0
 594 0016 1846     		mov	r0, r3
 595              	.LVL39:
 596              		.loc 1 322 0
 597 0018 1962     		str	r1, [r3, #32]
 598              		.loc 1 323 0
 599 001a FFF7FEBF 		b	chSchReadyI
 600              	.LVL40:
 601              	.LBE145:
 602              		.cfi_endproc
 603              	.LFE234:
 604              		.size	chSemSignalI, .-chSemSignalI
 605 001e 00BF     		.section	.text.chSemAddCounterI,"ax",%progbits
 606              		.align	2
 607              		.p2align 4,,15
 608              		.global	chSemAddCounterI
 609              		.thumb
 610              		.thumb_func
 611              		.type	chSemAddCounterI, %function
 612              	chSemAddCounterI:
 613              	.LFB235:
 614              		.loc 1 340 0
 615              		.cfi_startproc
ARM GAS  /tmp/cc2ngWep.s 			page 12


 616              		@ args = 0, pretend = 0, frame = 0
 617              		@ frame_needed = 0, uses_anonymous_args = 0
 618              	.LVL41:
 619 0000 70B5     		push	{r4, r5, r6, lr}
 620              		.cfi_def_cfa_offset 16
 621              		.cfi_offset 4, -16
 622              		.cfi_offset 5, -12
 623              		.cfi_offset 6, -8
 624              		.cfi_offset 14, -4
 625              		.loc 1 348 0
 626 0002 0C1E     		subs	r4, r1, #0
 627              		.loc 1 340 0
 628 0004 0546     		mov	r5, r0
 629              		.loc 1 348 0
 630 0006 11DD     		ble	.L33
 631              		.loc 1 350 0
 632 0008 0026     		movs	r6, #0
 633 000a 01E0     		b	.L37
 634              	.LVL42:
 635              	.L35:
 636              		.loc 1 348 0
 637 000c 013C     		subs	r4, r4, #1
 638              	.LVL43:
 639 000e 0DD0     		beq	.L33
 640              	.LVL44:
 641              	.L37:
 642              		.loc 1 349 0
 643 0010 AB68     		ldr	r3, [r5, #8]
 644 0012 0133     		adds	r3, r3, #1
 645 0014 002B     		cmp	r3, #0
 646 0016 AB60     		str	r3, [r5, #8]
 647 0018 F8DC     		bgt	.L35
 648              	.LVL45:
 649              	.LBB150:
 650              	.LBB151:
 651              		.loc 2 638 0
 652 001a 2868     		ldr	r0, [r5]
 653              	.LVL46:
 654              		.loc 2 640 0
 655 001c 0368     		ldr	r3, [r0]
 656 001e 2B60     		str	r3, [r5]
 657 0020 5D60     		str	r5, [r3, #4]
 658              	.LBE151:
 659              	.LBE150:
 660              		.loc 1 350 0
 661 0022 FFF7FEFF 		bl	chSchReadyI
 662              	.LVL47:
 663              		.loc 1 348 0
 664 0026 013C     		subs	r4, r4, #1
 665              	.LVL48:
 666              		.loc 1 350 0
 667 0028 0662     		str	r6, [r0, #32]
 668              	.LVL49:
 669              		.loc 1 348 0
 670 002a F1D1     		bne	.L37
 671              	.LVL50:
 672              	.L33:
ARM GAS  /tmp/cc2ngWep.s 			page 13


 673 002c 70BD     		pop	{r4, r5, r6, pc}
 674              		.cfi_endproc
 675              	.LFE235:
 676              		.size	chSemAddCounterI, .-chSemAddCounterI
 677 002e 00BF     		.section	.text.chSemSignalWait,"ax",%progbits
 678              		.align	2
 679              		.p2align 4,,15
 680              		.global	chSemSignalWait
 681              		.thumb
 682              		.thumb_func
 683              		.type	chSemSignalWait, %function
 684              	chSemSignalWait:
 685              	.LFB236:
 686              		.loc 1 368 0
 687              		.cfi_startproc
 688              		@ args = 0, pretend = 0, frame = 8
 689              		@ frame_needed = 0, uses_anonymous_args = 0
 690              	.LVL51:
 691 0000 10B5     		push	{r4, lr}
 692              		.cfi_def_cfa_offset 8
 693              		.cfi_offset 4, -8
 694              		.cfi_offset 14, -4
 695 0002 0346     		mov	r3, r0
 696 0004 82B0     		sub	sp, sp, #8
 697              		.cfi_def_cfa_offset 16
 698              	.LBB152:
 699              	.LBB153:
 700              	.LBB154:
 701              	.LBB155:
 702              		.loc 3 546 0
 703 0006 2022     		movs	r2, #32
 704              	@ 546 "../ChibiOS/os/ext/CMSIS/include/core_cmFunc.h" 1
 705 0008 82F31188 		MSR basepri, r2
 706              	@ 0 "" 2
 707              		.thumb
 708              	.LBE155:
 709              	.LBE154:
 710              	.LBE153:
 711              	.LBE152:
 712              		.loc 1 380 0
 713 000c 8268     		ldr	r2, [r0, #8]
 714 000e 0132     		adds	r2, r2, #1
 715 0010 002A     		cmp	r2, #0
 716 0012 8260     		str	r2, [r0, #8]
 717 0014 1DDD     		ble	.L45
 718              	.LVL52:
 719              	.L42:
 720              		.loc 1 382 0
 721 0016 8B68     		ldr	r3, [r1, #8]
 722 0018 013B     		subs	r3, r3, #1
 723 001a 002B     		cmp	r3, #0
 724 001c 8B60     		str	r3, [r1, #8]
 725 001e 07DB     		blt	.L46
 726              		.loc 1 390 0
 727 0020 FFF7FEFF 		bl	chSchRescheduleS
 728              	.LVL53:
 729              		.loc 1 391 0
ARM GAS  /tmp/cc2ngWep.s 			page 14


 730 0024 0020     		movs	r0, #0
 731              	.LVL54:
 732              	.LBB156:
 733              	.LBB157:
 734              	.LBB158:
 735              	.LBB159:
 736              	.LBB160:
 737              		.loc 3 546 0
 738 0026 0023     		movs	r3, #0
 739              	@ 546 "../ChibiOS/os/ext/CMSIS/include/core_cmFunc.h" 1
 740 0028 83F31188 		MSR basepri, r3
 741              	@ 0 "" 2
 742              		.thumb
 743              	.LBE160:
 744              	.LBE159:
 745              	.LBE158:
 746              	.LBE157:
 747              	.LBE156:
 748              		.loc 1 395 0
 749 002c 02B0     		add	sp, sp, #8
 750              		@ sp needed
 751 002e 10BD     		pop	{r4, pc}
 752              	.LVL55:
 753              	.L46:
 754              	.LBB165:
 755              		.loc 1 383 0
 756 0030 0D4A     		ldr	r2, .L47
 757              	.LBB166:
 758              	.LBB167:
 759              		.loc 2 633 0
 760 0032 4B68     		ldr	r3, [r1, #4]
 761              	.LBE167:
 762              	.LBE166:
 763              		.loc 1 383 0
 764 0034 9469     		ldr	r4, [r2, #24]
 765              	.LVL56:
 766              		.loc 1 386 0
 767 0036 0520     		movs	r0, #5
 768              	.LBB169:
 769              	.LBB168:
 770              		.loc 2 633 0
 771 0038 84E80A00 		stmia	r4, {r1, r3}
 772              		.loc 2 634 0
 773 003c 4C60     		str	r4, [r1, #4]
 774 003e 1C60     		str	r4, [r3]
 775              	.LBE168:
 776              	.LBE169:
 777              		.loc 1 385 0
 778 0040 2162     		str	r1, [r4, #32]
 779              		.loc 1 386 0
 780 0042 FFF7FEFF 		bl	chSchGoSleepS
 781              	.LVL57:
 782              		.loc 1 387 0
 783 0046 206A     		ldr	r0, [r4, #32]
 784              	.LVL58:
 785              	.LBE165:
 786              	.LBB170:
ARM GAS  /tmp/cc2ngWep.s 			page 15


 787              	.LBB164:
 788              	.LBB163:
 789              	.LBB162:
 790              	.LBB161:
 791              		.loc 3 546 0
 792 0048 0023     		movs	r3, #0
 793              	@ 546 "../ChibiOS/os/ext/CMSIS/include/core_cmFunc.h" 1
 794 004a 83F31188 		MSR basepri, r3
 795              	@ 0 "" 2
 796              		.thumb
 797              	.LBE161:
 798              	.LBE162:
 799              	.LBE163:
 800              	.LBE164:
 801              	.LBE170:
 802              		.loc 1 395 0
 803 004e 02B0     		add	sp, sp, #8
 804              		@ sp needed
 805 0050 10BD     		pop	{r4, pc}
 806              	.LVL59:
 807              	.L45:
 808              	.LBB171:
 809              	.LBB172:
 810              		.loc 2 638 0
 811 0052 0068     		ldr	r0, [r0]
 812              	.LVL60:
 813              		.loc 2 640 0
 814 0054 0268     		ldr	r2, [r0]
 815 0056 1A60     		str	r2, [r3]
 816 0058 5360     		str	r3, [r2, #4]
 817              	.LBE172:
 818              	.LBE171:
 819              		.loc 1 381 0
 820 005a 0191     		str	r1, [sp, #4]
 821 005c FFF7FEFF 		bl	chSchReadyI
 822              	.LVL61:
 823 0060 0023     		movs	r3, #0
 824 0062 0362     		str	r3, [r0, #32]
 825 0064 0199     		ldr	r1, [sp, #4]
 826 0066 D6E7     		b	.L42
 827              	.L48:
 828              		.align	2
 829              	.L47:
 830 0068 00000000 		.word	ch
 831              		.cfi_endproc
 832              	.LFE236:
 833              		.size	chSemSignalWait, .-chSemSignalWait
 834 006c AFF30080 		.text
 835              	.Letext0:
 836              		.file 4 "/nfs/nfs5/home/research/hardware/arm2/gcc-arm-embedded/gcc-arm-none-eabi-4_8-2014q2/arm-n
 837              		.file 5 "/nfs/nfs5/home/research/hardware/arm2/gcc-arm-embedded/gcc-arm-none-eabi-4_8-2014q2/arm-n
 838              		.file 6 "../ChibiOS/os/rt/ports/ARMCMx/compilers/GCC/chtypes.h"
 839              		.file 7 "../ChibiOS/os/rt/include/chsystypes.h"
 840              		.file 8 "../ChibiOS/os/rt/ports/ARMCMx/chcore.h"
 841              		.file 9 "../ChibiOS/os/rt/ports/ARMCMx/chcore_v7m.h"
 842              		.file 10 "../ChibiOS/os/rt/include/chtm.h"
 843              		.file 11 "../ChibiOS/os/rt/include/chmtx.h"
ARM GAS  /tmp/cc2ngWep.s 			page 16


 844              		.file 12 "../ChibiOS/os/rt/include/chsem.h"
 845              		.file 13 "../ChibiOS/os/rt/include/chsys.h"
 846              		.file 14 "../ChibiOS/os/ext/CMSIS/include/core_cm4.h"