ARM GAS  /tmp/ccIeEq8L.s 			page 1


   1              		.syntax unified
   2              		.cpu cortex-m4
   3              		.fpu softvfp
   4              		.eabi_attribute 20, 1
   5              		.eabi_attribute 21, 1
   6              		.eabi_attribute 23, 3
   7              		.eabi_attribute 24, 1
   8              		.eabi_attribute 25, 1
   9              		.eabi_attribute 26, 1
  10              		.eabi_attribute 30, 2
  11              		.eabi_attribute 34, 1
  12              		.eabi_attribute 18, 4
  13              		.thumb
  14              		.file	"chsys.c"
  15              		.text
  16              	.Ltext0:
  17              		.cfi_sections	.debug_frame
  18              		.section	.text._idle_thread,"ax",%progbits
  19              		.align	2
  20              		.p2align 4,,15
  21              		.thumb
  22              		.thumb_func
  23              		.type	_idle_thread, %function
  24              	_idle_thread:
  25              	.LFB226:
  26              		.file 1 "../ChibiOS/os/rt/src/chsys.c"
  27              		.loc 1 65 0
  28              		.cfi_startproc
  29              		@ Volatile: function does not return.
  30              		@ args = 0, pretend = 0, frame = 0
  31              		@ frame_needed = 0, uses_anonymous_args = 0
  32              		@ link register save eliminated.
  33              	.LVL0:
  34              		.loc 1 68 0
  35 0000 024B     		ldr	r3, .L4
  36 0002 034A     		ldr	r2, .L4+4
  37 0004 9B69     		ldr	r3, [r3, #24]
  38 0006 9A61     		str	r2, [r3, #24]
  39              	.L2:
  40 0008 FEE7     		b	.L2
  41              	.L5:
  42 000a 00BF     		.align	2
  43              	.L4:
  44 000c 00000000 		.word	ch
  45 0010 00000000 		.word	.LC0
  46              		.cfi_endproc
  47              	.LFE226:
  48              		.size	_idle_thread, .-_idle_thread
  49 0014 AFF30080 		.section	.text.chSysInit,"ax",%progbits
  49      AFF30080 
  49      AFF30080 
  50              		.align	2
  51              		.p2align 4,,15
  52              		.global	chSysInit
  53              		.thumb
  54              		.thumb_func
  55              		.type	chSysInit, %function
ARM GAS  /tmp/ccIeEq8L.s 			page 2


  56              	chSysInit:
  57              	.LFB227:
  58              		.loc 1 90 0
  59              		.cfi_startproc
  60              		@ args = 0, pretend = 0, frame = 0
  61              		@ frame_needed = 0, uses_anonymous_args = 0
  62              	.LBB155:
  63              	.LBB156:
  64              		.file 2 "../ChibiOS/os/rt/ports/ARMCMx/chcore_v7m.h"
  65              		.loc 2 376 0
  66 0000 1E4B     		ldr	r3, .L7
  67              	.LBB157:
  68              	.LBB158:
  69              		.file 3 "../ChibiOS/os/ext/CMSIS/include/core_cm4.h"
  70              		.loc 3 1442 0
  71 0002 1F4A     		ldr	r2, .L7+4
  72              	.LBE158:
  73              	.LBE157:
  74              		.loc 2 382 0
  75 0004 1F48     		ldr	r0, .L7+8
  76              		.loc 2 383 0
  77 0006 2049     		ldr	r1, .L7+12
  78              	.LBE156:
  79              	.LBE155:
  80              		.loc 1 90 0
  81 0008 F0B5     		push	{r4, r5, r6, r7, lr}
  82              		.cfi_def_cfa_offset 20
  83              		.cfi_offset 4, -20
  84              		.cfi_offset 5, -16
  85              		.cfi_offset 6, -12
  86              		.cfi_offset 7, -8
  87              		.cfi_offset 14, -4
  88              	.LBB174:
  89              	.LBB171:
  90              		.loc 2 376 0
  91 000a 0024     		movs	r4, #0
  92 000c 9C60     		str	r4, [r3, #8]
  93              	.LVL1:
  94              	.LBB161:
  95              	.LBB159:
  96              		.loc 3 1440 0
  97 000e DF68     		ldr	r7, [r3, #12]
  98              	.LVL2:
  99              	.LBE159:
 100              	.LBE161:
 101              	.LBE171:
 102              	.LBE174:
 103              		.loc 1 116 0
 104 0010 1E4D     		ldr	r5, .L7+16
 105              	.LBB175:
 106              	.LBB172:
 107              	.LBB162:
 108              	.LBB160:
 109              		.loc 3 1441 0
 110 0012 4FF6FF06 		movw	r6, #63743
 111 0016 3E40     		ands	r6, r6, r7
 112              	.LVL3:
ARM GAS  /tmp/ccIeEq8L.s 			page 3


 113              		.loc 3 1442 0
 114 0018 3243     		orrs	r2, r2, r6
 115              	.LVL4:
 116              		.loc 3 1445 0
 117 001a DA60     		str	r2, [r3, #12]
 118              	.LBE160:
 119              	.LBE162:
 120              		.loc 2 382 0
 121 001c C268     		ldr	r2, [r0, #12]
 122              	.LVL5:
 123 001e 42F08072 		orr	r2, r2, #16777216
 124 0022 C260     		str	r2, [r0, #12]
 125              	.LVL6:
 126              		.loc 2 383 0
 127 0024 0E68     		ldr	r6, [r1]
 128              	.LVL7:
 129              	.LBB163:
 130              	.LBB164:
 131              		.loc 3 1553 0
 132 0026 2022     		movs	r2, #32
 133              	.LBE164:
 134              	.LBE163:
 135              	.LBB166:
 136              	.LBB167:
 137 0028 1020     		movs	r0, #16
 138              	.LBE167:
 139              	.LBE166:
 140              		.loc 2 383 0
 141 002a 46F00106 		orr	r6, r6, #1
 142 002e 0E60     		str	r6, [r1]
 143              	.LVL8:
 144              	.LBE172:
 145              	.LBE175:
 146              		.loc 1 90 0
 147 0030 83B0     		sub	sp, sp, #12
 148              		.cfi_def_cfa_offset 32
 149              	.LBB176:
 150              	.LBB173:
 151              	.LBB169:
 152              	.LBB168:
 153              		.loc 3 1553 0
 154 0032 D877     		strb	r0, [r3, #31]
 155              	.LVL9:
 156              	.LBE168:
 157              	.LBE169:
 158              	.LBB170:
 159              	.LBB165:
 160 0034 83F82220 		strb	r2, [r3, #34]
 161              	.LBE165:
 162              	.LBE170:
 163              	.LBE173:
 164              	.LBE176:
 165              		.loc 1 96 0
 166 0038 FFF7FEFF 		bl	_scheduler_init
 167              	.LVL10:
 168              		.loc 1 97 0
 169 003c FFF7FEFF 		bl	_vt_init
ARM GAS  /tmp/ccIeEq8L.s 			page 4


 170              	.LVL11:
 171              		.loc 1 99 0
 172 0040 FFF7FEFF 		bl	_tm_init
 173              	.LVL12:
 174              		.loc 1 102 0
 175 0044 FFF7FEFF 		bl	_core_init
 176              	.LVL13:
 177              		.loc 1 105 0
 178 0048 FFF7FEFF 		bl	_heap_init
 179              	.LVL14:
 180              		.loc 1 116 0
 181 004c 2846     		mov	r0, r5
 182 004e 4021     		movs	r1, #64
 183 0050 FFF7FEFF 		bl	_thread_init
 184              	.LVL15:
 185 0054 A5F13003 		sub	r3, r5, #48
 186              		.loc 1 122 0
 187 0058 0122     		movs	r2, #1
 188              		.loc 1 116 0
 189 005a 9861     		str	r0, [r3, #24]
 190              		.loc 1 122 0
 191 005c 0277     		strb	r2, [r0, #28]
 192              	.LVL16:
 193              	.LBB177:
 194              	.LBB178:
 195              	.LBB179:
 196              	.LBB180:
 197              		.file 4 "../ChibiOS/os/ext/CMSIS/include/core_cmFunc.h"
 198              		.loc 4 546 0
 199              	@ 546 "../ChibiOS/os/ext/CMSIS/include/core_cmFunc.h" 1
 200 005e 84F31188 		MSR basepri, r4
 201              	@ 0 "" 2
 202              		.thumb
 203              	.LBE180:
 204              	.LBE179:
 205              	.LBB181:
 206              	.LBB182:
 207              		.loc 4 331 0
 208              	@ 331 "../ChibiOS/os/ext/CMSIS/include/core_cmFunc.h" 1
 209 0062 62B6     		cpsie i
 210              	@ 0 "" 2
 211              		.thumb
 212              	.LBE182:
 213              	.LBE181:
 214              	.LBE178:
 215              	.LBE177:
 216              		.loc 1 132 0
 217 0064 9B69     		ldr	r3, [r3, #24]
 218 0066 0A49     		ldr	r1, .L7+20
 219 0068 9961     		str	r1, [r3, #24]
 220              		.loc 1 138 0
 221 006a 05F14800 		add	r0, r5, #72
 222 006e 0094     		str	r4, [sp]
 223 0070 D821     		movs	r1, #216
 224 0072 084B     		ldr	r3, .L7+24
 225 0074 FFF7FEFF 		bl	chThdCreateStatic
 226              	.LVL17:
ARM GAS  /tmp/ccIeEq8L.s 			page 5


 227              		.loc 1 141 0
 228 0078 03B0     		add	sp, sp, #12
 229              		@ sp needed
 230 007a F0BD     		pop	{r4, r5, r6, r7, pc}
 231              	.LVL18:
 232              	.L8:
 233              		.align	2
 234              	.L7:
 235 007c 00ED00E0 		.word	-536810240
 236 0080 0003FA05 		.word	100270848
 237 0084 F0ED00E0 		.word	-536810000
 238 0088 001000E0 		.word	-536866816
 239 008c 30000000 		.word	ch+48
 240 0090 00000000 		.word	ch_debug
 241 0094 00000000 		.word	_idle_thread
 242              		.cfi_endproc
 243              	.LFE227:
 244              		.size	chSysInit, .-chSysInit
 245 0098 AFF30080 		.section	.text.chSysHalt,"ax",%progbits
 245      AFF30080 
 246              		.align	2
 247              		.p2align 4,,15
 248              		.global	chSysHalt
 249              		.thumb
 250              		.thumb_func
 251              		.type	chSysHalt, %function
 252              	chSysHalt:
 253              	.LFB228:
 254              		.loc 1 155 0
 255              		.cfi_startproc
 256              		@ Volatile: function does not return.
 257              		@ args = 0, pretend = 0, frame = 0
 258              		@ frame_needed = 0, uses_anonymous_args = 0
 259              		@ link register save eliminated.
 260              	.LVL19:
 261              	.LBB183:
 262              	.LBB184:
 263              	.LBB185:
 264              		.loc 4 342 0
 265              	@ 342 "../ChibiOS/os/ext/CMSIS/include/core_cmFunc.h" 1
 266 0000 72B6     		cpsid i
 267              	@ 0 "" 2
 268              		.thumb
 269              	.LBE185:
 270              	.LBE184:
 271              	.LBE183:
 272              		.loc 1 164 0
 273 0002 014B     		ldr	r3, .L11
 274 0004 D862     		str	r0, [r3, #44]
 275              	.L10:
 276 0006 FEE7     		b	.L10
 277              	.L12:
 278              		.align	2
 279              	.L11:
 280 0008 00000000 		.word	ch
 281              		.cfi_endproc
 282              	.LFE228:
ARM GAS  /tmp/ccIeEq8L.s 			page 6


 283              		.size	chSysHalt, .-chSysHalt
 284 000c AFF30080 		.section	.text.chSysTimerHandlerI,"ax",%progbits
 285              		.align	2
 286              		.p2align 4,,15
 287              		.global	chSysTimerHandlerI
 288              		.thumb
 289              		.thumb_func
 290              		.type	chSysTimerHandlerI, %function
 291              	chSysTimerHandlerI:
 292              	.LFB229:
 293              		.loc 1 182 0
 294              		.cfi_startproc
 295              		@ args = 0, pretend = 0, frame = 0
 296              		@ frame_needed = 0, uses_anonymous_args = 0
 297 0000 2DE9F041 		push	{r4, r5, r6, r7, r8, lr}
 298              		.cfi_def_cfa_offset 24
 299              		.cfi_offset 4, -24
 300              		.cfi_offset 5, -20
 301              		.cfi_offset 6, -16
 302              		.cfi_offset 7, -12
 303              		.cfi_offset 8, -8
 304              		.cfi_offset 14, -4
 305              	.LBB209:
 306              	.LBB210:
 307              	.LBB211:
 308              		.file 5 "../ChibiOS/os/rt/include/chvt.h"
 309              		.loc 5 475 0
 310 0004 1B4C     		ldr	r4, .L21
 311              	.LBB212:
 312              	.LBB213:
 313              	.LBB214:
 314              	.LBB215:
 315              		.file 6 "../ChibiOS/os/hal/ports/STM32/LLD/TIMv1/st_lld.h"
 316              		.loc 6 128 0
 317 0006 4FF08047 		mov	r7, #1073741824
 318              	.LBE215:
 319              	.LBE214:
 320              	.LBE213:
 321              	.LBE212:
 322              		.loc 5 479 0
 323 000a E369     		ldr	r3, [r4, #28]
 324              		.loc 5 475 0
 325 000c A16A     		ldr	r1, [r4, #40]
 326              	.LBB222:
 327              	.LBB220:
 328              	.LBB218:
 329              	.LBB216:
 330              		.loc 6 128 0
 331 000e 786A     		ldr	r0, [r7, #36]
 332              	.LVL20:
 333              	.LBE216:
 334              	.LBE218:
 335              	.LBE220:
 336              	.LBE222:
 337              		.loc 5 479 0
 338 0010 9A68     		ldr	r2, [r3, #8]
 339              		.loc 5 475 0
ARM GAS  /tmp/ccIeEq8L.s 			page 7


 340 0012 451A     		subs	r5, r0, r1
 341              	.LVL21:
 342              		.loc 5 479 0
 343 0014 9542     		cmp	r5, r2
 344 0016 04F11C05 		add	r5, r4, #28
 345              	.LVL22:
 346 001a 19D3     		bcc	.L14
 347              		.loc 5 490 0
 348 001c 4FF00008 		mov	r8, #0
 349              	.LBB223:
 350              	.LBB224:
 351              	.LBB225:
 352              	.LBB226:
 353              	.LBB227:
 354              		.loc 4 546 0
 355 0020 2026     		movs	r6, #32
 356              	.LVL23:
 357              	.L15:
 358              	.LBE227:
 359              	.LBE226:
 360              	.LBE225:
 361              	.LBE224:
 362              	.LBE223:
 363              		.loc 5 487 0
 364 0022 1868     		ldr	r0, [r3]
 365              		.loc 5 489 0
 366 0024 D3F80CC0 		ldr	ip, [r3, #12]
 367              	.LVL24:
 368              		.loc 5 484 0
 369 0028 0A44     		add	r2, r2, r1
 370 002a A262     		str	r2, [r4, #40]
 371              		.loc 5 487 0
 372 002c 4560     		str	r5, [r0, #4]
 373              		.loc 5 488 0
 374 002e E061     		str	r0, [r4, #28]
 375              		.loc 5 490 0
 376 0030 C3F80C80 		str	r8, [r3, #12]
 377              	.LVL25:
 378              	.LBB232:
 379              	.LBB233:
 380              	.LBB234:
 381              	.LBB235:
 382              	.LBB236:
 383              		.loc 4 546 0
 384              	@ 546 "../ChibiOS/os/ext/CMSIS/include/core_cmFunc.h" 1
 385 0034 88F31188 		MSR basepri, r8
 386              	@ 0 "" 2
 387              		.thumb
 388              	.LBE236:
 389              	.LBE235:
 390              	.LBE234:
 391              	.LBE233:
 392              	.LBE232:
 393              		.loc 5 494 0
 394 0038 1869     		ldr	r0, [r3, #16]
 395 003a E047     		blx	ip
 396              	.LVL26:
ARM GAS  /tmp/ccIeEq8L.s 			page 8


 397              	.LBB237:
 398              	.LBB231:
 399              	.LBB230:
 400              	.LBB229:
 401              	.LBB228:
 402              		.loc 4 546 0
 403              	@ 546 "../ChibiOS/os/ext/CMSIS/include/core_cmFunc.h" 1
 404 003c 86F31188 		MSR basepri, r6
 405              	@ 0 "" 2
 406              		.thumb
 407              	.LBE228:
 408              	.LBE229:
 409              	.LBE230:
 410              	.LBE231:
 411              	.LBE237:
 412              		.loc 5 479 0
 413 0040 E369     		ldr	r3, [r4, #28]
 414              	.LBB238:
 415              	.LBB221:
 416              	.LBB219:
 417              	.LBB217:
 418              		.loc 6 128 0
 419 0042 786A     		ldr	r0, [r7, #36]
 420              	.LBE217:
 421              	.LBE219:
 422              	.LBE221:
 423              	.LBE238:
 424              		.loc 5 475 0
 425 0044 A16A     		ldr	r1, [r4, #40]
 426              	.LVL27:
 427              		.loc 5 479 0
 428 0046 9A68     		ldr	r2, [r3, #8]
 429              		.loc 5 475 0
 430 0048 C1EB000C 		rsb	ip, r1, r0
 431              	.LVL28:
 432              		.loc 5 479 0
 433 004c 9445     		cmp	ip, r2
 434 004e E8D2     		bcs	.L15
 435              	.LVL29:
 436              	.L14:
 437              	.LBE211:
 438              		.loc 5 497 0
 439 0050 AB42     		cmp	r3, r5
 440 0052 0BD0     		beq	.L20
 441              		.loc 5 505 0
 442 0054 012A     		cmp	r2, #1
 443 0056 04D0     		beq	.L17
 444              	.LVL30:
 445              	.LBB239:
 446              	.LBB240:
 447              		.file 7 "../ChibiOS/os/rt/ports/ARMCMx/chcore_timer.h"
 448              		.loc 7 95 0
 449 0058 1044     		add	r0, r0, r2
 450              	.LVL31:
 451              	.LBE240:
 452              	.LBE239:
 453              	.LBE210:
ARM GAS  /tmp/ccIeEq8L.s 			page 9


 454              	.LBE209:
 455              		.loc 1 199 0
 456 005a BDE8F041 		pop	{r4, r5, r6, r7, r8, lr}
 457              	.LBB252:
 458              	.LBB249:
 459              	.LBB242:
 460              	.LBB241:
 461              		.loc 7 95 0
 462 005e FFF7FEBF 		b	stSetAlarm
 463              	.LVL32:
 464              	.L17:
 465              	.LBE241:
 466              	.LBE242:
 467              	.LBB243:
 468              	.LBB244:
 469 0062 0230     		adds	r0, r0, #2
 470              	.LVL33:
 471              	.LBE244:
 472              	.LBE243:
 473              	.LBE249:
 474              	.LBE252:
 475              		.loc 1 199 0
 476 0064 BDE8F041 		pop	{r4, r5, r6, r7, r8, lr}
 477              	.LBB253:
 478              	.LBB250:
 479              	.LBB246:
 480              	.LBB245:
 481              		.loc 7 95 0
 482 0068 FFF7FEBF 		b	stSetAlarm
 483              	.LVL34:
 484              	.L20:
 485              	.LBE245:
 486              	.LBE246:
 487              	.LBE250:
 488              	.LBE253:
 489              		.loc 1 199 0
 490 006c BDE8F041 		pop	{r4, r5, r6, r7, r8, lr}
 491              	.LBB254:
 492              	.LBB251:
 493              	.LBB247:
 494              	.LBB248:
 495              		.loc 7 83 0
 496 0070 FFF7FEBF 		b	stStopAlarm
 497              	.LVL35:
 498              	.L22:
 499              		.align	2
 500              	.L21:
 501 0074 00000000 		.word	ch
 502              	.LBE248:
 503              	.LBE247:
 504              	.LBE251:
 505              	.LBE254:
 506              		.cfi_endproc
 507              	.LFE229:
 508              		.size	chSysTimerHandlerI, .-chSysTimerHandlerI
 509 0078 AFF30080 		.section	.text.chSysGetStatusAndLockX,"ax",%progbits
 509      AFF30080 
ARM GAS  /tmp/ccIeEq8L.s 			page 10


 510              		.align	2
 511              		.p2align 4,,15
 512              		.global	chSysGetStatusAndLockX
 513              		.thumb
 514              		.thumb_func
 515              		.type	chSysGetStatusAndLockX, %function
 516              	chSysGetStatusAndLockX:
 517              	.LFB230:
 518              		.loc 1 214 0
 519              		.cfi_startproc
 520              		@ args = 0, pretend = 0, frame = 0
 521              		@ frame_needed = 0, uses_anonymous_args = 0
 522              		@ link register save eliminated.
 523              	.LBB255:
 524              	.LBB256:
 525              	.LBB257:
 526              	.LBB258:
 527              		.loc 4 533 0
 528              	@ 533 "../ChibiOS/os/ext/CMSIS/include/core_cmFunc.h" 1
 529 0000 EFF31280 		MRS r0, basepri_max
 530              	@ 0 "" 2
 531              	.LVL36:
 532              		.thumb
 533              	.LBE258:
 534              	.LBE257:
 535              	.LBE256:
 536              	.LBE255:
 537              		.loc 1 217 0
 538 0004 20B9     		cbnz	r0, .L24
 539              	.LBB259:
 540              	.LBB260:
 541              	.LBB261:
 542              	.LBB262:
 543              		.loc 4 383 0
 544              	@ 383 "../ChibiOS/os/ext/CMSIS/include/core_cmFunc.h" 1
 545 0006 EFF30583 		MRS r3, ipsr
 546              	@ 0 "" 2
 547              	.LVL37:
 548              		.thumb
 549              	.LBE262:
 550              	.LBE261:
 551              	.LBE260:
 552              	.LBE259:
 553              	.LBB263:
 554              	.LBB264:
 555              	.LBB265:
 556              	.LBB266:
 557              		.loc 4 546 0
 558 000a 2023     		movs	r3, #32
 559              	.LVL38:
 560              	@ 546 "../ChibiOS/os/ext/CMSIS/include/core_cmFunc.h" 1
 561 000c 83F31188 		MSR basepri, r3
 562              	@ 0 "" 2
 563              	.LVL39:
 564              		.thumb
 565              	.L24:
 566              	.LBE266:
ARM GAS  /tmp/ccIeEq8L.s 			page 11


 567              	.LBE265:
 568              	.LBE264:
 569              	.LBE263:
 570              		.loc 1 224 0
 571 0010 7047     		bx	lr
 572              		.cfi_endproc
 573              	.LFE230:
 574              		.size	chSysGetStatusAndLockX, .-chSysGetStatusAndLockX
 575 0012 00BFAFF3 		.section	.text.chSysRestoreStatusX,"ax",%progbits
 575      0080AFF3 
 575      0080AFF3 
 575      0080
 576              		.align	2
 577              		.p2align 4,,15
 578              		.global	chSysRestoreStatusX
 579              		.thumb
 580              		.thumb_func
 581              		.type	chSysRestoreStatusX, %function
 582              	chSysRestoreStatusX:
 583              	.LFB231:
 584              		.loc 1 235 0
 585              		.cfi_startproc
 586              		@ args = 0, pretend = 0, frame = 0
 587              		@ frame_needed = 0, uses_anonymous_args = 0
 588              	.LVL40:
 589 0000 10B5     		push	{r4, lr}
 590              		.cfi_def_cfa_offset 8
 591              		.cfi_offset 4, -8
 592              		.cfi_offset 14, -4
 593              		.loc 1 237 0
 594 0002 58B9     		cbnz	r0, .L26
 595              	.LBB267:
 596              	.LBB268:
 597              	.LBB269:
 598              	.LBB270:
 599              		.loc 4 383 0
 600              	@ 383 "../ChibiOS/os/ext/CMSIS/include/core_cmFunc.h" 1
 601 0004 EFF30584 		MRS r4, ipsr
 602              	@ 0 "" 2
 603              	.LVL41:
 604              		.thumb
 605              	.LBE270:
 606              	.LBE269:
 607              		.loc 2 435 0
 608 0008 C4F30804 		ubfx	r4, r4, #0, #9
 609              	.LVL42:
 610              	.LBE268:
 611              	.LBE267:
 612              		.loc 1 238 0
 613 000c 14B1     		cbz	r4, .L28
 614              	.LVL43:
 615              	.LBB271:
 616              	.LBB272:
 617              	.LBB273:
 618              	.LBB274:
 619              	.LBB275:
 620              		.loc 4 546 0
ARM GAS  /tmp/ccIeEq8L.s 			page 12


 621              	@ 546 "../ChibiOS/os/ext/CMSIS/include/core_cmFunc.h" 1
 622 000e 80F31188 		MSR basepri, r0
 623              	@ 0 "" 2
 624              		.thumb
 625 0012 10BD     		pop	{r4, pc}
 626              	.LVL44:
 627              	.L28:
 628              	.LBE275:
 629              	.LBE274:
 630              	.LBE273:
 631              	.LBE272:
 632              	.LBE271:
 633              		.loc 1 241 0
 634 0014 FFF7FEFF 		bl	chSchRescheduleS
 635              	.LVL45:
 636              	.LBB276:
 637              	.LBB277:
 638              	.LBB278:
 639              	.LBB279:
 640              	.LBB280:
 641              		.loc 4 546 0
 642              	@ 546 "../ChibiOS/os/ext/CMSIS/include/core_cmFunc.h" 1
 643 0018 84F31188 		MSR basepri, r4
 644              	@ 0 "" 2
 645              	.LVL46:
 646              		.thumb
 647              	.L26:
 648 001c 10BD     		pop	{r4, pc}
 649              	.LBE280:
 650              	.LBE279:
 651              	.LBE278:
 652              	.LBE277:
 653              	.LBE276:
 654              		.cfi_endproc
 655              	.LFE231:
 656              		.size	chSysRestoreStatusX, .-chSysRestoreStatusX
 657 001e 00BF     		.section	.text.chSysIsCounterWithinX,"ax",%progbits
 658              		.align	2
 659              		.p2align 4,,15
 660              		.global	chSysIsCounterWithinX
 661              		.thumb
 662              		.thumb_func
 663              		.type	chSysIsCounterWithinX, %function
 664              	chSysIsCounterWithinX:
 665              	.LFB232:
 666              		.loc 1 266 0
 667              		.cfi_startproc
 668              		@ args = 0, pretend = 0, frame = 0
 669              		@ frame_needed = 0, uses_anonymous_args = 0
 670              		@ link register save eliminated.
 671              	.LVL47:
 672              		.loc 1 268 0
 673 0000 8A42     		cmp	r2, r1
 674 0002 06D9     		bls	.L30
 675              		.loc 1 268 0 is_stmt 0 discriminator 1
 676 0004 8142     		cmp	r1, r0
 677 0006 08D8     		bhi	.L34
ARM GAS  /tmp/ccIeEq8L.s 			page 13


 678              	.L36:
 679              		.loc 1 269 0 is_stmt 1 discriminator 2
 680 0008 8242     		cmp	r2, r0
 681 000a 94BF     		ite	ls
 682 000c 0020     		movls	r0, #0
 683              	.LVL48:
 684 000e 0120     		movhi	r0, #1
 685 0010 7047     		bx	lr
 686              	.LVL49:
 687              	.L30:
 688              		.loc 1 269 0 is_stmt 0
 689 0012 8142     		cmp	r1, r0
 690 0014 F8D8     		bhi	.L36
 691 0016 0120     		movs	r0, #1
 692              	.LVL50:
 693              		.loc 1 270 0 is_stmt 1
 694 0018 7047     		bx	lr
 695              	.LVL51:
 696              	.L34:
 697 001a 0020     		movs	r0, #0
 698              	.LVL52:
 699 001c 7047     		bx	lr
 700              		.cfi_endproc
 701              	.LFE232:
 702              		.size	chSysIsCounterWithinX, .-chSysIsCounterWithinX
 703 001e 00BF     		.section	.text.chSysPolledDelayX,"ax",%progbits
 704              		.align	2
 705              		.p2align 4,,15
 706              		.global	chSysPolledDelayX
 707              		.thumb
 708              		.thumb_func
 709              		.type	chSysPolledDelayX, %function
 710              	chSysPolledDelayX:
 711              	.LFB233:
 712              		.loc 1 283 0
 713              		.cfi_startproc
 714              		@ args = 0, pretend = 0, frame = 0
 715              		@ frame_needed = 0, uses_anonymous_args = 0
 716              		@ link register save eliminated.
 717              	.LVL53:
 718              	.LBB281:
 719              	.LBB282:
 720              		.loc 2 547 0
 721 0000 0C49     		ldr	r1, .L48
 722 0002 4A68     		ldr	r2, [r1, #4]
 723              	.LBE282:
 724              	.LBE281:
 725              		.loc 1 285 0
 726 0004 1044     		add	r0, r0, r2
 727              	.LVL54:
 728              	.L43:
 729              	.LBB283:
 730              	.LBB284:
 731              		.loc 1 268 0 discriminator 1
 732 0006 9042     		cmp	r0, r2
 733              	.LBE284:
 734              	.LBE283:
ARM GAS  /tmp/ccIeEq8L.s 			page 14


 735              	.LBB288:
 736              	.LBB289:
 737              		.loc 2 547 0 discriminator 1
 738 0008 4B68     		ldr	r3, [r1, #4]
 739              	.LVL55:
 740              	.LBE289:
 741              	.LBE288:
 742              	.LBB290:
 743              	.LBB285:
 744              		.loc 1 268 0 discriminator 1
 745 000a 0CD9     		bls	.L38
 746              		.loc 1 268 0 is_stmt 0
 747 000c 9A42     		cmp	r2, r3
 748 000e 03D9     		bls	.L46
 749 0010 0023     		movs	r3, #0
 750              	.LVL56:
 751              	.LBE285:
 752              	.LBE290:
 753              		.loc 1 286 0 is_stmt 1
 754 0012 002B     		cmp	r3, #0
 755 0014 F7D1     		bne	.L43
 756              	.L47:
 757              		.loc 1 288 0
 758 0016 7047     		bx	lr
 759              	.LVL57:
 760              	.L46:
 761              	.LBB291:
 762              	.LBB286:
 763              		.loc 1 269 0
 764 0018 9842     		cmp	r0, r3
 765 001a 94BF     		ite	ls
 766 001c 0023     		movls	r3, #0
 767              	.LVL58:
 768 001e 0123     		movhi	r3, #1
 769              	.LBE286:
 770              	.LBE291:
 771              		.loc 1 286 0
 772 0020 002B     		cmp	r3, #0
 773 0022 F0D1     		bne	.L43
 774 0024 F7E7     		b	.L47
 775              	.LVL59:
 776              	.L38:
 777              	.LBB292:
 778              	.LBB287:
 779              		.loc 1 269 0
 780 0026 9A42     		cmp	r2, r3
 781 0028 F6D8     		bhi	.L46
 782 002a 0123     		movs	r3, #1
 783              	.LVL60:
 784              	.LBE287:
 785              	.LBE292:
 786              		.loc 1 286 0
 787 002c 002B     		cmp	r3, #0
 788 002e EAD1     		bne	.L43
 789 0030 F1E7     		b	.L47
 790              	.L49:
 791 0032 00BF     		.align	2
ARM GAS  /tmp/ccIeEq8L.s 			page 15


 792              	.L48:
 793 0034 001000E0 		.word	-536866816
 794              		.cfi_endproc
 795              	.LFE233:
 796              		.size	chSysPolledDelayX, .-chSysPolledDelayX
 797 0038 AFF30080 		.section	.rodata.str1.4,"aMS",%progbits,1
 797      AFF30080 
 798              		.align	2
 799              	.LC0:
 800 0000 69646C65 		.ascii	"idle\000"
 800      00
 801 0005 000000   		.text
 802              	.Letext0:
 803              		.file 8 "/nfs/nfs5/home/research/hardware/arm2/gcc-arm-embedded/gcc-arm-none-eabi-4_8-2014q2/lib/g
 804              		.file 9 "/nfs/nfs5/home/research/hardware/arm2/gcc-arm-embedded/gcc-arm-none-eabi-4_8-2014q2/arm-n
 805              		.file 10 "/nfs/nfs5/home/research/hardware/arm2/gcc-arm-embedded/gcc-arm-none-eabi-4_8-2014q2/arm-
 806              		.file 11 "../ChibiOS/os/rt/ports/ARMCMx/compilers/GCC/chtypes.h"
 807              		.file 12 "../ChibiOS/os/rt/include/chsystypes.h"
 808              		.file 13 "../ChibiOS/os/rt/include/chschd.h"
 809              		.file 14 "../ChibiOS/os/ext/CMSIS/ST/stm32f303xc.h"
 810              		.file 15 "../ChibiOS/os/rt/ports/ARMCMx/chcore.h"
 811              		.file 16 "../ChibiOS/os/hal/ports/STM32/LLD/TIMv1/stm32_tim.h"
 812              		.file 17 "../ChibiOS/os/rt/include/chtm.h"
 813              		.file 18 "../ChibiOS/os/rt/include/chmtx.h"
 814              		.file 19 "../ChibiOS/os/rt/include/chthreads.h"
 815              		.file 20 "../ChibiOS/os/rt/include/chregistry.h"
 816              		.file 21 "../ChibiOS/os/rt/include/chsys.h"
 817              		.file 22 "../ChibiOS/os/rt/include/chmemcore.h"
 818              		.file 23 "../ChibiOS/os/rt/include/chheap.h"
 819              		.file 24 "../ChibiOS/os/hal/include/st.h"