ARM GAS  /tmp/ccAYJbyc.s 			page 1


   1              		.syntax unified
   2              		.cpu cortex-m4
   3              		.fpu softvfp
   4              		.eabi_attribute 20, 1
   5              		.eabi_attribute 21, 1
   6              		.eabi_attribute 23, 3
   7              		.eabi_attribute 24, 1
   8              		.eabi_attribute 25, 1
   9              		.eabi_attribute 26, 1
  10              		.eabi_attribute 30, 2
  11              		.eabi_attribute 34, 1
  12              		.eabi_attribute 18, 4
  13              		.thumb
  14              		.file	"chtm.c"
  15              		.text
  16              	.Ltext0:
  17              		.cfi_sections	.debug_frame
  18              		.section	.text.chTMObjectInit,"ax",%progbits
  19              		.align	2
  20              		.p2align 4,,15
  21              		.global	chTMObjectInit
  22              		.thumb
  23              		.thumb_func
  24              		.type	chTMObjectInit, %function
  25              	chTMObjectInit:
  26              	.LFB228:
  27              		.file 1 "../ChibiOS/os/rt/src/chtm.c"
  28              		.loc 1 95 0
  29              		.cfi_startproc
  30              		@ args = 0, pretend = 0, frame = 0
  31              		@ frame_needed = 0, uses_anonymous_args = 0
  32              		@ link register save eliminated.
  33              	.LVL0:
  34              		.loc 1 101 0
  35 0000 0022     		movs	r2, #0
  36 0002 0023     		movs	r3, #0
  37 0004 C0E90423 		strd	r2, [r0, #16]
  38              		.loc 1 98 0
  39 0008 0023     		movs	r3, #0
  40 000a 4FF0FF32 		mov	r2, #-1
  41 000e 80E80C00 		stmia	r0, {r2, r3}
  42              		.loc 1 99 0
  43 0012 8360     		str	r3, [r0, #8]
  44              		.loc 1 100 0
  45 0014 C360     		str	r3, [r0, #12]
  46 0016 7047     		bx	lr
  47              		.cfi_endproc
  48              	.LFE228:
  49              		.size	chTMObjectInit, .-chTMObjectInit
  50 0018 AFF30080 		.section	.text.chTMStartMeasurementX,"ax",%progbits
  50      AFF30080 
  51              		.align	2
  52              		.p2align 4,,15
  53              		.global	chTMStartMeasurementX
  54              		.thumb
  55              		.thumb_func
  56              		.type	chTMStartMeasurementX, %function
ARM GAS  /tmp/ccAYJbyc.s 			page 2


  57              	chTMStartMeasurementX:
  58              	.LFB229:
  59              		.loc 1 112 0
  60              		.cfi_startproc
  61              		@ args = 0, pretend = 0, frame = 0
  62              		@ frame_needed = 0, uses_anonymous_args = 0
  63              		@ link register save eliminated.
  64              	.LVL1:
  65              	.LBB14:
  66              	.LBB15:
  67              		.file 2 "../ChibiOS/os/rt/ports/ARMCMx/chcore_v7m.h"
  68              		.loc 2 547 0
  69 0000 014B     		ldr	r3, .L3
  70 0002 5B68     		ldr	r3, [r3, #4]
  71              	.LBE15:
  72              	.LBE14:
  73              		.loc 1 114 0
  74 0004 8360     		str	r3, [r0, #8]
  75 0006 7047     		bx	lr
  76              	.L4:
  77              		.align	2
  78              	.L3:
  79 0008 001000E0 		.word	-536866816
  80              		.cfi_endproc
  81              	.LFE229:
  82              		.size	chTMStartMeasurementX, .-chTMStartMeasurementX
  83 000c AFF30080 		.section	.text.chTMStopMeasurementX,"ax",%progbits
  84              		.align	2
  85              		.p2align 4,,15
  86              		.global	chTMStopMeasurementX
  87              		.thumb
  88              		.thumb_func
  89              		.type	chTMStopMeasurementX, %function
  90              	chTMStopMeasurementX:
  91              	.LFB230:
  92              		.loc 1 125 0
  93              		.cfi_startproc
  94              		@ args = 0, pretend = 0, frame = 0
  95              		@ frame_needed = 0, uses_anonymous_args = 0
  96              		@ link register save eliminated.
  97              	.LVL2:
  98              	.LBB16:
  99              	.LBB17:
 100              		.loc 2 547 0
 101 0000 0F4A     		ldr	r2, .L10
 102              	.LBE17:
 103              	.LBE16:
 104              		.loc 1 127 0
 105 0002 104B     		ldr	r3, .L10+4
 106              	.LBB19:
 107              	.LBB18:
 108              		.loc 2 547 0
 109 0004 5168     		ldr	r1, [r2, #4]
 110              	.LBE18:
 111              	.LBE19:
 112              		.loc 1 125 0
 113 0006 F0B4     		push	{r4, r5, r6, r7}
ARM GAS  /tmp/ccAYJbyc.s 			page 3


 114              		.cfi_def_cfa_offset 16
 115              		.cfi_offset 4, -16
 116              		.cfi_offset 5, -12
 117              		.cfi_offset 6, -8
 118              		.cfi_offset 7, -4
 119              	.LBB20:
 120              	.LBB21:
 121              		.loc 1 58 0
 122 0008 8668     		ldr	r6, [r0, #8]
 123              	.LBE21:
 124              	.LBE20:
 125              		.loc 1 127 0
 126 000a 5F6F     		ldr	r7, [r3, #116]
 127              	.LVL3:
 128              	.LBB24:
 129              	.LBB22:
 130              		.loc 1 57 0
 131 000c C568     		ldr	r5, [r0, #12]
 132              		.loc 1 60 0
 133 000e 4468     		ldr	r4, [r0, #4]
 134              		.loc 1 59 0
 135 0010 D0E90423 		ldrd	r2, [r0, #16]
 136              		.loc 1 58 0
 137 0014 891B     		subs	r1, r1, r6
 138              	.LVL4:
 139 0016 C91B     		subs	r1, r1, r7
 140              		.loc 1 59 0
 141 0018 5218     		adds	r2, r2, r1
 142 001a 43F10003 		adc	r3, r3, #0
 143              		.loc 1 57 0
 144 001e 0135     		adds	r5, r5, #1
 145              		.loc 1 60 0
 146 0020 A142     		cmp	r1, r4
 147              		.loc 1 57 0
 148 0022 C560     		str	r5, [r0, #12]
 149              		.loc 1 58 0
 150 0024 8160     		str	r1, [r0, #8]
 151              		.loc 1 59 0
 152 0026 C0E90423 		strd	r2, [r0, #16]
 153              		.loc 1 60 0
 154 002a 05D8     		bhi	.L9
 155              		.loc 1 62 0
 156 002c 0368     		ldr	r3, [r0]
 157 002e 9942     		cmp	r1, r3
 158              		.loc 1 63 0
 159 0030 38BF     		it	cc
 160 0032 0160     		strcc	r1, [r0]
 161              	.LBE22:
 162              	.LBE24:
 163              		.loc 1 128 0
 164 0034 F0BC     		pop	{r4, r5, r6, r7}
 165              	.LVL5:
 166 0036 7047     		bx	lr
 167              	.LVL6:
 168              	.L9:
 169              	.LBB25:
 170              	.LBB23:
ARM GAS  /tmp/ccAYJbyc.s 			page 4


 171              		.loc 1 61 0
 172 0038 4160     		str	r1, [r0, #4]
 173              	.LBE23:
 174              	.LBE25:
 175              		.loc 1 128 0
 176 003a F0BC     		pop	{r4, r5, r6, r7}
 177              	.LVL7:
 178 003c 7047     		bx	lr
 179              	.L11:
 180 003e 00BF     		.align	2
 181              	.L10:
 182 0040 001000E0 		.word	-536866816
 183 0044 00000000 		.word	ch
 184              		.cfi_endproc
 185              	.LFE230:
 186              		.size	chTMStopMeasurementX, .-chTMStopMeasurementX
 187 0048 AFF30080 		.section	.text._tm_init,"ax",%progbits
 187      AFF30080 
 188              		.align	2
 189              		.p2align 4,,15
 190              		.global	_tm_init
 191              		.thumb
 192              		.thumb_func
 193              		.type	_tm_init, %function
 194              	_tm_init:
 195              	.LFB227:
 196              		.loc 1 75 0
 197              		.cfi_startproc
 198              		@ args = 0, pretend = 0, frame = 24
 199              		@ frame_needed = 0, uses_anonymous_args = 0
 200 0000 30B5     		push	{r4, r5, lr}
 201              		.cfi_def_cfa_offset 12
 202              		.cfi_offset 4, -12
 203              		.cfi_offset 5, -8
 204              		.cfi_offset 14, -4
 205              		.loc 1 81 0
 206 0002 0C4C     		ldr	r4, .L13
 207              		.loc 1 75 0
 208 0004 87B0     		sub	sp, sp, #28
 209              		.cfi_def_cfa_offset 40
 210              		.loc 1 81 0
 211 0006 0021     		movs	r1, #0
 212              	.LBB26:
 213              	.LBB27:
 214              		.loc 1 101 0
 215 0008 0022     		movs	r2, #0
 216 000a 0023     		movs	r3, #0
 217              	.LBE27:
 218              	.LBE26:
 219              		.loc 1 83 0
 220 000c 6846     		mov	r0, sp
 221              	.LBB30:
 222              	.LBB28:
 223              		.loc 1 97 0
 224 000e 4FF0FF35 		mov	r5, #-1
 225              		.loc 1 101 0
 226 0012 CDE90423 		strd	r2, [sp, #16]
ARM GAS  /tmp/ccAYJbyc.s 			page 5


 227              	.LBE28:
 228              	.LBE30:
 229              		.loc 1 81 0
 230 0016 6167     		str	r1, [r4, #116]
 231              	.LVL8:
 232              	.LBB31:
 233              	.LBB29:
 234              		.loc 1 98 0
 235 0018 0191     		str	r1, [sp, #4]
 236              		.loc 1 99 0
 237 001a 0291     		str	r1, [sp, #8]
 238              		.loc 1 100 0
 239 001c 0391     		str	r1, [sp, #12]
 240              		.loc 1 97 0
 241 001e 0095     		str	r5, [sp]
 242              	.LBE29:
 243              	.LBE31:
 244              		.loc 1 83 0
 245 0020 FFF7FEFF 		bl	chTMStartMeasurementX
 246              	.LVL9:
 247              		.loc 1 84 0
 248 0024 6846     		mov	r0, sp
 249 0026 FFF7FEFF 		bl	chTMStopMeasurementX
 250              	.LVL10:
 251              		.loc 1 85 0
 252 002a 029B     		ldr	r3, [sp, #8]
 253 002c 6367     		str	r3, [r4, #116]
 254              		.loc 1 86 0
 255 002e 07B0     		add	sp, sp, #28
 256              	.LVL11:
 257              		@ sp needed
 258 0030 30BD     		pop	{r4, r5, pc}
 259              	.LVL12:
 260              	.L14:
 261 0032 00BF     		.align	2
 262              	.L13:
 263 0034 00000000 		.word	ch
 264              		.cfi_endproc
 265              	.LFE227:
 266              		.size	_tm_init, .-_tm_init
 267 0038 AFF30080 		.section	.text.chTMChainMeasurementToX,"ax",%progbits
 267      AFF30080 
 268              		.align	2
 269              		.p2align 4,,15
 270              		.global	chTMChainMeasurementToX
 271              		.thumb
 272              		.thumb_func
 273              		.type	chTMChainMeasurementToX, %function
 274              	chTMChainMeasurementToX:
 275              	.LFB231:
 276              		.loc 1 143 0
 277              		.cfi_startproc
 278              		@ args = 0, pretend = 0, frame = 0
 279              		@ frame_needed = 0, uses_anonymous_args = 0
 280              		@ link register save eliminated.
 281              	.LVL13:
 282              	.LBB32:
ARM GAS  /tmp/ccAYJbyc.s 			page 6


 283              	.LBB33:
 284              		.loc 2 547 0
 285 0000 0E4B     		ldr	r3, .L19
 286              	.LBE33:
 287              	.LBE32:
 288              		.loc 1 143 0
 289 0002 70B4     		push	{r4, r5, r6}
 290              		.cfi_def_cfa_offset 12
 291              		.cfi_offset 4, -12
 292              		.cfi_offset 5, -8
 293              		.cfi_offset 6, -4
 294              	.LBB35:
 295              	.LBB34:
 296              		.loc 2 547 0
 297 0004 5C68     		ldr	r4, [r3, #4]
 298              	.LBE34:
 299              	.LBE35:
 300              		.loc 1 146 0
 301 0006 8C60     		str	r4, [r1, #8]
 302              	.LVL14:
 303              	.LBB36:
 304              	.LBB37:
 305              		.loc 1 59 0
 306 0008 D0E90423 		ldrd	r2, [r0, #16]
 307              		.loc 1 58 0
 308 000c 8168     		ldr	r1, [r0, #8]
 309              	.LVL15:
 310              		.loc 1 57 0
 311 000e C668     		ldr	r6, [r0, #12]
 312              		.loc 1 60 0
 313 0010 4568     		ldr	r5, [r0, #4]
 314              		.loc 1 58 0
 315 0012 611A     		subs	r1, r4, r1
 316              		.loc 1 59 0
 317 0014 5218     		adds	r2, r2, r1
 318 0016 43F10003 		adc	r3, r3, #0
 319              		.loc 1 57 0
 320 001a 0136     		adds	r6, r6, #1
 321              		.loc 1 60 0
 322 001c A942     		cmp	r1, r5
 323              		.loc 1 57 0
 324 001e C660     		str	r6, [r0, #12]
 325              		.loc 1 58 0
 326 0020 8160     		str	r1, [r0, #8]
 327              		.loc 1 59 0
 328 0022 C0E90423 		strd	r2, [r0, #16]
 329              		.loc 1 60 0
 330 0026 05D8     		bhi	.L18
 331              		.loc 1 62 0
 332 0028 0368     		ldr	r3, [r0]
 333 002a 9942     		cmp	r1, r3
 334              		.loc 1 63 0
 335 002c 38BF     		it	cc
 336 002e 0160     		strcc	r1, [r0]
 337              	.LBE37:
 338              	.LBE36:
 339              		.loc 1 150 0
ARM GAS  /tmp/ccAYJbyc.s 			page 7


 340 0030 70BC     		pop	{r4, r5, r6}
 341              	.LVL16:
 342 0032 7047     		bx	lr
 343              	.LVL17:
 344              	.L18:
 345              	.LBB39:
 346              	.LBB38:
 347              		.loc 1 61 0
 348 0034 4160     		str	r1, [r0, #4]
 349              	.LBE38:
 350              	.LBE39:
 351              		.loc 1 150 0
 352 0036 70BC     		pop	{r4, r5, r6}
 353              	.LVL18:
 354 0038 7047     		bx	lr
 355              	.L20:
 356 003a 00BF     		.align	2
 357              	.L19:
 358 003c 001000E0 		.word	-536866816
 359              		.cfi_endproc
 360              	.LFE231:
 361              		.size	chTMChainMeasurementToX, .-chTMChainMeasurementToX
 362              		.text
 363              	.Letext0:
 364              		.file 3 "/nfs/nfs5/home/research/hardware/arm2/gcc-arm-embedded/gcc-arm-none-eabi-4_8-2014q2/arm-n
 365              		.file 4 "/nfs/nfs5/home/research/hardware/arm2/gcc-arm-embedded/gcc-arm-none-eabi-4_8-2014q2/arm-n
 366              		.file 5 "../ChibiOS/os/rt/ports/ARMCMx/compilers/GCC/chtypes.h"
 367              		.file 6 "../ChibiOS/os/rt/include/chsystypes.h"
 368              		.file 7 "../ChibiOS/os/rt/include/chschd.h"
 369              		.file 8 "../ChibiOS/os/ext/CMSIS/include/core_cm4.h"
 370              		.file 9 "../ChibiOS/os/rt/ports/ARMCMx/chcore.h"
 371              		.file 10 "../ChibiOS/os/rt/include/chtm.h"
 372              		.file 11 "../ChibiOS/os/rt/include/chmtx.h"