ARM GAS  /tmp/ccFL67SE.s 			page 1


   1              		.syntax unified
   2              		.cpu cortex-m4
   3              		.fpu softvfp
   4              		.eabi_attribute 20, 1
   5              		.eabi_attribute 21, 1
   6              		.eabi_attribute 23, 3
   7              		.eabi_attribute 24, 1
   8              		.eabi_attribute 25, 1
   9              		.eabi_attribute 26, 1
  10              		.eabi_attribute 30, 2
  11              		.eabi_attribute 34, 1
  12              		.eabi_attribute 18, 4
  13              		.thumb
  14              		.file	"chvt.c"
  15              		.text
  16              	.Ltext0:
  17              		.cfi_sections	.debug_frame
  18              		.section	.text._vt_init,"ax",%progbits
  19              		.align	2
  20              		.p2align 4,,15
  21              		.global	_vt_init
  22              		.thumb
  23              		.thumb_func
  24              		.type	_vt_init, %function
  25              	_vt_init:
  26              	.LFB226:
  27              		.file 1 "../ChibiOS/os/rt/src/chvt.c"
  28              		.loc 1 61 0
  29              		.cfi_startproc
  30              		@ args = 0, pretend = 0, frame = 0
  31              		@ frame_needed = 0, uses_anonymous_args = 0
  32              		@ link register save eliminated.
  33              		.loc 1 63 0
  34 0000 054B     		ldr	r3, .L2
  35              		.loc 1 64 0
  36 0002 4FF0FF30 		mov	r0, #-1
  37              		.loc 1 63 0
  38 0006 03F11C02 		add	r2, r3, #28
  39              		.loc 1 68 0
  40 000a 0021     		movs	r1, #0
  41              		.loc 1 64 0
  42 000c 5862     		str	r0, [r3, #36]
  43              		.loc 1 68 0
  44 000e 9962     		str	r1, [r3, #40]
  45              		.loc 1 63 0
  46 0010 1A62     		str	r2, [r3, #32]
  47 0012 DA61     		str	r2, [r3, #28]
  48 0014 7047     		bx	lr
  49              	.L3:
  50 0016 00BF     		.align	2
  51              	.L2:
  52 0018 00000000 		.word	ch
  53              		.cfi_endproc
  54              	.LFE226:
  55              		.size	_vt_init, .-_vt_init
  56 001c AFF30080 		.section	.text.chVTDoSetI,"ax",%progbits
  57              		.align	2
ARM GAS  /tmp/ccFL67SE.s 			page 2


  58              		.p2align 4,,15
  59              		.global	chVTDoSetI
  60              		.thumb
  61              		.thumb_func
  62              		.type	chVTDoSetI, %function
  63              	chVTDoSetI:
  64              	.LFB227:
  65              		.loc 1 95 0
  66              		.cfi_startproc
  67              		@ args = 0, pretend = 0, frame = 0
  68              		@ frame_needed = 0, uses_anonymous_args = 0
  69              	.LVL0:
  70 0000 F8B5     		push	{r3, r4, r5, r6, r7, lr}
  71              		.cfi_def_cfa_offset 24
  72              		.cfi_offset 3, -24
  73              		.cfi_offset 4, -20
  74              		.cfi_offset 5, -16
  75              		.cfi_offset 6, -12
  76              		.cfi_offset 7, -8
  77              		.cfi_offset 14, -4
  78              		.loc 1 103 0
  79 0002 1A4F     		ldr	r7, .L17
  80 0004 BC46     		mov	ip, r7
  81              	.LBB19:
  82              		.loc 1 112 0
  83 0006 0129     		cmp	r1, #1
  84 0008 8CBF     		ite	hi
  85 000a 0D46     		movhi	r5, r1
  86 000c 0225     		movls	r5, #2
  87              	.LBE19:
  88              		.loc 1 103 0
  89 000e 5CF81C4F 		ldr	r4, [ip, #28]!
  90              	.LVL1:
  91              		.loc 1 101 0
  92 0012 0361     		str	r3, [r0, #16]
  93              	.LBB32:
  94              	.LBB20:
  95              	.LBB21:
  96              	.LBB22:
  97              		.file 2 "../ChibiOS/os/hal/ports/STM32/LLD/TIMv1/st_lld.h"
  98              		.loc 2 128 0
  99 0014 4FF08043 		mov	r3, #1073741824
 100              	.LVL2:
 101              	.LBE22:
 102              	.LBE21:
 103              	.LBE20:
 104              		.loc 1 114 0
 105 0018 6445     		cmp	r4, ip
 106              	.LBE32:
 107              		.loc 1 102 0
 108 001a C260     		str	r2, [r0, #12]
 109              		.loc 1 95 0
 110 001c 0646     		mov	r6, r0
 111              	.LBB33:
 112              	.LBB25:
 113              	.LBB24:
 114              	.LBB23:
ARM GAS  /tmp/ccFL67SE.s 			page 3


 115              		.loc 2 128 0
 116 001e 5A6A     		ldr	r2, [r3, #36]
 117              	.LVL3:
 118              	.LBE23:
 119              	.LBE24:
 120              	.LBE25:
 121              		.loc 1 114 0
 122 0020 1DD0     		beq	.L14
 123              		.loc 1 123 0
 124 0022 B86A     		ldr	r0, [r7, #40]
 125              	.LVL4:
 126              		.loc 1 127 0
 127 0024 A368     		ldr	r3, [r4, #8]
 128              		.loc 1 123 0
 129 0026 121A     		subs	r2, r2, r0
 130 0028 1544     		add	r5, r5, r2
 131              	.LVL5:
 132              		.loc 1 127 0
 133 002a 9D42     		cmp	r5, r3
 134 002c 03D2     		bcs	.L12
 135 002e 11E0     		b	.L16
 136              	.LVL6:
 137              	.L10:
 138              	.LBE33:
 139              		.loc 1 137 0
 140 0030 2468     		ldr	r4, [r4]
 141              	.LVL7:
 142              		.loc 1 136 0
 143 0032 ED1A     		subs	r5, r5, r3
 144              	.LVL8:
 145              		.loc 1 135 0
 146 0034 A368     		ldr	r3, [r4, #8]
 147              	.L12:
 148 0036 AB42     		cmp	r3, r5
 149 0038 FAD3     		bcc	.L10
 150              		.loc 1 141 0
 151 003a 6368     		ldr	r3, [r4, #4]
 152 003c 7360     		str	r3, [r6, #4]
 153 003e 3460     		str	r4, [r6]
 154              		.loc 1 142 0
 155 0040 6660     		str	r6, [r4, #4]
 156 0042 1E60     		str	r6, [r3]
 157              		.loc 1 143 0
 158 0044 B560     		str	r5, [r6, #8]
 159              		.loc 1 147 0
 160 0046 A368     		ldr	r3, [r4, #8]
 161              		.loc 1 148 0
 162 0048 4FF0FF32 		mov	r2, #-1
 163              		.loc 1 147 0
 164 004c 5D1B     		subs	r5, r3, r5
 165              	.LVL9:
 166 004e A560     		str	r5, [r4, #8]
 167              	.LVL10:
 168              		.loc 1 148 0
 169 0050 7A62     		str	r2, [r7, #36]
 170 0052 F8BD     		pop	{r3, r4, r5, r6, r7, pc}
 171              	.LVL11:
ARM GAS  /tmp/ccFL67SE.s 			page 4


 172              	.L16:
 173              	.LBB34:
 174              	.LBB26:
 175              	.LBB27:
 176              		.file 3 "../ChibiOS/os/rt/ports/ARMCMx/chcore_timer.h"
 177              		.loc 3 95 0
 178 0054 2844     		add	r0, r0, r5
 179              	.LVL12:
 180 0056 FFF7FEFF 		bl	stSetAlarm
 181              	.LVL13:
 182 005a A368     		ldr	r3, [r4, #8]
 183 005c EBE7     		b	.L12
 184              	.LVL14:
 185              	.L14:
 186              	.LBE27:
 187              	.LBE26:
 188              	.LBB28:
 189              	.LBB29:
 190              		.loc 3 73 0
 191 005e A818     		adds	r0, r5, r2
 192              	.LVL15:
 193              	.LBE29:
 194              	.LBE28:
 195              		.loc 1 117 0
 196 0060 BA62     		str	r2, [r7, #40]
 197              	.LVL16:
 198              	.LBB31:
 199              	.LBB30:
 200              		.loc 3 73 0
 201 0062 FFF7FEFF 		bl	stStartAlarm
 202              	.LVL17:
 203 0066 7B6A     		ldr	r3, [r7, #36]
 204 0068 E5E7     		b	.L12
 205              	.L18:
 206 006a 00BF     		.align	2
 207              	.L17:
 208 006c 00000000 		.word	ch
 209              	.LBE30:
 210              	.LBE31:
 211              	.LBE34:
 212              		.cfi_endproc
 213              	.LFE227:
 214              		.size	chVTDoSetI, .-chVTDoSetI
 215              		.section	.text.chVTDoResetI,"ax",%progbits
 216              		.align	2
 217              		.p2align 4,,15
 218              		.global	chVTDoResetI
 219              		.thumb
 220              		.thumb_func
 221              		.type	chVTDoResetI, %function
 222              	chVTDoResetI:
 223              	.LFB228:
 224              		.loc 1 159 0
 225              		.cfi_startproc
 226              		@ args = 0, pretend = 0, frame = 0
 227              		@ frame_needed = 0, uses_anonymous_args = 0
 228              		@ link register save eliminated.
ARM GAS  /tmp/ccFL67SE.s 			page 5


 229              	.LVL18:
 230              		.loc 1 166 0
 231 0000 0268     		ldr	r2, [r0]
 232 0002 8368     		ldr	r3, [r0, #8]
 233              		.loc 1 173 0
 234 0004 1149     		ldr	r1, .L23
 235              		.loc 1 159 0
 236 0006 30B4     		push	{r4, r5}
 237              		.cfi_def_cfa_offset 8
 238              		.cfi_offset 4, -8
 239              		.cfi_offset 5, -4
 240              		.loc 1 166 0
 241 0008 9568     		ldr	r5, [r2, #8]
 242              		.loc 1 167 0
 243 000a 4468     		ldr	r4, [r0, #4]
 244              		.loc 1 166 0
 245 000c 1D44     		add	r5, r5, r3
 246              		.loc 1 177 0
 247 000e 0B46     		mov	r3, r1
 248              		.loc 1 166 0
 249 0010 9560     		str	r5, [r2, #8]
 250              		.loc 1 167 0
 251 0012 2260     		str	r2, [r4]
 252              		.loc 1 168 0
 253 0014 0568     		ldr	r5, [r0]
 254              		.loc 1 177 0
 255 0016 53F81C2F 		ldr	r2, [r3, #28]!
 256              		.loc 1 168 0
 257 001a 6C60     		str	r4, [r5, #4]
 258              		.loc 1 177 0
 259 001c 9A42     		cmp	r2, r3
 260              		.loc 1 169 0
 261 001e 4FF00005 		mov	r5, #0
 262              		.loc 1 173 0
 263 0022 4FF0FF34 		mov	r4, #-1
 264              		.loc 1 169 0
 265 0026 C560     		str	r5, [r0, #12]
 266              		.loc 1 173 0
 267 0028 4C62     		str	r4, [r1, #36]
 268              		.loc 1 177 0
 269 002a 0BD0     		beq	.L22
 270              		.loc 1 184 0
 271 002c 9368     		ldr	r3, [r2, #8]
 272              		.loc 1 185 0
 273 002e 886A     		ldr	r0, [r1, #40]
 274              	.LVL19:
 275              		.loc 1 184 0
 276 0030 012B     		cmp	r3, #1
 277 0032 03D9     		bls	.L21
 278              	.LVL20:
 279              	.LBB35:
 280              	.LBB36:
 281              		.loc 3 95 0
 282 0034 1844     		add	r0, r0, r3
 283              	.LBE36:
 284              	.LBE35:
 285              		.loc 1 193 0
ARM GAS  /tmp/ccFL67SE.s 			page 6


 286 0036 30BC     		pop	{r4, r5}
 287              	.LBB38:
 288              	.LBB37:
 289              		.loc 3 95 0
 290 0038 FFF7FEBF 		b	stSetAlarm
 291              	.LVL21:
 292              	.L21:
 293              	.LBE37:
 294              	.LBE38:
 295              	.LBB39:
 296              	.LBB40:
 297 003c 0230     		adds	r0, r0, #2
 298              	.LBE40:
 299              	.LBE39:
 300              		.loc 1 193 0
 301 003e 30BC     		pop	{r4, r5}
 302              	.LBB42:
 303              	.LBB41:
 304              		.loc 3 95 0
 305 0040 FFF7FEBF 		b	stSetAlarm
 306              	.LVL22:
 307              	.L22:
 308              	.LBE41:
 309              	.LBE42:
 310              		.loc 1 193 0
 311 0044 30BC     		pop	{r4, r5}
 312              	.LBB43:
 313              	.LBB44:
 314              		.loc 3 83 0
 315 0046 FFF7FEBF 		b	stStopAlarm
 316              	.LVL23:
 317              	.L24:
 318 004a 00BF     		.align	2
 319              	.L23:
 320 004c 00000000 		.word	ch
 321              	.LBE44:
 322              	.LBE43:
 323              		.cfi_endproc
 324              	.LFE228:
 325              		.size	chVTDoResetI, .-chVTDoResetI
 326              		.text
 327              	.Letext0:
 328              		.file 4 "/nfs/nfs5/home/research/hardware/arm2/gcc-arm-embedded/gcc-arm-none-eabi-4_8-2014q2/arm-n
 329              		.file 5 "/nfs/nfs5/home/research/hardware/arm2/gcc-arm-embedded/gcc-arm-none-eabi-4_8-2014q2/arm-n
 330              		.file 6 "../ChibiOS/os/rt/ports/ARMCMx/compilers/GCC/chtypes.h"
 331              		.file 7 "../ChibiOS/os/rt/include/chsystypes.h"
 332              		.file 8 "../ChibiOS/os/rt/include/chschd.h"
 333              		.file 9 "../ChibiOS/os/rt/ports/ARMCMx/chcore.h"
 334              		.file 10 "../ChibiOS/os/rt/ports/ARMCMx/chcore_v7m.h"
 335              		.file 11 "../ChibiOS/os/hal/ports/STM32/LLD/TIMv1/stm32_tim.h"
 336              		.file 12 "../ChibiOS/os/rt/include/chtm.h"
 337              		.file 13 "../ChibiOS/os/rt/include/chmtx.h"
 338              		.file 14 "../ChibiOS/os/hal/include/st.h"
 339              		.file 15 "../ChibiOS/os/ext/CMSIS/include/core_cm4.h"