ARM GAS  /tmp/ccFL67SE.s 			page 1


   1              		.syntax unified
   2              		.cpu cortex-m4
   3              		.fpu softvfp
   4              		.eabi_attribute 20, 1
   5              		.eabi_attribute 21, 1
   6              		.eabi_attribute 23, 3
   7              		.eabi_attribute 24, 1
   8              		.eabi_attribute 25, 1
   9              		.eabi_attribute 26, 1
  10              		.eabi_attribute 30, 2
  11              		.eabi_attribute 34, 1
  12              		.eabi_attribute 18, 4
  13              		.thumb
  14              		.file	"chvt.c"
  15              		.text
  16              	.Ltext0:
  17              		.cfi_sections	.debug_frame
  18              		.section	.text._vt_init,"ax",%progbits
  19              		.align	2
  20              		.p2align 4,,15
  21              		.global	_vt_init
  22              		.thumb
  23              		.thumb_func
  24              		.type	_vt_init, %function
  25              	_vt_init:
  26              	.LFB226:
  27              		.file 1 "../ChibiOS/os/rt/src/chvt.c"
  28              		.loc 1 61 0
  29              		.cfi_startproc
  30              		@ args = 0, pretend = 0, frame = 0
  31              		@ frame_needed = 0, uses_anonymous_args = 0
  32              		@ link register save eliminated.
  33              		.loc 1 63 0
  34 0000 054B     		ldr	r3, .L2
  35              		.loc 1 64 0
  36 0002 4FF0FF30 		mov	r0, #-1
  37              		.loc 1 63 0
  38 0006 03F11C02 		add	r2, r3, #28
  39              		.loc 1 68 0
  40 000a 0021     		movs	r1, #0
  41              		.loc 1 64 0
  42 000c 5862     		str	r0, [r3, #36]
  43              		.loc 1 68 0
  44 000e 9962     		str	r1, [r3, #40]
  45              		.loc 1 63 0
  46 0010 1A62     		str	r2, [r3, #32]
  47 0012 DA61     		str	r2, [r3, #28]
  48 0014 7047     		bx	lr
  49              	.L3:
  50 0016 00BF     		.align	2
  51              	.L2:
  52 0018 00000000 		.word	ch
  53              		.cfi_endproc
  54              	.LFE226:
  55              		.size	_vt_init, .-_vt_init
  56 001c AFF30080 		.section	.text.chVTDoSetI,"ax",%progbits
  57              		.align	2
ARM GAS  /tmp/ccFL67SE.s 			page 2


  58              		.p2align 4,,15
  59              		.global	chVTDoSetI
  60              		.thumb
  61              		.thumb_func
  62              		.type	chVTDoSetI, %function
  63              	chVTDoSetI:
  64              	.LFB227:
  65              		.loc 1 95 0
  66              		.cfi_startproc
  67              		@ args = 0, pretend = 0, frame = 0
  68              		@ frame_needed = 0, uses_anonymous_args = 0
  69              	.LVL0:
  70 0000 F8B5     		push	{r3, r4, r5, r6, r7, lr}
  71              		.cfi_def_cfa_offset 24
  72              		.cfi_offset 3, -24
  73              		.cfi_offset 4, -20
  74              		.cfi_offset 5, -16
  75              		.cfi_offset 6, -12
  76              		.cfi_offset 7, -8
  77              		.cfi_offset 14, -4
  78              		.loc 1 103 0
  79 0002 1A4F     		ldr	r7, .L17
  80 0004 BC46     		mov	ip, r7
  81              	.LBB19:
  82              		.loc 1 112 0
  83 0006 0129     		cmp	r1, #1
  84 0008 8CBF     		ite	hi
  85 000a 0D46     		movhi	r5, r1
  86 000c 0225     		movls	r5, #2
  87              	.LBE19:
  88              		.loc 1 103 0
  89 000e 5CF81C4F 		ldr	r4, [ip, #28]!
  90              	.LVL1:
  91              		.loc 1 101 0
  92 0012 0361     		str	r3, [r0, #16]
  93              	.LBB32:
  94              	.LBB20:
  95              	.LBB21:
  96              	.LBB22:
  97              		.file 2 "../ChibiOS/os/hal/ports/STM32/LLD/TIMv1/st_lld.h"
  98              		.loc 2 128 0
  99 0014 4FF08043 		mov	r3, #1073741824
 100              	.LVL2:
 101              	.LBE22:
 102              	.LBE21:
 103              	.LBE20:
 104              		.loc 1 114 0
 105 0018 6445     		cmp	r4, ip
 106              	.LBE32:
 107              		.loc 1 102 0
 108 001a C260     		str	r2, [r0, #12]
 109              		.loc 1 95 0
 110 001c 0646     		mov	r6, r0
 111              	.LBB33:
 112              	.LBB25:
 113              	.LBB24:
 114              	.LBB23:
ARM GAS  /tmp/ccFL67SE.s 			page 3


 115              		.loc 2 128 0
 116 001e 5A6A     		ldr	r2, [r3, #36]
 117              	.LVL3:
 118              	.LBE23:
 119              	.LBE24:
 120              	.LBE25:
 121              		.loc 1 114 0
 122 0020 1DD0     		beq	.L14
 123              		.loc 1 123 0
 124 0022 B86A     		ldr	r0, [r7, #40]
 125              	.LVL4:
 126              		.loc 1 127 0
 127 0024 A368     		ldr	r3, [r4, #8]
 128              		.loc 1 123 0
 129 0026 121A     		subs	r2, r2, r0
 130 0028 1544     		add	r5, r5, r2
 131              	.LVL5:
 132              		.loc 1 127 0
 133 002a 9D42     		cmp	r5, r3
 134 002c 03D2     		bcs	.L12
 135 002e 11E0     		b	.L16
 136              	.LVL6:
 137              	.L10:
 138              	.LBE33:
 139              		.loc 1 137 0
 140 0030 2468     		ldr	r4, [r4]
 141              	.LVL7:
 142              		.loc 1 136 0
 143 0032 ED1A     		subs	r5, r5, r3
 144              	.LVL8:
 145              		.loc 1 135 0
 146 0034 A368     		ldr	r3, [r4, #8]
 147              	.L12:
 148 0036 AB42     		cmp	r3, r5
 149 0038 FAD3     		bcc	.L10
 150              		.loc 1 141 0
 151 003a 6368     		ldr	r3, [r4, #4]
 152 003c 7360     		str	r3, [r6, #4]
 153 003e 3460     		str	r4, [r6]
 154              		.loc 1 142 0
 155 0040 6660     		str	r6, [r4, #4]
 156 0042 1E60     		str	r6, [r3]
 157              		.loc 1 143 0
 158 0044 B560     		str	r5, [r6, #8]
 159              		.loc 1 147 0
 160 0046 A368     		ldr	r3, [r4, #8]
 161              		.loc 1 148 0
 162 0048 4FF0FF32 		mov	r2, #-1
 163              		.loc 1 147 0
 164 004c 5D1B     		subs	r5, r3, r5
 165              	.LVL9:
 166 004e A560     		str	r5, [r4, #8]
 167              	.LVL10:
 168              		.loc 1 148 0
 169 0050 7A62     		str	r2, [r7, #36]
 170 0052 F8BD     		pop	{r3, r4, r5, r6, r7, pc}
 171              	.LVL11:
ARM GAS  /tmp/ccFL67SE.s 			page 4


 172              	.L16:
 173              	.LBB34:
 174              	.LBB26:
 175              	.LBB27:
 176              		.file 3 "../ChibiOS/os/rt/ports/ARMCMx/chcore_timer.h"
 177              		.loc 3 95 0
 178 0054 2844     		add	r0, r0, r5
 179              	.LVL12:
 180 0056 FFF7FEFF 		bl	stSetAlarm
 181              	.LVL13:
 182 005a A368     		ldr	r3, [r4, #8]
 183 005c EBE7     		b	.L12
 184              	.LVL14:
 185              	.L14:
 186              	.LBE27:
 187              	.LBE26:
 188              	.LBB28:
 189              	.LBB29:
 190              		.loc 3 73 0
 191 005e A818     		adds	r0, r5, r2
 192              	.LVL15:
 193              	.LBE29:
 194              	.LBE28:
 195              		.loc 1 117 0
 196 0060 BA62     		str	r2, [r7, #40]
 197              	.LVL16:
 198              	.LBB31:
 199              	.LBB30:
 200              		.loc 3 73 0
 201 0062 FFF7FEFF 		bl	stStartAlarm
 202              	.LVL17:
 203 0066 7B6A     		ldr	r3, [r7, #36]
 204 0068 E5E7     		b	.L12
 205              	.L18:
 206 006a 00BF     		.align	2
 207              	.L17:
 208 006c 00000000 		.word	ch
 209              	.LBE30:
 210              	.LBE31:
 211              	.LBE34:
 212              		.cfi_endproc
 213              	.LFE227:
 214              		.size	chVTDoSetI, .-chVTDoSetI
 215              		.section	.text.chVTDoResetI,"ax",%progbits
 216              		.align	2
 217              		.p2align 4,,15
 218              		.global	chVTDoResetI
 219              		.thumb
 220              		.thumb_func
 221              		.type	chVTDoResetI, %function
 222              	chVTDoResetI:
 223              	.LFB228:
 224              		.loc 1 159 0
 225              		.cfi_startproc
 226              		@ args = 0, pretend = 0, frame = 0
 227              		@ frame_needed = 0, uses_anonymous_args = 0
 228              		@ link register save eliminated.
ARM GAS  /tmp/ccFL67SE.s 			page 5


 229              	.LVL18:
 230              		.loc 1 166 0
 231 0000 0268     		ldr	r2, [r0]
 232 0002 8368     		ldr	r3, [r0, #8]
 233              		.loc 1 173 0
 234 0004 1149     		ldr	r1, .L23
 235              		.loc 1 159 0
 236 0006 30B4     		push	{r4, r5}
 237              		.cfi_def_cfa_offset 8
 238              		.cfi_offset 4, -8
 239              		.cfi_offset 5, -4
 240              		.loc 1 166 0
 241 0008 9568     		ldr	r5, [r2, #8]
 242              		.loc 1 167 0
 243 000a 4468     		ldr	r4, [r0, #4]
 244              		.loc 1 166 0
 245 000c 1D44     		add	r5, r5, r3
 246              		.loc 1 177 0
 247 000e 0B46     		mov	r3, r1
 248              		.loc 1 166 0
 249 0010 9560     		str	r5, [r2, #8]
 250              		.loc 1 167 0
 251 0012 2260     		str	r2, [r4]
 252              		.loc 1 168 0
 253 0014 0568     		ldr	r5, [r0]
 254              		.loc 1 177 0
 255 0016 53F81C2F 		ldr	r2, [r3, #28]!
 256              		.loc 1 168 0
 257 001a 6C60     		str	r4, [r5, #4]
 258              		.loc 1 177 0
 259 001c 9A42     		cmp	r2, r3
 260              		.loc 1 169 0
 261 001e 4FF00005 		mov	r5, #0
 262              		.loc 1 173 0
 263 0022 4FF0FF34 		mov	r4, #-1
 264              		.loc 1 169 0
 265 0026 C560     		str	r5, [r0, #12]
 266              		.loc 1 173 0
 267 0028 4C62     		str	r4, [r1, #36]
 268              		.loc 1 177 0
 269 002a 0BD0     		beq	.L22
 270              		.loc 1 184 0
 271 002c 9368     		ldr	r3, [r2, #8]
 272              		.loc 1 185 0
 273 002e 886A     		ldr	r0, [r1, #40]
 274              	.LVL19:
 275              		.loc 1 184 0
 276 0030 012B     		cmp	r3, #1
 277 0032 03D9     		bls	.L21
 278              	.LVL20:
 279              	.LBB35:
 280              	.LBB36:
 281              		.loc 3 95 0
 282 0034 1844     		add	r0, r0, r3
 283              	.LBE36:
 284              	.LBE35:
 285              		.loc 1 193 0
ARM GAS  /tmp/ccFL67SE.s 			page 6


 286 0036 30BC     		pop	{r4, r5}
 287              	.LBB38:
 288              	.LBB37:
 289              		.loc 3 95 0
 290 0038 FFF7FEBF 		b	stSetAlarm
 291              	.LVL21:
 292              	.L21:
 293              	.LBE37:
 294              	.LBE38:
 295              	.LBB39:
 296              	.LBB40:
 297 003c 0230     		adds	r0, r0, #2
 298              	.LBE40:
 299              	.LBE39:
 300              		.loc 1 193 0
 301 003e 30BC     		pop	{r4, r5}
 302              	.LBB42:
 303              	.LBB41:
 304              		.loc 3 95 0
 305 0040 FFF7FEBF 		b	stSetAlarm
 306              	.LVL22:
 307              	.L22:
 308              	.LBE41:
 309              	.LBE42:
 310              		.loc 1 193 0
 311 0044 30BC     		pop	{r4, r5}
 312              	.LBB43:
 313              	.LBB44:
 314              		.loc 3 83 0
 315 0046 FFF7FEBF 		b	stStopAlarm
 316              	.LVL23:
 317              	.L24:
 318 004a 00BF     		.align	2
 319              	.L23:
 320 004c 00000000 		.word	ch
 321              	.LBE44:
 322              	.LBE43:
 323              		.cfi_endproc
 324              	.LFE228:
 325              		.size	chVTDoResetI, .-chVTDoResetI
 326              		.text
 327              	.Letext0:
 328              		.file 4 "/nfs/nfs5/home/research/hardware/arm2/gcc-arm-embedded/gcc-arm-none-eabi-4_8-2014q2/arm-n
 329              		.file 5 "/nfs/nfs5/home/research/hardware/arm2/gcc-arm-embedded/gcc-arm-none-eabi-4_8-2014q2/arm-n
 330              		.file 6 "../ChibiOS/os/rt/ports/ARMCMx/compilers/GCC/chtypes.h"
 331              		.file 7 "../ChibiOS/os/rt/include/chsystypes.h"
 332              		.file 8 "../ChibiOS/os/rt/include/chschd.h"
 333              		.file 9 "../ChibiOS/os/rt/ports/ARMCMx/chcore.h"
 334              		.file 10 "../ChibiOS/os/rt/ports/ARMCMx/chcore_v7m.h"
 335              		.file 11 "../ChibiOS/os/hal/ports/STM32/LLD/TIMv1/stm32_tim.h"
 336              		.file 12 "../ChibiOS/os/rt/include/chtm.h"
 337              		.file 13 "../ChibiOS/os/rt/include/chmtx.h"
 338              		.file 14 "../ChibiOS/os/hal/include/st.h"
 339              		.file 15 "../ChibiOS/os/ext/CMSIS/include/core_cm4.h"
 340              		.section	.debug_info,"",%progbits
 341              	.Ldebug_info0:
 342 0000 2D090000 		.4byte	0x92d
ARM GAS  /tmp/ccFL67SE.s 			page 7


 343 0004 0400     		.2byte	0x4
 344 0006 00000000 		.4byte	.Ldebug_abbrev0
 345 000a 04       		.byte	0x4
 346 000b 01       		.uleb128 0x1
 347 000c 1E040000 		.4byte	.LASF116
 348 0010 01       		.byte	0x1
 349 0011 5F000000 		.4byte	.LASF117
 350 0015 52010000 		.4byte	.LASF118
 351 0019 88000000 		.4byte	.Ldebug_ranges0+0x88
 352 001d 00000000 		.4byte	0
 353 0021 00000000 		.4byte	.Ldebug_line0
 354 0025 02       		.uleb128 0x2
 355 0026 04       		.byte	0x4
 356 0027 05       		.byte	0x5
 357 0028 696E7400 		.ascii	"int\000"
 358 002c 03       		.uleb128 0x3
 359 002d 04       		.byte	0x4
 360 002e 07       		.byte	0x7
 361 002f EB010000 		.4byte	.LASF0
 362 0033 03       		.uleb128 0x3
 363 0034 01       		.byte	0x1
 364 0035 06       		.byte	0x6
 365 0036 08010000 		.4byte	.LASF1
 366 003a 04       		.uleb128 0x4
 367 003b 2E000000 		.4byte	.LASF5
 368 003f 04       		.byte	0x4
 369 0040 1C       		.byte	0x1c
 370 0041 45000000 		.4byte	0x45
 371 0045 03       		.uleb128 0x3
 372 0046 01       		.byte	0x1
 373 0047 08       		.byte	0x8
 374 0048 39030000 		.4byte	.LASF2
 375 004c 03       		.uleb128 0x3
 376 004d 02       		.byte	0x2
 377 004e 05       		.byte	0x5
 378 004f 57030000 		.4byte	.LASF3
 379 0053 03       		.uleb128 0x3
 380 0054 02       		.byte	0x2
 381 0055 07       		.byte	0x7
 382 0056 98010000 		.4byte	.LASF4
 383 005a 04       		.uleb128 0x4
 384 005b 62020000 		.4byte	.LASF6
 385 005f 04       		.byte	0x4
 386 0060 37       		.byte	0x37
 387 0061 65000000 		.4byte	0x65
 388 0065 03       		.uleb128 0x3
 389 0066 04       		.byte	0x4
 390 0067 05       		.byte	0x5
 391 0068 2D010000 		.4byte	.LASF7
 392 006c 04       		.uleb128 0x4
 393 006d 1D050000 		.4byte	.LASF8
 394 0071 04       		.byte	0x4
 395 0072 38       		.byte	0x38
 396 0073 77000000 		.4byte	0x77
 397 0077 03       		.uleb128 0x3
 398 0078 04       		.byte	0x4
 399 0079 07       		.byte	0x7
ARM GAS  /tmp/ccFL67SE.s 			page 8


 400 007a ED030000 		.4byte	.LASF9
 401 007e 03       		.uleb128 0x3
 402 007f 08       		.byte	0x8
 403 0080 05       		.byte	0x5
 404 0081 44010000 		.4byte	.LASF10
 405 0085 04       		.uleb128 0x4
 406 0086 E9020000 		.4byte	.LASF11
 407 008a 04       		.byte	0x4
 408 008b 4E       		.byte	0x4e
 409 008c 90000000 		.4byte	0x90
 410 0090 03       		.uleb128 0x3
 411 0091 08       		.byte	0x8
 412 0092 07       		.byte	0x7
 413 0093 7B000000 		.4byte	.LASF12
 414 0097 04       		.uleb128 0x4
 415 0098 7E030000 		.4byte	.LASF13
 416 009c 05       		.byte	0x5
 417 009d 2A       		.byte	0x2a
 418 009e 3A000000 		.4byte	0x3a
 419 00a2 04       		.uleb128 0x4
 420 00a3 31030000 		.4byte	.LASF14
 421 00a7 05       		.byte	0x5
 422 00a8 41       		.byte	0x41
 423 00a9 5A000000 		.4byte	0x5a
 424 00ad 04       		.uleb128 0x4
 425 00ae C3030000 		.4byte	.LASF15
 426 00b2 05       		.byte	0x5
 427 00b3 42       		.byte	0x42
 428 00b4 6C000000 		.4byte	0x6c
 429 00b8 04       		.uleb128 0x4
 430 00b9 19000000 		.4byte	.LASF16
 431 00bd 05       		.byte	0x5
 432 00be 4E       		.byte	0x4e
 433 00bf 85000000 		.4byte	0x85
 434 00c3 05       		.uleb128 0x5
 435 00c4 A2000000 		.4byte	0xa2
 436 00c8 05       		.uleb128 0x5
 437 00c9 AD000000 		.4byte	0xad
 438 00cd 04       		.uleb128 0x4
 439 00ce 62050000 		.4byte	.LASF17
 440 00d2 06       		.byte	0x6
 441 00d3 45       		.byte	0x45
 442 00d4 AD000000 		.4byte	0xad
 443 00d8 04       		.uleb128 0x4
 444 00d9 E8050000 		.4byte	.LASF18
 445 00dd 06       		.byte	0x6
 446 00de 48       		.byte	0x48
 447 00df 97000000 		.4byte	0x97
 448 00e3 04       		.uleb128 0x4
 449 00e4 36010000 		.4byte	.LASF19
 450 00e8 06       		.byte	0x6
 451 00e9 49       		.byte	0x49
 452 00ea 97000000 		.4byte	0x97
 453 00ee 04       		.uleb128 0x4
 454 00ef F4020000 		.4byte	.LASF20
 455 00f3 06       		.byte	0x6
 456 00f4 4A       		.byte	0x4a
ARM GAS  /tmp/ccFL67SE.s 			page 9


 457 00f5 97000000 		.4byte	0x97
 458 00f9 04       		.uleb128 0x4
 459 00fa 13030000 		.4byte	.LASF21
 460 00fe 06       		.byte	0x6
 461 00ff 4C       		.byte	0x4c
 462 0100 AD000000 		.4byte	0xad
 463 0104 04       		.uleb128 0x4
 464 0105 38000000 		.4byte	.LASF22
 465 0109 06       		.byte	0x6
 466 010a 4D       		.byte	0x4d
 467 010b A2000000 		.4byte	0xa2
 468 010f 04       		.uleb128 0x4
 469 0110 22000000 		.4byte	.LASF23
 470 0114 06       		.byte	0x6
 471 0115 4F       		.byte	0x4f
 472 0116 AD000000 		.4byte	0xad
 473 011a 04       		.uleb128 0x4
 474 011b FF040000 		.4byte	.LASF24
 475 011f 07       		.byte	0x7
 476 0120 33       		.byte	0x33
 477 0121 AD000000 		.4byte	0xad
 478 0125 04       		.uleb128 0x4
 479 0126 15040000 		.4byte	.LASF25
 480 012a 07       		.byte	0x7
 481 012b 3F       		.byte	0x3f
 482 012c 30010000 		.4byte	0x130
 483 0130 06       		.uleb128 0x6
 484 0131 10020000 		.4byte	.LASF44
 485 0135 44       		.byte	0x44
 486 0136 08       		.byte	0x8
 487 0137 BE       		.byte	0xbe
 488 0138 1D020000 		.4byte	0x21d
 489 013c 07       		.uleb128 0x7
 490 013d 77030000 		.4byte	.LASF26
 491 0141 08       		.byte	0x8
 492 0142 BF       		.byte	0xbf
 493 0143 43060000 		.4byte	0x643
 494 0147 00       		.byte	0
 495 0148 07       		.uleb128 0x7
 496 0149 0C030000 		.4byte	.LASF27
 497 014d 08       		.byte	0x8
 498 014e C1       		.byte	0xc1
 499 014f 43060000 		.4byte	0x643
 500 0153 04       		.byte	0x4
 501 0154 07       		.uleb128 0x7
 502 0155 EC000000 		.4byte	.LASF28
 503 0159 08       		.byte	0x8
 504 015a C3       		.byte	0xc3
 505 015b F9000000 		.4byte	0xf9
 506 015f 08       		.byte	0x8
 507 0160 07       		.uleb128 0x7
 508 0161 BB020000 		.4byte	.LASF29
 509 0165 08       		.byte	0x8
 510 0166 C4       		.byte	0xc4
 511 0167 67040000 		.4byte	0x467
 512 016b 0C       		.byte	0xc
 513 016c 07       		.uleb128 0x7
ARM GAS  /tmp/ccFL67SE.s 			page 10


 514 016d 90010000 		.4byte	.LASF30
 515 0171 08       		.byte	0x8
 516 0172 C6       		.byte	0xc6
 517 0173 43060000 		.4byte	0x643
 518 0177 10       		.byte	0x10
 519 0178 07       		.uleb128 0x7
 520 0179 AD020000 		.4byte	.LASF31
 521 017d 08       		.byte	0x8
 522 017e C7       		.byte	0xc7
 523 017f 43060000 		.4byte	0x643
 524 0183 14       		.byte	0x14
 525 0184 07       		.uleb128 0x7
 526 0185 D2050000 		.4byte	.LASF32
 527 0189 08       		.byte	0x8
 528 018a CE       		.byte	0xce
 529 018b 81060000 		.4byte	0x681
 530 018f 18       		.byte	0x18
 531 0190 07       		.uleb128 0x7
 532 0191 61030000 		.4byte	.LASF33
 533 0195 08       		.byte	0x8
 534 0196 D9       		.byte	0xd9
 535 0197 E3000000 		.4byte	0xe3
 536 019b 1C       		.byte	0x1c
 537 019c 07       		.uleb128 0x7
 538 019d E3010000 		.4byte	.LASF34
 539 01a1 08       		.byte	0x8
 540 01a2 DD       		.byte	0xdd
 541 01a3 D8000000 		.4byte	0xd8
 542 01a7 1D       		.byte	0x1d
 543 01a8 07       		.uleb128 0x7
 544 01a9 88050000 		.4byte	.LASF35
 545 01ad 08       		.byte	0x8
 546 01ae E2       		.byte	0xe2
 547 01af EE000000 		.4byte	0xee
 548 01b3 1E       		.byte	0x1e
 549 01b4 08       		.uleb128 0x8
 550 01b5 705F7500 		.ascii	"p_u\000"
 551 01b9 08       		.byte	0x8
 552 01ba 1401     		.2byte	0x114
 553 01bc 49060000 		.4byte	0x649
 554 01c0 20       		.byte	0x20
 555 01c1 09       		.uleb128 0x9
 556 01c2 77020000 		.4byte	.LASF36
 557 01c6 08       		.byte	0x8
 558 01c7 1901     		.2byte	0x119
 559 01c9 1D020000 		.4byte	0x21d
 560 01cd 24       		.byte	0x24
 561 01ce 09       		.uleb128 0x9
 562 01cf 00020000 		.4byte	.LASF37
 563 01d3 08       		.byte	0x8
 564 01d4 1F01     		.2byte	0x11f
 565 01d6 41020000 		.4byte	0x241
 566 01da 28       		.byte	0x28
 567 01db 09       		.uleb128 0x9
 568 01dc F0050000 		.4byte	.LASF38
 569 01e0 08       		.byte	0x8
 570 01e1 2301     		.2byte	0x123
ARM GAS  /tmp/ccFL67SE.s 			page 11


 571 01e3 04010000 		.4byte	0x104
 572 01e7 30       		.byte	0x30
 573 01e8 09       		.uleb128 0x9
 574 01e9 A5030000 		.4byte	.LASF39
 575 01ed 08       		.byte	0x8
 576 01ee 2901     		.2byte	0x129
 577 01f0 0F010000 		.4byte	0x10f
 578 01f4 34       		.byte	0x34
 579 01f5 09       		.uleb128 0x9
 580 01f6 4D030000 		.4byte	.LASF40
 581 01fa 08       		.byte	0x8
 582 01fb 3001     		.2byte	0x130
 583 01fd C4060000 		.4byte	0x6c4
 584 0201 38       		.byte	0x38
 585 0202 09       		.uleb128 0x9
 586 0203 09050000 		.4byte	.LASF41
 587 0207 08       		.byte	0x8
 588 0208 3401     		.2byte	0x134
 589 020a F9000000 		.4byte	0xf9
 590 020e 3C       		.byte	0x3c
 591 020f 09       		.uleb128 0x9
 592 0210 B3010000 		.4byte	.LASF42
 593 0214 08       		.byte	0x8
 594 0215 3A01     		.2byte	0x13a
 595 0217 F4020000 		.4byte	0x2f4
 596 021b 40       		.byte	0x40
 597 021c 00       		.byte	0
 598 021d 04       		.uleb128 0x4
 599 021e D9050000 		.4byte	.LASF43
 600 0222 07       		.byte	0x7
 601 0223 44       		.byte	0x44
 602 0224 28020000 		.4byte	0x228
 603 0228 06       		.uleb128 0x6
 604 0229 DD030000 		.4byte	.LASF45
 605 022d 04       		.byte	0x4
 606 022e 08       		.byte	0x8
 607 022f AC       		.byte	0xac
 608 0230 41020000 		.4byte	0x241
 609 0234 07       		.uleb128 0x7
 610 0235 77030000 		.4byte	.LASF26
 611 0239 08       		.byte	0x8
 612 023a AD       		.byte	0xad
 613 023b 43060000 		.4byte	0x643
 614 023f 00       		.byte	0
 615 0240 00       		.byte	0
 616 0241 04       		.uleb128 0x4
 617 0242 78050000 		.4byte	.LASF46
 618 0246 07       		.byte	0x7
 619 0247 4B       		.byte	0x4b
 620 0248 4C020000 		.4byte	0x24c
 621 024c 06       		.uleb128 0x6
 622 024d DB000000 		.4byte	.LASF47
 623 0251 08       		.byte	0x8
 624 0252 08       		.byte	0x8
 625 0253 B3       		.byte	0xb3
 626 0254 71020000 		.4byte	0x271
 627 0258 07       		.uleb128 0x7
ARM GAS  /tmp/ccFL67SE.s 			page 12


 628 0259 77030000 		.4byte	.LASF26
 629 025d 08       		.byte	0x8
 630 025e B4       		.byte	0xb4
 631 025f 43060000 		.4byte	0x643
 632 0263 00       		.byte	0
 633 0264 07       		.uleb128 0x7
 634 0265 0C030000 		.4byte	.LASF27
 635 0269 08       		.byte	0x8
 636 026a B5       		.byte	0xb5
 637 026b 43060000 		.4byte	0x643
 638 026f 04       		.byte	0x4
 639 0270 00       		.byte	0
 640 0271 04       		.uleb128 0x4
 641 0272 00000000 		.4byte	.LASF48
 642 0276 07       		.byte	0x7
 643 0277 52       		.byte	0x52
 644 0278 7C020000 		.4byte	0x27c
 645 027c 0A       		.uleb128 0xa
 646 027d 49020000 		.4byte	.LASF49
 647 0281 1C       		.byte	0x1c
 648 0282 08       		.byte	0x8
 649 0283 7201     		.2byte	0x172
 650 0285 D8020000 		.4byte	0x2d8
 651 0289 09       		.uleb128 0x9
 652 028a CC030000 		.4byte	.LASF50
 653 028e 08       		.byte	0x8
 654 028f 7301     		.2byte	0x173
 655 0291 41020000 		.4byte	0x241
 656 0295 00       		.byte	0
 657 0296 09       		.uleb128 0x9
 658 0297 69030000 		.4byte	.LASF51
 659 029b 08       		.byte	0x8
 660 029c 7401     		.2byte	0x174
 661 029e F9000000 		.4byte	0xf9
 662 02a2 08       		.byte	0x8
 663 02a3 09       		.uleb128 0x9
 664 02a4 B5020000 		.4byte	.LASF52
 665 02a8 08       		.byte	0x8
 666 02a9 7601     		.2byte	0x176
 667 02ab 67040000 		.4byte	0x467
 668 02af 0C       		.byte	0xc
 669 02b0 09       		.uleb128 0x9
 670 02b1 AB010000 		.4byte	.LASF53
 671 02b5 08       		.byte	0x8
 672 02b6 7901     		.2byte	0x179
 673 02b8 43060000 		.4byte	0x643
 674 02bc 10       		.byte	0x10
 675 02bd 09       		.uleb128 0x9
 676 02be E1020000 		.4byte	.LASF54
 677 02c2 08       		.byte	0x8
 678 02c3 7A01     		.2byte	0x17a
 679 02c5 43060000 		.4byte	0x643
 680 02c9 14       		.byte	0x14
 681 02ca 09       		.uleb128 0x9
 682 02cb D7020000 		.4byte	.LASF55
 683 02cf 08       		.byte	0x8
 684 02d0 7D01     		.2byte	0x17d
ARM GAS  /tmp/ccFL67SE.s 			page 13


 685 02d2 43060000 		.4byte	0x643
 686 02d6 18       		.byte	0x18
 687 02d7 00       		.byte	0
 688 02d8 04       		.uleb128 0x4
 689 02d9 14050000 		.4byte	.LASF56
 690 02dd 07       		.byte	0x7
 691 02de 57       		.byte	0x57
 692 02df E3020000 		.4byte	0x2e3
 693 02e3 0B       		.uleb128 0xb
 694 02e4 04       		.byte	0x4
 695 02e5 E9020000 		.4byte	0x2e9
 696 02e9 0C       		.uleb128 0xc
 697 02ea F4020000 		.4byte	0x2f4
 698 02ee 0D       		.uleb128 0xd
 699 02ef F4020000 		.4byte	0x2f4
 700 02f3 00       		.byte	0
 701 02f4 0E       		.uleb128 0xe
 702 02f5 04       		.byte	0x4
 703 02f6 04       		.uleb128 0x4
 704 02f7 FC020000 		.4byte	.LASF57
 705 02fb 07       		.byte	0x7
 706 02fc 5C       		.byte	0x5c
 707 02fd 01030000 		.4byte	0x301
 708 0301 0A       		.uleb128 0xa
 709 0302 8F030000 		.4byte	.LASF58
 710 0306 14       		.byte	0x14
 711 0307 08       		.byte	0x8
 712 0308 4D01     		.2byte	0x14d
 713 030a 50030000 		.4byte	0x350
 714 030e 09       		.uleb128 0x9
 715 030f F8010000 		.4byte	.LASF59
 716 0313 08       		.byte	0x8
 717 0314 4E01     		.2byte	0x14e
 718 0316 CA060000 		.4byte	0x6ca
 719 031a 00       		.byte	0
 720 031b 09       		.uleb128 0x9
 721 031c C4010000 		.4byte	.LASF60
 722 0320 08       		.byte	0x8
 723 0321 4F01     		.2byte	0x14f
 724 0323 CA060000 		.4byte	0x6ca
 725 0327 04       		.byte	0x4
 726 0328 09       		.uleb128 0x9
 727 0329 D4030000 		.4byte	.LASF61
 728 032d 08       		.byte	0x8
 729 032e 5001     		.2byte	0x150
 730 0330 1A010000 		.4byte	0x11a
 731 0334 08       		.byte	0x8
 732 0335 09       		.uleb128 0x9
 733 0336 FE050000 		.4byte	.LASF62
 734 033a 08       		.byte	0x8
 735 033b 5101     		.2byte	0x151
 736 033d D8020000 		.4byte	0x2d8
 737 0341 0C       		.byte	0xc
 738 0342 09       		.uleb128 0x9
 739 0343 6A050000 		.4byte	.LASF63
 740 0347 08       		.byte	0x8
 741 0348 5301     		.2byte	0x153
ARM GAS  /tmp/ccFL67SE.s 			page 14


 742 034a F4020000 		.4byte	0x2f4
 743 034e 10       		.byte	0x10
 744 034f 00       		.byte	0
 745 0350 04       		.uleb128 0x4
 746 0351 B3000000 		.4byte	.LASF64
 747 0355 07       		.byte	0x7
 748 0356 61       		.byte	0x61
 749 0357 5B030000 		.4byte	0x35b
 750 035b 0A       		.uleb128 0xa
 751 035c 8A020000 		.4byte	.LASF65
 752 0360 10       		.byte	0x10
 753 0361 08       		.byte	0x8
 754 0362 5D01     		.2byte	0x15d
 755 0364 9D030000 		.4byte	0x39d
 756 0368 09       		.uleb128 0x9
 757 0369 F8010000 		.4byte	.LASF59
 758 036d 08       		.byte	0x8
 759 036e 5E01     		.2byte	0x15e
 760 0370 CA060000 		.4byte	0x6ca
 761 0374 00       		.byte	0
 762 0375 09       		.uleb128 0x9
 763 0376 C4010000 		.4byte	.LASF60
 764 037a 08       		.byte	0x8
 765 037b 6001     		.2byte	0x160
 766 037d CA060000 		.4byte	0x6ca
 767 0381 04       		.byte	0x4
 768 0382 09       		.uleb128 0x9
 769 0383 D4030000 		.4byte	.LASF61
 770 0387 08       		.byte	0x8
 771 0388 6201     		.2byte	0x162
 772 038a 1A010000 		.4byte	0x11a
 773 038e 08       		.byte	0x8
 774 038f 09       		.uleb128 0x9
 775 0390 A1020000 		.4byte	.LASF66
 776 0394 08       		.byte	0x8
 777 0395 6A01     		.2byte	0x16a
 778 0397 1A010000 		.4byte	0x11a
 779 039b 0C       		.byte	0xc
 780 039c 00       		.byte	0
 781 039d 04       		.uleb128 0x4
 782 039e 4A000000 		.4byte	.LASF67
 783 03a2 07       		.byte	0x7
 784 03a3 66       		.byte	0x66
 785 03a4 A8030000 		.4byte	0x3a8
 786 03a8 0A       		.uleb128 0xa
 787 03a9 21030000 		.4byte	.LASF68
 788 03ad 04       		.byte	0x4
 789 03ae 08       		.byte	0x8
 790 03af 8401     		.2byte	0x184
 791 03b1 C3030000 		.4byte	0x3c3
 792 03b5 09       		.uleb128 0x9
 793 03b6 28050000 		.4byte	.LASF69
 794 03ba 08       		.byte	0x8
 795 03bb 8C01     		.2byte	0x18c
 796 03bd D0060000 		.4byte	0x6d0
 797 03c1 00       		.byte	0
 798 03c2 00       		.byte	0
ARM GAS  /tmp/ccFL67SE.s 			page 15


 799 03c3 04       		.uleb128 0x4
 800 03c4 31020000 		.4byte	.LASF70
 801 03c8 07       		.byte	0x7
 802 03c9 6B       		.byte	0x6b
 803 03ca CE030000 		.4byte	0x3ce
 804 03ce 0F       		.uleb128 0xf
 805 03cf 23010000 		.4byte	.LASF71
 806 03d3 5001     		.2byte	0x150
 807 03d5 08       		.byte	0x8
 808 03d6 A401     		.2byte	0x1a4
 809 03d8 2A040000 		.4byte	0x42a
 810 03dc 09       		.uleb128 0x9
 811 03dd 8F050000 		.4byte	.LASF72
 812 03e1 08       		.byte	0x8
 813 03e2 A801     		.2byte	0x1a8
 814 03e4 71020000 		.4byte	0x271
 815 03e8 00       		.byte	0
 816 03e9 09       		.uleb128 0x9
 817 03ea 1C010000 		.4byte	.LASF73
 818 03ee 08       		.byte	0x8
 819 03ef AC01     		.2byte	0x1ac
 820 03f1 50030000 		.4byte	0x350
 821 03f5 1C       		.byte	0x1c
 822 03f6 08       		.uleb128 0x8
 823 03f7 64626700 		.ascii	"dbg\000"
 824 03fb 08       		.byte	0x8
 825 03fc B001     		.2byte	0x1b0
 826 03fe 9D030000 		.4byte	0x39d
 827 0402 2C       		.byte	0x2c
 828 0403 09       		.uleb128 0x9
 829 0404 A8000000 		.4byte	.LASF74
 830 0408 08       		.byte	0x8
 831 0409 B401     		.2byte	0x1b4
 832 040b 25010000 		.4byte	0x125
 833 040f 30       		.byte	0x30
 834 0410 08       		.uleb128 0x8
 835 0411 746D00   		.ascii	"tm\000"
 836 0414 08       		.byte	0x8
 837 0415 B901     		.2byte	0x1b9
 838 0417 38060000 		.4byte	0x638
 839 041b 74       		.byte	0x74
 840 041c 09       		.uleb128 0x9
 841 041d D4010000 		.4byte	.LASF75
 842 0421 08       		.byte	0x8
 843 0422 C501     		.2byte	0x1c5
 844 0424 D5060000 		.4byte	0x6d5
 845 0428 78       		.byte	0x78
 846 0429 00       		.byte	0
 847 042a 03       		.uleb128 0x3
 848 042b 04       		.byte	0x4
 849 042c 07       		.byte	0x7
 850 042d 81020000 		.4byte	.LASF76
 851 0431 10       		.uleb128 0x10
 852 0432 AD000000 		.4byte	0xad
 853 0436 41040000 		.4byte	0x441
 854 043a 11       		.uleb128 0x11
 855 043b 2A040000 		.4byte	0x42a
ARM GAS  /tmp/ccFL67SE.s 			page 16


 856 043f 01       		.byte	0x1
 857 0440 00       		.byte	0
 858 0441 10       		.uleb128 0x10
 859 0442 AD000000 		.4byte	0xad
 860 0446 51040000 		.4byte	0x451
 861 044a 11       		.uleb128 0x11
 862 044b 2A040000 		.4byte	0x42a
 863 044f 03       		.byte	0x3
 864 0450 00       		.byte	0
 865 0451 04       		.uleb128 0x4
 866 0452 BB010000 		.4byte	.LASF77
 867 0456 09       		.byte	0x9
 868 0457 85       		.byte	0x85
 869 0458 F4020000 		.4byte	0x2f4
 870 045c 04       		.uleb128 0x4
 871 045d 6C020000 		.4byte	.LASF78
 872 0461 09       		.byte	0x9
 873 0462 8D       		.byte	0x8d
 874 0463 B8000000 		.4byte	0xb8
 875 0467 06       		.uleb128 0x6
 876 0468 46050000 		.4byte	.LASF79
 877 046c 04       		.byte	0x4
 878 046d 09       		.byte	0x9
 879 046e A9       		.byte	0xa9
 880 046f 80040000 		.4byte	0x480
 881 0473 12       		.uleb128 0x12
 882 0474 72313300 		.ascii	"r13\000"
 883 0478 09       		.byte	0x9
 884 0479 AA       		.byte	0xaa
 885 047a FB040000 		.4byte	0x4fb
 886 047e 00       		.byte	0
 887 047f 00       		.byte	0
 888 0480 06       		.uleb128 0x6
 889 0481 3E000000 		.4byte	.LASF80
 890 0485 24       		.byte	0x24
 891 0486 0A       		.byte	0xa
 892 0487 F4       		.byte	0xf4
 893 0488 FB040000 		.4byte	0x4fb
 894 048c 08       		.uleb128 0x8
 895 048d 723400   		.ascii	"r4\000"
 896 0490 0A       		.byte	0xa
 897 0491 0701     		.2byte	0x107
 898 0493 51040000 		.4byte	0x451
 899 0497 00       		.byte	0
 900 0498 08       		.uleb128 0x8
 901 0499 723500   		.ascii	"r5\000"
 902 049c 0A       		.byte	0xa
 903 049d 0801     		.2byte	0x108
 904 049f 51040000 		.4byte	0x451
 905 04a3 04       		.byte	0x4
 906 04a4 08       		.uleb128 0x8
 907 04a5 723600   		.ascii	"r6\000"
 908 04a8 0A       		.byte	0xa
 909 04a9 0901     		.2byte	0x109
 910 04ab 51040000 		.4byte	0x451
 911 04af 08       		.byte	0x8
 912 04b0 08       		.uleb128 0x8
ARM GAS  /tmp/ccFL67SE.s 			page 17


 913 04b1 723700   		.ascii	"r7\000"
 914 04b4 0A       		.byte	0xa
 915 04b5 0A01     		.2byte	0x10a
 916 04b7 51040000 		.4byte	0x451
 917 04bb 0C       		.byte	0xc
 918 04bc 08       		.uleb128 0x8
 919 04bd 723800   		.ascii	"r8\000"
 920 04c0 0A       		.byte	0xa
 921 04c1 0B01     		.2byte	0x10b
 922 04c3 51040000 		.4byte	0x451
 923 04c7 10       		.byte	0x10
 924 04c8 08       		.uleb128 0x8
 925 04c9 723900   		.ascii	"r9\000"
 926 04cc 0A       		.byte	0xa
 927 04cd 0C01     		.2byte	0x10c
 928 04cf 51040000 		.4byte	0x451
 929 04d3 14       		.byte	0x14
 930 04d4 08       		.uleb128 0x8
 931 04d5 72313000 		.ascii	"r10\000"
 932 04d9 0A       		.byte	0xa
 933 04da 0D01     		.2byte	0x10d
 934 04dc 51040000 		.4byte	0x451
 935 04e0 18       		.byte	0x18
 936 04e1 08       		.uleb128 0x8
 937 04e2 72313100 		.ascii	"r11\000"
 938 04e6 0A       		.byte	0xa
 939 04e7 0E01     		.2byte	0x10e
 940 04e9 51040000 		.4byte	0x451
 941 04ed 1C       		.byte	0x1c
 942 04ee 08       		.uleb128 0x8
 943 04ef 6C7200   		.ascii	"lr\000"
 944 04f2 0A       		.byte	0xa
 945 04f3 0F01     		.2byte	0x10f
 946 04f5 51040000 		.4byte	0x451
 947 04f9 20       		.byte	0x20
 948 04fa 00       		.byte	0
 949 04fb 0B       		.uleb128 0xb
 950 04fc 04       		.byte	0x4
 951 04fd 80040000 		.4byte	0x480
 952 0501 13       		.uleb128 0x13
 953 0502 60       		.byte	0x60
 954 0503 0B       		.byte	0xb
 955 0504 9E01     		.2byte	0x19e
 956 0506 0D060000 		.4byte	0x60d
 957 050a 08       		.uleb128 0x8
 958 050b 43523100 		.ascii	"CR1\000"
 959 050f 0B       		.byte	0xb
 960 0510 9F01     		.2byte	0x19f
 961 0512 C8000000 		.4byte	0xc8
 962 0516 00       		.byte	0
 963 0517 08       		.uleb128 0x8
 964 0518 43523200 		.ascii	"CR2\000"
 965 051c 0B       		.byte	0xb
 966 051d A001     		.2byte	0x1a0
 967 051f C8000000 		.4byte	0xc8
 968 0523 04       		.byte	0x4
 969 0524 09       		.uleb128 0x9
ARM GAS  /tmp/ccFL67SE.s 			page 18


 970 0525 0B020000 		.4byte	.LASF81
 971 0529 0B       		.byte	0xb
 972 052a A101     		.2byte	0x1a1
 973 052c C8000000 		.4byte	0xc8
 974 0530 08       		.byte	0x8
 975 0531 09       		.uleb128 0x9
 976 0532 0D000000 		.4byte	.LASF82
 977 0536 0B       		.byte	0xb
 978 0537 A201     		.2byte	0x1a2
 979 0539 C8000000 		.4byte	0xc8
 980 053d 0C       		.byte	0xc
 981 053e 08       		.uleb128 0x8
 982 053f 535200   		.ascii	"SR\000"
 983 0542 0B       		.byte	0xb
 984 0543 A301     		.2byte	0x1a3
 985 0545 C8000000 		.4byte	0xc8
 986 0549 10       		.byte	0x10
 987 054a 08       		.uleb128 0x8
 988 054b 45475200 		.ascii	"EGR\000"
 989 054f 0B       		.byte	0xb
 990 0550 A401     		.2byte	0x1a4
 991 0552 C8000000 		.4byte	0xc8
 992 0556 14       		.byte	0x14
 993 0557 09       		.uleb128 0x9
 994 0558 F3000000 		.4byte	.LASF83
 995 055c 0B       		.byte	0xb
 996 055d A501     		.2byte	0x1a5
 997 055f C8000000 		.4byte	0xc8
 998 0563 18       		.byte	0x18
 999 0564 09       		.uleb128 0x9
 1000 0565 59000000 		.4byte	.LASF84
 1001 0569 0B       		.byte	0xb
 1002 056a A601     		.2byte	0x1a6
 1003 056c C8000000 		.4byte	0xc8
 1004 0570 1C       		.byte	0x1c
 1005 0571 09       		.uleb128 0x9
 1006 0572 3F010000 		.4byte	.LASF85
 1007 0576 0B       		.byte	0xb
 1008 0577 A701     		.2byte	0x1a7
 1009 0579 C8000000 		.4byte	0xc8
 1010 057d 20       		.byte	0x20
 1011 057e 08       		.uleb128 0x8
 1012 057f 434E5400 		.ascii	"CNT\000"
 1013 0583 0B       		.byte	0xb
 1014 0584 A801     		.2byte	0x1a8
 1015 0586 C8000000 		.4byte	0xc8
 1016 058a 24       		.byte	0x24
 1017 058b 08       		.uleb128 0x8
 1018 058c 50534300 		.ascii	"PSC\000"
 1019 0590 0B       		.byte	0xb
 1020 0591 A901     		.2byte	0x1a9
 1021 0593 C8000000 		.4byte	0xc8
 1022 0597 28       		.byte	0x28
 1023 0598 08       		.uleb128 0x8
 1024 0599 41525200 		.ascii	"ARR\000"
 1025 059d 0B       		.byte	0xb
 1026 059e AA01     		.2byte	0x1aa
ARM GAS  /tmp/ccFL67SE.s 			page 19


 1027 05a0 C8000000 		.4byte	0xc8
 1028 05a4 2C       		.byte	0x2c
 1029 05a5 08       		.uleb128 0x8
 1030 05a6 52435200 		.ascii	"RCR\000"
 1031 05aa 0B       		.byte	0xb
 1032 05ab AB01     		.2byte	0x1ab
 1033 05ad C8000000 		.4byte	0xc8
 1034 05b1 30       		.byte	0x30
 1035 05b2 08       		.uleb128 0x8
 1036 05b3 43435200 		.ascii	"CCR\000"
 1037 05b7 0B       		.byte	0xb
 1038 05b8 AC01     		.2byte	0x1ac
 1039 05ba 0D060000 		.4byte	0x60d
 1040 05be 34       		.byte	0x34
 1041 05bf 09       		.uleb128 0x9
 1042 05c0 D6000000 		.4byte	.LASF86
 1043 05c4 0B       		.byte	0xb
 1044 05c5 AD01     		.2byte	0x1ad
 1045 05c7 C8000000 		.4byte	0xc8
 1046 05cb 44       		.byte	0x44
 1047 05cc 08       		.uleb128 0x8
 1048 05cd 44435200 		.ascii	"DCR\000"
 1049 05d1 0B       		.byte	0xb
 1050 05d2 AE01     		.2byte	0x1ae
 1051 05d4 C8000000 		.4byte	0xc8
 1052 05d8 48       		.byte	0x48
 1053 05d9 09       		.uleb128 0x9
 1054 05da 10040000 		.4byte	.LASF87
 1055 05de 0B       		.byte	0xb
 1056 05df AF01     		.2byte	0x1af
 1057 05e1 C8000000 		.4byte	0xc8
 1058 05e5 4C       		.byte	0x4c
 1059 05e6 08       		.uleb128 0x8
 1060 05e7 4F5200   		.ascii	"OR\000"
 1061 05ea 0B       		.byte	0xb
 1062 05eb B001     		.2byte	0x1b0
 1063 05ed C8000000 		.4byte	0xc8
 1064 05f1 50       		.byte	0x50
 1065 05f2 09       		.uleb128 0x9
 1066 05f3 02010000 		.4byte	.LASF88
 1067 05f7 0B       		.byte	0xb
 1068 05f8 B101     		.2byte	0x1b1
 1069 05fa C8000000 		.4byte	0xc8
 1070 05fe 54       		.byte	0x54
 1071 05ff 09       		.uleb128 0x9
 1072 0600 A0030000 		.4byte	.LASF89
 1073 0604 0B       		.byte	0xb
 1074 0605 B201     		.2byte	0x1b2
 1075 0607 12060000 		.4byte	0x612
 1076 060b 58       		.byte	0x58
 1077 060c 00       		.byte	0
 1078 060d 05       		.uleb128 0x5
 1079 060e 41040000 		.4byte	0x441
 1080 0612 05       		.uleb128 0x5
 1081 0613 31040000 		.4byte	0x431
 1082 0617 14       		.uleb128 0x14
 1083 0618 3D020000 		.4byte	.LASF90
ARM GAS  /tmp/ccFL67SE.s 			page 20


 1084 061c 0B       		.byte	0xb
 1085 061d B301     		.2byte	0x1b3
 1086 061f 01050000 		.4byte	0x501
 1087 0623 15       		.uleb128 0x15
 1088 0624 04       		.byte	0x4
 1089 0625 0C       		.byte	0xc
 1090 0626 38       		.byte	0x38
 1091 0627 38060000 		.4byte	0x638
 1092 062b 07       		.uleb128 0x7
 1093 062c 32050000 		.4byte	.LASF91
 1094 0630 0C       		.byte	0xc
 1095 0631 3C       		.byte	0x3c
 1096 0632 CD000000 		.4byte	0xcd
 1097 0636 00       		.byte	0
 1098 0637 00       		.byte	0
 1099 0638 04       		.uleb128 0x4
 1100 0639 C1020000 		.4byte	.LASF92
 1101 063d 0C       		.byte	0xc
 1102 063e 3D       		.byte	0x3d
 1103 063f 23060000 		.4byte	0x623
 1104 0643 0B       		.uleb128 0xb
 1105 0644 04       		.byte	0x4
 1106 0645 25010000 		.4byte	0x125
 1107 0649 16       		.uleb128 0x16
 1108 064a 04       		.byte	0x4
 1109 064b 08       		.byte	0x8
 1110 064c F6       		.byte	0xf6
 1111 064d 81060000 		.4byte	0x681
 1112 0651 17       		.uleb128 0x17
 1113 0652 12000000 		.4byte	.LASF93
 1114 0656 08       		.byte	0x8
 1115 0657 FD       		.byte	0xfd
 1116 0658 04010000 		.4byte	0x104
 1117 065c 18       		.uleb128 0x18
 1118 065d 9F000000 		.4byte	.LASF94
 1119 0661 08       		.byte	0x8
 1120 0662 0401     		.2byte	0x104
 1121 0664 04010000 		.4byte	0x104
 1122 0668 18       		.uleb128 0x18
 1123 0669 CB050000 		.4byte	.LASF95
 1124 066d 08       		.byte	0x8
 1125 066e 0B01     		.2byte	0x10b
 1126 0670 F4020000 		.4byte	0x2f4
 1127 0674 18       		.uleb128 0x18
 1128 0675 70030000 		.4byte	.LASF96
 1129 0679 08       		.byte	0x8
 1130 067a 1201     		.2byte	0x112
 1131 067c 0F010000 		.4byte	0x10f
 1132 0680 00       		.byte	0
 1133 0681 0B       		.uleb128 0xb
 1134 0682 04       		.byte	0x4
 1135 0683 87060000 		.4byte	0x687
 1136 0687 19       		.uleb128 0x19
 1137 0688 8C060000 		.4byte	0x68c
 1138 068c 03       		.uleb128 0x3
 1139 068d 01       		.byte	0x1
 1140 068e 08       		.byte	0x8
ARM GAS  /tmp/ccFL67SE.s 			page 21


 1141 068f 0B040000 		.4byte	.LASF97
 1142 0693 06       		.uleb128 0x6
 1143 0694 1B030000 		.4byte	.LASF98
 1144 0698 10       		.byte	0x10
 1145 0699 0D       		.byte	0xd
 1146 069a 39       		.byte	0x39
 1147 069b C4060000 		.4byte	0x6c4
 1148 069f 07       		.uleb128 0x7
 1149 06a0 14010000 		.4byte	.LASF99
 1150 06a4 0D       		.byte	0xd
 1151 06a5 3A       		.byte	0x3a
 1152 06a6 41020000 		.4byte	0x241
 1153 06aa 00       		.byte	0
 1154 06ab 07       		.uleb128 0x7
 1155 06ac F6050000 		.4byte	.LASF100
 1156 06b0 0D       		.byte	0xd
 1157 06b1 3C       		.byte	0x3c
 1158 06b2 43060000 		.4byte	0x643
 1159 06b6 08       		.byte	0x8
 1160 06b7 07       		.uleb128 0x7
 1161 06b8 F8040000 		.4byte	.LASF101
 1162 06bc 0D       		.byte	0xd
 1163 06bd 3E       		.byte	0x3e
 1164 06be F0060000 		.4byte	0x6f0
 1165 06c2 0C       		.byte	0xc
 1166 06c3 00       		.byte	0
 1167 06c4 0B       		.uleb128 0xb
 1168 06c5 04       		.byte	0x4
 1169 06c6 93060000 		.4byte	0x693
 1170 06ca 0B       		.uleb128 0xb
 1171 06cb 04       		.byte	0x4
 1172 06cc F6020000 		.4byte	0x2f6
 1173 06d0 05       		.uleb128 0x5
 1174 06d1 81060000 		.4byte	0x681
 1175 06d5 10       		.uleb128 0x10
 1176 06d6 5C040000 		.4byte	0x45c
 1177 06da E5060000 		.4byte	0x6e5
 1178 06de 11       		.uleb128 0x11
 1179 06df 2A040000 		.4byte	0x42a
 1180 06e3 1A       		.byte	0x1a
 1181 06e4 00       		.byte	0
 1182 06e5 04       		.uleb128 0x4
 1183 06e6 CC010000 		.4byte	.LASF102
 1184 06ea 0D       		.byte	0xd
 1185 06eb 34       		.byte	0x34
 1186 06ec 93060000 		.4byte	0x693
 1187 06f0 0B       		.uleb128 0xb
 1188 06f1 04       		.byte	0x4
 1189 06f2 E5060000 		.4byte	0x6e5
 1190 06f6 1A       		.uleb128 0x1a
 1191 06f7 B0030000 		.4byte	.LASF103
 1192 06fb 02       		.byte	0x2
 1193 06fc 7E       		.byte	0x7e
 1194 06fd 1A010000 		.4byte	0x11a
 1195 0701 03       		.byte	0x3
 1196 0702 1A       		.uleb128 0x1a
 1197 0703 4E050000 		.4byte	.LASF104
ARM GAS  /tmp/ccFL67SE.s 			page 22


 1198 0707 03       		.byte	0x3
 1199 0708 69       		.byte	0x69
 1200 0709 1A010000 		.4byte	0x11a
 1201 070d 03       		.byte	0x3
 1202 070e 1B       		.uleb128 0x1b
 1203 070f 1A020000 		.4byte	.LASF105
 1204 0713 03       		.byte	0x3
 1205 0714 47       		.byte	0x47
 1206 0715 03       		.byte	0x3
 1207 0716 26070000 		.4byte	0x726
 1208 071a 1C       		.uleb128 0x1c
 1209 071b D2020000 		.4byte	.LASF107
 1210 071f 03       		.byte	0x3
 1211 0720 47       		.byte	0x47
 1212 0721 1A010000 		.4byte	0x11a
 1213 0725 00       		.byte	0
 1214 0726 1B       		.uleb128 0x1b
 1215 0727 B6050000 		.4byte	.LASF106
 1216 072b 03       		.byte	0x3
 1217 072c 5D       		.byte	0x5d
 1218 072d 03       		.byte	0x3
 1219 072e 3E070000 		.4byte	0x73e
 1220 0732 1C       		.uleb128 0x1c
 1221 0733 D2020000 		.4byte	.LASF107
 1222 0737 03       		.byte	0x3
 1223 0738 5D       		.byte	0x5d
 1224 0739 1A010000 		.4byte	0x11a
 1225 073d 00       		.byte	0
 1226 073e 1D       		.uleb128 0x1d
 1227 073f A0050000 		.4byte	.LASF119
 1228 0743 03       		.byte	0x3
 1229 0744 51       		.byte	0x51
 1230 0745 03       		.byte	0x3
 1231 0746 1E       		.uleb128 0x1e
 1232 0747 F9000000 		.4byte	.LASF120
 1233 074b 01       		.byte	0x1
 1234 074c 3D       		.byte	0x3d
 1235 074d 00000000 		.4byte	.LFB226
 1236 0751 1C000000 		.4byte	.LFE226-.LFB226
 1237 0755 01       		.uleb128 0x1
 1238 0756 9C       		.byte	0x9c
 1239 0757 1F       		.uleb128 0x1f
 1240 0758 57020000 		.4byte	.LASF110
 1241 075c 01       		.byte	0x1
 1242 075d 5E       		.byte	0x5e
 1243 075e 00000000 		.4byte	.LFB227
 1244 0762 70000000 		.4byte	.LFE227-.LFB227
 1245 0766 01       		.uleb128 0x1
 1246 0767 9C       		.byte	0x9c
 1247 0768 3B080000 		.4byte	0x83b
 1248 076c 20       		.uleb128 0x20
 1249 076d 76747000 		.ascii	"vtp\000"
 1250 0771 01       		.byte	0x1
 1251 0772 5E       		.byte	0x5e
 1252 0773 CA060000 		.4byte	0x6ca
 1253 0777 00000000 		.4byte	.LLST0
 1254 077b 21       		.uleb128 0x21
ARM GAS  /tmp/ccFL67SE.s 			page 23


 1255 077c 47030000 		.4byte	.LASF108
 1256 0780 01       		.byte	0x1
 1257 0781 5E       		.byte	0x5e
 1258 0782 1A010000 		.4byte	0x11a
 1259 0786 34000000 		.4byte	.LLST1
 1260 078a 21       		.uleb128 0x21
 1261 078b 71050000 		.4byte	.LASF109
 1262 078f 01       		.byte	0x1
 1263 0790 5F       		.byte	0x5f
 1264 0791 D8020000 		.4byte	0x2d8
 1265 0795 6C000000 		.4byte	.LLST2
 1266 0799 20       		.uleb128 0x20
 1267 079a 70617200 		.ascii	"par\000"
 1268 079e 01       		.byte	0x1
 1269 079f 5F       		.byte	0x5f
 1270 07a0 F4020000 		.4byte	0x2f4
 1271 07a4 E5000000 		.4byte	.LLST3
 1272 07a8 22       		.uleb128 0x22
 1273 07a9 7000     		.ascii	"p\000"
 1274 07ab 01       		.byte	0x1
 1275 07ac 60       		.byte	0x60
 1276 07ad CA060000 		.4byte	0x6ca
 1277 07b1 5E010000 		.4byte	.LLST4
 1278 07b5 23       		.uleb128 0x23
 1279 07b6 86030000 		.4byte	.LASF112
 1280 07ba 4B080000 		.4byte	0x84b
 1281 07be 24       		.uleb128 0x24
 1282 07bf 00000000 		.4byte	.Ldebug_ranges0+0
 1283 07c3 25       		.uleb128 0x25
 1284 07c4 6E6F7700 		.ascii	"now\000"
 1285 07c8 01       		.byte	0x1
 1286 07c9 6B       		.byte	0x6b
 1287 07ca 1A010000 		.4byte	0x11a
 1288 07ce 26       		.uleb128 0x26
 1289 07cf 02070000 		.4byte	0x702
 1290 07d3 14000000 		.4byte	.LBB20
 1291 07d7 28000000 		.4byte	.Ldebug_ranges0+0x28
 1292 07db 01       		.byte	0x1
 1293 07dc 6B       		.byte	0x6b
 1294 07dd F1070000 		.4byte	0x7f1
 1295 07e1 27       		.uleb128 0x27
 1296 07e2 F6060000 		.4byte	0x6f6
 1297 07e6 14000000 		.4byte	.LBB21
 1298 07ea 28000000 		.4byte	.Ldebug_ranges0+0x28
 1299 07ee 03       		.byte	0x3
 1300 07ef 6B       		.byte	0x6b
 1301 07f0 00       		.byte	0
 1302 07f1 28       		.uleb128 0x28
 1303 07f2 26070000 		.4byte	0x726
 1304 07f6 54000000 		.4byte	.LBB26
 1305 07fa 0A000000 		.4byte	.LBE26-.LBB26
 1306 07fe 01       		.byte	0x1
 1307 07ff 80       		.byte	0x80
 1308 0800 17080000 		.4byte	0x817
 1309 0804 29       		.uleb128 0x29
 1310 0805 32070000 		.4byte	0x732
 1311 0809 7C010000 		.4byte	.LLST5
ARM GAS  /tmp/ccFL67SE.s 			page 24


 1312 080d 2A       		.uleb128 0x2a
 1313 080e 5A000000 		.4byte	.LVL13
 1314 0812 07090000 		.4byte	0x907
 1315 0816 00       		.byte	0
 1316 0817 2B       		.uleb128 0x2b
 1317 0818 0E070000 		.4byte	0x70e
 1318 081c 5E000000 		.4byte	.LBB28
 1319 0820 40000000 		.4byte	.Ldebug_ranges0+0x40
 1320 0824 01       		.byte	0x1
 1321 0825 76       		.byte	0x76
 1322 0826 29       		.uleb128 0x29
 1323 0827 1A070000 		.4byte	0x71a
 1324 082b 9F010000 		.4byte	.LLST6
 1325 082f 2A       		.uleb128 0x2a
 1326 0830 66000000 		.4byte	.LVL17
 1327 0834 18090000 		.4byte	0x918
 1328 0838 00       		.byte	0
 1329 0839 00       		.byte	0
 1330 083a 00       		.byte	0
 1331 083b 10       		.uleb128 0x10
 1332 083c 8C060000 		.4byte	0x68c
 1333 0840 4B080000 		.4byte	0x84b
 1334 0844 11       		.uleb128 0x11
 1335 0845 2A040000 		.4byte	0x42a
 1336 0849 0A       		.byte	0xa
 1337 084a 00       		.byte	0
 1338 084b 19       		.uleb128 0x19
 1339 084c 3B080000 		.4byte	0x83b
 1340 0850 1F       		.uleb128 0x1f
 1341 0851 92000000 		.4byte	.LASF111
 1342 0855 01       		.byte	0x1
 1343 0856 9F       		.byte	0x9f
 1344 0857 00000000 		.4byte	.LFB228
 1345 085b 50000000 		.4byte	.LFE228-.LFB228
 1346 085f 01       		.uleb128 0x1
 1347 0860 9C       		.byte	0x9c
 1348 0861 DB080000 		.4byte	0x8db
 1349 0865 20       		.uleb128 0x20
 1350 0866 76747000 		.ascii	"vtp\000"
 1351 086a 01       		.byte	0x1
 1352 086b 9F       		.byte	0x9f
 1353 086c CA060000 		.4byte	0x6ca
 1354 0870 B7010000 		.4byte	.LLST7
 1355 0874 23       		.uleb128 0x23
 1356 0875 86030000 		.4byte	.LASF112
 1357 0879 EB080000 		.4byte	0x8eb
 1358 087d 26       		.uleb128 0x26
 1359 087e 26070000 		.4byte	0x726
 1360 0882 34000000 		.4byte	.LBB35
 1361 0886 58000000 		.4byte	.Ldebug_ranges0+0x58
 1362 088a 01       		.byte	0x1
 1363 088b B9       		.byte	0xb9
 1364 088c 9F080000 		.4byte	0x89f
 1365 0890 2C       		.uleb128 0x2c
 1366 0891 32070000 		.4byte	0x732
 1367 0895 2D       		.uleb128 0x2d
 1368 0896 3C000000 		.4byte	.LVL21
ARM GAS  /tmp/ccFL67SE.s 			page 25


 1369 089a 07090000 		.4byte	0x907
 1370 089e 00       		.byte	0
 1371 089f 26       		.uleb128 0x26
 1372 08a0 26070000 		.4byte	0x726
 1373 08a4 3C000000 		.4byte	.LBB39
 1374 08a8 70000000 		.4byte	.Ldebug_ranges0+0x70
 1375 08ac 01       		.byte	0x1
 1376 08ad BC       		.byte	0xbc
 1377 08ae C1080000 		.4byte	0x8c1
 1378 08b2 2C       		.uleb128 0x2c
 1379 08b3 32070000 		.4byte	0x732
 1380 08b7 2D       		.uleb128 0x2d
 1381 08b8 44000000 		.4byte	.LVL22
 1382 08bc 07090000 		.4byte	0x907
 1383 08c0 00       		.byte	0
 1384 08c1 2E       		.uleb128 0x2e
 1385 08c2 3E070000 		.4byte	0x73e
 1386 08c6 46000000 		.4byte	.LBB43
 1387 08ca 0A000000 		.4byte	.LBE43-.LBB43
 1388 08ce 01       		.byte	0x1
 1389 08cf B3       		.byte	0xb3
 1390 08d0 2D       		.uleb128 0x2d
 1391 08d1 4A000000 		.4byte	.LVL23
 1392 08d5 29090000 		.4byte	0x929
 1393 08d9 00       		.byte	0
 1394 08da 00       		.byte	0
 1395 08db 10       		.uleb128 0x10
 1396 08dc 8C060000 		.4byte	0x68c
 1397 08e0 EB080000 		.4byte	0x8eb
 1398 08e4 11       		.uleb128 0x11
 1399 08e5 2A040000 		.4byte	0x42a
 1400 08e9 0C       		.byte	0xc
 1401 08ea 00       		.byte	0
 1402 08eb 19       		.uleb128 0x19
 1403 08ec DB080000 		.4byte	0x8db
 1404 08f0 2F       		.uleb128 0x2f
 1405 08f1 C9000000 		.4byte	.LASF113
 1406 08f5 0F       		.byte	0xf
 1407 08f6 A706     		.2byte	0x6a7
 1408 08f8 C3000000 		.4byte	0xc3
 1409 08fc 30       		.uleb128 0x30
 1410 08fd 636800   		.ascii	"ch\000"
 1411 0900 08       		.byte	0x8
 1412 0901 EB01     		.2byte	0x1eb
 1413 0903 C3030000 		.4byte	0x3c3
 1414 0907 31       		.uleb128 0x31
 1415 0908 95050000 		.4byte	.LASF114
 1416 090c 0E       		.byte	0xe
 1417 090d 5C       		.byte	0x5c
 1418 090e 18090000 		.4byte	0x918
 1419 0912 0D       		.uleb128 0xd
 1420 0913 1A010000 		.4byte	0x11a
 1421 0917 00       		.byte	0
 1422 0918 31       		.uleb128 0x31
 1423 0919 39050000 		.4byte	.LASF115
 1424 091d 0E       		.byte	0xe
 1425 091e 5A       		.byte	0x5a
ARM GAS  /tmp/ccFL67SE.s 			page 26


 1426 091f 29090000 		.4byte	0x929
 1427 0923 0D       		.uleb128 0xd
 1428 0924 1A010000 		.4byte	0x11a
 1429 0928 00       		.byte	0
 1430 0929 32       		.uleb128 0x32
 1431 092a FF030000 		.4byte	.LASF121
 1432 092e 0E       		.byte	0xe
 1433 092f 5B       		.byte	0x5b
 1434 0930 00       		.byte	0
 1435              		.section	.debug_abbrev,"",%progbits
 1436              	.Ldebug_abbrev0:
 1437 0000 01       		.uleb128 0x1
 1438 0001 11       		.uleb128 0x11
 1439 0002 01       		.byte	0x1
 1440 0003 25       		.uleb128 0x25
 1441 0004 0E       		.uleb128 0xe
 1442 0005 13       		.uleb128 0x13
 1443 0006 0B       		.uleb128 0xb
 1444 0007 03       		.uleb128 0x3
 1445 0008 0E       		.uleb128 0xe
 1446 0009 1B       		.uleb128 0x1b
 1447 000a 0E       		.uleb128 0xe
 1448 000b 55       		.uleb128 0x55
 1449 000c 17       		.uleb128 0x17
 1450 000d 11       		.uleb128 0x11
 1451 000e 01       		.uleb128 0x1
 1452 000f 10       		.uleb128 0x10
 1453 0010 17       		.uleb128 0x17
 1454 0011 00       		.byte	0
 1455 0012 00       		.byte	0
 1456 0013 02       		.uleb128 0x2
 1457 0014 24       		.uleb128 0x24
 1458 0015 00       		.byte	0
 1459 0016 0B       		.uleb128 0xb
 1460 0017 0B       		.uleb128 0xb
 1461 0018 3E       		.uleb128 0x3e
 1462 0019 0B       		.uleb128 0xb
 1463 001a 03       		.uleb128 0x3
 1464 001b 08       		.uleb128 0x8
 1465 001c 00       		.byte	0
 1466 001d 00       		.byte	0
 1467 001e 03       		.uleb128 0x3
 1468 001f 24       		.uleb128 0x24
 1469 0020 00       		.byte	0
 1470 0021 0B       		.uleb128 0xb
 1471 0022 0B       		.uleb128 0xb
 1472 0023 3E       		.uleb128 0x3e
 1473 0024 0B       		.uleb128 0xb
 1474 0025 03       		.uleb128 0x3
 1475 0026 0E       		.uleb128 0xe
 1476 0027 00       		.byte	0
 1477 0028 00       		.byte	0
 1478 0029 04       		.uleb128 0x4
 1479 002a 16       		.uleb128 0x16
 1480 002b 00       		.byte	0
 1481 002c 03       		.uleb128 0x3
 1482 002d 0E       		.uleb128 0xe
ARM GAS  /tmp/ccFL67SE.s 			page 27


 1483 002e 3A       		.uleb128 0x3a
 1484 002f 0B       		.uleb128 0xb
 1485 0030 3B       		.uleb128 0x3b
 1486 0031 0B       		.uleb128 0xb
 1487 0032 49       		.uleb128 0x49
 1488 0033 13       		.uleb128 0x13
 1489 0034 00       		.byte	0
 1490 0035 00       		.byte	0
 1491 0036 05       		.uleb128 0x5
 1492 0037 35       		.uleb128 0x35
 1493 0038 00       		.byte	0
 1494 0039 49       		.uleb128 0x49
 1495 003a 13       		.uleb128 0x13
 1496 003b 00       		.byte	0
 1497 003c 00       		.byte	0
 1498 003d 06       		.uleb128 0x6
 1499 003e 13       		.uleb128 0x13
 1500 003f 01       		.byte	0x1
 1501 0040 03       		.uleb128 0x3
 1502 0041 0E       		.uleb128 0xe
 1503 0042 0B       		.uleb128 0xb
 1504 0043 0B       		.uleb128 0xb
 1505 0044 3A       		.uleb128 0x3a
 1506 0045 0B       		.uleb128 0xb
 1507 0046 3B       		.uleb128 0x3b
 1508 0047 0B       		.uleb128 0xb
 1509 0048 01       		.uleb128 0x1
 1510 0049 13       		.uleb128 0x13
 1511 004a 00       		.byte	0
 1512 004b 00       		.byte	0
 1513 004c 07       		.uleb128 0x7
 1514 004d 0D       		.uleb128 0xd
 1515 004e 00       		.byte	0
 1516 004f 03       		.uleb128 0x3
 1517 0050 0E       		.uleb128 0xe
 1518 0051 3A       		.uleb128 0x3a
 1519 0052 0B       		.uleb128 0xb
 1520 0053 3B       		.uleb128 0x3b
 1521 0054 0B       		.uleb128 0xb
 1522 0055 49       		.uleb128 0x49
 1523 0056 13       		.uleb128 0x13
 1524 0057 38       		.uleb128 0x38
 1525 0058 0B       		.uleb128 0xb
 1526 0059 00       		.byte	0
 1527 005a 00       		.byte	0
 1528 005b 08       		.uleb128 0x8
 1529 005c 0D       		.uleb128 0xd
 1530 005d 00       		.byte	0
 1531 005e 03       		.uleb128 0x3
 1532 005f 08       		.uleb128 0x8
 1533 0060 3A       		.uleb128 0x3a
 1534 0061 0B       		.uleb128 0xb
 1535 0062 3B       		.uleb128 0x3b
 1536 0063 05       		.uleb128 0x5
 1537 0064 49       		.uleb128 0x49
 1538 0065 13       		.uleb128 0x13
 1539 0066 38       		.uleb128 0x38
ARM GAS  /tmp/ccFL67SE.s 			page 28


 1540 0067 0B       		.uleb128 0xb
 1541 0068 00       		.byte	0
 1542 0069 00       		.byte	0
 1543 006a 09       		.uleb128 0x9
 1544 006b 0D       		.uleb128 0xd
 1545 006c 00       		.byte	0
 1546 006d 03       		.uleb128 0x3
 1547 006e 0E       		.uleb128 0xe
 1548 006f 3A       		.uleb128 0x3a
 1549 0070 0B       		.uleb128 0xb
 1550 0071 3B       		.uleb128 0x3b
 1551 0072 05       		.uleb128 0x5
 1552 0073 49       		.uleb128 0x49
 1553 0074 13       		.uleb128 0x13
 1554 0075 38       		.uleb128 0x38
 1555 0076 0B       		.uleb128 0xb
 1556 0077 00       		.byte	0
 1557 0078 00       		.byte	0
 1558 0079 0A       		.uleb128 0xa
 1559 007a 13       		.uleb128 0x13
 1560 007b 01       		.byte	0x1
 1561 007c 03       		.uleb128 0x3
 1562 007d 0E       		.uleb128 0xe
 1563 007e 0B       		.uleb128 0xb
 1564 007f 0B       		.uleb128 0xb
 1565 0080 3A       		.uleb128 0x3a
 1566 0081 0B       		.uleb128 0xb
 1567 0082 3B       		.uleb128 0x3b
 1568 0083 05       		.uleb128 0x5
 1569 0084 01       		.uleb128 0x1
 1570 0085 13       		.uleb128 0x13
 1571 0086 00       		.byte	0
 1572 0087 00       		.byte	0
 1573 0088 0B       		.uleb128 0xb
 1574 0089 0F       		.uleb128 0xf
 1575 008a 00       		.byte	0
 1576 008b 0B       		.uleb128 0xb
 1577 008c 0B       		.uleb128 0xb
 1578 008d 49       		.uleb128 0x49
 1579 008e 13       		.uleb128 0x13
 1580 008f 00       		.byte	0
 1581 0090 00       		.byte	0
 1582 0091 0C       		.uleb128 0xc
 1583 0092 15       		.uleb128 0x15
 1584 0093 01       		.byte	0x1
 1585 0094 27       		.uleb128 0x27
 1586 0095 19       		.uleb128 0x19
 1587 0096 01       		.uleb128 0x1
 1588 0097 13       		.uleb128 0x13
 1589 0098 00       		.byte	0
 1590 0099 00       		.byte	0
 1591 009a 0D       		.uleb128 0xd
 1592 009b 05       		.uleb128 0x5
 1593 009c 00       		.byte	0
 1594 009d 49       		.uleb128 0x49
 1595 009e 13       		.uleb128 0x13
 1596 009f 00       		.byte	0
ARM GAS  /tmp/ccFL67SE.s 			page 29


 1597 00a0 00       		.byte	0
 1598 00a1 0E       		.uleb128 0xe
 1599 00a2 0F       		.uleb128 0xf
 1600 00a3 00       		.byte	0
 1601 00a4 0B       		.uleb128 0xb
 1602 00a5 0B       		.uleb128 0xb
 1603 00a6 00       		.byte	0
 1604 00a7 00       		.byte	0
 1605 00a8 0F       		.uleb128 0xf
 1606 00a9 13       		.uleb128 0x13
 1607 00aa 01       		.byte	0x1
 1608 00ab 03       		.uleb128 0x3
 1609 00ac 0E       		.uleb128 0xe
 1610 00ad 0B       		.uleb128 0xb
 1611 00ae 05       		.uleb128 0x5
 1612 00af 3A       		.uleb128 0x3a
 1613 00b0 0B       		.uleb128 0xb
 1614 00b1 3B       		.uleb128 0x3b
 1615 00b2 05       		.uleb128 0x5
 1616 00b3 01       		.uleb128 0x1
 1617 00b4 13       		.uleb128 0x13
 1618 00b5 00       		.byte	0
 1619 00b6 00       		.byte	0
 1620 00b7 10       		.uleb128 0x10
 1621 00b8 01       		.uleb128 0x1
 1622 00b9 01       		.byte	0x1
 1623 00ba 49       		.uleb128 0x49
 1624 00bb 13       		.uleb128 0x13
 1625 00bc 01       		.uleb128 0x1
 1626 00bd 13       		.uleb128 0x13
 1627 00be 00       		.byte	0
 1628 00bf 00       		.byte	0
 1629 00c0 11       		.uleb128 0x11
 1630 00c1 21       		.uleb128 0x21
 1631 00c2 00       		.byte	0
 1632 00c3 49       		.uleb128 0x49
 1633 00c4 13       		.uleb128 0x13
 1634 00c5 2F       		.uleb128 0x2f
 1635 00c6 0B       		.uleb128 0xb
 1636 00c7 00       		.byte	0
 1637 00c8 00       		.byte	0
 1638 00c9 12       		.uleb128 0x12
 1639 00ca 0D       		.uleb128 0xd
 1640 00cb 00       		.byte	0
 1641 00cc 03       		.uleb128 0x3
 1642 00cd 08       		.uleb128 0x8
 1643 00ce 3A       		.uleb128 0x3a
 1644 00cf 0B       		.uleb128 0xb
 1645 00d0 3B       		.uleb128 0x3b
 1646 00d1 0B       		.uleb128 0xb
 1647 00d2 49       		.uleb128 0x49
 1648 00d3 13       		.uleb128 0x13
 1649 00d4 38       		.uleb128 0x38
 1650 00d5 0B       		.uleb128 0xb
 1651 00d6 00       		.byte	0
 1652 00d7 00       		.byte	0
 1653 00d8 13       		.uleb128 0x13
ARM GAS  /tmp/ccFL67SE.s 			page 30


 1654 00d9 13       		.uleb128 0x13
 1655 00da 01       		.byte	0x1
 1656 00db 0B       		.uleb128 0xb
 1657 00dc 0B       		.uleb128 0xb
 1658 00dd 3A       		.uleb128 0x3a
 1659 00de 0B       		.uleb128 0xb
 1660 00df 3B       		.uleb128 0x3b
 1661 00e0 05       		.uleb128 0x5
 1662 00e1 01       		.uleb128 0x1
 1663 00e2 13       		.uleb128 0x13
 1664 00e3 00       		.byte	0
 1665 00e4 00       		.byte	0
 1666 00e5 14       		.uleb128 0x14
 1667 00e6 16       		.uleb128 0x16
 1668 00e7 00       		.byte	0
 1669 00e8 03       		.uleb128 0x3
 1670 00e9 0E       		.uleb128 0xe
 1671 00ea 3A       		.uleb128 0x3a
 1672 00eb 0B       		.uleb128 0xb
 1673 00ec 3B       		.uleb128 0x3b
 1674 00ed 05       		.uleb128 0x5
 1675 00ee 49       		.uleb128 0x49
 1676 00ef 13       		.uleb128 0x13
 1677 00f0 00       		.byte	0
 1678 00f1 00       		.byte	0
 1679 00f2 15       		.uleb128 0x15
 1680 00f3 13       		.uleb128 0x13
 1681 00f4 01       		.byte	0x1
 1682 00f5 0B       		.uleb128 0xb
 1683 00f6 0B       		.uleb128 0xb
 1684 00f7 3A       		.uleb128 0x3a
 1685 00f8 0B       		.uleb128 0xb
 1686 00f9 3B       		.uleb128 0x3b
 1687 00fa 0B       		.uleb128 0xb
 1688 00fb 01       		.uleb128 0x1
 1689 00fc 13       		.uleb128 0x13
 1690 00fd 00       		.byte	0
 1691 00fe 00       		.byte	0
 1692 00ff 16       		.uleb128 0x16
 1693 0100 17       		.uleb128 0x17
 1694 0101 01       		.byte	0x1
 1695 0102 0B       		.uleb128 0xb
 1696 0103 0B       		.uleb128 0xb
 1697 0104 3A       		.uleb128 0x3a
 1698 0105 0B       		.uleb128 0xb
 1699 0106 3B       		.uleb128 0x3b
 1700 0107 0B       		.uleb128 0xb
 1701 0108 01       		.uleb128 0x1
 1702 0109 13       		.uleb128 0x13
 1703 010a 00       		.byte	0
 1704 010b 00       		.byte	0
 1705 010c 17       		.uleb128 0x17
 1706 010d 0D       		.uleb128 0xd
 1707 010e 00       		.byte	0
 1708 010f 03       		.uleb128 0x3
 1709 0110 0E       		.uleb128 0xe
 1710 0111 3A       		.uleb128 0x3a
ARM GAS  /tmp/ccFL67SE.s 			page 31


 1711 0112 0B       		.uleb128 0xb
 1712 0113 3B       		.uleb128 0x3b
 1713 0114 0B       		.uleb128 0xb
 1714 0115 49       		.uleb128 0x49
 1715 0116 13       		.uleb128 0x13
 1716 0117 00       		.byte	0
 1717 0118 00       		.byte	0
 1718 0119 18       		.uleb128 0x18
 1719 011a 0D       		.uleb128 0xd
 1720 011b 00       		.byte	0
 1721 011c 03       		.uleb128 0x3
 1722 011d 0E       		.uleb128 0xe
 1723 011e 3A       		.uleb128 0x3a
 1724 011f 0B       		.uleb128 0xb
 1725 0120 3B       		.uleb128 0x3b
 1726 0121 05       		.uleb128 0x5
 1727 0122 49       		.uleb128 0x49
 1728 0123 13       		.uleb128 0x13
 1729 0124 00       		.byte	0
 1730 0125 00       		.byte	0
 1731 0126 19       		.uleb128 0x19
 1732 0127 26       		.uleb128 0x26
 1733 0128 00       		.byte	0
 1734 0129 49       		.uleb128 0x49
 1735 012a 13       		.uleb128 0x13
 1736 012b 00       		.byte	0
 1737 012c 00       		.byte	0
 1738 012d 1A       		.uleb128 0x1a
 1739 012e 2E       		.uleb128 0x2e
 1740 012f 00       		.byte	0
 1741 0130 03       		.uleb128 0x3
 1742 0131 0E       		.uleb128 0xe
 1743 0132 3A       		.uleb128 0x3a
 1744 0133 0B       		.uleb128 0xb
 1745 0134 3B       		.uleb128 0x3b
 1746 0135 0B       		.uleb128 0xb
 1747 0136 27       		.uleb128 0x27
 1748 0137 19       		.uleb128 0x19
 1749 0138 49       		.uleb128 0x49
 1750 0139 13       		.uleb128 0x13
 1751 013a 20       		.uleb128 0x20
 1752 013b 0B       		.uleb128 0xb
 1753 013c 00       		.byte	0
 1754 013d 00       		.byte	0
 1755 013e 1B       		.uleb128 0x1b
 1756 013f 2E       		.uleb128 0x2e
 1757 0140 01       		.byte	0x1
 1758 0141 03       		.uleb128 0x3
 1759 0142 0E       		.uleb128 0xe
 1760 0143 3A       		.uleb128 0x3a
 1761 0144 0B       		.uleb128 0xb
 1762 0145 3B       		.uleb128 0x3b
 1763 0146 0B       		.uleb128 0xb
 1764 0147 27       		.uleb128 0x27
 1765 0148 19       		.uleb128 0x19
 1766 0149 20       		.uleb128 0x20
 1767 014a 0B       		.uleb128 0xb
ARM GAS  /tmp/ccFL67SE.s 			page 32


 1768 014b 01       		.uleb128 0x1
 1769 014c 13       		.uleb128 0x13
 1770 014d 00       		.byte	0
 1771 014e 00       		.byte	0
 1772 014f 1C       		.uleb128 0x1c
 1773 0150 05       		.uleb128 0x5
 1774 0151 00       		.byte	0
 1775 0152 03       		.uleb128 0x3
 1776 0153 0E       		.uleb128 0xe
 1777 0154 3A       		.uleb128 0x3a
 1778 0155 0B       		.uleb128 0xb
 1779 0156 3B       		.uleb128 0x3b
 1780 0157 0B       		.uleb128 0xb
 1781 0158 49       		.uleb128 0x49
 1782 0159 13       		.uleb128 0x13
 1783 015a 00       		.byte	0
 1784 015b 00       		.byte	0
 1785 015c 1D       		.uleb128 0x1d
 1786 015d 2E       		.uleb128 0x2e
 1787 015e 00       		.byte	0
 1788 015f 03       		.uleb128 0x3
 1789 0160 0E       		.uleb128 0xe
 1790 0161 3A       		.uleb128 0x3a
 1791 0162 0B       		.uleb128 0xb
 1792 0163 3B       		.uleb128 0x3b
 1793 0164 0B       		.uleb128 0xb
 1794 0165 27       		.uleb128 0x27
 1795 0166 19       		.uleb128 0x19
 1796 0167 20       		.uleb128 0x20
 1797 0168 0B       		.uleb128 0xb
 1798 0169 00       		.byte	0
 1799 016a 00       		.byte	0
 1800 016b 1E       		.uleb128 0x1e
 1801 016c 2E       		.uleb128 0x2e
 1802 016d 00       		.byte	0
 1803 016e 3F       		.uleb128 0x3f
 1804 016f 19       		.uleb128 0x19
 1805 0170 03       		.uleb128 0x3
 1806 0171 0E       		.uleb128 0xe
 1807 0172 3A       		.uleb128 0x3a
 1808 0173 0B       		.uleb128 0xb
 1809 0174 3B       		.uleb128 0x3b
 1810 0175 0B       		.uleb128 0xb
 1811 0176 27       		.uleb128 0x27
 1812 0177 19       		.uleb128 0x19
 1813 0178 11       		.uleb128 0x11
 1814 0179 01       		.uleb128 0x1
 1815 017a 12       		.uleb128 0x12
 1816 017b 06       		.uleb128 0x6
 1817 017c 40       		.uleb128 0x40
 1818 017d 18       		.uleb128 0x18
 1819 017e 9742     		.uleb128 0x2117
 1820 0180 19       		.uleb128 0x19
 1821 0181 00       		.byte	0
 1822 0182 00       		.byte	0
 1823 0183 1F       		.uleb128 0x1f
 1824 0184 2E       		.uleb128 0x2e
ARM GAS  /tmp/ccFL67SE.s 			page 33


 1825 0185 01       		.byte	0x1
 1826 0186 3F       		.uleb128 0x3f
 1827 0187 19       		.uleb128 0x19
 1828 0188 03       		.uleb128 0x3
 1829 0189 0E       		.uleb128 0xe
 1830 018a 3A       		.uleb128 0x3a
 1831 018b 0B       		.uleb128 0xb
 1832 018c 3B       		.uleb128 0x3b
 1833 018d 0B       		.uleb128 0xb
 1834 018e 27       		.uleb128 0x27
 1835 018f 19       		.uleb128 0x19
 1836 0190 11       		.uleb128 0x11
 1837 0191 01       		.uleb128 0x1
 1838 0192 12       		.uleb128 0x12
 1839 0193 06       		.uleb128 0x6
 1840 0194 40       		.uleb128 0x40
 1841 0195 18       		.uleb128 0x18
 1842 0196 9742     		.uleb128 0x2117
 1843 0198 19       		.uleb128 0x19
 1844 0199 01       		.uleb128 0x1
 1845 019a 13       		.uleb128 0x13
 1846 019b 00       		.byte	0
 1847 019c 00       		.byte	0
 1848 019d 20       		.uleb128 0x20
 1849 019e 05       		.uleb128 0x5
 1850 019f 00       		.byte	0
 1851 01a0 03       		.uleb128 0x3
 1852 01a1 08       		.uleb128 0x8
 1853 01a2 3A       		.uleb128 0x3a
 1854 01a3 0B       		.uleb128 0xb
 1855 01a4 3B       		.uleb128 0x3b
 1856 01a5 0B       		.uleb128 0xb
 1857 01a6 49       		.uleb128 0x49
 1858 01a7 13       		.uleb128 0x13
 1859 01a8 02       		.uleb128 0x2
 1860 01a9 17       		.uleb128 0x17
 1861 01aa 00       		.byte	0
 1862 01ab 00       		.byte	0
 1863 01ac 21       		.uleb128 0x21
 1864 01ad 05       		.uleb128 0x5
 1865 01ae 00       		.byte	0
 1866 01af 03       		.uleb128 0x3
 1867 01b0 0E       		.uleb128 0xe
 1868 01b1 3A       		.uleb128 0x3a
 1869 01b2 0B       		.uleb128 0xb
 1870 01b3 3B       		.uleb128 0x3b
 1871 01b4 0B       		.uleb128 0xb
 1872 01b5 49       		.uleb128 0x49
 1873 01b6 13       		.uleb128 0x13
 1874 01b7 02       		.uleb128 0x2
 1875 01b8 17       		.uleb128 0x17
 1876 01b9 00       		.byte	0
 1877 01ba 00       		.byte	0
 1878 01bb 22       		.uleb128 0x22
 1879 01bc 34       		.uleb128 0x34
 1880 01bd 00       		.byte	0
 1881 01be 03       		.uleb128 0x3
ARM GAS  /tmp/ccFL67SE.s 			page 34


 1882 01bf 08       		.uleb128 0x8
 1883 01c0 3A       		.uleb128 0x3a
 1884 01c1 0B       		.uleb128 0xb
 1885 01c2 3B       		.uleb128 0x3b
 1886 01c3 0B       		.uleb128 0xb
 1887 01c4 49       		.uleb128 0x49
 1888 01c5 13       		.uleb128 0x13
 1889 01c6 02       		.uleb128 0x2
 1890 01c7 17       		.uleb128 0x17
 1891 01c8 00       		.byte	0
 1892 01c9 00       		.byte	0
 1893 01ca 23       		.uleb128 0x23
 1894 01cb 34       		.uleb128 0x34
 1895 01cc 00       		.byte	0
 1896 01cd 03       		.uleb128 0x3
 1897 01ce 0E       		.uleb128 0xe
 1898 01cf 49       		.uleb128 0x49
 1899 01d0 13       		.uleb128 0x13
 1900 01d1 34       		.uleb128 0x34
 1901 01d2 19       		.uleb128 0x19
 1902 01d3 00       		.byte	0
 1903 01d4 00       		.byte	0
 1904 01d5 24       		.uleb128 0x24
 1905 01d6 0B       		.uleb128 0xb
 1906 01d7 01       		.byte	0x1
 1907 01d8 55       		.uleb128 0x55
 1908 01d9 17       		.uleb128 0x17
 1909 01da 00       		.byte	0
 1910 01db 00       		.byte	0
 1911 01dc 25       		.uleb128 0x25
 1912 01dd 34       		.uleb128 0x34
 1913 01de 00       		.byte	0
 1914 01df 03       		.uleb128 0x3
 1915 01e0 08       		.uleb128 0x8
 1916 01e1 3A       		.uleb128 0x3a
 1917 01e2 0B       		.uleb128 0xb
 1918 01e3 3B       		.uleb128 0x3b
 1919 01e4 0B       		.uleb128 0xb
 1920 01e5 49       		.uleb128 0x49
 1921 01e6 13       		.uleb128 0x13
 1922 01e7 00       		.byte	0
 1923 01e8 00       		.byte	0
 1924 01e9 26       		.uleb128 0x26
 1925 01ea 1D       		.uleb128 0x1d
 1926 01eb 01       		.byte	0x1
 1927 01ec 31       		.uleb128 0x31
 1928 01ed 13       		.uleb128 0x13
 1929 01ee 52       		.uleb128 0x52
 1930 01ef 01       		.uleb128 0x1
 1931 01f0 55       		.uleb128 0x55
 1932 01f1 17       		.uleb128 0x17
 1933 01f2 58       		.uleb128 0x58
 1934 01f3 0B       		.uleb128 0xb
 1935 01f4 59       		.uleb128 0x59
 1936 01f5 0B       		.uleb128 0xb
 1937 01f6 01       		.uleb128 0x1
 1938 01f7 13       		.uleb128 0x13
ARM GAS  /tmp/ccFL67SE.s 			page 35


 1939 01f8 00       		.byte	0
 1940 01f9 00       		.byte	0
 1941 01fa 27       		.uleb128 0x27
 1942 01fb 1D       		.uleb128 0x1d
 1943 01fc 00       		.byte	0
 1944 01fd 31       		.uleb128 0x31
 1945 01fe 13       		.uleb128 0x13
 1946 01ff 52       		.uleb128 0x52
 1947 0200 01       		.uleb128 0x1
 1948 0201 55       		.uleb128 0x55
 1949 0202 17       		.uleb128 0x17
 1950 0203 58       		.uleb128 0x58
 1951 0204 0B       		.uleb128 0xb
 1952 0205 59       		.uleb128 0x59
 1953 0206 0B       		.uleb128 0xb
 1954 0207 00       		.byte	0
 1955 0208 00       		.byte	0
 1956 0209 28       		.uleb128 0x28
 1957 020a 1D       		.uleb128 0x1d
 1958 020b 01       		.byte	0x1
 1959 020c 31       		.uleb128 0x31
 1960 020d 13       		.uleb128 0x13
 1961 020e 11       		.uleb128 0x11
 1962 020f 01       		.uleb128 0x1
 1963 0210 12       		.uleb128 0x12
 1964 0211 06       		.uleb128 0x6
 1965 0212 58       		.uleb128 0x58
 1966 0213 0B       		.uleb128 0xb
 1967 0214 59       		.uleb128 0x59
 1968 0215 0B       		.uleb128 0xb
 1969 0216 01       		.uleb128 0x1
 1970 0217 13       		.uleb128 0x13
 1971 0218 00       		.byte	0
 1972 0219 00       		.byte	0
 1973 021a 29       		.uleb128 0x29
 1974 021b 05       		.uleb128 0x5
 1975 021c 00       		.byte	0
 1976 021d 31       		.uleb128 0x31
 1977 021e 13       		.uleb128 0x13
 1978 021f 02       		.uleb128 0x2
 1979 0220 17       		.uleb128 0x17
 1980 0221 00       		.byte	0
 1981 0222 00       		.byte	0
 1982 0223 2A       		.uleb128 0x2a
 1983 0224 898201   		.uleb128 0x4109
 1984 0227 00       		.byte	0
 1985 0228 11       		.uleb128 0x11
 1986 0229 01       		.uleb128 0x1
 1987 022a 31       		.uleb128 0x31
 1988 022b 13       		.uleb128 0x13
 1989 022c 00       		.byte	0
 1990 022d 00       		.byte	0
 1991 022e 2B       		.uleb128 0x2b
 1992 022f 1D       		.uleb128 0x1d
 1993 0230 01       		.byte	0x1
 1994 0231 31       		.uleb128 0x31
 1995 0232 13       		.uleb128 0x13
ARM GAS  /tmp/ccFL67SE.s 			page 36


 1996 0233 52       		.uleb128 0x52
 1997 0234 01       		.uleb128 0x1
 1998 0235 55       		.uleb128 0x55
 1999 0236 17       		.uleb128 0x17
 2000 0237 58       		.uleb128 0x58
 2001 0238 0B       		.uleb128 0xb
 2002 0239 59       		.uleb128 0x59
 2003 023a 0B       		.uleb128 0xb
 2004 023b 00       		.byte	0
 2005 023c 00       		.byte	0
 2006 023d 2C       		.uleb128 0x2c
 2007 023e 05       		.uleb128 0x5
 2008 023f 00       		.byte	0
 2009 0240 31       		.uleb128 0x31
 2010 0241 13       		.uleb128 0x13
 2011 0242 00       		.byte	0
 2012 0243 00       		.byte	0
 2013 0244 2D       		.uleb128 0x2d
 2014 0245 898201   		.uleb128 0x4109
 2015 0248 00       		.byte	0
 2016 0249 11       		.uleb128 0x11
 2017 024a 01       		.uleb128 0x1
 2018 024b 9542     		.uleb128 0x2115
 2019 024d 19       		.uleb128 0x19
 2020 024e 31       		.uleb128 0x31
 2021 024f 13       		.uleb128 0x13
 2022 0250 00       		.byte	0
 2023 0251 00       		.byte	0
 2024 0252 2E       		.uleb128 0x2e
 2025 0253 1D       		.uleb128 0x1d
 2026 0254 01       		.byte	0x1
 2027 0255 31       		.uleb128 0x31
 2028 0256 13       		.uleb128 0x13
 2029 0257 11       		.uleb128 0x11
 2030 0258 01       		.uleb128 0x1
 2031 0259 12       		.uleb128 0x12
 2032 025a 06       		.uleb128 0x6
 2033 025b 58       		.uleb128 0x58
 2034 025c 0B       		.uleb128 0xb
 2035 025d 59       		.uleb128 0x59
 2036 025e 0B       		.uleb128 0xb
 2037 025f 00       		.byte	0
 2038 0260 00       		.byte	0
 2039 0261 2F       		.uleb128 0x2f
 2040 0262 34       		.uleb128 0x34
 2041 0263 00       		.byte	0
 2042 0264 03       		.uleb128 0x3
 2043 0265 0E       		.uleb128 0xe
 2044 0266 3A       		.uleb128 0x3a
 2045 0267 0B       		.uleb128 0xb
 2046 0268 3B       		.uleb128 0x3b
 2047 0269 05       		.uleb128 0x5
 2048 026a 49       		.uleb128 0x49
 2049 026b 13       		.uleb128 0x13
 2050 026c 3F       		.uleb128 0x3f
 2051 026d 19       		.uleb128 0x19
 2052 026e 3C       		.uleb128 0x3c
ARM GAS  /tmp/ccFL67SE.s 			page 37


 2053 026f 19       		.uleb128 0x19
 2054 0270 00       		.byte	0
 2055 0271 00       		.byte	0
 2056 0272 30       		.uleb128 0x30
 2057 0273 34       		.uleb128 0x34
 2058 0274 00       		.byte	0
 2059 0275 03       		.uleb128 0x3
 2060 0276 08       		.uleb128 0x8
 2061 0277 3A       		.uleb128 0x3a
 2062 0278 0B       		.uleb128 0xb
 2063 0279 3B       		.uleb128 0x3b
 2064 027a 05       		.uleb128 0x5
 2065 027b 49       		.uleb128 0x49
 2066 027c 13       		.uleb128 0x13
 2067 027d 3F       		.uleb128 0x3f
 2068 027e 19       		.uleb128 0x19
 2069 027f 3C       		.uleb128 0x3c
 2070 0280 19       		.uleb128 0x19
 2071 0281 00       		.byte	0
 2072 0282 00       		.byte	0
 2073 0283 31       		.uleb128 0x31
 2074 0284 2E       		.uleb128 0x2e
 2075 0285 01       		.byte	0x1
 2076 0286 3F       		.uleb128 0x3f
 2077 0287 19       		.uleb128 0x19
 2078 0288 03       		.uleb128 0x3
 2079 0289 0E       		.uleb128 0xe
 2080 028a 3A       		.uleb128 0x3a
 2081 028b 0B       		.uleb128 0xb
 2082 028c 3B       		.uleb128 0x3b
 2083 028d 0B       		.uleb128 0xb
 2084 028e 27       		.uleb128 0x27
 2085 028f 19       		.uleb128 0x19
 2086 0290 3C       		.uleb128 0x3c
 2087 0291 19       		.uleb128 0x19
 2088 0292 01       		.uleb128 0x1
 2089 0293 13       		.uleb128 0x13
 2090 0294 00       		.byte	0
 2091 0295 00       		.byte	0
 2092 0296 32       		.uleb128 0x32
 2093 0297 2E       		.uleb128 0x2e
 2094 0298 00       		.byte	0
 2095 0299 3F       		.uleb128 0x3f
 2096 029a 19       		.uleb128 0x19
 2097 029b 03       		.uleb128 0x3
 2098 029c 0E       		.uleb128 0xe
 2099 029d 3A       		.uleb128 0x3a
 2100 029e 0B       		.uleb128 0xb
 2101 029f 3B       		.uleb128 0x3b
 2102 02a0 0B       		.uleb128 0xb
 2103 02a1 27       		.uleb128 0x27
 2104 02a2 19       		.uleb128 0x19
 2105 02a3 3C       		.uleb128 0x3c
 2106 02a4 19       		.uleb128 0x19
 2107 02a5 00       		.byte	0
 2108 02a6 00       		.byte	0
 2109 02a7 00       		.byte	0
ARM GAS  /tmp/ccFL67SE.s 			page 38


 2110              		.section	.debug_loc,"",%progbits
 2111              	.Ldebug_loc0:
 2112              	.LLST0:
 2113 0000 00000000 		.4byte	.LVL0
 2114 0004 24000000 		.4byte	.LVL4
 2115 0008 0100     		.2byte	0x1
 2116 000a 50       		.byte	0x50
 2117 000b 24000000 		.4byte	.LVL4
 2118 000f 5E000000 		.4byte	.LVL14
 2119 0013 0100     		.2byte	0x1
 2120 0015 56       		.byte	0x56
 2121 0016 5E000000 		.4byte	.LVL14
 2122 001a 60000000 		.4byte	.LVL15
 2123 001e 0100     		.2byte	0x1
 2124 0020 50       		.byte	0x50
 2125 0021 60000000 		.4byte	.LVL15
 2126 0025 70000000 		.4byte	.LFE227
 2127 0029 0100     		.2byte	0x1
 2128 002b 56       		.byte	0x56
 2129 002c 00000000 		.4byte	0
 2130 0030 00000000 		.4byte	0
 2131              	.LLST1:
 2132 0034 00000000 		.4byte	.LVL0
 2133 0038 20000000 		.4byte	.LVL3
 2134 003c 0100     		.2byte	0x1
 2135 003e 51       		.byte	0x51
 2136 003f 20000000 		.4byte	.LVL3
 2137 0043 4E000000 		.4byte	.LVL9
 2138 0047 0100     		.2byte	0x1
 2139 0049 55       		.byte	0x55
 2140 004a 4E000000 		.4byte	.LVL9
 2141 004e 50000000 		.4byte	.LVL10
 2142 0052 0500     		.2byte	0x5
 2143 0054 74       		.byte	0x74
 2144 0055 04       		.sleb128 4
 2145 0056 06       		.byte	0x6
 2146 0057 23       		.byte	0x23
 2147 0058 08       		.uleb128 0x8
 2148 0059 54000000 		.4byte	.LVL11
 2149 005d 70000000 		.4byte	.LFE227
 2150 0061 0100     		.2byte	0x1
 2151 0063 55       		.byte	0x55
 2152 0064 00000000 		.4byte	0
 2153 0068 00000000 		.4byte	0
 2154              	.LLST2:
 2155 006c 00000000 		.4byte	.LVL0
 2156 0070 20000000 		.4byte	.LVL3
 2157 0074 0100     		.2byte	0x1
 2158 0076 52       		.byte	0x52
 2159 0077 20000000 		.4byte	.LVL3
 2160 007b 24000000 		.4byte	.LVL4
 2161 007f 0200     		.2byte	0x2
 2162 0081 70       		.byte	0x70
 2163 0082 0C       		.sleb128 12
 2164 0083 24000000 		.4byte	.LVL4
 2165 0087 30000000 		.4byte	.LVL6
 2166 008b 0200     		.2byte	0x2
ARM GAS  /tmp/ccFL67SE.s 			page 39


 2167 008d 76       		.byte	0x76
 2168 008e 0C       		.sleb128 12
 2169 008f 30000000 		.4byte	.LVL6
 2170 0093 54000000 		.4byte	.LVL11
 2171 0097 0400     		.2byte	0x4
 2172 0099 F3       		.byte	0xf3
 2173 009a 01       		.uleb128 0x1
 2174 009b 52       		.byte	0x52
 2175 009c 9F       		.byte	0x9f
 2176 009d 54000000 		.4byte	.LVL11
 2177 00a1 59000000 		.4byte	.LVL13-1
 2178 00a5 0200     		.2byte	0x2
 2179 00a7 76       		.byte	0x76
 2180 00a8 0C       		.sleb128 12
 2181 00a9 59000000 		.4byte	.LVL13-1
 2182 00ad 5E000000 		.4byte	.LVL14
 2183 00b1 0400     		.2byte	0x4
 2184 00b3 F3       		.byte	0xf3
 2185 00b4 01       		.uleb128 0x1
 2186 00b5 52       		.byte	0x52
 2187 00b6 9F       		.byte	0x9f
 2188 00b7 5E000000 		.4byte	.LVL14
 2189 00bb 60000000 		.4byte	.LVL15
 2190 00bf 0200     		.2byte	0x2
 2191 00c1 70       		.byte	0x70
 2192 00c2 0C       		.sleb128 12
 2193 00c3 60000000 		.4byte	.LVL15
 2194 00c7 65000000 		.4byte	.LVL17-1
 2195 00cb 0200     		.2byte	0x2
 2196 00cd 76       		.byte	0x76
 2197 00ce 0C       		.sleb128 12
 2198 00cf 65000000 		.4byte	.LVL17-1
 2199 00d3 70000000 		.4byte	.LFE227
 2200 00d7 0400     		.2byte	0x4
 2201 00d9 F3       		.byte	0xf3
 2202 00da 01       		.uleb128 0x1
 2203 00db 52       		.byte	0x52
 2204 00dc 9F       		.byte	0x9f
 2205 00dd 00000000 		.4byte	0
 2206 00e1 00000000 		.4byte	0
 2207              	.LLST3:
 2208 00e5 00000000 		.4byte	.LVL0
 2209 00e9 18000000 		.4byte	.LVL2
 2210 00ed 0100     		.2byte	0x1
 2211 00ef 53       		.byte	0x53
 2212 00f0 18000000 		.4byte	.LVL2
 2213 00f4 24000000 		.4byte	.LVL4
 2214 00f8 0200     		.2byte	0x2
 2215 00fa 70       		.byte	0x70
 2216 00fb 10       		.sleb128 16
 2217 00fc 24000000 		.4byte	.LVL4
 2218 0100 30000000 		.4byte	.LVL6
 2219 0104 0200     		.2byte	0x2
 2220 0106 76       		.byte	0x76
 2221 0107 10       		.sleb128 16
 2222 0108 30000000 		.4byte	.LVL6
 2223 010c 54000000 		.4byte	.LVL11
ARM GAS  /tmp/ccFL67SE.s 			page 40


 2224 0110 0400     		.2byte	0x4
 2225 0112 F3       		.byte	0xf3
 2226 0113 01       		.uleb128 0x1
 2227 0114 53       		.byte	0x53
 2228 0115 9F       		.byte	0x9f
 2229 0116 54000000 		.4byte	.LVL11
 2230 011a 59000000 		.4byte	.LVL13-1
 2231 011e 0200     		.2byte	0x2
 2232 0120 76       		.byte	0x76
 2233 0121 10       		.sleb128 16
 2234 0122 59000000 		.4byte	.LVL13-1
 2235 0126 5E000000 		.4byte	.LVL14
 2236 012a 0400     		.2byte	0x4
 2237 012c F3       		.byte	0xf3
 2238 012d 01       		.uleb128 0x1
 2239 012e 53       		.byte	0x53
 2240 012f 9F       		.byte	0x9f
 2241 0130 5E000000 		.4byte	.LVL14
 2242 0134 60000000 		.4byte	.LVL15
 2243 0138 0200     		.2byte	0x2
 2244 013a 70       		.byte	0x70
 2245 013b 10       		.sleb128 16
 2246 013c 60000000 		.4byte	.LVL15
 2247 0140 65000000 		.4byte	.LVL17-1
 2248 0144 0200     		.2byte	0x2
 2249 0146 76       		.byte	0x76
 2250 0147 10       		.sleb128 16
 2251 0148 65000000 		.4byte	.LVL17-1
 2252 014c 70000000 		.4byte	.LFE227
 2253 0150 0400     		.2byte	0x4
 2254 0152 F3       		.byte	0xf3
 2255 0153 01       		.uleb128 0x1
 2256 0154 53       		.byte	0x53
 2257 0155 9F       		.byte	0x9f
 2258 0156 00000000 		.4byte	0
 2259 015a 00000000 		.4byte	0
 2260              	.LLST4:
 2261 015e 12000000 		.4byte	.LVL1
 2262 0162 32000000 		.4byte	.LVL7
 2263 0166 0100     		.2byte	0x1
 2264 0168 54       		.byte	0x54
 2265 0169 34000000 		.4byte	.LVL8
 2266 016d 70000000 		.4byte	.LFE227
 2267 0171 0100     		.2byte	0x1
 2268 0173 54       		.byte	0x54
 2269 0174 00000000 		.4byte	0
 2270 0178 00000000 		.4byte	0
 2271              	.LLST5:
 2272 017c 54000000 		.4byte	.LVL11
 2273 0180 56000000 		.4byte	.LVL12
 2274 0184 0600     		.2byte	0x6
 2275 0186 75       		.byte	0x75
 2276 0187 00       		.sleb128 0
 2277 0188 70       		.byte	0x70
 2278 0189 00       		.sleb128 0
 2279 018a 22       		.byte	0x22
 2280 018b 9F       		.byte	0x9f
ARM GAS  /tmp/ccFL67SE.s 			page 41


 2281 018c 56000000 		.4byte	.LVL12
 2282 0190 59000000 		.4byte	.LVL13-1
 2283 0194 0100     		.2byte	0x1
 2284 0196 50       		.byte	0x50
 2285 0197 00000000 		.4byte	0
 2286 019b 00000000 		.4byte	0
 2287              	.LLST6:
 2288 019f 62000000 		.4byte	.LVL16
 2289 01a3 65000000 		.4byte	.LVL17-1
 2290 01a7 0600     		.2byte	0x6
 2291 01a9 75       		.byte	0x75
 2292 01aa 00       		.sleb128 0
 2293 01ab 72       		.byte	0x72
 2294 01ac 00       		.sleb128 0
 2295 01ad 22       		.byte	0x22
 2296 01ae 9F       		.byte	0x9f
 2297 01af 00000000 		.4byte	0
 2298 01b3 00000000 		.4byte	0
 2299              	.LLST7:
 2300 01b7 00000000 		.4byte	.LVL18
 2301 01bb 30000000 		.4byte	.LVL19
 2302 01bf 0100     		.2byte	0x1
 2303 01c1 50       		.byte	0x50
 2304 01c2 30000000 		.4byte	.LVL19
 2305 01c6 44000000 		.4byte	.LVL22
 2306 01ca 0400     		.2byte	0x4
 2307 01cc F3       		.byte	0xf3
 2308 01cd 01       		.uleb128 0x1
 2309 01ce 50       		.byte	0x50
 2310 01cf 9F       		.byte	0x9f
 2311 01d0 44000000 		.4byte	.LVL22
 2312 01d4 49000000 		.4byte	.LVL23-1
 2313 01d8 0100     		.2byte	0x1
 2314 01da 50       		.byte	0x50
 2315 01db 49000000 		.4byte	.LVL23-1
 2316 01df 50000000 		.4byte	.LFE228
 2317 01e3 0400     		.2byte	0x4
 2318 01e5 F3       		.byte	0xf3
 2319 01e6 01       		.uleb128 0x1
 2320 01e7 50       		.byte	0x50
 2321 01e8 9F       		.byte	0x9f
 2322 01e9 00000000 		.4byte	0
 2323 01ed 00000000 		.4byte	0
 2324              		.section	.debug_aranges,"",%progbits
 2325 0000 2C000000 		.4byte	0x2c
 2326 0004 0200     		.2byte	0x2
 2327 0006 00000000 		.4byte	.Ldebug_info0
 2328 000a 04       		.byte	0x4
 2329 000b 00       		.byte	0
 2330 000c 0000     		.2byte	0
 2331 000e 0000     		.2byte	0
 2332 0010 00000000 		.4byte	.LFB226
 2333 0014 1C000000 		.4byte	.LFE226-.LFB226
 2334 0018 00000000 		.4byte	.LFB227
 2335 001c 70000000 		.4byte	.LFE227-.LFB227
 2336 0020 00000000 		.4byte	.LFB228
 2337 0024 50000000 		.4byte	.LFE228-.LFB228
ARM GAS  /tmp/ccFL67SE.s 			page 42


 2338 0028 00000000 		.4byte	0
 2339 002c 00000000 		.4byte	0
 2340              		.section	.debug_ranges,"",%progbits
 2341              	.Ldebug_ranges0:
 2342 0000 06000000 		.4byte	.LBB19
 2343 0004 0E000000 		.4byte	.LBE19
 2344 0008 14000000 		.4byte	.LBB32
 2345 000c 1A000000 		.4byte	.LBE32
 2346 0010 1E000000 		.4byte	.LBB33
 2347 0014 30000000 		.4byte	.LBE33
 2348 0018 54000000 		.4byte	.LBB34
 2349 001c 70000000 		.4byte	.LBE34
 2350 0020 00000000 		.4byte	0
 2351 0024 00000000 		.4byte	0
 2352 0028 14000000 		.4byte	.LBB20
 2353 002c 18000000 		.4byte	.LBE20
 2354 0030 1E000000 		.4byte	.LBB25
 2355 0034 20000000 		.4byte	.LBE25
 2356 0038 00000000 		.4byte	0
 2357 003c 00000000 		.4byte	0
 2358 0040 5E000000 		.4byte	.LBB28
 2359 0044 60000000 		.4byte	.LBE28
 2360 0048 62000000 		.4byte	.LBB31
 2361 004c 70000000 		.4byte	.LBE31
 2362 0050 00000000 		.4byte	0
 2363 0054 00000000 		.4byte	0
 2364 0058 34000000 		.4byte	.LBB35
 2365 005c 36000000 		.4byte	.LBE35
 2366 0060 38000000 		.4byte	.LBB38
 2367 0064 3C000000 		.4byte	.LBE38
 2368 0068 00000000 		.4byte	0
 2369 006c 00000000 		.4byte	0
 2370 0070 3C000000 		.4byte	.LBB39
 2371 0074 3E000000 		.4byte	.LBE39
 2372 0078 40000000 		.4byte	.LBB42
 2373 007c 44000000 		.4byte	.LBE42
 2374 0080 00000000 		.4byte	0
 2375 0084 00000000 		.4byte	0
 2376 0088 00000000 		.4byte	.LFB226
 2377 008c 1C000000 		.4byte	.LFE226
 2378 0090 00000000 		.4byte	.LFB227
 2379 0094 70000000 		.4byte	.LFE227
 2380 0098 00000000 		.4byte	.LFB228
 2381 009c 50000000 		.4byte	.LFE228
 2382 00a0 00000000 		.4byte	0
 2383 00a4 00000000 		.4byte	0
 2384              		.section	.debug_line,"",%progbits
 2385              	.Ldebug_line0:
 2386 0000 5F030000 		.section	.debug_str,"MS",%progbits,1
 2386      02009002 
 2386      00000201 
 2386      FB0E0D00 
 2386      01010101 
 2387              	.LASF48:
 2388 0000 72656164 		.ascii	"ready_list_t\000"
 2388      795F6C69 
 2388      73745F74 
ARM GAS  /tmp/ccFL67SE.s 			page 43


 2388      00
 2389              	.LASF82:
 2390 000d 44494552 		.ascii	"DIER\000"
 2390      00
 2391              	.LASF93:
 2392 0012 7264796D 		.ascii	"rdymsg\000"
 2392      736700
 2393              	.LASF16:
 2394 0019 75696E74 		.ascii	"uint64_t\000"
 2394      36345F74 
 2394      00
 2395              	.LASF23:
 2396 0022 6576656E 		.ascii	"eventmask_t\000"
 2396      746D6173 
 2396      6B5F7400 
 2397              	.LASF5:
 2398 002e 5F5F7569 		.ascii	"__uint8_t\000"
 2398      6E74385F 
 2398      7400
 2399              	.LASF22:
 2400 0038 6D73675F 		.ascii	"msg_t\000"
 2400      7400
 2401              	.LASF80:
 2402 003e 706F7274 		.ascii	"port_intctx\000"
 2402      5F696E74 
 2402      63747800 
 2403              	.LASF67:
 2404 004a 73797374 		.ascii	"system_debug_t\000"
 2404      656D5F64 
 2404      65627567 
 2404      5F7400
 2405              	.LASF84:
 2406 0059 43434D52 		.ascii	"CCMR2\000"
 2406      3200
 2407              	.LASF117:
 2408 005f 2E2E2F43 		.ascii	"../ChibiOS/os/rt/src/chvt.c\000"
 2408      68696269 
 2408      4F532F6F 
 2408      732F7274 
 2408      2F737263 
 2409              	.LASF12:
 2410 007b 6C6F6E67 		.ascii	"long long unsigned int\000"
 2410      206C6F6E 
 2410      6720756E 
 2410      7369676E 
 2410      65642069 
 2411              	.LASF111:
 2412 0092 63685654 		.ascii	"chVTDoResetI\000"
 2412      446F5265 
 2412      73657449 
 2412      00
 2413              	.LASF94:
 2414 009f 65786974 		.ascii	"exitcode\000"
 2414      636F6465 
 2414      00
 2415              	.LASF74:
 2416 00a8 6D61696E 		.ascii	"mainthread\000"
ARM GAS  /tmp/ccFL67SE.s 			page 44


 2416      74687265 
 2416      616400
 2417              	.LASF64:
 2418 00b3 76697274 		.ascii	"virtual_timers_list_t\000"
 2418      75616C5F 
 2418      74696D65 
 2418      72735F6C 
 2418      6973745F 
 2419              	.LASF113:
 2420 00c9 49544D5F 		.ascii	"ITM_RxBuffer\000"
 2420      52784275 
 2420      66666572 
 2420      00
 2421              	.LASF86:
 2422 00d6 42445452 		.ascii	"BDTR\000"
 2422      00
 2423              	.LASF47:
 2424 00db 63685F74 		.ascii	"ch_threads_queue\000"
 2424      68726561 
 2424      64735F71 
 2424      75657565 
 2424      00
 2425              	.LASF28:
 2426 00ec 705F7072 		.ascii	"p_prio\000"
 2426      696F00
 2427              	.LASF83:
 2428 00f3 43434D52 		.ascii	"CCMR1\000"
 2428      3100
 2429              	.LASF120:
 2430 00f9 5F76745F 		.ascii	"_vt_init\000"
 2430      696E6974 
 2430      00
 2431              	.LASF88:
 2432 0102 43434D52 		.ascii	"CCMR3\000"
 2432      3300
 2433              	.LASF1:
 2434 0108 7369676E 		.ascii	"signed char\000"
 2434      65642063 
 2434      68617200 
 2435              	.LASF99:
 2436 0114 6D5F7175 		.ascii	"m_queue\000"
 2436      65756500 
 2437              	.LASF73:
 2438 011c 76746C69 		.ascii	"vtlist\000"
 2438      737400
 2439              	.LASF71:
 2440 0123 63685F73 		.ascii	"ch_system\000"
 2440      79737465 
 2440      6D00
 2441              	.LASF7:
 2442 012d 6C6F6E67 		.ascii	"long int\000"
 2442      20696E74 
 2442      00
 2443              	.LASF19:
 2444 0136 74737461 		.ascii	"tstate_t\000"
 2444      74655F74 
 2444      00
ARM GAS  /tmp/ccFL67SE.s 			page 45


 2445              	.LASF85:
 2446 013f 43434552 		.ascii	"CCER\000"
 2446      00
 2447              	.LASF10:
 2448 0144 6C6F6E67 		.ascii	"long long int\000"
 2448      206C6F6E 
 2448      6720696E 
 2448      7400
 2449              	.LASF118:
 2450 0152 2F6E6673 		.ascii	"/nfs/nfs4/home/ruswang/p442-submissions/p442-submis"
 2450      2F6E6673 
 2450      342F686F 
 2450      6D652F72 
 2450      75737761 
 2451 0185 73696F6E 		.ascii	"sions/lab1\000"
 2451      732F6C61 
 2451      623100
 2452              	.LASF30:
 2453 0190 705F6E65 		.ascii	"p_newer\000"
 2453      77657200 
 2454              	.LASF4:
 2455 0198 73686F72 		.ascii	"short unsigned int\000"
 2455      7420756E 
 2455      7369676E 
 2455      65642069 
 2455      6E7400
 2456              	.LASF53:
 2457 01ab 725F6E65 		.ascii	"r_newer\000"
 2457      77657200 
 2458              	.LASF42:
 2459 01b3 705F6D70 		.ascii	"p_mpool\000"
 2459      6F6F6C00 
 2460              	.LASF77:
 2461 01bb 72656761 		.ascii	"regarm_t\000"
 2461      726D5F74 
 2461      00
 2462              	.LASF60:
 2463 01c4 76745F70 		.ascii	"vt_prev\000"
 2463      72657600 
 2464              	.LASF102:
 2465 01cc 6D757465 		.ascii	"mutex_t\000"
 2465      785F7400 
 2466              	.LASF75:
 2467 01d4 69646C65 		.ascii	"idle_thread_wa\000"
 2467      5F746872 
 2467      6561645F 
 2467      776100
 2468              	.LASF34:
 2469 01e3 705F666C 		.ascii	"p_flags\000"
 2469      61677300 
 2470              	.LASF0:
 2471 01eb 756E7369 		.ascii	"unsigned int\000"
 2471      676E6564 
 2471      20696E74 
 2471      00
 2472              	.LASF59:
 2473 01f8 76745F6E 		.ascii	"vt_next\000"
ARM GAS  /tmp/ccFL67SE.s 			page 46


 2473      65787400 
 2474              	.LASF37:
 2475 0200 705F6D73 		.ascii	"p_msgqueue\000"
 2475      67717565 
 2475      756500
 2476              	.LASF81:
 2477 020b 534D4352 		.ascii	"SMCR\000"
 2477      00
 2478              	.LASF44:
 2479 0210 63685F74 		.ascii	"ch_thread\000"
 2479      68726561 
 2479      6400
 2480              	.LASF105:
 2481 021a 706F7274 		.ascii	"port_timer_start_alarm\000"
 2481      5F74696D 
 2481      65725F73 
 2481      74617274 
 2481      5F616C61 
 2482              	.LASF70:
 2483 0231 63685F73 		.ascii	"ch_system_t\000"
 2483      79737465 
 2483      6D5F7400 
 2484              	.LASF90:
 2485 023d 73746D33 		.ascii	"stm32_tim_t\000"
 2485      325F7469 
 2485      6D5F7400 
 2486              	.LASF49:
 2487 0249 63685F72 		.ascii	"ch_ready_list\000"
 2487      65616479 
 2487      5F6C6973 
 2487      7400
 2488              	.LASF110:
 2489 0257 63685654 		.ascii	"chVTDoSetI\000"
 2489      446F5365 
 2489      744900
 2490              	.LASF6:
 2491 0262 5F5F696E 		.ascii	"__int32_t\000"
 2491      7433325F 
 2491      7400
 2492              	.LASF78:
 2493 026c 73746B61 		.ascii	"stkalign_t\000"
 2493      6C69676E 
 2493      5F7400
 2494              	.LASF36:
 2495 0277 705F7761 		.ascii	"p_waiting\000"
 2495      6974696E 
 2495      6700
 2496              	.LASF76:
 2497 0281 73697A65 		.ascii	"sizetype\000"
 2497      74797065 
 2497      00
 2498              	.LASF65:
 2499 028a 63685F76 		.ascii	"ch_virtual_timers_list\000"
 2499      69727475 
 2499      616C5F74 
 2499      696D6572 
 2499      735F6C69 
ARM GAS  /tmp/ccFL67SE.s 			page 47


 2500              	.LASF66:
 2501 02a1 76745F6C 		.ascii	"vt_lasttime\000"
 2501      61737474 
 2501      696D6500 
 2502              	.LASF31:
 2503 02ad 705F6F6C 		.ascii	"p_older\000"
 2503      64657200 
 2504              	.LASF52:
 2505 02b5 725F6374 		.ascii	"r_ctx\000"
 2505      7800
 2506              	.LASF29:
 2507 02bb 705F6374 		.ascii	"p_ctx\000"
 2507      7800
 2508              	.LASF92:
 2509 02c1 746D5F63 		.ascii	"tm_calibration_t\000"
 2509      616C6962 
 2509      72617469 
 2509      6F6E5F74 
 2509      00
 2510              	.LASF107:
 2511 02d2 74696D65 		.ascii	"time\000"
 2511      00
 2512              	.LASF55:
 2513 02d7 725F6375 		.ascii	"r_current\000"
 2513      7272656E 
 2513      7400
 2514              	.LASF54:
 2515 02e1 725F6F6C 		.ascii	"r_older\000"
 2515      64657200 
 2516              	.LASF11:
 2517 02e9 5F5F7569 		.ascii	"__uint64_t\000"
 2517      6E743634 
 2517      5F7400
 2518              	.LASF20:
 2519 02f4 74726566 		.ascii	"trefs_t\000"
 2519      735F7400 
 2520              	.LASF57:
 2521 02fc 76697274 		.ascii	"virtual_timer_t\000"
 2521      75616C5F 
 2521      74696D65 
 2521      725F7400 
 2522              	.LASF27:
 2523 030c 705F7072 		.ascii	"p_prev\000"
 2523      657600
 2524              	.LASF21:
 2525 0313 74707269 		.ascii	"tprio_t\000"
 2525      6F5F7400 
 2526              	.LASF98:
 2527 031b 6D757465 		.ascii	"mutex\000"
 2527      7800
 2528              	.LASF68:
 2529 0321 63685F73 		.ascii	"ch_system_debug\000"
 2529      79737465 
 2529      6D5F6465 
 2529      62756700 
 2530              	.LASF14:
 2531 0331 696E7433 		.ascii	"int32_t\000"
ARM GAS  /tmp/ccFL67SE.s 			page 48


 2531      325F7400 
 2532              	.LASF2:
 2533 0339 756E7369 		.ascii	"unsigned char\000"
 2533      676E6564 
 2533      20636861 
 2533      7200
 2534              	.LASF108:
 2535 0347 64656C61 		.ascii	"delay\000"
 2535      7900
 2536              	.LASF40:
 2537 034d 705F6D74 		.ascii	"p_mtxlist\000"
 2537      786C6973 
 2537      7400
 2538              	.LASF3:
 2539 0357 73686F72 		.ascii	"short int\000"
 2539      7420696E 
 2539      7400
 2540              	.LASF33:
 2541 0361 705F7374 		.ascii	"p_state\000"
 2541      61746500 
 2542              	.LASF51:
 2543 0369 725F7072 		.ascii	"r_prio\000"
 2543      696F00
 2544              	.LASF96:
 2545 0370 65776D61 		.ascii	"ewmask\000"
 2545      736B00
 2546              	.LASF26:
 2547 0377 705F6E65 		.ascii	"p_next\000"
 2547      787400
 2548              	.LASF13:
 2549 037e 75696E74 		.ascii	"uint8_t\000"
 2549      385F7400 
 2550              	.LASF112:
 2551 0386 5F5F6675 		.ascii	"__func__\000"
 2551      6E635F5F 
 2551      00
 2552              	.LASF58:
 2553 038f 63685F76 		.ascii	"ch_virtual_timer\000"
 2553      69727475 
 2553      616C5F74 
 2553      696D6572 
 2553      00
 2554              	.LASF89:
 2555 03a0 43435852 		.ascii	"CCXR\000"
 2555      00
 2556              	.LASF39:
 2557 03a5 705F6570 		.ascii	"p_epending\000"
 2557      656E6469 
 2557      6E6700
 2558              	.LASF103:
 2559 03b0 73745F6C 		.ascii	"st_lld_get_counter\000"
 2559      6C645F67 
 2559      65745F63 
 2559      6F756E74 
 2559      657200
 2560              	.LASF15:
 2561 03c3 75696E74 		.ascii	"uint32_t\000"
ARM GAS  /tmp/ccFL67SE.s 			page 49


 2561      33325F74 
 2561      00
 2562              	.LASF50:
 2563 03cc 725F7175 		.ascii	"r_queue\000"
 2563      65756500 
 2564              	.LASF61:
 2565 03d4 76745F64 		.ascii	"vt_delta\000"
 2565      656C7461 
 2565      00
 2566              	.LASF45:
 2567 03dd 63685F74 		.ascii	"ch_threads_list\000"
 2567      68726561 
 2567      64735F6C 
 2567      69737400 
 2568              	.LASF9:
 2569 03ed 6C6F6E67 		.ascii	"long unsigned int\000"
 2569      20756E73 
 2569      69676E65 
 2569      6420696E 
 2569      7400
 2570              	.LASF121:
 2571 03ff 73745374 		.ascii	"stStopAlarm\000"
 2571      6F70416C 
 2571      61726D00 
 2572              	.LASF97:
 2573 040b 63686172 		.ascii	"char\000"
 2573      00
 2574              	.LASF87:
 2575 0410 444D4152 		.ascii	"DMAR\000"
 2575      00
 2576              	.LASF25:
 2577 0415 74687265 		.ascii	"thread_t\000"
 2577      61645F74 
 2577      00
 2578              	.LASF116:
 2579 041e 474E5520 		.ascii	"GNU C 4.8.4 20140526 (release) [ARM/embedded-4_8-br"
 2579      4320342E 
 2579      382E3420 
 2579      32303134 
 2579      30353236 
 2580 0451 616E6368 		.ascii	"anch revision 211358] -mcpu=cortex-m4 -mno-thumb-in"
 2580      20726576 
 2580      6973696F 
 2580      6E203231 
 2580      31333538 
 2581 0484 74657277 		.ascii	"terwork -mthumb -ggdb -O2 -fomit-frame-pointer -fal"
 2581      6F726B20 
 2581      2D6D7468 
 2581      756D6220 
 2581      2D676764 
 2582 04b7 69676E2D 		.ascii	"ign-functions=16 -ffunction-sections -fdata-section"
 2582      66756E63 
 2582      74696F6E 
 2582      733D3136 
 2582      202D6666 
 2583 04ea 73202D66 		.ascii	"s -fno-common\000"
 2583      6E6F2D63 
ARM GAS  /tmp/ccFL67SE.s 			page 50


 2583      6F6D6D6F 
 2583      6E00
 2584              	.LASF101:
 2585 04f8 6D5F6E65 		.ascii	"m_next\000"
 2585      787400
 2586              	.LASF24:
 2587 04ff 73797374 		.ascii	"systime_t\000"
 2587      696D655F 
 2587      7400
 2588              	.LASF41:
 2589 0509 705F7265 		.ascii	"p_realprio\000"
 2589      616C7072 
 2589      696F00
 2590              	.LASF56:
 2591 0514 76746675 		.ascii	"vtfunc_t\000"
 2591      6E635F74 
 2591      00
 2592              	.LASF8:
 2593 051d 5F5F7569 		.ascii	"__uint32_t\000"
 2593      6E743332 
 2593      5F7400
 2594              	.LASF69:
 2595 0528 70616E69 		.ascii	"panic_msg\000"
 2595      635F6D73 
 2595      6700
 2596              	.LASF91:
 2597 0532 6F666673 		.ascii	"offset\000"
 2597      657400
 2598              	.LASF115:
 2599 0539 73745374 		.ascii	"stStartAlarm\000"
 2599      61727441 
 2599      6C61726D 
 2599      00
 2600              	.LASF79:
 2601 0546 636F6E74 		.ascii	"context\000"
 2601      65787400 
 2602              	.LASF104:
 2603 054e 706F7274 		.ascii	"port_timer_get_time\000"
 2603      5F74696D 
 2603      65725F67 
 2603      65745F74 
 2603      696D6500 
 2604              	.LASF17:
 2605 0562 7274636E 		.ascii	"rtcnt_t\000"
 2605      745F7400 
 2606              	.LASF63:
 2607 056a 76745F70 		.ascii	"vt_par\000"
 2607      617200
 2608              	.LASF109:
 2609 0571 76746675 		.ascii	"vtfunc\000"
 2609      6E6300
 2610              	.LASF46:
 2611 0578 74687265 		.ascii	"threads_queue_t\000"
 2611      6164735F 
 2611      71756575 
 2611      655F7400 
 2612              	.LASF35:
ARM GAS  /tmp/ccFL67SE.s 			page 51


 2613 0588 705F7265 		.ascii	"p_refs\000"
 2613      667300
 2614              	.LASF72:
 2615 058f 726C6973 		.ascii	"rlist\000"
 2615      7400
 2616              	.LASF114:
 2617 0595 73745365 		.ascii	"stSetAlarm\000"
 2617      74416C61 
 2617      726D00
 2618              	.LASF119:
 2619 05a0 706F7274 		.ascii	"port_timer_stop_alarm\000"
 2619      5F74696D 
 2619      65725F73 
 2619      746F705F 
 2619      616C6172 
 2620              	.LASF106:
 2621 05b6 706F7274 		.ascii	"port_timer_set_alarm\000"
 2621      5F74696D 
 2621      65725F73 
 2621      65745F61 
 2621      6C61726D 
 2622              	.LASF95:
 2623 05cb 77746F62 		.ascii	"wtobjp\000"
 2623      6A7000
 2624              	.LASF32:
 2625 05d2 705F6E61 		.ascii	"p_name\000"
 2625      6D6500
 2626              	.LASF43:
 2627 05d9 74687265 		.ascii	"threads_list_t\000"
 2627      6164735F 
 2627      6C697374 
 2627      5F7400
 2628              	.LASF18:
 2629 05e8 746D6F64 		.ascii	"tmode_t\000"
 2629      655F7400 
 2630              	.LASF38:
 2631 05f0 705F6D73 		.ascii	"p_msg\000"
 2631      6700
 2632              	.LASF100:
 2633 05f6 6D5F6F77 		.ascii	"m_owner\000"
 2633      6E657200 
 2634              	.LASF62:
 2635 05fe 76745F66 		.ascii	"vt_func\000"
 2635      756E6300 
 2636              		.ident	"GCC: (GNU Tools for ARM Embedded Processors) 4.8.4 20140526 (release) [ARM/embedded-4_8-br
ARM GAS  /tmp/ccFL67SE.s 			page 52


DEFINED SYMBOLS
                            *ABS*:00000000 chvt.c
     /tmp/ccFL67SE.s:19     .text._vt_init:00000000 $t
     /tmp/ccFL67SE.s:25     .text._vt_init:00000000 _vt_init
     /tmp/ccFL67SE.s:52     .text._vt_init:00000018 $d
     /tmp/ccFL67SE.s:57     .text.chVTDoSetI:00000000 $t
     /tmp/ccFL67SE.s:63     .text.chVTDoSetI:00000000 chVTDoSetI
     /tmp/ccFL67SE.s:208    .text.chVTDoSetI:0000006c $d
     /tmp/ccFL67SE.s:216    .text.chVTDoResetI:00000000 $t
     /tmp/ccFL67SE.s:222    .text.chVTDoResetI:00000000 chVTDoResetI
     /tmp/ccFL67SE.s:320    .text.chVTDoResetI:0000004c $d
                     .debug_frame:00000010 $d
     /tmp/ccFL67SE.s:56     .text._vt_init:0000001c $t

UNDEFINED SYMBOLS
ch
stSetAlarm
stStartAlarm
stStopAlarm
