ARM GAS  /tmp/ccdULXBb.s 			page 1


   1              		.syntax unified
   2              		.cpu cortex-m4
   3              		.fpu softvfp
   4              		.eabi_attribute 20, 1
   5              		.eabi_attribute 21, 1
   6              		.eabi_attribute 23, 3
   7              		.eabi_attribute 24, 1
   8              		.eabi_attribute 25, 1
   9              		.eabi_attribute 26, 1
  10              		.eabi_attribute 30, 2
  11              		.eabi_attribute 34, 1
  12              		.eabi_attribute 18, 4
  13              		.thumb
  14              		.file	"crt0.c"
  15              		.text
  16              	.Ltext0:
  17              		.cfi_sections	.debug_frame
  18              		.section	.text.__early_init,"ax",%progbits
  19              		.align	2
  20              		.p2align 4,,15
  21              		.weak	__early_init
  22              		.thumb
  23              		.thumb_func
  24              		.type	__early_init, %function
  25              	__early_init:
  26              	.LFB0:
  27              		.file 1 "../ChibiOS/os/common/ports/ARMCMx/compilers/GCC/crt0.c"
  28              		.loc 1 226 0
  29              		.cfi_startproc
  30              		@ args = 0, pretend = 0, frame = 0
  31              		@ frame_needed = 0, uses_anonymous_args = 0
  32              		@ link register save eliminated.
  33 0000 7047     		bx	lr
  34              		.cfi_endproc
  35              	.LFE0:
  36              		.size	__early_init, .-__early_init
  37 0002 00BFAFF3 		.section	.text.__late_init,"ax",%progbits
  37      0080AFF3 
  37      0080AFF3 
  37      0080
  38              		.align	2
  39              		.p2align 4,,15
  40              		.weak	__late_init
  41              		.thumb
  42              		.thumb_func
  43              		.type	__late_init, %function
  44              	__late_init:
  45              	.LFB1:
  46              		.loc 1 238 0
  47              		.cfi_startproc
  48              		@ args = 0, pretend = 0, frame = 0
  49              		@ frame_needed = 0, uses_anonymous_args = 0
  50              		@ link register save eliminated.
  51 0000 7047     		bx	lr
  52              		.cfi_endproc
  53              	.LFE1:
  54              		.size	__late_init, .-__late_init
ARM GAS  /tmp/ccdULXBb.s 			page 2


  55 0002 00BFAFF3 		.section	.text._default_exit,"ax",%progbits
  55      0080AFF3 
  55      0080AFF3 
  55      0080
  56              		.align	2
  57              		.p2align 4,,15
  58              		.weak	_default_exit
  59              		.thumb
  60              		.thumb_func
  61              		.type	_default_exit, %function
  62              	_default_exit:
  63              	.LFB2:
  64              		.loc 1 249 0
  65              		.cfi_startproc
  66              		@ Volatile: function does not return.
  67              		@ args = 0, pretend = 0, frame = 0
  68              		@ frame_needed = 0, uses_anonymous_args = 0
  69              		@ link register save eliminated.
  70              	.L4:
  71 0000 FEE7     		b	.L4
  72              		.cfi_endproc
  73              	.LFE2:
  74              		.size	_default_exit, .-_default_exit
  75 0002 00BFAFF3 		.section	.text.Reset_Handler,"ax",%progbits
  75      0080AFF3 
  75      0080AFF3 
  75      0080
  76              		.align	2
  77              		.p2align 4,,15
  78              		.global	Reset_Handler
  79              		.thumb
  80              		.thumb_func
  81              		.type	Reset_Handler, %function
  82              	Reset_Handler:
  83              	.LFB3:
  84              		.loc 1 260 0
  85              		.cfi_startproc
  86              		@ Naked Function: prologue and epilogue provided by programmer.
  87              		@ args = 0, pretend = 0, frame = 0
  88              		@ frame_needed = 0, uses_anonymous_args = 0
  89              		.loc 1 266 0
  90              	@ 266 "../ChibiOS/os/common/ports/ARMCMx/compilers/GCC/crt0.c" 1
  91 0000 72B6     		cpsid   i
  92              	@ 0 "" 2
  93              		.loc 1 267 0
  94              		.thumb
  95 0002 304C     		ldr	r4, .L26
  96              	.LVL0:
  97              		.loc 1 268 0
  98              	@ 268 "../ChibiOS/os/common/ports/ARMCMx/compilers/GCC/crt0.c" 1
  99 0004 84F30988 		msr     PSP, r4
 100              	@ 0 "" 2
 101              	.LVL1:
 102              		.loc 1 288 0
 103              		.thumb
 104 0008 0223     		movs	r3, #2
 105              	@ 288 "../ChibiOS/os/common/ports/ARMCMx/compilers/GCC/crt0.c" 1
ARM GAS  /tmp/ccdULXBb.s 			page 3


 106 000a 83F31488 		msr     CONTROL, r3
 107              	@ 0 "" 2
 108              		.loc 1 289 0
 109              	@ 289 "../ChibiOS/os/common/ports/ARMCMx/compilers/GCC/crt0.c" 1
 110 000e BFF36F8F 		isb
 111              	@ 0 "" 2
 112              		.loc 1 292 0
 113              		.thumb
 114 0012 FFF7FEFF 		bl	__early_init
 115              	.LVL2:
 116              	.LBB2:
 117              		.loc 1 296 0
 118 0016 2C4B     		ldr	r3, .L26+4
 119 0018 2C4A     		ldr	r2, .L26+8
 120 001a 9342     		cmp	r3, r2
 121 001c 0BD2     		bcs	.L9
 122 001e D943     		mvns	r1, r3
 123 0020 1144     		add	r1, r1, r2
 124 0022 21F00301 		bic	r1, r1, #3
 125 0026 1944     		add	r1, r1, r3
 126 0028 4FF05532 		mov	r2, #1431655765
 127 002c 043B     		subs	r3, r3, #4
 128              	.LVL3:
 129              	.L10:
 130              		.loc 1 296 0 is_stmt 0 discriminator 2
 131 002e 43F8042F 		str	r2, [r3, #4]!
 132              	.LVL4:
 133 0032 8B42     		cmp	r3, r1
 134 0034 FBD1     		bne	.L10
 135              	.LVL5:
 136              	.L9:
 137              	.LBE2:
 138              	.LBB3:
 139              		.loc 1 299 0 is_stmt 1
 140 0036 264B     		ldr	r3, .L26+12
 141 0038 A342     		cmp	r3, r4
 142 003a 0CD2     		bcs	.L8
 143 003c 2549     		ldr	r1, .L26+16
 144 003e 1A1D     		adds	r2, r3, #4
 145 0040 891A     		subs	r1, r1, r2
 146 0042 21F00301 		bic	r1, r1, #3
 147 0046 1944     		add	r1, r1, r3
 148 0048 4FF05532 		mov	r2, #1431655765
 149 004c 043B     		subs	r3, r3, #4
 150              	.LVL6:
 151              	.L13:
 152              		.loc 1 299 0 is_stmt 0 discriminator 2
 153 004e 43F8042F 		str	r2, [r3, #4]!
 154              	.LVL7:
 155 0052 8B42     		cmp	r3, r1
 156 0054 FBD1     		bne	.L13
 157              	.LVL8:
 158              	.L8:
 159              	.LBE3:
 160              	.LBB4:
 161              		.loc 1 311 0 is_stmt 1
 162 0056 2049     		ldr	r1, .L26+20
ARM GAS  /tmp/ccdULXBb.s 			page 4


 163 0058 204B     		ldr	r3, .L26+24
 164 005a 9942     		cmp	r1, r3
 165 005c 0BD2     		bcs	.L12
 166 005e C843     		mvns	r0, r1
 167 0060 1844     		add	r0, r0, r3
 168 0062 20F00300 		bic	r0, r0, #3
 169 0066 1E4C     		ldr	r4, .L26+28
 170 0068 0430     		adds	r0, r0, #4
 171 006a 0023     		movs	r3, #0
 172              	.LVL9:
 173              	.L16:
 174              		.loc 1 312 0
 175 006c E258     		ldr	r2, [r4, r3]
 176 006e CA50     		str	r2, [r1, r3]
 177 0070 0433     		adds	r3, r3, #4
 178              	.LVL10:
 179              		.loc 1 311 0
 180 0072 8342     		cmp	r3, r0
 181 0074 FAD1     		bne	.L16
 182              	.LVL11:
 183              	.L12:
 184              	.LBE4:
 185              	.LBB5:
 186              		.loc 1 318 0
 187 0076 1B4B     		ldr	r3, .L26+32
 188 0078 1B4A     		ldr	r2, .L26+36
 189 007a 9342     		cmp	r3, r2
 190 007c 0AD2     		bcs	.L15
 191 007e D943     		mvns	r1, r3
 192 0080 1144     		add	r1, r1, r2
 193 0082 21F00301 		bic	r1, r1, #3
 194 0086 1944     		add	r1, r1, r3
 195 0088 0022     		movs	r2, #0
 196 008a 043B     		subs	r3, r3, #4
 197              	.LVL12:
 198              	.L19:
 199              		.loc 1 318 0 is_stmt 0 discriminator 2
 200 008c 43F8042F 		str	r2, [r3, #4]!
 201              	.LVL13:
 202 0090 8B42     		cmp	r3, r1
 203 0092 FBD1     		bne	.L19
 204              	.LVL14:
 205              	.L15:
 206              	.LBE5:
 207              	.LBB6:
 208              		.loc 1 328 0 is_stmt 1
 209 0094 154D     		ldr	r5, .L26+40
 210 0096 164C     		ldr	r4, .L26+44
 211              	.LBE6:
 212              		.loc 1 322 0
 213 0098 FFF7FEFF 		bl	__late_init
 214              	.LVL15:
 215              	.LBB7:
 216              		.loc 1 328 0
 217 009c AC42     		cmp	r4, r5
 218 009e 04D2     		bcs	.L18
 219              	.LVL16:
ARM GAS  /tmp/ccdULXBb.s 			page 5


 220              	.L22:
 221              		.loc 1 329 0
 222 00a0 54F8043B 		ldr	r3, [r4], #4
 223              	.LVL17:
 224 00a4 9847     		blx	r3
 225              	.LVL18:
 226              		.loc 1 328 0
 227 00a6 AC42     		cmp	r4, r5
 228 00a8 FAD3     		bcc	.L22
 229              	.LVL19:
 230              	.L18:
 231              	.LBE7:
 232              	.LBB8:
 233              		.loc 1 342 0
 234 00aa 124D     		ldr	r5, .L26+48
 235 00ac 124C     		ldr	r4, .L26+52
 236              	.LBE8:
 237              		.loc 1 336 0
 238 00ae FFF7FEFF 		bl	main
 239              	.LVL20:
 240              	.LBB9:
 241              		.loc 1 342 0
 242 00b2 AC42     		cmp	r4, r5
 243 00b4 04D2     		bcs	.L21
 244              	.LVL21:
 245              	.L23:
 246              		.loc 1 343 0
 247 00b6 54F8043B 		ldr	r3, [r4], #4
 248              	.LVL22:
 249 00ba 9847     		blx	r3
 250              	.LVL23:
 251              		.loc 1 342 0
 252 00bc AC42     		cmp	r4, r5
 253 00be FAD3     		bcc	.L23
 254              	.LVL24:
 255              	.L21:
 256              	.LBE9:
 257              		.loc 1 350 0
 258 00c0 FFF7FEFF 		bl	_default_exit
 259              	.LVL25:
 260              	.L27:
 261              		.align	2
 262              	.L26:
 263 00c4 00000000 		.word	__process_stack_end__
 264 00c8 00000000 		.word	__main_stack_base__
 265 00cc 00000000 		.word	__main_stack_end__
 266 00d0 00000000 		.word	__process_stack_base__
 267 00d4 03000000 		.word	__process_stack_end__+3
 268 00d8 00000000 		.word	_data
 269 00dc 00000000 		.word	_edata
 270 00e0 00000000 		.word	_textdata
 271 00e4 00000000 		.word	_bss_start
 272 00e8 00000000 		.word	_bss_end
 273 00ec 00000000 		.word	__init_array_end
 274 00f0 00000000 		.word	__init_array_start
 275 00f4 00000000 		.word	__fini_array_end
 276 00f8 00000000 		.word	__fini_array_start
ARM GAS  /tmp/ccdULXBb.s 			page 6


 277              		.cfi_endproc
 278              	.LFE3:
 279              		.size	Reset_Handler, .-Reset_Handler
 280 00fc AFF30080 		.text
 281              	.Letext0:
 282              		.file 2 "/nfs/nfs5/home/research/hardware/arm2/gcc-arm-embedded/gcc-arm-none-eabi-4_8-2014q2/arm-n
 283              		.file 3 "/nfs/nfs5/home/research/hardware/arm2/gcc-arm-embedded/gcc-arm-none-eabi-4_8-2014q2/arm-n