ARM GAS  /tmp/ccniOlCG.s 			page 1


   1              		.syntax unified
   2              		.cpu cortex-m4
   3              		.fpu softvfp
   4              		.eabi_attribute 20, 1
   5              		.eabi_attribute 21, 1
   6              		.eabi_attribute 23, 3
   7              		.eabi_attribute 24, 1
   8              		.eabi_attribute 25, 1
   9              		.eabi_attribute 26, 1
  10              		.eabi_attribute 30, 2
  11              		.eabi_attribute 34, 1
  12              		.eabi_attribute 18, 4
  13              		.thumb
  14              		.file	"pal_lld.c"
  15              		.text
  16              	.Ltext0:
  17              		.cfi_sections	.debug_frame
  18              		.section	.text._pal_lld_init,"ax",%progbits
  19              		.align	2
  20              		.p2align 4,,15
  21              		.global	_pal_lld_init
  22              		.thumb
  23              		.thumb_func
  24              		.type	_pal_lld_init, %function
  25              	_pal_lld_init:
  26              	.LFB256:
  27              		.file 1 "../ChibiOS/os/hal/ports/STM32/LLD/GPIOv2/pal_lld.c"
  28              		.loc 1 92 0
  29              		.cfi_startproc
  30              		@ args = 0, pretend = 0, frame = 0
  31              		@ frame_needed = 0, uses_anonymous_args = 0
  32              		@ link register save eliminated.
  33              	.LVL0:
  34 0000 F0B4     		push	{r4, r5, r6, r7}
  35              		.cfi_def_cfa_offset 16
  36              		.cfi_offset 4, -16
  37              		.cfi_offset 5, -12
  38              		.cfi_offset 6, -8
  39              		.cfi_offset 7, -4
  40              		.loc 1 103 0
  41 0002 364E     		ldr	r6, .L2
  42              	.LBB14:
  43              	.LBB15:
  44              		.loc 1 67 0
  45 0004 364D     		ldr	r5, .L2+4
  46              	.LBE15:
  47              	.LBE14:
  48              		.loc 1 103 0
  49 0006 7769     		ldr	r7, [r6, #20]
  50              	.LBB17:
  51              	.LBB18:
  52              		.loc 1 67 0
  53 0008 364C     		ldr	r4, .L2+8
  54              	.LBE18:
  55              	.LBE17:
  56              	.LBB20:
  57              	.LBB21:
ARM GAS  /tmp/ccniOlCG.s 			page 2


  58 000a 3749     		ldr	r1, .L2+12
  59              	.LBE21:
  60              	.LBE20:
  61              	.LBB23:
  62              	.LBB24:
  63 000c 374A     		ldr	r2, .L2+16
  64              	.LBE24:
  65              	.LBE23:
  66              	.LBB26:
  67              	.LBB27:
  68 000e 384B     		ldr	r3, .L2+20
  69              	.LBE27:
  70              	.LBE26:
  71              		.loc 1 103 0
  72 0010 47F4FC07 		orr	r7, r7, #8257536
  73 0014 7761     		str	r7, [r6, #20]
  74              	.LVL1:
  75              	.LBB29:
  76              	.LBB30:
  77              		.loc 1 67 0
  78 0016 4FF09046 		mov	r6, #1207959552
  79 001a 4768     		ldr	r7, [r0, #4]
  80 001c 7760     		str	r7, [r6, #4]
  81              		.loc 1 68 0
  82 001e 8768     		ldr	r7, [r0, #8]
  83 0020 B760     		str	r7, [r6, #8]
  84              		.loc 1 69 0
  85 0022 C768     		ldr	r7, [r0, #12]
  86 0024 F760     		str	r7, [r6, #12]
  87              		.loc 1 70 0
  88 0026 0769     		ldr	r7, [r0, #16]
  89 0028 7761     		str	r7, [r6, #20]
  90              		.loc 1 71 0
  91 002a 4769     		ldr	r7, [r0, #20]
  92 002c 3762     		str	r7, [r6, #32]
  93              		.loc 1 72 0
  94 002e 8769     		ldr	r7, [r0, #24]
  95 0030 7762     		str	r7, [r6, #36]
  96              		.loc 1 73 0
  97 0032 0768     		ldr	r7, [r0]
  98 0034 3760     		str	r7, [r6]
  99              	.LVL2:
 100              	.LBE30:
 101              	.LBE29:
 102              	.LBB31:
 103              	.LBB16:
 104              		.loc 1 67 0
 105 0036 066A     		ldr	r6, [r0, #32]
 106 0038 6E60     		str	r6, [r5, #4]
 107              		.loc 1 68 0
 108 003a 466A     		ldr	r6, [r0, #36]
 109 003c AE60     		str	r6, [r5, #8]
 110              		.loc 1 69 0
 111 003e 866A     		ldr	r6, [r0, #40]
 112 0040 EE60     		str	r6, [r5, #12]
 113              		.loc 1 70 0
 114 0042 C66A     		ldr	r6, [r0, #44]
ARM GAS  /tmp/ccniOlCG.s 			page 3


 115 0044 6E61     		str	r6, [r5, #20]
 116              		.loc 1 71 0
 117 0046 066B     		ldr	r6, [r0, #48]
 118 0048 2E62     		str	r6, [r5, #32]
 119              		.loc 1 72 0
 120 004a 466B     		ldr	r6, [r0, #52]
 121 004c 6E62     		str	r6, [r5, #36]
 122              		.loc 1 73 0
 123 004e C669     		ldr	r6, [r0, #28]
 124 0050 2E60     		str	r6, [r5]
 125              	.LVL3:
 126              	.LBE16:
 127              	.LBE31:
 128              	.LBB32:
 129              	.LBB19:
 130              		.loc 1 67 0
 131 0052 C56B     		ldr	r5, [r0, #60]
 132 0054 6560     		str	r5, [r4, #4]
 133              		.loc 1 68 0
 134 0056 056C     		ldr	r5, [r0, #64]
 135 0058 A560     		str	r5, [r4, #8]
 136              		.loc 1 69 0
 137 005a 456C     		ldr	r5, [r0, #68]
 138 005c E560     		str	r5, [r4, #12]
 139              		.loc 1 70 0
 140 005e 856C     		ldr	r5, [r0, #72]
 141 0060 6561     		str	r5, [r4, #20]
 142              		.loc 1 71 0
 143 0062 C56C     		ldr	r5, [r0, #76]
 144 0064 2562     		str	r5, [r4, #32]
 145              		.loc 1 72 0
 146 0066 056D     		ldr	r5, [r0, #80]
 147 0068 6562     		str	r5, [r4, #36]
 148              		.loc 1 73 0
 149 006a 856B     		ldr	r5, [r0, #56]
 150 006c 2560     		str	r5, [r4]
 151              	.LVL4:
 152              	.LBE19:
 153              	.LBE32:
 154              	.LBB33:
 155              	.LBB22:
 156              		.loc 1 67 0
 157 006e 846D     		ldr	r4, [r0, #88]
 158 0070 4C60     		str	r4, [r1, #4]
 159              		.loc 1 68 0
 160 0072 C46D     		ldr	r4, [r0, #92]
 161 0074 8C60     		str	r4, [r1, #8]
 162              		.loc 1 69 0
 163 0076 046E     		ldr	r4, [r0, #96]
 164 0078 CC60     		str	r4, [r1, #12]
 165              		.loc 1 70 0
 166 007a 446E     		ldr	r4, [r0, #100]
 167 007c 4C61     		str	r4, [r1, #20]
 168              		.loc 1 71 0
 169 007e 846E     		ldr	r4, [r0, #104]
 170 0080 0C62     		str	r4, [r1, #32]
 171              		.loc 1 72 0
ARM GAS  /tmp/ccniOlCG.s 			page 4


 172 0082 C46E     		ldr	r4, [r0, #108]
 173 0084 4C62     		str	r4, [r1, #36]
 174              		.loc 1 73 0
 175 0086 446D     		ldr	r4, [r0, #84]
 176 0088 0C60     		str	r4, [r1]
 177              	.LVL5:
 178              	.LBE22:
 179              	.LBE33:
 180              	.LBB34:
 181              	.LBB25:
 182              		.loc 1 67 0
 183 008a 416F     		ldr	r1, [r0, #116]
 184 008c 5160     		str	r1, [r2, #4]
 185              		.loc 1 68 0
 186 008e 816F     		ldr	r1, [r0, #120]
 187 0090 9160     		str	r1, [r2, #8]
 188              		.loc 1 69 0
 189 0092 C16F     		ldr	r1, [r0, #124]
 190 0094 D160     		str	r1, [r2, #12]
 191              		.loc 1 70 0
 192 0096 D0F88010 		ldr	r1, [r0, #128]
 193 009a 5161     		str	r1, [r2, #20]
 194              		.loc 1 71 0
 195 009c D0F88410 		ldr	r1, [r0, #132]
 196 00a0 1162     		str	r1, [r2, #32]
 197              		.loc 1 72 0
 198 00a2 D0F88810 		ldr	r1, [r0, #136]
 199 00a6 5162     		str	r1, [r2, #36]
 200              		.loc 1 73 0
 201 00a8 016F     		ldr	r1, [r0, #112]
 202 00aa 1160     		str	r1, [r2]
 203              	.LVL6:
 204              	.LBE25:
 205              	.LBE34:
 206              	.LBB35:
 207              	.LBB28:
 208              		.loc 1 67 0
 209 00ac D0F89020 		ldr	r2, [r0, #144]
 210 00b0 5A60     		str	r2, [r3, #4]
 211              		.loc 1 68 0
 212 00b2 D0F89420 		ldr	r2, [r0, #148]
 213 00b6 9A60     		str	r2, [r3, #8]
 214              		.loc 1 69 0
 215 00b8 D0F89820 		ldr	r2, [r0, #152]
 216 00bc DA60     		str	r2, [r3, #12]
 217              		.loc 1 70 0
 218 00be D0F89C20 		ldr	r2, [r0, #156]
 219 00c2 5A61     		str	r2, [r3, #20]
 220              		.loc 1 71 0
 221 00c4 D0F8A020 		ldr	r2, [r0, #160]
 222 00c8 1A62     		str	r2, [r3, #32]
 223              		.loc 1 72 0
 224 00ca D0F8A420 		ldr	r2, [r0, #164]
 225 00ce 5A62     		str	r2, [r3, #36]
 226              		.loc 1 73 0
 227 00d0 D0F88C20 		ldr	r2, [r0, #140]
 228 00d4 1A60     		str	r2, [r3]
ARM GAS  /tmp/ccniOlCG.s 			page 5


 229              	.LBE28:
 230              	.LBE35:
 231              		.loc 1 139 0
 232 00d6 F0BC     		pop	{r4, r5, r6, r7}
 233 00d8 7047     		bx	lr
 234              	.L3:
 235 00da 00BF     		.align	2
 236              	.L2:
 237 00dc 00100240 		.word	1073876992
 238 00e0 00040048 		.word	1207960576
 239 00e4 00080048 		.word	1207961600
 240 00e8 000C0048 		.word	1207962624
 241 00ec 00100048 		.word	1207963648
 242 00f0 00140048 		.word	1207964672
 243              		.cfi_endproc
 244              	.LFE256:
 245              		.size	_pal_lld_init, .-_pal_lld_init
 246 00f4 AFF30080 		.section	.text._pal_lld_setgroupmode,"ax",%progbits
 246      AFF30080 
 246      AFF30080 
 247              		.align	2
 248              		.p2align 4,,15
 249              		.global	_pal_lld_setgroupmode
 250              		.thumb
 251              		.thumb_func
 252              		.type	_pal_lld_setgroupmode, %function
 253              	_pal_lld_setgroupmode:
 254              	.LFB257:
 255              		.loc 1 157 0
 256              		.cfi_startproc
 257              		@ args = 0, pretend = 0, frame = 0
 258              		@ frame_needed = 0, uses_anonymous_args = 0
 259              		@ link register save eliminated.
 260              	.LVL7:
 261 0000 2DE9F00F 		push	{r4, r5, r6, r7, r8, r9, r10, fp}
 262              		.cfi_def_cfa_offset 32
 263              		.cfi_offset 4, -32
 264              		.cfi_offset 5, -28
 265              		.cfi_offset 6, -24
 266              		.cfi_offset 7, -20
 267              		.cfi_offset 8, -16
 268              		.cfi_offset 9, -12
 269              		.cfi_offset 10, -8
 270              		.cfi_offset 11, -4
 271              		.loc 1 164 0
 272 0004 0023     		movs	r3, #0
 273              		.loc 1 159 0
 274 0006 02F00307 		and	r7, r2, #3
 275              	.LVL8:
 276              		.loc 1 160 0
 277 000a C2F38006 		ubfx	r6, r2, #2, #1
 278              	.LVL9:
 279              		.loc 1 161 0
 280 000e C2F3C105 		ubfx	r5, r2, #3, #2
 281              	.LVL10:
 282              		.loc 1 162 0
 283 0012 C2F34114 		ubfx	r4, r2, #5, #2
ARM GAS  /tmp/ccniOlCG.s 			page 6


 284              	.LVL11:
 285              	.LBB36:
 286              		.loc 1 170 0
 287 0016 4FF00F09 		mov	r9, #15
 288              	.LBE36:
 289              		.loc 1 163 0
 290 001a C2F3C312 		ubfx	r2, r2, #7, #4
 291              	.LVL12:
 292              	.LBB37:
 293              		.loc 1 175 0
 294 001e 4FF0010A 		mov	r10, #1
 295 0022 38E0     		b	.L9
 296              	.LVL13:
 297              	.L14:
 298              		.loc 1 172 0
 299 0024 D0F820B0 		ldr	fp, [r0, #32]
 300 0028 2BEA0C0C 		bic	ip, fp, ip
 301              	.LVL14:
 302 002c 4CEA0808 		orr	r8, ip, r8
 303              	.LVL15:
 304 0030 C0F82080 		str	r8, [r0, #32]
 305              	.L7:
 306              	.LVL16:
 307              		.loc 1 176 0
 308 0034 D0F804C0 		ldr	ip, [r0, #4]
 309              		.loc 1 175 0
 310 0038 0AFA03F8 		lsl	r8, r10, r3
 311              		.loc 1 176 0
 312 003c 2CEA080C 		bic	ip, ip, r8
 313 0040 4CEA060C 		orr	ip, ip, r6
 314 0044 C0F804C0 		str	ip, [r0, #4]
 315              	.LVL17:
 316              		.loc 1 177 0
 317 0048 4FF0030B 		mov	fp, #3
 318 004c 4FEA430C 		lsl	ip, r3, #1
 319              		.loc 1 178 0
 320 0050 D0F80880 		ldr	r8, [r0, #8]
 321              		.loc 1 177 0
 322 0054 0BFA0CFC 		lsl	ip, fp, ip
 323              	.LVL18:
 324              		.loc 1 178 0
 325 0058 6FEA0C0C 		mvn	ip, ip
 326              	.LVL19:
 327 005c 0CEA0808 		and	r8, ip, r8
 328 0060 48EA0508 		orr	r8, r8, r5
 329 0064 C0F80880 		str	r8, [r0, #8]
 330              		.loc 1 179 0
 331 0068 D0F80C80 		ldr	r8, [r0, #12]
 332 006c 0CEA0808 		and	r8, ip, r8
 333 0070 48EA0408 		orr	r8, r8, r4
 334 0074 C0F80C80 		str	r8, [r0, #12]
 335              		.loc 1 180 0
 336 0078 D0F80080 		ldr	r8, [r0]
 337 007c 0CEA080C 		and	ip, ip, r8
 338              	.LVL20:
 339 0080 4CEA070C 		orr	ip, ip, r7
 340 0084 C0F800C0 		str	ip, [r0]
ARM GAS  /tmp/ccniOlCG.s 			page 7


 341              	.LVL21:
 342              	.L5:
 343              	.LBE37:
 344              		.loc 1 183 0
 345 0088 4908     		lsrs	r1, r1, #1
 346              	.LVL22:
 347 008a 1AD0     		beq	.L4
 348              		.loc 1 185 0
 349 008c 7600     		lsls	r6, r6, #1
 350              	.LVL23:
 351              		.loc 1 186 0
 352 008e AD00     		lsls	r5, r5, #2
 353              	.LVL24:
 354              		.loc 1 187 0
 355 0090 A400     		lsls	r4, r4, #2
 356              	.LVL25:
 357              		.loc 1 188 0
 358 0092 BF00     		lsls	r7, r7, #2
 359              	.LVL26:
 360              		.loc 1 189 0
 361 0094 0133     		adds	r3, r3, #1
 362              	.LVL27:
 363              	.L9:
 364              	.LBB38:
 365              		.loc 1 169 0
 366 0096 03F0070C 		and	ip, r3, #7
 367 009a 4FEA8C0C 		lsl	ip, ip, #2
 368              	.LBE38:
 369              		.loc 1 166 0
 370 009e 11F0010F 		tst	r1, #1
 371              	.LBB39:
 372              		.loc 1 169 0
 373 00a2 02FA0CF8 		lsl	r8, r2, ip
 374              	.LVL28:
 375              		.loc 1 170 0
 376 00a6 09FA0CFC 		lsl	ip, r9, ip
 377              	.LVL29:
 378              	.LBE39:
 379              		.loc 1 166 0
 380 00aa EDD0     		beq	.L5
 381              	.LBB40:
 382              		.loc 1 171 0
 383 00ac 072B     		cmp	r3, #7
 384 00ae B9D9     		bls	.L14
 385              		.loc 1 174 0
 386 00b0 D0F824B0 		ldr	fp, [r0, #36]
 387 00b4 2BEA0C0C 		bic	ip, fp, ip
 388              	.LVL30:
 389 00b8 4CEA0808 		orr	r8, ip, r8
 390              	.LVL31:
 391 00bc C0F82480 		str	r8, [r0, #36]
 392 00c0 B8E7     		b	.L7
 393              	.L4:
 394              	.LBE40:
 395              		.loc 1 191 0
 396 00c2 BDE8F00F 		pop	{r4, r5, r6, r7, r8, r9, r10, fp}
 397              	.LVL32:
ARM GAS  /tmp/ccniOlCG.s 			page 8


 398 00c6 7047     		bx	lr
 399              		.cfi_endproc
 400              	.LFE257:
 401              		.size	_pal_lld_setgroupmode, .-_pal_lld_setgroupmode
 402 00c8 AFF30080 		.text
 402      AFF30080 
 403              	.Letext0:
 404              		.file 2 "/nfs/nfs5/home/research/hardware/arm2/gcc-arm-embedded/gcc-arm-none-eabi-4_8-2014q2/arm-n
 405              		.file 3 "/nfs/nfs5/home/research/hardware/arm2/gcc-arm-embedded/gcc-arm-none-eabi-4_8-2014q2/arm-n
 406              		.file 4 "../ChibiOS/os/rt/ports/ARMCMx/compilers/GCC/chtypes.h"
 407              		.file 5 "../ChibiOS/os/rt/include/chsystypes.h"
 408              		.file 6 "../ChibiOS/os/rt/include/chschd.h"
 409              		.file 7 "../ChibiOS/os/ext/CMSIS/ST/stm32f303xc.h"
 410              		.file 8 "../ChibiOS/os/rt/ports/ARMCMx/chcore.h"
 411              		.file 9 "../ChibiOS/os/rt/ports/ARMCMx/chcore_v7m.h"
 412              		.file 10 "../ChibiOS/os/rt/include/chtm.h"
 413              		.file 11 "../ChibiOS/os/rt/include/chmtx.h"
 414              		.file 12 "../ChibiOS/os/hal/ports/STM32/LLD/GPIOv2/pal_lld.h"
 415              		.file 13 "../ChibiOS/os/ext/CMSIS/include/core_cm4.h"