ARM GAS  /tmp/ccZwNDqj.s 			page 1


   1              		.syntax unified
   2              		.cpu cortex-m4
   3              		.fpu softvfp
   4              		.eabi_attribute 20, 1
   5              		.eabi_attribute 21, 1
   6              		.eabi_attribute 23, 3
   7              		.eabi_attribute 24, 1
   8              		.eabi_attribute 25, 1
   9              		.eabi_attribute 26, 1
  10              		.eabi_attribute 30, 2
  11              		.eabi_attribute 34, 1
  12              		.eabi_attribute 18, 4
  13              		.thumb
  14              		.file	"serial_lld.c"
  15              		.text
  16              	.Ltext0:
  17              		.cfi_sections	.debug_frame
  18              		.section	.text.notify1,"ax",%progbits
  19              		.align	2
  20              		.p2align 4,,15
  21              		.thumb
  22              		.thumb_func
  23              		.type	notify1, %function
  24              	notify1:
  25              	.LFB259:
  26              		.file 1 "../ChibiOS/os/hal/ports/STM32/LLD/USARTv2/serial_lld.c"
  27              		.loc 1 198 0
  28              		.cfi_startproc
  29              		@ args = 0, pretend = 0, frame = 0
  30              		@ frame_needed = 0, uses_anonymous_args = 0
  31              		@ link register save eliminated.
  32              	.LVL0:
  33              		.loc 1 201 0
  34 0000 024B     		ldr	r3, .L2
  35 0002 1A68     		ldr	r2, [r3]
  36 0004 42F08002 		orr	r2, r2, #128
  37 0008 1A60     		str	r2, [r3]
  38 000a 7047     		bx	lr
  39              	.L3:
  40              		.align	2
  41              	.L2:
  42 000c 00380140 		.word	1073821696
  43              		.cfi_endproc
  44              	.LFE259:
  45              		.size	notify1, .-notify1
  46              		.section	.text.VectorD4,"ax",%progbits
  47              		.align	2
  48              		.p2align 4,,15
  49              		.global	VectorD4
  50              		.thumb
  51              		.thumb_func
  52              		.type	VectorD4, %function
  53              	VectorD4:
  54              	.LFB260:
  55              		.loc 1 258 0
  56              		.cfi_startproc
  57              		@ args = 0, pretend = 0, frame = 0
ARM GAS  /tmp/ccZwNDqj.s 			page 2


  58              		@ frame_needed = 0, uses_anonymous_args = 0
  59              	.LVL1:
  60 0000 F8B5     		push	{r3, r4, r5, r6, r7, lr}
  61              		.cfi_def_cfa_offset 24
  62              		.cfi_offset 3, -24
  63              		.cfi_offset 4, -20
  64              		.cfi_offset 5, -16
  65              		.cfi_offset 6, -12
  66              		.cfi_offset 7, -8
  67              		.cfi_offset 14, -4
  68              	.LBB267:
  69              	.LBB268:
  70              		.loc 1 147 0
  71 0002 3B4E     		ldr	r6, .L53
  72 0004 756F     		ldr	r5, [r6, #116]
  73              	.LVL2:
  74              		.loc 1 148 0
  75 0006 2F68     		ldr	r7, [r5]
  76              	.LVL3:
  77              		.loc 1 152 0
  78 0008 EC69     		ldr	r4, [r5, #28]
  79              	.LVL4:
  80              		.loc 1 153 0
  81 000a 2C62     		str	r4, [r5, #32]
  82              		.loc 1 156 0
  83 000c 2207     		lsls	r2, r4, #28
  84 000e 33D1     		bne	.L47
  85              	.L5:
  86              		.loc 1 160 0
  87 0010 E305     		lsls	r3, r4, #23
  88 0012 25D4     		bmi	.L48
  89              	.L10:
  90              		.loc 1 167 0
  91 0014 A006     		lsls	r0, r4, #26
  92 0016 17D4     		bmi	.L49
  93              	.L11:
  94              		.loc 1 174 0
  95 0018 3906     		lsls	r1, r7, #24
  96 001a 01D5     		bpl	.L12
  97 001c 2206     		lsls	r2, r4, #24
  98 001e 46D4     		bmi	.L50
  99              	.L12:
 100              		.loc 1 188 0
 101 0020 6306     		lsls	r3, r4, #25
 102 0022 0DD5     		bpl	.L15
 103              	.LVL5:
 104              	.LBB269:
 105              	.LBB270:
 106              	.LBB271:
 107              	.LBB272:
 108              	.LBB273:
 109              	.LBB274:
 110              		.file 2 "../ChibiOS/os/ext/CMSIS/include/core_cmFunc.h"
 111              		.loc 2 546 0
 112 0024 2023     		movs	r3, #32
 113              	@ 546 "../ChibiOS/os/ext/CMSIS/include/core_cmFunc.h" 1
 114 0026 83F31188 		MSR basepri, r3
ARM GAS  /tmp/ccZwNDqj.s 			page 3


 115              	@ 0 "" 2
 116              	.LVL6:
 117              		.thumb
 118              	.LBE274:
 119              	.LBE273:
 120              	.LBE272:
 121              	.LBE271:
 122              	.LBE270:
 123              	.LBE269:
 124              	.LBB275:
 125              	.LBB276:
 126              		.file 3 "../ChibiOS/os/rt/include/chqueues.h"
 127              		.loc 3 387 0
 128 002a 726C     		ldr	r2, [r6, #68]
 129 002c B36C     		ldr	r3, [r6, #72]
 130 002e 3048     		ldr	r0, .L53
 131 0030 9A42     		cmp	r2, r3
 132 0032 4AD0     		beq	.L51
 133              	.L16:
 134              	.LBE276:
 135              	.LBE275:
 136              		.loc 1 192 0
 137 0034 27F04007 		bic	r7, r7, #64
 138              	.LVL7:
 139 0038 2F60     		str	r7, [r5]
 140              	.LVL8:
 141              	.LBB278:
 142              	.LBB279:
 143              	.LBB280:
 144              	.LBB281:
 145              	.LBB282:
 146              	.LBB283:
 147              		.loc 2 546 0
 148 003a 0023     		movs	r3, #0
 149              	@ 546 "../ChibiOS/os/ext/CMSIS/include/core_cmFunc.h" 1
 150 003c 83F31188 		MSR basepri, r3
 151              	@ 0 "" 2
 152              	.LVL9:
 153              		.thumb
 154              	.L15:
 155              	.LBE283:
 156              	.LBE282:
 157              	.LBE281:
 158              	.LBE280:
 159              	.LBE279:
 160              	.LBE278:
 161              	.LBE268:
 162              	.LBE267:
 163              		.loc 1 265 0
 164 0040 BDE8F840 		pop	{r3, r4, r5, r6, r7, lr}
 165              	.LVL10:
 166              		.loc 1 264 0
 167 0044 FFF7FEBF 		b	_port_irq_epilogue
 168              	.LVL11:
 169              	.L49:
 170              	.LBB346:
 171              	.LBB345:
ARM GAS  /tmp/ccZwNDqj.s 			page 4


 172              	.LBB284:
 173              	.LBB285:
 174              	.LBB286:
 175              	.LBB287:
 176              	.LBB288:
 177              	.LBB289:
 178              		.loc 2 546 0
 179 0048 2023     		movs	r3, #32
 180              	@ 546 "../ChibiOS/os/ext/CMSIS/include/core_cmFunc.h" 1
 181 004a 83F31188 		MSR basepri, r3
 182              	@ 0 "" 2
 183              		.thumb
 184              	.LBE289:
 185              	.LBE288:
 186              	.LBE287:
 187              	.LBE286:
 188              	.LBE285:
 189              	.LBE284:
 190              		.loc 1 169 0
 191 004e A98C     		ldrh	r1, [r5, #36]
 192 0050 2748     		ldr	r0, .L53
 193 0052 C9B2     		uxtb	r1, r1
 194 0054 FFF7FEFF 		bl	sdIncomingDataI
 195              	.LVL12:
 196              	.LBB290:
 197              	.LBB291:
 198              	.LBB292:
 199              	.LBB293:
 200              	.LBB294:
 201              	.LBB295:
 202              		.loc 2 546 0
 203 0058 0023     		movs	r3, #0
 204              	@ 546 "../ChibiOS/os/ext/CMSIS/include/core_cmFunc.h" 1
 205 005a 83F31188 		MSR basepri, r3
 206              	@ 0 "" 2
 207              		.thumb
 208 005e DBE7     		b	.L11
 209              	.LVL13:
 210              	.L48:
 211              	.LBE295:
 212              	.LBE294:
 213              	.LBE293:
 214              	.LBE292:
 215              	.LBE291:
 216              	.LBE290:
 217              	.LBB296:
 218              	.LBB297:
 219              	.LBB298:
 220              	.LBB299:
 221              	.LBB300:
 222              	.LBB301:
 223 0060 2023     		movs	r3, #32
 224              	@ 546 "../ChibiOS/os/ext/CMSIS/include/core_cmFunc.h" 1
 225 0062 83F31188 		MSR basepri, r3
 226              	@ 0 "" 2
 227              	.LVL14:
 228              		.thumb
ARM GAS  /tmp/ccZwNDqj.s 			page 5


 229              	.LBE301:
 230              	.LBE300:
 231              	.LBE299:
 232              	.LBE298:
 233              	.LBE297:
 234              	.LBE296:
 235              	.LBB302:
 236              	.LBB303:
 237              		.file 4 "../ChibiOS/os/hal/osal/rt/osal.h"
 238              		.loc 4 776 0
 239 0066 2348     		ldr	r0, .L53+4
 240 0068 4FF40071 		mov	r1, #512
 241 006c FFF7FEFF 		bl	chEvtBroadcastFlagsI
 242              	.LVL15:
 243              	.LBE303:
 244              	.LBE302:
 245              	.LBB304:
 246              	.LBB305:
 247              	.LBB306:
 248              	.LBB307:
 249              	.LBB308:
 250              	.LBB309:
 251              		.loc 2 546 0
 252 0070 0023     		movs	r3, #0
 253              	@ 546 "../ChibiOS/os/ext/CMSIS/include/core_cmFunc.h" 1
 254 0072 83F31188 		MSR basepri, r3
 255              	@ 0 "" 2
 256              		.thumb
 257 0076 CDE7     		b	.L10
 258              	.LVL16:
 259              	.L47:
 260              	.LBE309:
 261              	.LBE308:
 262              	.LBE307:
 263              	.LBE306:
 264              	.LBE305:
 265              	.LBE304:
 266              	.LBB310:
 267              	.LBB311:
 268              		.loc 1 126 0
 269 0078 14F0080F 		tst	r4, #8
 270 007c 14BF     		ite	ne
 271 007e 8021     		movne	r1, #128
 272 0080 0021     		moveq	r1, #0
 273              	.LVL17:
 274              		.loc 1 130 0
 275 0082 E307     		lsls	r3, r4, #31
 276              		.loc 1 131 0
 277 0084 48BF     		it	mi
 278 0086 41F02001 		orrmi	r1, r1, #32
 279              	.LVL18:
 280              		.loc 1 132 0
 281 008a A007     		lsls	r0, r4, #30
 282              		.loc 1 133 0
 283 008c 48BF     		it	mi
 284 008e 41F04001 		orrmi	r1, r1, #64
 285              	.LVL19:
ARM GAS  /tmp/ccZwNDqj.s 			page 6


 286              		.loc 1 134 0
 287 0092 6207     		lsls	r2, r4, #29
 288              		.loc 1 135 0
 289 0094 48BF     		it	mi
 290 0096 41F48071 		orrmi	r1, r1, #256
 291              	.LVL20:
 292              	.LBB312:
 293              	.LBB313:
 294              	.LBB314:
 295              	.LBB315:
 296              	.LBB316:
 297              	.LBB317:
 298              		.loc 2 546 0
 299 009a 2023     		movs	r3, #32
 300              	@ 546 "../ChibiOS/os/ext/CMSIS/include/core_cmFunc.h" 1
 301 009c 83F31188 		MSR basepri, r3
 302              	@ 0 "" 2
 303              	.LVL21:
 304              		.thumb
 305              	.LBE317:
 306              	.LBE316:
 307              	.LBE315:
 308              	.LBE314:
 309              	.LBE313:
 310              	.LBE312:
 311              	.LBB318:
 312              	.LBB319:
 313              		.loc 4 776 0
 314 00a0 1448     		ldr	r0, .L53+4
 315 00a2 FFF7FEFF 		bl	chEvtBroadcastFlagsI
 316              	.LVL22:
 317              	.LBE319:
 318              	.LBE318:
 319              	.LBB320:
 320              	.LBB321:
 321              	.LBB322:
 322              	.LBB323:
 323              	.LBB324:
 324              	.LBB325:
 325              		.loc 2 546 0
 326 00a6 0023     		movs	r3, #0
 327              	@ 546 "../ChibiOS/os/ext/CMSIS/include/core_cmFunc.h" 1
 328 00a8 83F31188 		MSR basepri, r3
 329              	@ 0 "" 2
 330              		.thumb
 331 00ac B0E7     		b	.L5
 332              	.LVL23:
 333              	.L50:
 334              	.LBE325:
 335              	.LBE324:
 336              	.LBE323:
 337              	.LBE322:
 338              	.LBE321:
 339              	.LBE320:
 340              	.LBE311:
 341              	.LBE310:
 342              	.LBB326:
ARM GAS  /tmp/ccZwNDqj.s 			page 7


 343              	.LBB327:
 344              	.LBB328:
 345              	.LBB329:
 346              	.LBB330:
 347              	.LBB331:
 348              	.LBB332:
 349 00ae 2023     		movs	r3, #32
 350              	@ 546 "../ChibiOS/os/ext/CMSIS/include/core_cmFunc.h" 1
 351 00b0 83F31188 		MSR basepri, r3
 352              	@ 0 "" 2
 353              		.thumb
 354              	.LBE332:
 355              	.LBE331:
 356              	.LBE330:
 357              	.LBE329:
 358              	.LBE328:
 359              	.LBE327:
 360              		.loc 1 177 0
 361 00b4 1048     		ldr	r0, .L53+8
 362 00b6 FFF7FEFF 		bl	chOQGetI
 363              	.LVL24:
 364              		.loc 1 178 0
 365 00ba 0028     		cmp	r0, #0
 366 00bc 0DDB     		blt	.L52
 367              		.loc 1 183 0
 368 00be 80B2     		uxth	r0, r0
 369              	.LVL25:
 370 00c0 2885     		strh	r0, [r5, #40]	@ movhi
 371              	.L14:
 372              	.LVL26:
 373              	.LBB333:
 374              	.LBB334:
 375              	.LBB335:
 376              	.LBB336:
 377              	.LBB337:
 378              	.LBB338:
 379              		.loc 2 546 0
 380 00c2 0023     		movs	r3, #0
 381              	@ 546 "../ChibiOS/os/ext/CMSIS/include/core_cmFunc.h" 1
 382 00c4 83F31188 		MSR basepri, r3
 383              	@ 0 "" 2
 384              		.thumb
 385 00c8 AAE7     		b	.L12
 386              	.LVL27:
 387              	.L51:
 388              	.LBE338:
 389              	.LBE337:
 390              	.LBE336:
 391              	.LBE335:
 392              	.LBE334:
 393              	.LBE333:
 394              	.LBE326:
 395              	.LBB341:
 396              	.LBB277:
 397              		.loc 3 387 0
 398 00ca 836B     		ldr	r3, [r0, #56]
 399 00cc 002B     		cmp	r3, #0
ARM GAS  /tmp/ccZwNDqj.s 			page 8


 400 00ce B1D0     		beq	.L16
 401              	.LVL28:
 402              	.LBE277:
 403              	.LBE341:
 404              	.LBB342:
 405              	.LBB343:
 406              		.loc 4 776 0
 407 00d0 0430     		adds	r0, r0, #4
 408 00d2 1021     		movs	r1, #16
 409 00d4 FFF7FEFF 		bl	chEvtBroadcastFlagsI
 410              	.LVL29:
 411 00d8 ACE7     		b	.L16
 412              	.LVL30:
 413              	.L52:
 414              	.LBE343:
 415              	.LBE342:
 416              	.LBB344:
 417              	.LBB339:
 418              	.LBB340:
 419 00da 0648     		ldr	r0, .L53+4
 420              	.LVL31:
 421 00dc 0821     		movs	r1, #8
 422 00de FFF7FEFF 		bl	chEvtBroadcastFlagsI
 423              	.LVL32:
 424              	.LBE340:
 425              	.LBE339:
 426              		.loc 1 180 0
 427 00e2 27F0C003 		bic	r3, r7, #192
 428 00e6 43F04003 		orr	r3, r3, #64
 429 00ea 2B60     		str	r3, [r5]
 430 00ec E9E7     		b	.L14
 431              	.L54:
 432 00ee 00BF     		.align	2
 433              	.L53:
 434 00f0 00000000 		.word	.LANCHOR0
 435 00f4 04000000 		.word	.LANCHOR0+4
 436 00f8 30000000 		.word	.LANCHOR0+48
 437              	.LBE344:
 438              	.LBE345:
 439              	.LBE346:
 440              		.cfi_endproc
 441              	.LFE260:
 442              		.size	VectorD4, .-VectorD4
 443 00fc AFF30080 		.section	.text.sd_lld_init,"ax",%progbits
 444              		.align	2
 445              		.p2align 4,,15
 446              		.global	sd_lld_init
 447              		.thumb
 448              		.thumb_func
 449              		.type	sd_lld_init, %function
 450              	sd_lld_init:
 451              	.LFB261:
 452              		.loc 1 372 0
 453              		.cfi_startproc
 454              		@ args = 0, pretend = 0, frame = 0
 455              		@ frame_needed = 0, uses_anonymous_args = 0
 456 0000 10B5     		push	{r4, lr}
ARM GAS  /tmp/ccZwNDqj.s 			page 9


 457              		.cfi_def_cfa_offset 8
 458              		.cfi_offset 4, -8
 459              		.cfi_offset 14, -4
 460              		.loc 1 375 0
 461 0002 054C     		ldr	r4, .L56
 462 0004 054A     		ldr	r2, .L56+4
 463 0006 2046     		mov	r0, r4
 464 0008 0021     		movs	r1, #0
 465 000a FFF7FEFF 		bl	sdObjectInit
 466              	.LVL33:
 467              		.loc 1 376 0
 468 000e 044A     		ldr	r2, .L56+8
 469              		.loc 1 377 0
 470 0010 044B     		ldr	r3, .L56+12
 471              		.loc 1 376 0
 472 0012 6267     		str	r2, [r4, #116]
 473              		.loc 1 377 0
 474 0014 A367     		str	r3, [r4, #120]
 475 0016 10BD     		pop	{r4, pc}
 476              	.L57:
 477              		.align	2
 478              	.L56:
 479 0018 00000000 		.word	.LANCHOR0
 480 001c 00000000 		.word	notify1
 481 0020 00380140 		.word	1073821696
 482 0024 00512502 		.word	36000000
 483              		.cfi_endproc
 484              	.LFE261:
 485              		.size	sd_lld_init, .-sd_lld_init
 486 0028 AFF30080 		.section	.text.sd_lld_start,"ax",%progbits
 486      AFF30080 
 487              		.align	2
 488              		.p2align 4,,15
 489              		.global	sd_lld_start
 490              		.thumb
 491              		.thumb_func
 492              		.type	sd_lld_start, %function
 493              	sd_lld_start:
 494              	.LFB262:
 495              		.loc 1 421 0
 496              		.cfi_startproc
 497              		@ args = 0, pretend = 0, frame = 0
 498              		@ frame_needed = 0, uses_anonymous_args = 0
 499              	.LVL34:
 500 0000 F8B5     		push	{r3, r4, r5, r6, r7, lr}
 501              		.cfi_def_cfa_offset 24
 502              		.cfi_offset 3, -24
 503              		.cfi_offset 4, -20
 504              		.cfi_offset 5, -16
 505              		.cfi_offset 6, -12
 506              		.cfi_offset 7, -8
 507              		.cfi_offset 14, -4
 508              		.loc 1 424 0
 509 0002 174C     		ldr	r4, .L63
 510              		.loc 1 426 0
 511 0004 037A     		ldrb	r3, [r0, #8]	@ zero_extendqisi2
 512              		.loc 1 424 0
ARM GAS  /tmp/ccZwNDqj.s 			page 10


 513 0006 0029     		cmp	r1, #0
 514 0008 18BF     		it	ne
 515 000a 0C46     		movne	r4, r1
 516              	.LVL35:
 517              		.loc 1 426 0
 518 000c 012B     		cmp	r3, #1
 519              		.loc 1 421 0
 520 000e 0546     		mov	r5, r0
 521              		.loc 1 426 0
 522 0010 18D0     		beq	.L62
 523              	.LVL36:
 524              	.L60:
 525              	.LBB347:
 526              	.LBB348:
 527              		.loc 1 95 0
 528 0012 2668     		ldr	r6, [r4]
 529              		.loc 1 101 0
 530 0014 6268     		ldr	r2, [r4, #4]
 531              		.loc 1 95 0
 532 0016 AF6F     		ldr	r7, [r5, #120]
 533              		.loc 1 98 0
 534 0018 A168     		ldr	r1, [r4, #8]
 535              		.loc 1 99 0
 536 001a E068     		ldr	r0, [r4, #12]
 537              	.LBE348:
 538              	.LBE347:
 539              		.loc 1 421 0
 540 001c 6B6F     		ldr	r3, [r5, #116]
 541              	.LVL37:
 542              	.LBB350:
 543              	.LBB349:
 544              		.loc 1 101 0
 545 001e 42F49672 		orr	r2, r2, #300
 546              		.loc 1 95 0
 547 0022 B7FBF6F5 		udiv	r5, r7, r6
 548              	.LVL38:
 549              		.loc 1 98 0
 550 0026 41F04004 		orr	r4, r1, #64
 551              	.LVL39:
 552              		.loc 1 95 0
 553 002a ADB2     		uxth	r5, r5
 554              		.loc 1 99 0
 555 002c 40F00100 		orr	r0, r0, #1
 556              		.loc 1 101 0
 557 0030 42F00102 		orr	r2, r2, #1
 558              		.loc 1 103 0
 559 0034 4FF0FF31 		mov	r1, #-1
 560              		.loc 1 95 0
 561 0038 DD60     		str	r5, [r3, #12]
 562              		.loc 1 98 0
 563 003a 5C60     		str	r4, [r3, #4]
 564              		.loc 1 99 0
 565 003c 9860     		str	r0, [r3, #8]
 566              		.loc 1 100 0
 567 003e 1A60     		str	r2, [r3]
 568              		.loc 1 103 0
 569 0040 1962     		str	r1, [r3, #32]
ARM GAS  /tmp/ccZwNDqj.s 			page 11


 570 0042 F8BD     		pop	{r3, r4, r5, r6, r7, pc}
 571              	.LVL40:
 572              	.L62:
 573              	.LBE349:
 574              	.LBE350:
 575              		.loc 1 428 0
 576 0044 074B     		ldr	r3, .L63+4
 577 0046 9842     		cmp	r0, r3
 578 0048 E3D1     		bne	.L60
 579              		.loc 1 429 0
 580 004a 074B     		ldr	r3, .L63+8
 581 004c 9A69     		ldr	r2, [r3, #24]
 582 004e 42F48042 		orr	r2, r2, #16384
 583 0052 9A61     		str	r2, [r3, #24]
 584              		.loc 1 430 0
 585 0054 2520     		movs	r0, #37
 586              	.LVL41:
 587 0056 0C21     		movs	r1, #12
 588 0058 FFF7FEFF 		bl	nvicEnableVector
 589              	.LVL42:
 590 005c D9E7     		b	.L60
 591              	.L64:
 592 005e 00BF     		.align	2
 593              	.L63:
 594 0060 00000000 		.word	.LANCHOR1
 595 0064 00000000 		.word	.LANCHOR0
 596 0068 00100240 		.word	1073876992
 597              		.cfi_endproc
 598              	.LFE262:
 599              		.size	sd_lld_start, .-sd_lld_start
 600 006c AFF30080 		.section	.text.sd_lld_stop,"ax",%progbits
 601              		.align	2
 602              		.p2align 4,,15
 603              		.global	sd_lld_stop
 604              		.thumb
 605              		.thumb_func
 606              		.type	sd_lld_stop, %function
 607              	sd_lld_stop:
 608              	.LFB263:
 609              		.loc 1 476 0
 610              		.cfi_startproc
 611              		@ args = 0, pretend = 0, frame = 0
 612              		@ frame_needed = 0, uses_anonymous_args = 0
 613              		@ link register save eliminated.
 614              	.LVL43:
 615              		.loc 1 478 0
 616 0000 037A     		ldrb	r3, [r0, #8]	@ zero_extendqisi2
 617 0002 022B     		cmp	r3, #2
 618 0004 00D0     		beq	.L69
 619              	.L65:
 620 0006 7047     		bx	lr
 621              	.L69:
 622              		.loc 1 481 0
 623 0008 0749     		ldr	r1, .L70
 624              		.loc 1 479 0
 625 000a 436F     		ldr	r3, [r0, #116]
 626              	.LVL44:
ARM GAS  /tmp/ccZwNDqj.s 			page 12


 627              	.LBB351:
 628              	.LBB352:
 629              		.loc 1 114 0
 630 000c 0022     		movs	r2, #0
 631              	.LBE352:
 632              	.LBE351:
 633              		.loc 1 481 0
 634 000e 8842     		cmp	r0, r1
 635              	.LBB354:
 636              	.LBB353:
 637              		.loc 1 114 0
 638 0010 1A60     		str	r2, [r3]
 639              		.loc 1 115 0
 640 0012 5A60     		str	r2, [r3, #4]
 641              		.loc 1 116 0
 642 0014 9A60     		str	r2, [r3, #8]
 643              	.LBE353:
 644              	.LBE354:
 645              		.loc 1 481 0
 646 0016 F6D1     		bne	.L65
 647              		.loc 1 482 0
 648 0018 044B     		ldr	r3, .L70+4
 649              	.LVL45:
 650 001a 9A69     		ldr	r2, [r3, #24]
 651 001c 22F48042 		bic	r2, r2, #16384
 652 0020 9A61     		str	r2, [r3, #24]
 653              		.loc 1 483 0
 654 0022 2520     		movs	r0, #37
 655              	.LVL46:
 656 0024 FFF7FEBF 		b	nvicDisableVector
 657              	.LVL47:
 658              	.L71:
 659              		.align	2
 660              	.L70:
 661 0028 00000000 		.word	.LANCHOR0
 662 002c 00100240 		.word	1073876992
 663              		.cfi_endproc
 664              	.LFE263:
 665              		.size	sd_lld_stop, .-sd_lld_stop
 666              		.global	SD1
 667              		.section	.rodata.default_config,"a",%progbits
 668              		.align	2
 669              		.set	.LANCHOR1,. + 0
 670              		.type	default_config, %object
 671              		.size	default_config, 16
 672              	default_config:
 673 0000 80250000 		.word	9600
 674 0004 00000000 		.word	0
 675 0008 00400000 		.word	16384
 676 000c 00000000 		.word	0
 677              		.section	.bss.SD1,"aw",%nobits
 678              		.align	2
 679              		.set	.LANCHOR0,. + 0
 680              		.type	SD1, %object
 681              		.size	SD1, 124
 682              	SD1:
 683 0000 00000000 		.space	124
ARM GAS  /tmp/ccZwNDqj.s 			page 13


 683      00000000 
 683      00000000 
 683      00000000 
 683      00000000 
 684              		.text
 685              	.Letext0:
 686              		.file 5 "/nfs/nfs5/home/research/hardware/arm2/gcc-arm-embedded/gcc-arm-none-eabi-4_8-2014q2/lib/g
 687              		.file 6 "/nfs/nfs5/home/research/hardware/arm2/gcc-arm-embedded/gcc-arm-none-eabi-4_8-2014q2/arm-n
 688              		.file 7 "/nfs/nfs5/home/research/hardware/arm2/gcc-arm-embedded/gcc-arm-none-eabi-4_8-2014q2/arm-n
 689              		.file 8 "../ChibiOS/os/rt/ports/ARMCMx/compilers/GCC/chtypes.h"
 690              		.file 9 "../ChibiOS/os/rt/include/chsystypes.h"
 691              		.file 10 "../ChibiOS/os/rt/include/chschd.h"
 692              		.file 11 "../ChibiOS/os/ext/CMSIS/ST/stm32f303xc.h"
 693              		.file 12 "../ChibiOS/os/rt/ports/ARMCMx/chcore.h"
 694              		.file 13 "../ChibiOS/os/rt/ports/ARMCMx/chcore_v7m.h"
 695              		.file 14 "../ChibiOS/os/rt/include/chtm.h"
 696              		.file 15 "../ChibiOS/os/rt/include/chmtx.h"
 697              		.file 16 "../ChibiOS/os/rt/include/chevents.h"
 698              		.file 17 "../ChibiOS/os/hal/include/serial.h"
 699              		.file 18 "../ChibiOS/os/hal/ports/STM32/LLD/USARTv2/serial_lld.h"
 700              		.file 19 "../ChibiOS/os/rt/include/chsys.h"
 701              		.file 20 "../ChibiOS/os/hal/ports/common/ARMCMx/nvic.h"
 702              		.file 21 "../ChibiOS/os/ext/CMSIS/include/core_cm4.h"