ARM GAS  /tmp/ccZwNDqj.s 			page 1


   1              		.syntax unified
   2              		.cpu cortex-m4
   3              		.fpu softvfp
   4              		.eabi_attribute 20, 1
   5              		.eabi_attribute 21, 1
   6              		.eabi_attribute 23, 3
   7              		.eabi_attribute 24, 1
   8              		.eabi_attribute 25, 1
   9              		.eabi_attribute 26, 1
  10              		.eabi_attribute 30, 2
  11              		.eabi_attribute 34, 1
  12              		.eabi_attribute 18, 4
  13              		.thumb
  14              		.file	"serial_lld.c"
  15              		.text
  16              	.Ltext0:
  17              		.cfi_sections	.debug_frame
  18              		.section	.text.notify1,"ax",%progbits
  19              		.align	2
  20              		.p2align 4,,15
  21              		.thumb
  22              		.thumb_func
  23              		.type	notify1, %function
  24              	notify1:
  25              	.LFB259:
  26              		.file 1 "../ChibiOS/os/hal/ports/STM32/LLD/USARTv2/serial_lld.c"
  27              		.loc 1 198 0
  28              		.cfi_startproc
  29              		@ args = 0, pretend = 0, frame = 0
  30              		@ frame_needed = 0, uses_anonymous_args = 0
  31              		@ link register save eliminated.
  32              	.LVL0:
  33              		.loc 1 201 0
  34 0000 024B     		ldr	r3, .L2
  35 0002 1A68     		ldr	r2, [r3]
  36 0004 42F08002 		orr	r2, r2, #128
  37 0008 1A60     		str	r2, [r3]
  38 000a 7047     		bx	lr
  39              	.L3:
  40              		.align	2
  41              	.L2:
  42 000c 00380140 		.word	1073821696
  43              		.cfi_endproc
  44              	.LFE259:
  45              		.size	notify1, .-notify1
  46              		.section	.text.VectorD4,"ax",%progbits
  47              		.align	2
  48              		.p2align 4,,15
  49              		.global	VectorD4
  50              		.thumb
  51              		.thumb_func
  52              		.type	VectorD4, %function
  53              	VectorD4:
  54              	.LFB260:
  55              		.loc 1 258 0
  56              		.cfi_startproc
  57              		@ args = 0, pretend = 0, frame = 0
ARM GAS  /tmp/ccZwNDqj.s 			page 2


  58              		@ frame_needed = 0, uses_anonymous_args = 0
  59              	.LVL1:
  60 0000 F8B5     		push	{r3, r4, r5, r6, r7, lr}
  61              		.cfi_def_cfa_offset 24
  62              		.cfi_offset 3, -24
  63              		.cfi_offset 4, -20
  64              		.cfi_offset 5, -16
  65              		.cfi_offset 6, -12
  66              		.cfi_offset 7, -8
  67              		.cfi_offset 14, -4
  68              	.LBB267:
  69              	.LBB268:
  70              		.loc 1 147 0
  71 0002 3B4E     		ldr	r6, .L53
  72 0004 756F     		ldr	r5, [r6, #116]
  73              	.LVL2:
  74              		.loc 1 148 0
  75 0006 2F68     		ldr	r7, [r5]
  76              	.LVL3:
  77              		.loc 1 152 0
  78 0008 EC69     		ldr	r4, [r5, #28]
  79              	.LVL4:
  80              		.loc 1 153 0
  81 000a 2C62     		str	r4, [r5, #32]
  82              		.loc 1 156 0
  83 000c 2207     		lsls	r2, r4, #28
  84 000e 33D1     		bne	.L47
  85              	.L5:
  86              		.loc 1 160 0
  87 0010 E305     		lsls	r3, r4, #23
  88 0012 25D4     		bmi	.L48
  89              	.L10:
  90              		.loc 1 167 0
  91 0014 A006     		lsls	r0, r4, #26
  92 0016 17D4     		bmi	.L49
  93              	.L11:
  94              		.loc 1 174 0
  95 0018 3906     		lsls	r1, r7, #24
  96 001a 01D5     		bpl	.L12
  97 001c 2206     		lsls	r2, r4, #24
  98 001e 46D4     		bmi	.L50
  99              	.L12:
 100              		.loc 1 188 0
 101 0020 6306     		lsls	r3, r4, #25
 102 0022 0DD5     		bpl	.L15
 103              	.LVL5:
 104              	.LBB269:
 105              	.LBB270:
 106              	.LBB271:
 107              	.LBB272:
 108              	.LBB273:
 109              	.LBB274:
 110              		.file 2 "../ChibiOS/os/ext/CMSIS/include/core_cmFunc.h"
 111              		.loc 2 546 0
 112 0024 2023     		movs	r3, #32
 113              	@ 546 "../ChibiOS/os/ext/CMSIS/include/core_cmFunc.h" 1
 114 0026 83F31188 		MSR basepri, r3
ARM GAS  /tmp/ccZwNDqj.s 			page 3


 115              	@ 0 "" 2
 116              	.LVL6:
 117              		.thumb
 118              	.LBE274:
 119              	.LBE273:
 120              	.LBE272:
 121              	.LBE271:
 122              	.LBE270:
 123              	.LBE269:
 124              	.LBB275:
 125              	.LBB276:
 126              		.file 3 "../ChibiOS/os/rt/include/chqueues.h"
 127              		.loc 3 387 0
 128 002a 726C     		ldr	r2, [r6, #68]
 129 002c B36C     		ldr	r3, [r6, #72]
 130 002e 3048     		ldr	r0, .L53
 131 0030 9A42     		cmp	r2, r3
 132 0032 4AD0     		beq	.L51
 133              	.L16:
 134              	.LBE276:
 135              	.LBE275:
 136              		.loc 1 192 0
 137 0034 27F04007 		bic	r7, r7, #64
 138              	.LVL7:
 139 0038 2F60     		str	r7, [r5]
 140              	.LVL8:
 141              	.LBB278:
 142              	.LBB279:
 143              	.LBB280:
 144              	.LBB281:
 145              	.LBB282:
 146              	.LBB283:
 147              		.loc 2 546 0
 148 003a 0023     		movs	r3, #0
 149              	@ 546 "../ChibiOS/os/ext/CMSIS/include/core_cmFunc.h" 1
 150 003c 83F31188 		MSR basepri, r3
 151              	@ 0 "" 2
 152              	.LVL9:
 153              		.thumb
 154              	.L15:
 155              	.LBE283:
 156              	.LBE282:
 157              	.LBE281:
 158              	.LBE280:
 159              	.LBE279:
 160              	.LBE278:
 161              	.LBE268:
 162              	.LBE267:
 163              		.loc 1 265 0
 164 0040 BDE8F840 		pop	{r3, r4, r5, r6, r7, lr}
 165              	.LVL10:
 166              		.loc 1 264 0
 167 0044 FFF7FEBF 		b	_port_irq_epilogue
 168              	.LVL11:
 169              	.L49:
 170              	.LBB346:
 171              	.LBB345:
ARM GAS  /tmp/ccZwNDqj.s 			page 4


 172              	.LBB284:
 173              	.LBB285:
 174              	.LBB286:
 175              	.LBB287:
 176              	.LBB288:
 177              	.LBB289:
 178              		.loc 2 546 0
 179 0048 2023     		movs	r3, #32
 180              	@ 546 "../ChibiOS/os/ext/CMSIS/include/core_cmFunc.h" 1
 181 004a 83F31188 		MSR basepri, r3
 182              	@ 0 "" 2
 183              		.thumb
 184              	.LBE289:
 185              	.LBE288:
 186              	.LBE287:
 187              	.LBE286:
 188              	.LBE285:
 189              	.LBE284:
 190              		.loc 1 169 0
 191 004e A98C     		ldrh	r1, [r5, #36]
 192 0050 2748     		ldr	r0, .L53
 193 0052 C9B2     		uxtb	r1, r1
 194 0054 FFF7FEFF 		bl	sdIncomingDataI
 195              	.LVL12:
 196              	.LBB290:
 197              	.LBB291:
 198              	.LBB292:
 199              	.LBB293:
 200              	.LBB294:
 201              	.LBB295:
 202              		.loc 2 546 0
 203 0058 0023     		movs	r3, #0
 204              	@ 546 "../ChibiOS/os/ext/CMSIS/include/core_cmFunc.h" 1
 205 005a 83F31188 		MSR basepri, r3
 206              	@ 0 "" 2
 207              		.thumb
 208 005e DBE7     		b	.L11
 209              	.LVL13:
 210              	.L48:
 211              	.LBE295:
 212              	.LBE294:
 213              	.LBE293:
 214              	.LBE292:
 215              	.LBE291:
 216              	.LBE290:
 217              	.LBB296:
 218              	.LBB297:
 219              	.LBB298:
 220              	.LBB299:
 221              	.LBB300:
 222              	.LBB301:
 223 0060 2023     		movs	r3, #32
 224              	@ 546 "../ChibiOS/os/ext/CMSIS/include/core_cmFunc.h" 1
 225 0062 83F31188 		MSR basepri, r3
 226              	@ 0 "" 2
 227              	.LVL14:
 228              		.thumb
ARM GAS  /tmp/ccZwNDqj.s 			page 5


 229              	.LBE301:
 230              	.LBE300:
 231              	.LBE299:
 232              	.LBE298:
 233              	.LBE297:
 234              	.LBE296:
 235              	.LBB302:
 236              	.LBB303:
 237              		.file 4 "../ChibiOS/os/hal/osal/rt/osal.h"
 238              		.loc 4 776 0
 239 0066 2348     		ldr	r0, .L53+4
 240 0068 4FF40071 		mov	r1, #512
 241 006c FFF7FEFF 		bl	chEvtBroadcastFlagsI
 242              	.LVL15:
 243              	.LBE303:
 244              	.LBE302:
 245              	.LBB304:
 246              	.LBB305:
 247              	.LBB306:
 248              	.LBB307:
 249              	.LBB308:
 250              	.LBB309:
 251              		.loc 2 546 0
 252 0070 0023     		movs	r3, #0
 253              	@ 546 "../ChibiOS/os/ext/CMSIS/include/core_cmFunc.h" 1
 254 0072 83F31188 		MSR basepri, r3
 255              	@ 0 "" 2
 256              		.thumb
 257 0076 CDE7     		b	.L10
 258              	.LVL16:
 259              	.L47:
 260              	.LBE309:
 261              	.LBE308:
 262              	.LBE307:
 263              	.LBE306:
 264              	.LBE305:
 265              	.LBE304:
 266              	.LBB310:
 267              	.LBB311:
 268              		.loc 1 126 0
 269 0078 14F0080F 		tst	r4, #8
 270 007c 14BF     		ite	ne
 271 007e 8021     		movne	r1, #128
 272 0080 0021     		moveq	r1, #0
 273              	.LVL17:
 274              		.loc 1 130 0
 275 0082 E307     		lsls	r3, r4, #31
 276              		.loc 1 131 0
 277 0084 48BF     		it	mi
 278 0086 41F02001 		orrmi	r1, r1, #32
 279              	.LVL18:
 280              		.loc 1 132 0
 281 008a A007     		lsls	r0, r4, #30
 282              		.loc 1 133 0
 283 008c 48BF     		it	mi
 284 008e 41F04001 		orrmi	r1, r1, #64
 285              	.LVL19:
ARM GAS  /tmp/ccZwNDqj.s 			page 6


 286              		.loc 1 134 0
 287 0092 6207     		lsls	r2, r4, #29
 288              		.loc 1 135 0
 289 0094 48BF     		it	mi
 290 0096 41F48071 		orrmi	r1, r1, #256
 291              	.LVL20:
 292              	.LBB312:
 293              	.LBB313:
 294              	.LBB314:
 295              	.LBB315:
 296              	.LBB316:
 297              	.LBB317:
 298              		.loc 2 546 0
 299 009a 2023     		movs	r3, #32
 300              	@ 546 "../ChibiOS/os/ext/CMSIS/include/core_cmFunc.h" 1
 301 009c 83F31188 		MSR basepri, r3
 302              	@ 0 "" 2
 303              	.LVL21:
 304              		.thumb
 305              	.LBE317:
 306              	.LBE316:
 307              	.LBE315:
 308              	.LBE314:
 309              	.LBE313:
 310              	.LBE312:
 311              	.LBB318:
 312              	.LBB319:
 313              		.loc 4 776 0
 314 00a0 1448     		ldr	r0, .L53+4
 315 00a2 FFF7FEFF 		bl	chEvtBroadcastFlagsI
 316              	.LVL22:
 317              	.LBE319:
 318              	.LBE318:
 319              	.LBB320:
 320              	.LBB321:
 321              	.LBB322:
 322              	.LBB323:
 323              	.LBB324:
 324              	.LBB325:
 325              		.loc 2 546 0
 326 00a6 0023     		movs	r3, #0
 327              	@ 546 "../ChibiOS/os/ext/CMSIS/include/core_cmFunc.h" 1
 328 00a8 83F31188 		MSR basepri, r3
 329              	@ 0 "" 2
 330              		.thumb
 331 00ac B0E7     		b	.L5
 332              	.LVL23:
 333              	.L50:
 334              	.LBE325:
 335              	.LBE324:
 336              	.LBE323:
 337              	.LBE322:
 338              	.LBE321:
 339              	.LBE320:
 340              	.LBE311:
 341              	.LBE310:
 342              	.LBB326:
ARM GAS  /tmp/ccZwNDqj.s 			page 7


 343              	.LBB327:
 344              	.LBB328:
 345              	.LBB329:
 346              	.LBB330:
 347              	.LBB331:
 348              	.LBB332:
 349 00ae 2023     		movs	r3, #32
 350              	@ 546 "../ChibiOS/os/ext/CMSIS/include/core_cmFunc.h" 1
 351 00b0 83F31188 		MSR basepri, r3
 352              	@ 0 "" 2
 353              		.thumb
 354              	.LBE332:
 355              	.LBE331:
 356              	.LBE330:
 357              	.LBE329:
 358              	.LBE328:
 359              	.LBE327:
 360              		.loc 1 177 0
 361 00b4 1048     		ldr	r0, .L53+8
 362 00b6 FFF7FEFF 		bl	chOQGetI
 363              	.LVL24:
 364              		.loc 1 178 0
 365 00ba 0028     		cmp	r0, #0
 366 00bc 0DDB     		blt	.L52
 367              		.loc 1 183 0
 368 00be 80B2     		uxth	r0, r0
 369              	.LVL25:
 370 00c0 2885     		strh	r0, [r5, #40]	@ movhi
 371              	.L14:
 372              	.LVL26:
 373              	.LBB333:
 374              	.LBB334:
 375              	.LBB335:
 376              	.LBB336:
 377              	.LBB337:
 378              	.LBB338:
 379              		.loc 2 546 0
 380 00c2 0023     		movs	r3, #0
 381              	@ 546 "../ChibiOS/os/ext/CMSIS/include/core_cmFunc.h" 1
 382 00c4 83F31188 		MSR basepri, r3
 383              	@ 0 "" 2
 384              		.thumb
 385 00c8 AAE7     		b	.L12
 386              	.LVL27:
 387              	.L51:
 388              	.LBE338:
 389              	.LBE337:
 390              	.LBE336:
 391              	.LBE335:
 392              	.LBE334:
 393              	.LBE333:
 394              	.LBE326:
 395              	.LBB341:
 396              	.LBB277:
 397              		.loc 3 387 0
 398 00ca 836B     		ldr	r3, [r0, #56]
 399 00cc 002B     		cmp	r3, #0
ARM GAS  /tmp/ccZwNDqj.s 			page 8


 400 00ce B1D0     		beq	.L16
 401              	.LVL28:
 402              	.LBE277:
 403              	.LBE341:
 404              	.LBB342:
 405              	.LBB343:
 406              		.loc 4 776 0
 407 00d0 0430     		adds	r0, r0, #4
 408 00d2 1021     		movs	r1, #16
 409 00d4 FFF7FEFF 		bl	chEvtBroadcastFlagsI
 410              	.LVL29:
 411 00d8 ACE7     		b	.L16
 412              	.LVL30:
 413              	.L52:
 414              	.LBE343:
 415              	.LBE342:
 416              	.LBB344:
 417              	.LBB339:
 418              	.LBB340:
 419 00da 0648     		ldr	r0, .L53+4
 420              	.LVL31:
 421 00dc 0821     		movs	r1, #8
 422 00de FFF7FEFF 		bl	chEvtBroadcastFlagsI
 423              	.LVL32:
 424              	.LBE340:
 425              	.LBE339:
 426              		.loc 1 180 0
 427 00e2 27F0C003 		bic	r3, r7, #192
 428 00e6 43F04003 		orr	r3, r3, #64
 429 00ea 2B60     		str	r3, [r5]
 430 00ec E9E7     		b	.L14
 431              	.L54:
 432 00ee 00BF     		.align	2
 433              	.L53:
 434 00f0 00000000 		.word	.LANCHOR0
 435 00f4 04000000 		.word	.LANCHOR0+4
 436 00f8 30000000 		.word	.LANCHOR0+48
 437              	.LBE344:
 438              	.LBE345:
 439              	.LBE346:
 440              		.cfi_endproc
 441              	.LFE260:
 442              		.size	VectorD4, .-VectorD4
 443 00fc AFF30080 		.section	.text.sd_lld_init,"ax",%progbits
 444              		.align	2
 445              		.p2align 4,,15
 446              		.global	sd_lld_init
 447              		.thumb
 448              		.thumb_func
 449              		.type	sd_lld_init, %function
 450              	sd_lld_init:
 451              	.LFB261:
 452              		.loc 1 372 0
 453              		.cfi_startproc
 454              		@ args = 0, pretend = 0, frame = 0
 455              		@ frame_needed = 0, uses_anonymous_args = 0
 456 0000 10B5     		push	{r4, lr}
ARM GAS  /tmp/ccZwNDqj.s 			page 9


 457              		.cfi_def_cfa_offset 8
 458              		.cfi_offset 4, -8
 459              		.cfi_offset 14, -4
 460              		.loc 1 375 0
 461 0002 054C     		ldr	r4, .L56
 462 0004 054A     		ldr	r2, .L56+4
 463 0006 2046     		mov	r0, r4
 464 0008 0021     		movs	r1, #0
 465 000a FFF7FEFF 		bl	sdObjectInit
 466              	.LVL33:
 467              		.loc 1 376 0
 468 000e 044A     		ldr	r2, .L56+8
 469              		.loc 1 377 0
 470 0010 044B     		ldr	r3, .L56+12
 471              		.loc 1 376 0
 472 0012 6267     		str	r2, [r4, #116]
 473              		.loc 1 377 0
 474 0014 A367     		str	r3, [r4, #120]
 475 0016 10BD     		pop	{r4, pc}
 476              	.L57:
 477              		.align	2
 478              	.L56:
 479 0018 00000000 		.word	.LANCHOR0
 480 001c 00000000 		.word	notify1
 481 0020 00380140 		.word	1073821696
 482 0024 00512502 		.word	36000000
 483              		.cfi_endproc
 484              	.LFE261:
 485              		.size	sd_lld_init, .-sd_lld_init
 486 0028 AFF30080 		.section	.text.sd_lld_start,"ax",%progbits
 486      AFF30080 
 487              		.align	2
 488              		.p2align 4,,15
 489              		.global	sd_lld_start
 490              		.thumb
 491              		.thumb_func
 492              		.type	sd_lld_start, %function
 493              	sd_lld_start:
 494              	.LFB262:
 495              		.loc 1 421 0
 496              		.cfi_startproc
 497              		@ args = 0, pretend = 0, frame = 0
 498              		@ frame_needed = 0, uses_anonymous_args = 0
 499              	.LVL34:
 500 0000 F8B5     		push	{r3, r4, r5, r6, r7, lr}
 501              		.cfi_def_cfa_offset 24
 502              		.cfi_offset 3, -24
 503              		.cfi_offset 4, -20
 504              		.cfi_offset 5, -16
 505              		.cfi_offset 6, -12
 506              		.cfi_offset 7, -8
 507              		.cfi_offset 14, -4
 508              		.loc 1 424 0
 509 0002 174C     		ldr	r4, .L63
 510              		.loc 1 426 0
 511 0004 037A     		ldrb	r3, [r0, #8]	@ zero_extendqisi2
 512              		.loc 1 424 0
ARM GAS  /tmp/ccZwNDqj.s 			page 10


 513 0006 0029     		cmp	r1, #0
 514 0008 18BF     		it	ne
 515 000a 0C46     		movne	r4, r1
 516              	.LVL35:
 517              		.loc 1 426 0
 518 000c 012B     		cmp	r3, #1
 519              		.loc 1 421 0
 520 000e 0546     		mov	r5, r0
 521              		.loc 1 426 0
 522 0010 18D0     		beq	.L62
 523              	.LVL36:
 524              	.L60:
 525              	.LBB347:
 526              	.LBB348:
 527              		.loc 1 95 0
 528 0012 2668     		ldr	r6, [r4]
 529              		.loc 1 101 0
 530 0014 6268     		ldr	r2, [r4, #4]
 531              		.loc 1 95 0
 532 0016 AF6F     		ldr	r7, [r5, #120]
 533              		.loc 1 98 0
 534 0018 A168     		ldr	r1, [r4, #8]
 535              		.loc 1 99 0
 536 001a E068     		ldr	r0, [r4, #12]
 537              	.LBE348:
 538              	.LBE347:
 539              		.loc 1 421 0
 540 001c 6B6F     		ldr	r3, [r5, #116]
 541              	.LVL37:
 542              	.LBB350:
 543              	.LBB349:
 544              		.loc 1 101 0
 545 001e 42F49672 		orr	r2, r2, #300
 546              		.loc 1 95 0
 547 0022 B7FBF6F5 		udiv	r5, r7, r6
 548              	.LVL38:
 549              		.loc 1 98 0
 550 0026 41F04004 		orr	r4, r1, #64
 551              	.LVL39:
 552              		.loc 1 95 0
 553 002a ADB2     		uxth	r5, r5
 554              		.loc 1 99 0
 555 002c 40F00100 		orr	r0, r0, #1
 556              		.loc 1 101 0
 557 0030 42F00102 		orr	r2, r2, #1
 558              		.loc 1 103 0
 559 0034 4FF0FF31 		mov	r1, #-1
 560              		.loc 1 95 0
 561 0038 DD60     		str	r5, [r3, #12]
 562              		.loc 1 98 0
 563 003a 5C60     		str	r4, [r3, #4]
 564              		.loc 1 99 0
 565 003c 9860     		str	r0, [r3, #8]
 566              		.loc 1 100 0
 567 003e 1A60     		str	r2, [r3]
 568              		.loc 1 103 0
 569 0040 1962     		str	r1, [r3, #32]
ARM GAS  /tmp/ccZwNDqj.s 			page 11


 570 0042 F8BD     		pop	{r3, r4, r5, r6, r7, pc}
 571              	.LVL40:
 572              	.L62:
 573              	.LBE349:
 574              	.LBE350:
 575              		.loc 1 428 0
 576 0044 074B     		ldr	r3, .L63+4
 577 0046 9842     		cmp	r0, r3
 578 0048 E3D1     		bne	.L60
 579              		.loc 1 429 0
 580 004a 074B     		ldr	r3, .L63+8
 581 004c 9A69     		ldr	r2, [r3, #24]
 582 004e 42F48042 		orr	r2, r2, #16384
 583 0052 9A61     		str	r2, [r3, #24]
 584              		.loc 1 430 0
 585 0054 2520     		movs	r0, #37
 586              	.LVL41:
 587 0056 0C21     		movs	r1, #12
 588 0058 FFF7FEFF 		bl	nvicEnableVector
 589              	.LVL42:
 590 005c D9E7     		b	.L60
 591              	.L64:
 592 005e 00BF     		.align	2
 593              	.L63:
 594 0060 00000000 		.word	.LANCHOR1
 595 0064 00000000 		.word	.LANCHOR0
 596 0068 00100240 		.word	1073876992
 597              		.cfi_endproc
 598              	.LFE262:
 599              		.size	sd_lld_start, .-sd_lld_start
 600 006c AFF30080 		.section	.text.sd_lld_stop,"ax",%progbits
 601              		.align	2
 602              		.p2align 4,,15
 603              		.global	sd_lld_stop
 604              		.thumb
 605              		.thumb_func
 606              		.type	sd_lld_stop, %function
 607              	sd_lld_stop:
 608              	.LFB263:
 609              		.loc 1 476 0
 610              		.cfi_startproc
 611              		@ args = 0, pretend = 0, frame = 0
 612              		@ frame_needed = 0, uses_anonymous_args = 0
 613              		@ link register save eliminated.
 614              	.LVL43:
 615              		.loc 1 478 0
 616 0000 037A     		ldrb	r3, [r0, #8]	@ zero_extendqisi2
 617 0002 022B     		cmp	r3, #2
 618 0004 00D0     		beq	.L69
 619              	.L65:
 620 0006 7047     		bx	lr
 621              	.L69:
 622              		.loc 1 481 0
 623 0008 0749     		ldr	r1, .L70
 624              		.loc 1 479 0
 625 000a 436F     		ldr	r3, [r0, #116]
 626              	.LVL44:
ARM GAS  /tmp/ccZwNDqj.s 			page 12


 627              	.LBB351:
 628              	.LBB352:
 629              		.loc 1 114 0
 630 000c 0022     		movs	r2, #0
 631              	.LBE352:
 632              	.LBE351:
 633              		.loc 1 481 0
 634 000e 8842     		cmp	r0, r1
 635              	.LBB354:
 636              	.LBB353:
 637              		.loc 1 114 0
 638 0010 1A60     		str	r2, [r3]
 639              		.loc 1 115 0
 640 0012 5A60     		str	r2, [r3, #4]
 641              		.loc 1 116 0
 642 0014 9A60     		str	r2, [r3, #8]
 643              	.LBE353:
 644              	.LBE354:
 645              		.loc 1 481 0
 646 0016 F6D1     		bne	.L65
 647              		.loc 1 482 0
 648 0018 044B     		ldr	r3, .L70+4
 649              	.LVL45:
 650 001a 9A69     		ldr	r2, [r3, #24]
 651 001c 22F48042 		bic	r2, r2, #16384
 652 0020 9A61     		str	r2, [r3, #24]
 653              		.loc 1 483 0
 654 0022 2520     		movs	r0, #37
 655              	.LVL46:
 656 0024 FFF7FEBF 		b	nvicDisableVector
 657              	.LVL47:
 658              	.L71:
 659              		.align	2
 660              	.L70:
 661 0028 00000000 		.word	.LANCHOR0
 662 002c 00100240 		.word	1073876992
 663              		.cfi_endproc
 664              	.LFE263:
 665              		.size	sd_lld_stop, .-sd_lld_stop
 666              		.global	SD1
 667              		.section	.rodata.default_config,"a",%progbits
 668              		.align	2
 669              		.set	.LANCHOR1,. + 0
 670              		.type	default_config, %object
 671              		.size	default_config, 16
 672              	default_config:
 673 0000 80250000 		.word	9600
 674 0004 00000000 		.word	0
 675 0008 00400000 		.word	16384
 676 000c 00000000 		.word	0
 677              		.section	.bss.SD1,"aw",%nobits
 678              		.align	2
 679              		.set	.LANCHOR0,. + 0
 680              		.type	SD1, %object
 681              		.size	SD1, 124
 682              	SD1:
 683 0000 00000000 		.space	124
ARM GAS  /tmp/ccZwNDqj.s 			page 13


 683      00000000 
 683      00000000 
 683      00000000 
 683      00000000 
 684              		.text
 685              	.Letext0:
 686              		.file 5 "/nfs/nfs5/home/research/hardware/arm2/gcc-arm-embedded/gcc-arm-none-eabi-4_8-2014q2/lib/g
 687              		.file 6 "/nfs/nfs5/home/research/hardware/arm2/gcc-arm-embedded/gcc-arm-none-eabi-4_8-2014q2/arm-n
 688              		.file 7 "/nfs/nfs5/home/research/hardware/arm2/gcc-arm-embedded/gcc-arm-none-eabi-4_8-2014q2/arm-n
 689              		.file 8 "../ChibiOS/os/rt/ports/ARMCMx/compilers/GCC/chtypes.h"
 690              		.file 9 "../ChibiOS/os/rt/include/chsystypes.h"
 691              		.file 10 "../ChibiOS/os/rt/include/chschd.h"
 692              		.file 11 "../ChibiOS/os/ext/CMSIS/ST/stm32f303xc.h"
 693              		.file 12 "../ChibiOS/os/rt/ports/ARMCMx/chcore.h"
 694              		.file 13 "../ChibiOS/os/rt/ports/ARMCMx/chcore_v7m.h"
 695              		.file 14 "../ChibiOS/os/rt/include/chtm.h"
 696              		.file 15 "../ChibiOS/os/rt/include/chmtx.h"
 697              		.file 16 "../ChibiOS/os/rt/include/chevents.h"
 698              		.file 17 "../ChibiOS/os/hal/include/serial.h"
 699              		.file 18 "../ChibiOS/os/hal/ports/STM32/LLD/USARTv2/serial_lld.h"
 700              		.file 19 "../ChibiOS/os/rt/include/chsys.h"
 701              		.file 20 "../ChibiOS/os/hal/ports/common/ARMCMx/nvic.h"
 702              		.file 21 "../ChibiOS/os/ext/CMSIS/include/core_cm4.h"
 703              		.section	.debug_info,"",%progbits
 704              	.Ldebug_info0:
 705 0000 F9140000 		.4byte	0x14f9
 706 0004 0400     		.2byte	0x4
 707 0006 00000000 		.4byte	.Ldebug_abbrev0
 708 000a 04       		.byte	0x4
 709 000b 01       		.uleb128 0x1
 710 000c A0060000 		.4byte	.LASF183
 711 0010 01       		.byte	0x1
 712 0011 A8020000 		.4byte	.LASF184
 713 0015 E2010000 		.4byte	.LASF185
 714 0019 78000000 		.4byte	.Ldebug_ranges0+0x78
 715 001d 00000000 		.4byte	0
 716 0021 00000000 		.4byte	.Ldebug_line0
 717 0025 02       		.uleb128 0x2
 718 0026 04       		.byte	0x4
 719 0027 05       		.byte	0x5
 720 0028 696E7400 		.ascii	"int\000"
 721 002c 03       		.uleb128 0x3
 722 002d 0D000000 		.4byte	.LASF2
 723 0031 05       		.byte	0x5
 724 0032 D4       		.byte	0xd4
 725 0033 37000000 		.4byte	0x37
 726 0037 04       		.uleb128 0x4
 727 0038 04       		.byte	0x4
 728 0039 07       		.byte	0x7
 729 003a E5020000 		.4byte	.LASF0
 730 003e 04       		.uleb128 0x4
 731 003f 01       		.byte	0x1
 732 0040 06       		.byte	0x6
 733 0041 36010000 		.4byte	.LASF1
 734 0045 03       		.uleb128 0x3
 735 0046 24000000 		.4byte	.LASF3
 736 004a 06       		.byte	0x6
ARM GAS  /tmp/ccZwNDqj.s 			page 14


 737 004b 1C       		.byte	0x1c
 738 004c 50000000 		.4byte	0x50
 739 0050 04       		.uleb128 0x4
 740 0051 01       		.byte	0x1
 741 0052 08       		.byte	0x8
 742 0053 2A050000 		.4byte	.LASF4
 743 0057 04       		.uleb128 0x4
 744 0058 02       		.byte	0x2
 745 0059 05       		.byte	0x5
 746 005a 7D050000 		.4byte	.LASF5
 747 005e 03       		.uleb128 0x3
 748 005f 77060000 		.4byte	.LASF6
 749 0063 06       		.byte	0x6
 750 0064 26       		.byte	0x26
 751 0065 69000000 		.4byte	0x69
 752 0069 04       		.uleb128 0x4
 753 006a 02       		.byte	0x2
 754 006b 07       		.byte	0x7
 755 006c 3C030000 		.4byte	.LASF7
 756 0070 03       		.uleb128 0x3
 757 0071 B2000000 		.4byte	.LASF8
 758 0075 06       		.byte	0x6
 759 0076 37       		.byte	0x37
 760 0077 7B000000 		.4byte	0x7b
 761 007b 04       		.uleb128 0x4
 762 007c 04       		.byte	0x4
 763 007d 05       		.byte	0x5
 764 007e 91010000 		.4byte	.LASF9
 765 0082 03       		.uleb128 0x3
 766 0083 9F070000 		.4byte	.LASF10
 767 0087 06       		.byte	0x6
 768 0088 38       		.byte	0x38
 769 0089 8D000000 		.4byte	0x8d
 770 008d 04       		.uleb128 0x4
 771 008e 04       		.byte	0x4
 772 008f 07       		.byte	0x7
 773 0090 44060000 		.4byte	.LASF11
 774 0094 04       		.uleb128 0x4
 775 0095 08       		.byte	0x8
 776 0096 05       		.byte	0x5
 777 0097 28010000 		.4byte	.LASF12
 778 009b 03       		.uleb128 0x3
 779 009c B0040000 		.4byte	.LASF13
 780 00a0 06       		.byte	0x6
 781 00a1 4E       		.byte	0x4e
 782 00a2 A6000000 		.4byte	0xa6
 783 00a6 04       		.uleb128 0x4
 784 00a7 08       		.byte	0x8
 785 00a8 07       		.byte	0x7
 786 00a9 6E000000 		.4byte	.LASF14
 787 00ad 03       		.uleb128 0x3
 788 00ae 95080000 		.4byte	.LASF15
 789 00b2 07       		.byte	0x7
 790 00b3 2A       		.byte	0x2a
 791 00b4 45000000 		.4byte	0x45
 792 00b8 03       		.uleb128 0x3
 793 00b9 FA020000 		.4byte	.LASF16
ARM GAS  /tmp/ccZwNDqj.s 			page 15


 794 00bd 07       		.byte	0x7
 795 00be 36       		.byte	0x36
 796 00bf 5E000000 		.4byte	0x5e
 797 00c3 03       		.uleb128 0x3
 798 00c4 22050000 		.4byte	.LASF17
 799 00c8 07       		.byte	0x7
 800 00c9 41       		.byte	0x41
 801 00ca 70000000 		.4byte	0x70
 802 00ce 03       		.uleb128 0x3
 803 00cf FB050000 		.4byte	.LASF18
 804 00d3 07       		.byte	0x7
 805 00d4 42       		.byte	0x42
 806 00d5 82000000 		.4byte	0x82
 807 00d9 03       		.uleb128 0x3
 808 00da 1B000000 		.4byte	.LASF19
 809 00de 07       		.byte	0x7
 810 00df 4E       		.byte	0x4e
 811 00e0 9B000000 		.4byte	0x9b
 812 00e4 05       		.uleb128 0x5
 813 00e5 B8000000 		.4byte	0xb8
 814 00e9 05       		.uleb128 0x5
 815 00ea C3000000 		.4byte	0xc3
 816 00ee 05       		.uleb128 0x5
 817 00ef CE000000 		.4byte	0xce
 818 00f3 03       		.uleb128 0x3
 819 00f4 02080000 		.4byte	.LASF20
 820 00f8 08       		.byte	0x8
 821 00f9 45       		.byte	0x45
 822 00fa CE000000 		.4byte	0xce
 823 00fe 03       		.uleb128 0x3
 824 00ff 95050000 		.4byte	.LASF21
 825 0103 08       		.byte	0x8
 826 0104 48       		.byte	0x48
 827 0105 AD000000 		.4byte	0xad
 828 0109 03       		.uleb128 0x3
 829 010a A3010000 		.4byte	.LASF22
 830 010e 08       		.byte	0x8
 831 010f 49       		.byte	0x49
 832 0110 AD000000 		.4byte	0xad
 833 0114 03       		.uleb128 0x3
 834 0115 C3040000 		.4byte	.LASF23
 835 0119 08       		.byte	0x8
 836 011a 4A       		.byte	0x4a
 837 011b AD000000 		.4byte	0xad
 838 011f 03       		.uleb128 0x3
 839 0120 F6040000 		.4byte	.LASF24
 840 0124 08       		.byte	0x8
 841 0125 4C       		.byte	0x4c
 842 0126 CE000000 		.4byte	0xce
 843 012a 03       		.uleb128 0x3
 844 012b 63030000 		.4byte	.LASF25
 845 012f 08       		.byte	0x8
 846 0130 4D       		.byte	0x4d
 847 0131 C3000000 		.4byte	0xc3
 848 0135 03       		.uleb128 0x3
 849 0136 B5030000 		.4byte	.LASF26
 850 013a 08       		.byte	0x8
ARM GAS  /tmp/ccZwNDqj.s 			page 16


 851 013b 4F       		.byte	0x4f
 852 013c CE000000 		.4byte	0xce
 853 0140 03       		.uleb128 0x3
 854 0141 3A080000 		.4byte	.LASF27
 855 0145 08       		.byte	0x8
 856 0146 50       		.byte	0x50
 857 0147 CE000000 		.4byte	0xce
 858 014b 03       		.uleb128 0x3
 859 014c 81070000 		.4byte	.LASF28
 860 0150 09       		.byte	0x9
 861 0151 33       		.byte	0x33
 862 0152 CE000000 		.4byte	0xce
 863 0156 03       		.uleb128 0x3
 864 0157 97060000 		.4byte	.LASF29
 865 015b 09       		.byte	0x9
 866 015c 3F       		.byte	0x3f
 867 015d 61010000 		.4byte	0x161
 868 0161 06       		.uleb128 0x6
 869 0162 4F030000 		.4byte	.LASF48
 870 0166 44       		.byte	0x44
 871 0167 0A       		.byte	0xa
 872 0168 BE       		.byte	0xbe
 873 0169 4E020000 		.4byte	0x24e
 874 016d 07       		.uleb128 0x7
 875 016e 4C040000 		.4byte	.LASF30
 876 0172 0A       		.byte	0xa
 877 0173 BF       		.byte	0xbf
 878 0174 AF060000 		.4byte	0x6af
 879 0178 00       		.byte	0
 880 0179 07       		.uleb128 0x7
 881 017a EF040000 		.4byte	.LASF31
 882 017e 0A       		.byte	0xa
 883 017f C1       		.byte	0xc1
 884 0180 AF060000 		.4byte	0x6af
 885 0184 04       		.byte	0x4
 886 0185 07       		.uleb128 0x7
 887 0186 A3080000 		.4byte	.LASF32
 888 018a 0A       		.byte	0xa
 889 018b C3       		.byte	0xc3
 890 018c 1F010000 		.4byte	0x11f
 891 0190 08       		.byte	0x8
 892 0191 07       		.uleb128 0x7
 893 0192 EE080000 		.4byte	.LASF33
 894 0196 0A       		.byte	0xa
 895 0197 C4       		.byte	0xc4
 896 0198 F5050000 		.4byte	0x5f5
 897 019c 0C       		.byte	0xc
 898 019d 07       		.uleb128 0x7
 899 019e 20020000 		.4byte	.LASF34
 900 01a2 0A       		.byte	0xa
 901 01a3 C6       		.byte	0xc6
 902 01a4 AF060000 		.4byte	0x6af
 903 01a8 10       		.byte	0x10
 904 01a9 07       		.uleb128 0x7
 905 01aa 5F040000 		.4byte	.LASF35
 906 01ae 0A       		.byte	0xa
 907 01af C7       		.byte	0xc7
ARM GAS  /tmp/ccZwNDqj.s 			page 17


 908 01b0 AF060000 		.4byte	0x6af
 909 01b4 14       		.byte	0x14
 910 01b5 07       		.uleb128 0x7
 911 01b6 66080000 		.4byte	.LASF36
 912 01ba 0A       		.byte	0xa
 913 01bb CE       		.byte	0xce
 914 01bc ED060000 		.4byte	0x6ed
 915 01c0 18       		.byte	0x18
 916 01c1 07       		.uleb128 0x7
 917 01c2 47010000 		.4byte	.LASF37
 918 01c6 0A       		.byte	0xa
 919 01c7 D9       		.byte	0xd9
 920 01c8 09010000 		.4byte	0x109
 921 01cc 1C       		.byte	0x1c
 922 01cd 07       		.uleb128 0x7
 923 01ce 9D050000 		.4byte	.LASF38
 924 01d2 0A       		.byte	0xa
 925 01d3 DD       		.byte	0xdd
 926 01d4 FE000000 		.4byte	0xfe
 927 01d8 1D       		.byte	0x1d
 928 01d9 07       		.uleb128 0x7
 929 01da B5010000 		.4byte	.LASF39
 930 01de 0A       		.byte	0xa
 931 01df E2       		.byte	0xe2
 932 01e0 14010000 		.4byte	0x114
 933 01e4 1E       		.byte	0x1e
 934 01e5 08       		.uleb128 0x8
 935 01e6 705F7500 		.ascii	"p_u\000"
 936 01ea 0A       		.byte	0xa
 937 01eb 1401     		.2byte	0x114
 938 01ed B5060000 		.4byte	0x6b5
 939 01f1 20       		.byte	0x20
 940 01f2 09       		.uleb128 0x9
 941 01f3 18040000 		.4byte	.LASF40
 942 01f7 0A       		.byte	0xa
 943 01f8 1901     		.2byte	0x119
 944 01fa 4E020000 		.4byte	0x24e
 945 01fe 24       		.byte	0x24
 946 01ff 09       		.uleb128 0x9
 947 0200 1A030000 		.4byte	.LASF41
 948 0204 0A       		.byte	0xa
 949 0205 1F01     		.2byte	0x11f
 950 0207 72020000 		.4byte	0x272
 951 020b 28       		.byte	0x28
 952 020c 09       		.uleb128 0x9
 953 020d FC070000 		.4byte	.LASF42
 954 0211 0A       		.byte	0xa
 955 0212 2301     		.2byte	0x123
 956 0214 2A010000 		.4byte	0x12a
 957 0218 30       		.byte	0x30
 958 0219 09       		.uleb128 0x9
 959 021a E6050000 		.4byte	.LASF43
 960 021e 0A       		.byte	0xa
 961 021f 2901     		.2byte	0x129
 962 0221 35010000 		.4byte	0x135
 963 0225 34       		.byte	0x34
 964 0226 09       		.uleb128 0x9
ARM GAS  /tmp/ccZwNDqj.s 			page 18


 965 0227 73050000 		.4byte	.LASF44
 966 022b 0A       		.byte	0xa
 967 022c 3001     		.2byte	0x130
 968 022e 30070000 		.4byte	0x730
 969 0232 38       		.byte	0x38
 970 0233 09       		.uleb128 0x9
 971 0234 8B070000 		.4byte	.LASF45
 972 0238 0A       		.byte	0xa
 973 0239 3401     		.2byte	0x134
 974 023b 1F010000 		.4byte	0x11f
 975 023f 3C       		.byte	0x3c
 976 0240 09       		.uleb128 0x9
 977 0241 4F010000 		.4byte	.LASF46
 978 0245 0A       		.byte	0xa
 979 0246 3A01     		.2byte	0x13a
 980 0248 25030000 		.4byte	0x325
 981 024c 40       		.byte	0x40
 982 024d 00       		.byte	0
 983 024e 03       		.uleb128 0x3
 984 024f E5030000 		.4byte	.LASF47
 985 0253 09       		.byte	0x9
 986 0254 44       		.byte	0x44
 987 0255 59020000 		.4byte	0x259
 988 0259 06       		.uleb128 0x6
 989 025a 15060000 		.4byte	.LASF49
 990 025e 04       		.byte	0x4
 991 025f 0A       		.byte	0xa
 992 0260 AC       		.byte	0xac
 993 0261 72020000 		.4byte	0x272
 994 0265 07       		.uleb128 0x7
 995 0266 4C040000 		.4byte	.LASF30
 996 026a 0A       		.byte	0xa
 997 026b AD       		.byte	0xad
 998 026c AF060000 		.4byte	0x6af
 999 0270 00       		.byte	0
 1000 0271 00       		.byte	0
 1001 0272 03       		.uleb128 0x3
 1002 0273 B5050000 		.4byte	.LASF50
 1003 0277 09       		.byte	0x9
 1004 0278 4B       		.byte	0x4b
 1005 0279 7D020000 		.4byte	0x27d
 1006 027d 06       		.uleb128 0x6
 1007 027e F2000000 		.4byte	.LASF51
 1008 0282 08       		.byte	0x8
 1009 0283 0A       		.byte	0xa
 1010 0284 B3       		.byte	0xb3
 1011 0285 A2020000 		.4byte	0x2a2
 1012 0289 07       		.uleb128 0x7
 1013 028a 4C040000 		.4byte	.LASF30
 1014 028e 0A       		.byte	0xa
 1015 028f B4       		.byte	0xb4
 1016 0290 AF060000 		.4byte	0x6af
 1017 0294 00       		.byte	0
 1018 0295 07       		.uleb128 0x7
 1019 0296 EF040000 		.4byte	.LASF31
 1020 029a 0A       		.byte	0xa
 1021 029b B5       		.byte	0xb5
ARM GAS  /tmp/ccZwNDqj.s 			page 19


 1022 029c AF060000 		.4byte	0x6af
 1023 02a0 04       		.byte	0x4
 1024 02a1 00       		.byte	0
 1025 02a2 03       		.uleb128 0x3
 1026 02a3 00000000 		.4byte	.LASF52
 1027 02a7 09       		.byte	0x9
 1028 02a8 52       		.byte	0x52
 1029 02a9 AD020000 		.4byte	0x2ad
 1030 02ad 0A       		.uleb128 0xa
 1031 02ae A7030000 		.4byte	.LASF53
 1032 02b2 1C       		.byte	0x1c
 1033 02b3 0A       		.byte	0xa
 1034 02b4 7201     		.2byte	0x172
 1035 02b6 09030000 		.4byte	0x309
 1036 02ba 09       		.uleb128 0x9
 1037 02bb 04060000 		.4byte	.LASF54
 1038 02bf 0A       		.byte	0xa
 1039 02c0 7301     		.2byte	0x173
 1040 02c2 72020000 		.4byte	0x272
 1041 02c6 00       		.byte	0
 1042 02c7 09       		.uleb128 0x9
 1043 02c8 87050000 		.4byte	.LASF55
 1044 02cc 0A       		.byte	0xa
 1045 02cd 7401     		.2byte	0x174
 1046 02cf 1F010000 		.4byte	0x11f
 1047 02d3 08       		.byte	0x8
 1048 02d4 09       		.uleb128 0x9
 1049 02d5 67040000 		.4byte	.LASF56
 1050 02d9 0A       		.byte	0xa
 1051 02da 7601     		.2byte	0x176
 1052 02dc F5050000 		.4byte	0x5f5
 1053 02e0 0C       		.byte	0xc
 1054 02e1 09       		.uleb128 0x9
 1055 02e2 3B020000 		.4byte	.LASF57
 1056 02e6 0A       		.byte	0xa
 1057 02e7 7901     		.2byte	0x179
 1058 02e9 AF060000 		.4byte	0x6af
 1059 02ed 10       		.byte	0x10
 1060 02ee 09       		.uleb128 0x9
 1061 02ef E8070000 		.4byte	.LASF58
 1062 02f3 0A       		.byte	0xa
 1063 02f4 7A01     		.2byte	0x17a
 1064 02f6 AF060000 		.4byte	0x6af
 1065 02fa 14       		.byte	0x14
 1066 02fb 09       		.uleb128 0x9
 1067 02fc 86040000 		.4byte	.LASF59
 1068 0300 0A       		.byte	0xa
 1069 0301 7D01     		.2byte	0x17d
 1070 0303 AF060000 		.4byte	0x6af
 1071 0307 18       		.byte	0x18
 1072 0308 00       		.byte	0
 1073 0309 03       		.uleb128 0x3
 1074 030a 96070000 		.4byte	.LASF60
 1075 030e 09       		.byte	0x9
 1076 030f 57       		.byte	0x57
 1077 0310 14030000 		.4byte	0x314
 1078 0314 0B       		.uleb128 0xb
ARM GAS  /tmp/ccZwNDqj.s 			page 20


 1079 0315 04       		.byte	0x4
 1080 0316 1A030000 		.4byte	0x31a
 1081 031a 0C       		.uleb128 0xc
 1082 031b 25030000 		.4byte	0x325
 1083 031f 0D       		.uleb128 0xd
 1084 0320 25030000 		.4byte	0x325
 1085 0324 00       		.byte	0
 1086 0325 0E       		.uleb128 0xe
 1087 0326 04       		.byte	0x4
 1088 0327 03       		.uleb128 0x3
 1089 0328 DF040000 		.4byte	.LASF61
 1090 032c 09       		.byte	0x9
 1091 032d 5C       		.byte	0x5c
 1092 032e 32030000 		.4byte	0x332
 1093 0332 0A       		.uleb128 0xa
 1094 0333 C5050000 		.4byte	.LASF62
 1095 0337 14       		.byte	0x14
 1096 0338 0A       		.byte	0xa
 1097 0339 4D01     		.2byte	0x14d
 1098 033b 81030000 		.4byte	0x381
 1099 033f 09       		.uleb128 0x9
 1100 0340 F2020000 		.4byte	.LASF63
 1101 0344 0A       		.byte	0xa
 1102 0345 4E01     		.2byte	0x14e
 1103 0347 36070000 		.4byte	0x736
 1104 034b 00       		.byte	0
 1105 034c 09       		.uleb128 0x9
 1106 034d 4C020000 		.4byte	.LASF64
 1107 0351 0A       		.byte	0xa
 1108 0352 4F01     		.2byte	0x14f
 1109 0354 36070000 		.4byte	0x736
 1110 0358 04       		.byte	0x4
 1111 0359 09       		.uleb128 0x9
 1112 035a 0C060000 		.4byte	.LASF65
 1113 035e 0A       		.byte	0xa
 1114 035f 5001     		.2byte	0x150
 1115 0361 4B010000 		.4byte	0x14b
 1116 0365 08       		.byte	0x8
 1117 0366 09       		.uleb128 0x9
 1118 0367 F4080000 		.4byte	.LASF66
 1119 036b 0A       		.byte	0xa
 1120 036c 5101     		.2byte	0x151
 1121 036e 09030000 		.4byte	0x309
 1122 0372 0C       		.byte	0xc
 1123 0373 09       		.uleb128 0x9
 1124 0374 33080000 		.4byte	.LASF67
 1125 0378 0A       		.byte	0xa
 1126 0379 5301     		.2byte	0x153
 1127 037b 25030000 		.4byte	0x325
 1128 037f 10       		.byte	0x10
 1129 0380 00       		.byte	0
 1130 0381 03       		.uleb128 0x3
 1131 0382 BC000000 		.4byte	.LASF68
 1132 0386 09       		.byte	0x9
 1133 0387 61       		.byte	0x61
 1134 0388 8C030000 		.4byte	0x38c
 1135 038c 0A       		.uleb128 0xa
ARM GAS  /tmp/ccZwNDqj.s 			page 21


 1136 038d 2B040000 		.4byte	.LASF69
 1137 0391 10       		.byte	0x10
 1138 0392 0A       		.byte	0xa
 1139 0393 5D01     		.2byte	0x15d
 1140 0395 CE030000 		.4byte	0x3ce
 1141 0399 09       		.uleb128 0x9
 1142 039a F2020000 		.4byte	.LASF63
 1143 039e 0A       		.byte	0xa
 1144 039f 5E01     		.2byte	0x15e
 1145 03a1 36070000 		.4byte	0x736
 1146 03a5 00       		.byte	0
 1147 03a6 09       		.uleb128 0x9
 1148 03a7 4C020000 		.4byte	.LASF64
 1149 03ab 0A       		.byte	0xa
 1150 03ac 6001     		.2byte	0x160
 1151 03ae 36070000 		.4byte	0x736
 1152 03b2 04       		.byte	0x4
 1153 03b3 09       		.uleb128 0x9
 1154 03b4 0C060000 		.4byte	.LASF65
 1155 03b8 0A       		.byte	0xa
 1156 03b9 6201     		.2byte	0x162
 1157 03bb 4B010000 		.4byte	0x14b
 1158 03bf 08       		.byte	0x8
 1159 03c0 09       		.uleb128 0x9
 1160 03c1 53040000 		.4byte	.LASF70
 1161 03c5 0A       		.byte	0xa
 1162 03c6 6A01     		.2byte	0x16a
 1163 03c8 4B010000 		.4byte	0x14b
 1164 03cc 0C       		.byte	0xc
 1165 03cd 00       		.byte	0
 1166 03ce 03       		.uleb128 0x3
 1167 03cf 3A000000 		.4byte	.LASF71
 1168 03d3 09       		.byte	0x9
 1169 03d4 66       		.byte	0x66
 1170 03d5 D9030000 		.4byte	0x3d9
 1171 03d9 0A       		.uleb128 0xa
 1172 03da 0C050000 		.4byte	.LASF72
 1173 03de 04       		.byte	0x4
 1174 03df 0A       		.byte	0xa
 1175 03e0 8401     		.2byte	0x184
 1176 03e2 F4030000 		.4byte	0x3f4
 1177 03e6 09       		.uleb128 0x9
 1178 03e7 B8070000 		.4byte	.LASF73
 1179 03eb 0A       		.byte	0xa
 1180 03ec 8C01     		.2byte	0x18c
 1181 03ee 3C070000 		.4byte	0x73c
 1182 03f2 00       		.byte	0
 1183 03f3 00       		.byte	0
 1184 03f4 03       		.uleb128 0x3
 1185 03f5 F0070000 		.4byte	.LASF74
 1186 03f9 09       		.byte	0x9
 1187 03fa 6B       		.byte	0x6b
 1188 03fb FF030000 		.4byte	0x3ff
 1189 03ff 0F       		.uleb128 0xf
 1190 0400 87010000 		.4byte	.LASF75
 1191 0404 5001     		.2byte	0x150
 1192 0406 0A       		.byte	0xa
ARM GAS  /tmp/ccZwNDqj.s 			page 22


 1193 0407 A401     		.2byte	0x1a4
 1194 0409 5B040000 		.4byte	0x45b
 1195 040d 09       		.uleb128 0x9
 1196 040e 83080000 		.4byte	.LASF76
 1197 0412 0A       		.byte	0xa
 1198 0413 A801     		.2byte	0x1a8
 1199 0415 A2020000 		.4byte	0x2a2
 1200 0419 00       		.byte	0
 1201 041a 09       		.uleb128 0x9
 1202 041b 5F010000 		.4byte	.LASF77
 1203 041f 0A       		.byte	0xa
 1204 0420 AC01     		.2byte	0x1ac
 1205 0422 81030000 		.4byte	0x381
 1206 0426 1C       		.byte	0x1c
 1207 0427 08       		.uleb128 0x8
 1208 0428 64626700 		.ascii	"dbg\000"
 1209 042c 0A       		.byte	0xa
 1210 042d B001     		.2byte	0x1b0
 1211 042f CE030000 		.4byte	0x3ce
 1212 0433 2C       		.byte	0x2c
 1213 0434 09       		.uleb128 0x9
 1214 0435 A7000000 		.4byte	.LASF78
 1215 0439 0A       		.byte	0xa
 1216 043a B401     		.2byte	0x1b4
 1217 043c 56010000 		.4byte	0x156
 1218 0440 30       		.byte	0x30
 1219 0441 08       		.uleb128 0x8
 1220 0442 746D00   		.ascii	"tm\000"
 1221 0445 0A       		.byte	0xa
 1222 0446 B901     		.2byte	0x1b9
 1223 0448 A4060000 		.4byte	0x6a4
 1224 044c 74       		.byte	0x74
 1225 044d 09       		.uleb128 0x9
 1226 044e 99020000 		.4byte	.LASF79
 1227 0452 0A       		.byte	0xa
 1228 0453 C501     		.2byte	0x1c5
 1229 0455 41070000 		.4byte	0x741
 1230 0459 78       		.byte	0x78
 1231 045a 00       		.byte	0
 1232 045b 04       		.uleb128 0x4
 1233 045c 04       		.byte	0x4
 1234 045d 07       		.byte	0x7
 1235 045e 22040000 		.4byte	.LASF80
 1236 0462 10       		.uleb128 0x10
 1237 0463 34       		.byte	0x34
 1238 0464 0B       		.byte	0xb
 1239 0465 FC01     		.2byte	0x1fc
 1240 0467 14050000 		.4byte	0x514
 1241 046b 08       		.uleb128 0x8
 1242 046c 435200   		.ascii	"CR\000"
 1243 046f 0B       		.byte	0xb
 1244 0470 FE01     		.2byte	0x1fe
 1245 0472 EE000000 		.4byte	0xee
 1246 0476 00       		.byte	0
 1247 0477 09       		.uleb128 0x9
 1248 0478 C8080000 		.4byte	.LASF81
 1249 047c 0B       		.byte	0xb
ARM GAS  /tmp/ccZwNDqj.s 			page 23


 1250 047d FF01     		.2byte	0x1ff
 1251 047f EE000000 		.4byte	0xee
 1252 0483 04       		.byte	0x4
 1253 0484 08       		.uleb128 0x8
 1254 0485 43495200 		.ascii	"CIR\000"
 1255 0489 0B       		.byte	0xb
 1256 048a 0002     		.2byte	0x200
 1257 048c EE000000 		.4byte	0xee
 1258 0490 08       		.byte	0x8
 1259 0491 09       		.uleb128 0x9
 1260 0492 9A010000 		.4byte	.LASF82
 1261 0496 0B       		.byte	0xb
 1262 0497 0102     		.2byte	0x201
 1263 0499 EE000000 		.4byte	0xee
 1264 049d 0C       		.byte	0xc
 1265 049e 09       		.uleb128 0x9
 1266 049f 90040000 		.4byte	.LASF83
 1267 04a3 0B       		.byte	0xb
 1268 04a4 0202     		.2byte	0x202
 1269 04a6 EE000000 		.4byte	0xee
 1270 04aa 10       		.byte	0x10
 1271 04ab 09       		.uleb128 0x9
 1272 04ac FC080000 		.4byte	.LASF84
 1273 04b0 0B       		.byte	0xb
 1274 04b1 0302     		.2byte	0x203
 1275 04b3 EE000000 		.4byte	0xee
 1276 04b7 14       		.byte	0x14
 1277 04b8 09       		.uleb128 0x9
 1278 04b9 AD050000 		.4byte	.LASF85
 1279 04bd 0B       		.byte	0xb
 1280 04be 0402     		.2byte	0x204
 1281 04c0 EE000000 		.4byte	0xee
 1282 04c4 18       		.byte	0x18
 1283 04c5 09       		.uleb128 0x9
 1284 04c6 C7070000 		.4byte	.LASF86
 1285 04ca 0B       		.byte	0xb
 1286 04cb 0502     		.2byte	0x205
 1287 04cd EE000000 		.4byte	0xee
 1288 04d1 1C       		.byte	0x1c
 1289 04d2 09       		.uleb128 0x9
 1290 04d3 75080000 		.4byte	.LASF87
 1291 04d7 0B       		.byte	0xb
 1292 04d8 0602     		.2byte	0x206
 1293 04da EE000000 		.4byte	0xee
 1294 04de 20       		.byte	0x20
 1295 04df 08       		.uleb128 0x8
 1296 04e0 43535200 		.ascii	"CSR\000"
 1297 04e4 0B       		.byte	0xb
 1298 04e5 0702     		.2byte	0x207
 1299 04e7 EE000000 		.4byte	0xee
 1300 04eb 24       		.byte	0x24
 1301 04ec 09       		.uleb128 0x9
 1302 04ed 7E040000 		.4byte	.LASF88
 1303 04f1 0B       		.byte	0xb
 1304 04f2 0802     		.2byte	0x208
 1305 04f4 EE000000 		.4byte	0xee
 1306 04f8 28       		.byte	0x28
ARM GAS  /tmp/ccZwNDqj.s 			page 24


 1307 04f9 09       		.uleb128 0x9
 1308 04fa 89080000 		.4byte	.LASF89
 1309 04fe 0B       		.byte	0xb
 1310 04ff 0902     		.2byte	0x209
 1311 0501 EE000000 		.4byte	0xee
 1312 0505 2C       		.byte	0x2c
 1313 0506 09       		.uleb128 0x9
 1314 0507 8F080000 		.4byte	.LASF90
 1315 050b 0B       		.byte	0xb
 1316 050c 0A02     		.2byte	0x20a
 1317 050e EE000000 		.4byte	0xee
 1318 0512 30       		.byte	0x30
 1319 0513 00       		.byte	0
 1320 0514 11       		.uleb128 0x11
 1321 0515 67050000 		.4byte	.LASF91
 1322 0519 0B       		.byte	0xb
 1323 051a 0B02     		.2byte	0x20b
 1324 051c 62040000 		.4byte	0x462
 1325 0520 10       		.uleb128 0x10
 1326 0521 2C       		.byte	0x2c
 1327 0522 0B       		.byte	0xb
 1328 0523 8302     		.2byte	0x283
 1329 0525 D3050000 		.4byte	0x5d3
 1330 0529 08       		.uleb128 0x8
 1331 052a 43523100 		.ascii	"CR1\000"
 1332 052e 0B       		.byte	0xb
 1333 052f 8502     		.2byte	0x285
 1334 0531 EE000000 		.4byte	0xee
 1335 0535 00       		.byte	0
 1336 0536 08       		.uleb128 0x8
 1337 0537 43523200 		.ascii	"CR2\000"
 1338 053b 0B       		.byte	0xb
 1339 053c 8602     		.2byte	0x286
 1340 053e EE000000 		.4byte	0xee
 1341 0542 04       		.byte	0x4
 1342 0543 08       		.uleb128 0x8
 1343 0544 43523300 		.ascii	"CR3\000"
 1344 0548 0B       		.byte	0xb
 1345 0549 8702     		.2byte	0x287
 1346 054b EE000000 		.4byte	0xee
 1347 054f 08       		.byte	0x8
 1348 0550 08       		.uleb128 0x8
 1349 0551 42525200 		.ascii	"BRR\000"
 1350 0555 0B       		.byte	0xb
 1351 0556 8802     		.2byte	0x288
 1352 0558 EE000000 		.4byte	0xee
 1353 055c 0C       		.byte	0xc
 1354 055d 09       		.uleb128 0x9
 1355 055e 42010000 		.4byte	.LASF92
 1356 0562 0B       		.byte	0xb
 1357 0563 8902     		.2byte	0x289
 1358 0565 EE000000 		.4byte	0xee
 1359 0569 10       		.byte	0x10
 1360 056a 09       		.uleb128 0x9
 1361 056b C2070000 		.4byte	.LASF93
 1362 056f 0B       		.byte	0xb
 1363 0570 8A02     		.2byte	0x28a
ARM GAS  /tmp/ccZwNDqj.s 			page 25


 1364 0572 EE000000 		.4byte	0xee
 1365 0576 14       		.byte	0x14
 1366 0577 08       		.uleb128 0x8
 1367 0578 52515200 		.ascii	"RQR\000"
 1368 057c 0B       		.byte	0xb
 1369 057d 8B02     		.2byte	0x28b
 1370 057f EE000000 		.4byte	0xee
 1371 0583 18       		.byte	0x18
 1372 0584 08       		.uleb128 0x8
 1373 0585 49535200 		.ascii	"ISR\000"
 1374 0589 0B       		.byte	0xb
 1375 058a 8C02     		.2byte	0x28c
 1376 058c EE000000 		.4byte	0xee
 1377 0590 1C       		.byte	0x1c
 1378 0591 08       		.uleb128 0x8
 1379 0592 49435200 		.ascii	"ICR\000"
 1380 0596 0B       		.byte	0xb
 1381 0597 8D02     		.2byte	0x28d
 1382 0599 EE000000 		.4byte	0xee
 1383 059d 20       		.byte	0x20
 1384 059e 08       		.uleb128 0x8
 1385 059f 52445200 		.ascii	"RDR\000"
 1386 05a3 0B       		.byte	0xb
 1387 05a4 8E02     		.2byte	0x28e
 1388 05a6 E4000000 		.4byte	0xe4
 1389 05aa 24       		.byte	0x24
 1390 05ab 09       		.uleb128 0x9
 1391 05ac CB040000 		.4byte	.LASF94
 1392 05b0 0B       		.byte	0xb
 1393 05b1 8F02     		.2byte	0x28f
 1394 05b3 B8000000 		.4byte	0xb8
 1395 05b7 26       		.byte	0x26
 1396 05b8 08       		.uleb128 0x8
 1397 05b9 54445200 		.ascii	"TDR\000"
 1398 05bd 0B       		.byte	0xb
 1399 05be 9002     		.2byte	0x290
 1400 05c0 E4000000 		.4byte	0xe4
 1401 05c4 28       		.byte	0x28
 1402 05c5 09       		.uleb128 0x9
 1403 05c6 D5040000 		.4byte	.LASF95
 1404 05ca 0B       		.byte	0xb
 1405 05cb 9102     		.2byte	0x291
 1406 05cd B8000000 		.4byte	0xb8
 1407 05d1 2A       		.byte	0x2a
 1408 05d2 00       		.byte	0
 1409 05d3 11       		.uleb128 0x11
 1410 05d4 8B030000 		.4byte	.LASF96
 1411 05d8 0B       		.byte	0xb
 1412 05d9 9202     		.2byte	0x292
 1413 05db 20050000 		.4byte	0x520
 1414 05df 03       		.uleb128 0x3
 1415 05e0 43020000 		.4byte	.LASF97
 1416 05e4 0C       		.byte	0xc
 1417 05e5 85       		.byte	0x85
 1418 05e6 25030000 		.4byte	0x325
 1419 05ea 03       		.uleb128 0x3
 1420 05eb DA030000 		.4byte	.LASF98
ARM GAS  /tmp/ccZwNDqj.s 			page 26


 1421 05ef 0C       		.byte	0xc
 1422 05f0 8D       		.byte	0x8d
 1423 05f1 D9000000 		.4byte	0xd9
 1424 05f5 06       		.uleb128 0x6
 1425 05f6 E0070000 		.4byte	.LASF99
 1426 05fa 04       		.byte	0x4
 1427 05fb 0C       		.byte	0xc
 1428 05fc A9       		.byte	0xa9
 1429 05fd 0E060000 		.4byte	0x60e
 1430 0601 12       		.uleb128 0x12
 1431 0602 72313300 		.ascii	"r13\000"
 1432 0606 0C       		.byte	0xc
 1433 0607 AA       		.byte	0xaa
 1434 0608 89060000 		.4byte	0x689
 1435 060c 00       		.byte	0
 1436 060d 00       		.byte	0
 1437 060e 06       		.uleb128 0x6
 1438 060f 2E000000 		.4byte	.LASF100
 1439 0613 24       		.byte	0x24
 1440 0614 0D       		.byte	0xd
 1441 0615 F4       		.byte	0xf4
 1442 0616 89060000 		.4byte	0x689
 1443 061a 08       		.uleb128 0x8
 1444 061b 723400   		.ascii	"r4\000"
 1445 061e 0D       		.byte	0xd
 1446 061f 0701     		.2byte	0x107
 1447 0621 DF050000 		.4byte	0x5df
 1448 0625 00       		.byte	0
 1449 0626 08       		.uleb128 0x8
 1450 0627 723500   		.ascii	"r5\000"
 1451 062a 0D       		.byte	0xd
 1452 062b 0801     		.2byte	0x108
 1453 062d DF050000 		.4byte	0x5df
 1454 0631 04       		.byte	0x4
 1455 0632 08       		.uleb128 0x8
 1456 0633 723600   		.ascii	"r6\000"
 1457 0636 0D       		.byte	0xd
 1458 0637 0901     		.2byte	0x109
 1459 0639 DF050000 		.4byte	0x5df
 1460 063d 08       		.byte	0x8
 1461 063e 08       		.uleb128 0x8
 1462 063f 723700   		.ascii	"r7\000"
 1463 0642 0D       		.byte	0xd
 1464 0643 0A01     		.2byte	0x10a
 1465 0645 DF050000 		.4byte	0x5df
 1466 0649 0C       		.byte	0xc
 1467 064a 08       		.uleb128 0x8
 1468 064b 723800   		.ascii	"r8\000"
 1469 064e 0D       		.byte	0xd
 1470 064f 0B01     		.2byte	0x10b
 1471 0651 DF050000 		.4byte	0x5df
 1472 0655 10       		.byte	0x10
 1473 0656 08       		.uleb128 0x8
 1474 0657 723900   		.ascii	"r9\000"
 1475 065a 0D       		.byte	0xd
 1476 065b 0C01     		.2byte	0x10c
 1477 065d DF050000 		.4byte	0x5df
ARM GAS  /tmp/ccZwNDqj.s 			page 27


 1478 0661 14       		.byte	0x14
 1479 0662 08       		.uleb128 0x8
 1480 0663 72313000 		.ascii	"r10\000"
 1481 0667 0D       		.byte	0xd
 1482 0668 0D01     		.2byte	0x10d
 1483 066a DF050000 		.4byte	0x5df
 1484 066e 18       		.byte	0x18
 1485 066f 08       		.uleb128 0x8
 1486 0670 72313100 		.ascii	"r11\000"
 1487 0674 0D       		.byte	0xd
 1488 0675 0E01     		.2byte	0x10e
 1489 0677 DF050000 		.4byte	0x5df
 1490 067b 1C       		.byte	0x1c
 1491 067c 08       		.uleb128 0x8
 1492 067d 6C7200   		.ascii	"lr\000"
 1493 0680 0D       		.byte	0xd
 1494 0681 0F01     		.2byte	0x10f
 1495 0683 DF050000 		.4byte	0x5df
 1496 0687 20       		.byte	0x20
 1497 0688 00       		.byte	0
 1498 0689 0B       		.uleb128 0xb
 1499 068a 04       		.byte	0x4
 1500 068b 0E060000 		.4byte	0x60e
 1501 068f 13       		.uleb128 0x13
 1502 0690 04       		.byte	0x4
 1503 0691 0E       		.byte	0xe
 1504 0692 38       		.byte	0x38
 1505 0693 A4060000 		.4byte	0x6a4
 1506 0697 07       		.uleb128 0x7
 1507 0698 54020000 		.4byte	.LASF101
 1508 069c 0E       		.byte	0xe
 1509 069d 3C       		.byte	0x3c
 1510 069e F3000000 		.4byte	0xf3
 1511 06a2 00       		.byte	0
 1512 06a3 00       		.byte	0
 1513 06a4 03       		.uleb128 0x3
 1514 06a5 6D040000 		.4byte	.LASF102
 1515 06a9 0E       		.byte	0xe
 1516 06aa 3D       		.byte	0x3d
 1517 06ab 8F060000 		.4byte	0x68f
 1518 06af 0B       		.uleb128 0xb
 1519 06b0 04       		.byte	0x4
 1520 06b1 56010000 		.4byte	0x156
 1521 06b5 14       		.uleb128 0x14
 1522 06b6 04       		.byte	0x4
 1523 06b7 0A       		.byte	0xa
 1524 06b8 F6       		.byte	0xf6
 1525 06b9 ED060000 		.4byte	0x6ed
 1526 06bd 15       		.uleb128 0x15
 1527 06be 14000000 		.4byte	.LASF103
 1528 06c2 0A       		.byte	0xa
 1529 06c3 FD       		.byte	0xfd
 1530 06c4 2A010000 		.4byte	0x12a
 1531 06c8 16       		.uleb128 0x16
 1532 06c9 9E000000 		.4byte	.LASF104
 1533 06cd 0A       		.byte	0xa
 1534 06ce 0401     		.2byte	0x104
ARM GAS  /tmp/ccZwNDqj.s 			page 28


 1535 06d0 2A010000 		.4byte	0x12a
 1536 06d4 16       		.uleb128 0x16
 1537 06d5 A0030000 		.4byte	.LASF105
 1538 06d9 0A       		.byte	0xa
 1539 06da 0B01     		.2byte	0x10b
 1540 06dc 25030000 		.4byte	0x325
 1541 06e0 16       		.uleb128 0x16
 1542 06e1 8E050000 		.4byte	.LASF106
 1543 06e5 0A       		.byte	0xa
 1544 06e6 1201     		.2byte	0x112
 1545 06e8 35010000 		.4byte	0x135
 1546 06ec 00       		.byte	0
 1547 06ed 0B       		.uleb128 0xb
 1548 06ee 04       		.byte	0x4
 1549 06ef F3060000 		.4byte	0x6f3
 1550 06f3 17       		.uleb128 0x17
 1551 06f4 F8060000 		.4byte	0x6f8
 1552 06f8 04       		.uleb128 0x4
 1553 06f9 01       		.byte	0x1
 1554 06fa 08       		.byte	0x8
 1555 06fb 5B060000 		.4byte	.LASF107
 1556 06ff 06       		.uleb128 0x6
 1557 0700 06050000 		.4byte	.LASF108
 1558 0704 10       		.byte	0x10
 1559 0705 0F       		.byte	0xf
 1560 0706 39       		.byte	0x39
 1561 0707 30070000 		.4byte	0x730
 1562 070b 07       		.uleb128 0x7
 1563 070c 57010000 		.4byte	.LASF109
 1564 0710 0F       		.byte	0xf
 1565 0711 3A       		.byte	0x3a
 1566 0712 72020000 		.4byte	0x272
 1567 0716 00       		.byte	0
 1568 0717 07       		.uleb128 0x7
 1569 0718 E6080000 		.4byte	.LASF110
 1570 071c 0F       		.byte	0xf
 1571 071d 3C       		.byte	0x3c
 1572 071e AF060000 		.4byte	0x6af
 1573 0722 08       		.byte	0x8
 1574 0723 07       		.uleb128 0x7
 1575 0724 7A070000 		.4byte	.LASF111
 1576 0728 0F       		.byte	0xf
 1577 0729 3E       		.byte	0x3e
 1578 072a 71070000 		.4byte	0x771
 1579 072e 0C       		.byte	0xc
 1580 072f 00       		.byte	0
 1581 0730 0B       		.uleb128 0xb
 1582 0731 04       		.byte	0x4
 1583 0732 FF060000 		.4byte	0x6ff
 1584 0736 0B       		.uleb128 0xb
 1585 0737 04       		.byte	0x4
 1586 0738 27030000 		.4byte	0x327
 1587 073c 05       		.uleb128 0x5
 1588 073d ED060000 		.4byte	0x6ed
 1589 0741 18       		.uleb128 0x18
 1590 0742 EA050000 		.4byte	0x5ea
 1591 0746 51070000 		.4byte	0x751
ARM GAS  /tmp/ccZwNDqj.s 			page 29


 1592 074a 19       		.uleb128 0x19
 1593 074b 5B040000 		.4byte	0x45b
 1594 074f 1A       		.byte	0x1a
 1595 0750 00       		.byte	0
 1596 0751 0B       		.uleb128 0xb
 1597 0752 04       		.byte	0x4
 1598 0753 57070000 		.4byte	0x757
 1599 0757 1A       		.uleb128 0x1a
 1600 0758 2A010000 		.4byte	0x12a
 1601 075c 66070000 		.4byte	0x766
 1602 0760 0D       		.uleb128 0xd
 1603 0761 25030000 		.4byte	0x325
 1604 0765 00       		.byte	0
 1605 0766 03       		.uleb128 0x3
 1606 0767 20010000 		.4byte	.LASF112
 1607 076b 0F       		.byte	0xf
 1608 076c 34       		.byte	0x34
 1609 076d FF060000 		.4byte	0x6ff
 1610 0771 0B       		.uleb128 0xb
 1611 0772 04       		.byte	0x4
 1612 0773 66070000 		.4byte	0x766
 1613 0777 03       		.uleb128 0x3
 1614 0778 CF070000 		.4byte	.LASF113
 1615 077c 10       		.byte	0x10
 1616 077d 34       		.byte	0x34
 1617 077e 82070000 		.4byte	0x782
 1618 0782 06       		.uleb128 0x6
 1619 0783 03090000 		.4byte	.LASF114
 1620 0787 14       		.byte	0x14
 1621 0788 10       		.byte	0x10
 1622 0789 39       		.byte	0x39
 1623 078a CB070000 		.4byte	0x7cb
 1624 078e 07       		.uleb128 0x7
 1625 078f 70030000 		.4byte	.LASF115
 1626 0793 10       		.byte	0x10
 1627 0794 3A       		.byte	0x3a
 1628 0795 CB070000 		.4byte	0x7cb
 1629 0799 00       		.byte	0
 1630 079a 07       		.uleb128 0x7
 1631 079b 45050000 		.4byte	.LASF116
 1632 079f 10       		.byte	0x10
 1633 07a0 3D       		.byte	0x3d
 1634 07a1 AF060000 		.4byte	0x6af
 1635 07a5 04       		.byte	0x4
 1636 07a6 07       		.uleb128 0x7
 1637 07a7 99040000 		.4byte	.LASF117
 1638 07ab 10       		.byte	0x10
 1639 07ac 3F       		.byte	0x3f
 1640 07ad 35010000 		.4byte	0x135
 1641 07b1 08       		.byte	0x8
 1642 07b2 07       		.uleb128 0x7
 1643 07b3 5E050000 		.4byte	.LASF118
 1644 07b7 10       		.byte	0x10
 1645 07b8 41       		.byte	0x41
 1646 07b9 40010000 		.4byte	0x140
 1647 07bd 0C       		.byte	0xc
 1648 07be 07       		.uleb128 0x7
ARM GAS  /tmp/ccZwNDqj.s 			page 30


 1649 07bf 59030000 		.4byte	.LASF119
 1650 07c3 10       		.byte	0x10
 1651 07c4 43       		.byte	0x43
 1652 07c5 40010000 		.4byte	0x140
 1653 07c9 10       		.byte	0x10
 1654 07ca 00       		.byte	0
 1655 07cb 0B       		.uleb128 0xb
 1656 07cc 04       		.byte	0x4
 1657 07cd 77070000 		.4byte	0x777
 1658 07d1 06       		.uleb128 0x6
 1659 07d2 26080000 		.4byte	.LASF120
 1660 07d6 04       		.byte	0x4
 1661 07d7 10       		.byte	0x10
 1662 07d8 4A       		.byte	0x4a
 1663 07d9 EA070000 		.4byte	0x7ea
 1664 07dd 07       		.uleb128 0x7
 1665 07de 6D080000 		.4byte	.LASF121
 1666 07e2 10       		.byte	0x10
 1667 07e3 4B       		.byte	0x4b
 1668 07e4 CB070000 		.4byte	0x7cb
 1669 07e8 00       		.byte	0
 1670 07e9 00       		.byte	0
 1671 07ea 03       		.uleb128 0x3
 1672 07eb 8A020000 		.4byte	.LASF122
 1673 07ef 10       		.byte	0x10
 1674 07f0 4E       		.byte	0x4e
 1675 07f1 D1070000 		.4byte	0x7d1
 1676 07f5 03       		.uleb128 0x3
 1677 07f6 E7000000 		.4byte	.LASF123
 1678 07fa 03       		.byte	0x3
 1679 07fb 3F       		.byte	0x3f
 1680 07fc 00080000 		.4byte	0x800
 1681 0800 06       		.uleb128 0x6
 1682 0801 81020000 		.4byte	.LASF124
 1683 0805 24       		.byte	0x24
 1684 0806 03       		.byte	0x3
 1685 0807 4D       		.byte	0x4d
 1686 0808 6D080000 		.4byte	0x86d
 1687 080c 07       		.uleb128 0x7
 1688 080d 16010000 		.4byte	.LASF125
 1689 0811 03       		.byte	0x3
 1690 0812 4E       		.byte	0x4e
 1691 0813 72020000 		.4byte	0x272
 1692 0817 00       		.byte	0
 1693 0818 07       		.uleb128 0x7
 1694 0819 42040000 		.4byte	.LASF126
 1695 081d 03       		.byte	0x3
 1696 081e 4F       		.byte	0x4f
 1697 081f 2C000000 		.4byte	0x2c
 1698 0823 08       		.byte	0x8
 1699 0824 07       		.uleb128 0x7
 1700 0825 BC010000 		.4byte	.LASF127
 1701 0829 03       		.byte	0x3
 1702 082a 50       		.byte	0x50
 1703 082b 8F080000 		.4byte	0x88f
 1704 082f 0C       		.byte	0xc
 1705 0830 07       		.uleb128 0x7
ARM GAS  /tmp/ccZwNDqj.s 			page 31


 1706 0831 60080000 		.4byte	.LASF128
 1707 0835 03       		.byte	0x3
 1708 0836 51       		.byte	0x51
 1709 0837 8F080000 		.4byte	0x88f
 1710 083b 10       		.byte	0x10
 1711 083c 07       		.uleb128 0x7
 1712 083d C5010000 		.4byte	.LASF129
 1713 0841 03       		.byte	0x3
 1714 0842 53       		.byte	0x53
 1715 0843 8F080000 		.4byte	0x88f
 1716 0847 14       		.byte	0x14
 1717 0848 07       		.uleb128 0x7
 1718 0849 FE040000 		.4byte	.LASF130
 1719 084d 03       		.byte	0x3
 1720 084e 54       		.byte	0x54
 1721 084f 8F080000 		.4byte	0x88f
 1722 0853 18       		.byte	0x18
 1723 0854 07       		.uleb128 0x7
 1724 0855 7A080000 		.4byte	.LASF131
 1725 0859 03       		.byte	0x3
 1726 085a 55       		.byte	0x55
 1727 085b 6D080000 		.4byte	0x86d
 1728 085f 1C       		.byte	0x1c
 1729 0860 07       		.uleb128 0x7
 1730 0861 DF080000 		.4byte	.LASF132
 1731 0865 03       		.byte	0x3
 1732 0866 56       		.byte	0x56
 1733 0867 25030000 		.4byte	0x325
 1734 086b 20       		.byte	0x20
 1735 086c 00       		.byte	0
 1736 086d 03       		.uleb128 0x3
 1737 086e D0030000 		.4byte	.LASF133
 1738 0872 03       		.byte	0x3
 1739 0873 42       		.byte	0x42
 1740 0874 78080000 		.4byte	0x878
 1741 0878 0B       		.uleb128 0xb
 1742 0879 04       		.byte	0x4
 1743 087a 7E080000 		.4byte	0x87e
 1744 087e 0C       		.uleb128 0xc
 1745 087f 89080000 		.4byte	0x889
 1746 0883 0D       		.uleb128 0xd
 1747 0884 89080000 		.4byte	0x889
 1748 0888 00       		.byte	0
 1749 0889 0B       		.uleb128 0xb
 1750 088a 04       		.byte	0x4
 1751 088b F5070000 		.4byte	0x7f5
 1752 088f 0B       		.uleb128 0xb
 1753 0890 04       		.byte	0x4
 1754 0891 AD000000 		.4byte	0xad
 1755 0895 03       		.uleb128 0x3
 1756 0896 FA030000 		.4byte	.LASF134
 1757 089a 03       		.byte	0x3
 1758 089b 64       		.byte	0x64
 1759 089c F5070000 		.4byte	0x7f5
 1760 08a0 03       		.uleb128 0x3
 1761 08a1 47080000 		.4byte	.LASF135
 1762 08a5 03       		.byte	0x3
ARM GAS  /tmp/ccZwNDqj.s 			page 32


 1763 08a6 71       		.byte	0x71
 1764 08a7 F5070000 		.4byte	0x7f5
 1765 08ab 1A       		.uleb128 0x1a
 1766 08ac 2C000000 		.4byte	0x2c
 1767 08b0 C4080000 		.4byte	0x8c4
 1768 08b4 0D       		.uleb128 0xd
 1769 08b5 25030000 		.4byte	0x325
 1770 08b9 0D       		.uleb128 0xd
 1771 08ba C4080000 		.4byte	0x8c4
 1772 08be 0D       		.uleb128 0xd
 1773 08bf 2C000000 		.4byte	0x2c
 1774 08c3 00       		.byte	0
 1775 08c4 0B       		.uleb128 0xb
 1776 08c5 04       		.byte	0x4
 1777 08c6 CA080000 		.4byte	0x8ca
 1778 08ca 17       		.uleb128 0x17
 1779 08cb AD000000 		.4byte	0xad
 1780 08cf 0B       		.uleb128 0xb
 1781 08d0 04       		.byte	0x4
 1782 08d1 AB080000 		.4byte	0x8ab
 1783 08d5 1A       		.uleb128 0x1a
 1784 08d6 2C000000 		.4byte	0x2c
 1785 08da EE080000 		.4byte	0x8ee
 1786 08de 0D       		.uleb128 0xd
 1787 08df 25030000 		.4byte	0x325
 1788 08e3 0D       		.uleb128 0xd
 1789 08e4 8F080000 		.4byte	0x88f
 1790 08e8 0D       		.uleb128 0xd
 1791 08e9 2C000000 		.4byte	0x2c
 1792 08ed 00       		.byte	0
 1793 08ee 0B       		.uleb128 0xb
 1794 08ef 04       		.byte	0x4
 1795 08f0 D5080000 		.4byte	0x8d5
 1796 08f4 1A       		.uleb128 0x1a
 1797 08f5 2A010000 		.4byte	0x12a
 1798 08f9 08090000 		.4byte	0x908
 1799 08fd 0D       		.uleb128 0xd
 1800 08fe 25030000 		.4byte	0x325
 1801 0902 0D       		.uleb128 0xd
 1802 0903 AD000000 		.4byte	0xad
 1803 0907 00       		.byte	0
 1804 0908 0B       		.uleb128 0xb
 1805 0909 04       		.byte	0x4
 1806 090a F4080000 		.4byte	0x8f4
 1807 090e 1A       		.uleb128 0x1a
 1808 090f 2A010000 		.4byte	0x12a
 1809 0913 27090000 		.4byte	0x927
 1810 0917 0D       		.uleb128 0xd
 1811 0918 25030000 		.4byte	0x325
 1812 091c 0D       		.uleb128 0xd
 1813 091d AD000000 		.4byte	0xad
 1814 0921 0D       		.uleb128 0xd
 1815 0922 4B010000 		.4byte	0x14b
 1816 0926 00       		.byte	0
 1817 0927 0B       		.uleb128 0xb
 1818 0928 04       		.byte	0x4
 1819 0929 0E090000 		.4byte	0x90e
ARM GAS  /tmp/ccZwNDqj.s 			page 33


 1820 092d 1A       		.uleb128 0x1a
 1821 092e 2A010000 		.4byte	0x12a
 1822 0932 41090000 		.4byte	0x941
 1823 0936 0D       		.uleb128 0xd
 1824 0937 25030000 		.4byte	0x325
 1825 093b 0D       		.uleb128 0xd
 1826 093c 4B010000 		.4byte	0x14b
 1827 0940 00       		.byte	0
 1828 0941 0B       		.uleb128 0xb
 1829 0942 04       		.byte	0x4
 1830 0943 2D090000 		.4byte	0x92d
 1831 0947 1A       		.uleb128 0x1a
 1832 0948 2C000000 		.4byte	0x2c
 1833 094c 65090000 		.4byte	0x965
 1834 0950 0D       		.uleb128 0xd
 1835 0951 25030000 		.4byte	0x325
 1836 0955 0D       		.uleb128 0xd
 1837 0956 C4080000 		.4byte	0x8c4
 1838 095a 0D       		.uleb128 0xd
 1839 095b 2C000000 		.4byte	0x2c
 1840 095f 0D       		.uleb128 0xd
 1841 0960 4B010000 		.4byte	0x14b
 1842 0964 00       		.byte	0
 1843 0965 0B       		.uleb128 0xb
 1844 0966 04       		.byte	0x4
 1845 0967 47090000 		.4byte	0x947
 1846 096b 1A       		.uleb128 0x1a
 1847 096c 2C000000 		.4byte	0x2c
 1848 0970 89090000 		.4byte	0x989
 1849 0974 0D       		.uleb128 0xd
 1850 0975 25030000 		.4byte	0x325
 1851 0979 0D       		.uleb128 0xd
 1852 097a 8F080000 		.4byte	0x88f
 1853 097e 0D       		.uleb128 0xd
 1854 097f 2C000000 		.4byte	0x2c
 1855 0983 0D       		.uleb128 0xd
 1856 0984 4B010000 		.4byte	0x14b
 1857 0988 00       		.byte	0
 1858 0989 0B       		.uleb128 0xb
 1859 098a 04       		.byte	0x4
 1860 098b 6B090000 		.4byte	0x96b
 1861 098f 04       		.uleb128 0x4
 1862 0990 01       		.byte	0x1
 1863 0991 02       		.byte	0x2
 1864 0992 1C050000 		.4byte	.LASF136
 1865 0996 1B       		.uleb128 0x1b
 1866 0997 01       		.byte	0x1
 1867 0998 11       		.byte	0x11
 1868 0999 58       		.byte	0x58
 1869 099a B1090000 		.4byte	0x9b1
 1870 099e 1C       		.uleb128 0x1c
 1871 099f F1050000 		.4byte	.LASF137
 1872 09a3 00       		.sleb128 0
 1873 09a4 1C       		.uleb128 0x1c
 1874 09a5 A5050000 		.4byte	.LASF138
 1875 09a9 01       		.sleb128 1
 1876 09aa 1C       		.uleb128 0x1c
ARM GAS  /tmp/ccZwNDqj.s 			page 34


 1877 09ab 1D080000 		.4byte	.LASF139
 1878 09af 02       		.sleb128 2
 1879 09b0 00       		.byte	0
 1880 09b1 03       		.uleb128 0x3
 1881 09b2 56080000 		.4byte	.LASF140
 1882 09b6 11       		.byte	0x11
 1883 09b7 5C       		.byte	0x5c
 1884 09b8 96090000 		.4byte	0x996
 1885 09bc 03       		.uleb128 0x3
 1886 09bd 25060000 		.4byte	.LASF141
 1887 09c1 11       		.byte	0x11
 1888 09c2 61       		.byte	0x61
 1889 09c3 C7090000 		.4byte	0x9c7
 1890 09c7 06       		.uleb128 0x6
 1891 09c8 25060000 		.4byte	.LASF141
 1892 09cc 7C       		.byte	0x7c
 1893 09cd 11       		.byte	0x11
 1894 09ce 7B       		.byte	0x7b
 1895 09cf 3E0A0000 		.4byte	0xa3e
 1896 09d3 12       		.uleb128 0x12
 1897 09d4 766D7400 		.ascii	"vmt\000"
 1898 09d8 11       		.byte	0x11
 1899 09d9 7D       		.byte	0x7d
 1900 09da EF0A0000 		.4byte	0xaef
 1901 09de 00       		.byte	0
 1902 09df 07       		.uleb128 0x7
 1903 09e0 36030000 		.4byte	.LASF142
 1904 09e4 11       		.byte	0x11
 1905 09e5 7E       		.byte	0x7e
 1906 09e6 EA070000 		.4byte	0x7ea
 1907 09ea 04       		.byte	0x4
 1908 09eb 07       		.uleb128 0x7
 1909 09ec 81010000 		.4byte	.LASF143
 1910 09f0 11       		.byte	0x11
 1911 09f1 7E       		.byte	0x7e
 1912 09f2 B1090000 		.4byte	0x9b1
 1913 09f6 08       		.byte	0x8
 1914 09f7 07       		.uleb128 0x7
 1915 09f8 13030000 		.4byte	.LASF144
 1916 09fc 11       		.byte	0x11
 1917 09fd 7E       		.byte	0x7e
 1918 09fe 95080000 		.4byte	0x895
 1919 0a02 0C       		.byte	0xc
 1920 0a03 07       		.uleb128 0x7
 1921 0a04 69030000 		.4byte	.LASF145
 1922 0a08 11       		.byte	0x11
 1923 0a09 7E       		.byte	0x7e
 1924 0a0a A0080000 		.4byte	0x8a0
 1925 0a0e 30       		.byte	0x30
 1926 0a0f 12       		.uleb128 0x12
 1927 0a10 696200   		.ascii	"ib\000"
 1928 0a13 11       		.byte	0x11
 1929 0a14 7E       		.byte	0x7e
 1930 0a15 FA0A0000 		.4byte	0xafa
 1931 0a19 54       		.byte	0x54
 1932 0a1a 12       		.uleb128 0x12
 1933 0a1b 6F6200   		.ascii	"ob\000"
ARM GAS  /tmp/ccZwNDqj.s 			page 35


 1934 0a1e 11       		.byte	0x11
 1935 0a1f 7E       		.byte	0x7e
 1936 0a20 FA0A0000 		.4byte	0xafa
 1937 0a24 64       		.byte	0x64
 1938 0a25 07       		.uleb128 0x7
 1939 0a26 DF020000 		.4byte	.LASF146
 1940 0a2a 11       		.byte	0x11
 1941 0a2b 7E       		.byte	0x7e
 1942 0a2c 0A0B0000 		.4byte	0xb0a
 1943 0a30 74       		.byte	0x74
 1944 0a31 07       		.uleb128 0x7
 1945 0a32 CD080000 		.4byte	.LASF147
 1946 0a36 11       		.byte	0x11
 1947 0a37 7E       		.byte	0x7e
 1948 0a38 CE000000 		.4byte	0xce
 1949 0a3c 78       		.byte	0x78
 1950 0a3d 00       		.byte	0
 1951 0a3e 13       		.uleb128 0x13
 1952 0a3f 10       		.byte	0x10
 1953 0a40 12       		.byte	0x12
 1954 0a41 D7       		.byte	0xd7
 1955 0a42 770A0000 		.4byte	0xa77
 1956 0a46 07       		.uleb128 0x7
 1957 0a47 CA030000 		.4byte	.LASF148
 1958 0a4b 12       		.byte	0x12
 1959 0a4c DB       		.byte	0xdb
 1960 0a4d CE000000 		.4byte	0xce
 1961 0a51 00       		.byte	0
 1962 0a52 12       		.uleb128 0x12
 1963 0a53 63723100 		.ascii	"cr1\000"
 1964 0a57 12       		.byte	0x12
 1965 0a58 E0       		.byte	0xe0
 1966 0a59 CE000000 		.4byte	0xce
 1967 0a5d 04       		.byte	0x4
 1968 0a5e 12       		.uleb128 0x12
 1969 0a5f 63723200 		.ascii	"cr2\000"
 1970 0a63 12       		.byte	0x12
 1971 0a64 E4       		.byte	0xe4
 1972 0a65 CE000000 		.4byte	0xce
 1973 0a69 08       		.byte	0x8
 1974 0a6a 12       		.uleb128 0x12
 1975 0a6b 63723300 		.ascii	"cr3\000"
 1976 0a6f 12       		.byte	0x12
 1977 0a70 E8       		.byte	0xe8
 1978 0a71 CE000000 		.4byte	0xce
 1979 0a75 0C       		.byte	0xc
 1980 0a76 00       		.byte	0
 1981 0a77 03       		.uleb128 0x3
 1982 0a78 A3040000 		.4byte	.LASF149
 1983 0a7c 12       		.byte	0x12
 1984 0a7d E9       		.byte	0xe9
 1985 0a7e 3E0A0000 		.4byte	0xa3e
 1986 0a82 06       		.uleb128 0x6
 1987 0a83 03030000 		.4byte	.LASF150
 1988 0a87 20       		.byte	0x20
 1989 0a88 11       		.byte	0x11
 1990 0a89 70       		.byte	0x70
ARM GAS  /tmp/ccZwNDqj.s 			page 36


 1991 0a8a EF0A0000 		.4byte	0xaef
 1992 0a8e 07       		.uleb128 0x7
 1993 0a8f F4030000 		.4byte	.LASF151
 1994 0a93 11       		.byte	0x11
 1995 0a94 71       		.byte	0x71
 1996 0a95 CF080000 		.4byte	0x8cf
 1997 0a99 00       		.byte	0
 1998 0a9a 07       		.uleb128 0x7
 1999 0a9b 56060000 		.4byte	.LASF152
 2000 0a9f 11       		.byte	0x11
 2001 0aa0 71       		.byte	0x71
 2002 0aa1 EE080000 		.4byte	0x8ee
 2003 0aa5 04       		.byte	0x4
 2004 0aa6 12       		.uleb128 0x12
 2005 0aa7 70757400 		.ascii	"put\000"
 2006 0aab 11       		.byte	0x11
 2007 0aac 71       		.byte	0x71
 2008 0aad 08090000 		.4byte	0x908
 2009 0ab1 08       		.byte	0x8
 2010 0ab2 12       		.uleb128 0x12
 2011 0ab3 67657400 		.ascii	"get\000"
 2012 0ab7 11       		.byte	0x11
 2013 0ab8 71       		.byte	0x71
 2014 0ab9 51070000 		.4byte	0x751
 2015 0abd 0C       		.byte	0xc
 2016 0abe 07       		.uleb128 0x7
 2017 0abf 08040000 		.4byte	.LASF153
 2018 0ac3 11       		.byte	0x11
 2019 0ac4 71       		.byte	0x71
 2020 0ac5 27090000 		.4byte	0x927
 2021 0ac9 10       		.byte	0x10
 2022 0aca 07       		.uleb128 0x7
 2023 0acb 31030000 		.4byte	.LASF154
 2024 0acf 11       		.byte	0x11
 2025 0ad0 71       		.byte	0x71
 2026 0ad1 41090000 		.4byte	0x941
 2027 0ad5 14       		.byte	0x14
 2028 0ad6 07       		.uleb128 0x7
 2029 0ad7 99030000 		.4byte	.LASF155
 2030 0adb 11       		.byte	0x11
 2031 0adc 71       		.byte	0x71
 2032 0add 65090000 		.4byte	0x965
 2033 0ae1 18       		.byte	0x18
 2034 0ae2 07       		.uleb128 0x7
 2035 0ae3 10010000 		.4byte	.LASF156
 2036 0ae7 11       		.byte	0x11
 2037 0ae8 71       		.byte	0x71
 2038 0ae9 89090000 		.4byte	0x989
 2039 0aed 1C       		.byte	0x1c
 2040 0aee 00       		.byte	0
 2041 0aef 0B       		.uleb128 0xb
 2042 0af0 04       		.byte	0x4
 2043 0af1 F50A0000 		.4byte	0xaf5
 2044 0af5 17       		.uleb128 0x17
 2045 0af6 820A0000 		.4byte	0xa82
 2046 0afa 18       		.uleb128 0x18
 2047 0afb AD000000 		.4byte	0xad
ARM GAS  /tmp/ccZwNDqj.s 			page 37


 2048 0aff 0A0B0000 		.4byte	0xb0a
 2049 0b03 19       		.uleb128 0x19
 2050 0b04 5B040000 		.4byte	0x45b
 2051 0b08 0F       		.byte	0xf
 2052 0b09 00       		.byte	0
 2053 0b0a 0B       		.uleb128 0xb
 2054 0b0b 04       		.byte	0x4
 2055 0b0c D3050000 		.4byte	0x5d3
 2056 0b10 1D       		.uleb128 0x1d
 2057 0b11 AA070000 		.4byte	.LASF163
 2058 0b15 02       		.byte	0x2
 2059 0b16 2002     		.2byte	0x220
 2060 0b18 03       		.byte	0x3
 2061 0b19 2A0B0000 		.4byte	0xb2a
 2062 0b1d 1E       		.uleb128 0x1e
 2063 0b1e 7B020000 		.4byte	.LASF165
 2064 0b22 02       		.byte	0x2
 2065 0b23 2002     		.2byte	0x220
 2066 0b25 CE000000 		.4byte	0xce
 2067 0b29 00       		.byte	0
 2068 0b2a 1F       		.uleb128 0x1f
 2069 0b2b 64000000 		.4byte	.LASF157
 2070 0b2f 0D       		.byte	0xd
 2071 0b30 BB01     		.2byte	0x1bb
 2072 0b32 03       		.byte	0x3
 2073 0b33 1F       		.uleb128 0x1f
 2074 0b34 66010000 		.4byte	.LASF158
 2075 0b38 0D       		.byte	0xd
 2076 0b39 C901     		.2byte	0x1c9
 2077 0b3b 03       		.byte	0x3
 2078 0b3c 1F       		.uleb128 0x1f
 2079 0b3d 0A080000 		.4byte	.LASF159
 2080 0b41 0D       		.byte	0xd
 2081 0b42 D801     		.2byte	0x1d8
 2082 0b44 03       		.byte	0x3
 2083 0b45 1F       		.uleb128 0x1f
 2084 0b46 82060000 		.4byte	.LASF160
 2085 0b4a 0D       		.byte	0xd
 2086 0b4b E301     		.2byte	0x1e3
 2087 0b4d 03       		.byte	0x3
 2088 0b4e 1F       		.uleb128 0x1f
 2089 0b4f AA080000 		.4byte	.LASF161
 2090 0b53 13       		.byte	0x13
 2091 0b54 5001     		.2byte	0x150
 2092 0b56 03       		.byte	0x3
 2093 0b57 1F       		.uleb128 0x1f
 2094 0b58 28020000 		.4byte	.LASF162
 2095 0b5c 13       		.byte	0x13
 2096 0b5d 6401     		.2byte	0x164
 2097 0b5f 03       		.byte	0x3
 2098 0b60 20       		.uleb128 0x20
 2099 0b61 0D040000 		.4byte	.LASF164
 2100 0b65 01       		.byte	0x1
 2101 0b66 5B       		.byte	0x5b
 2102 0b67 01       		.byte	0x1
 2103 0b68 8C0B0000 		.4byte	0xb8c
 2104 0b6c 21       		.uleb128 0x21
ARM GAS  /tmp/ccZwNDqj.s 			page 38


 2105 0b6d 73647000 		.ascii	"sdp\000"
 2106 0b71 01       		.byte	0x1
 2107 0b72 5B       		.byte	0x5b
 2108 0b73 8C0B0000 		.4byte	0xb8c
 2109 0b77 22       		.uleb128 0x22
 2110 0b78 70060000 		.4byte	.LASF166
 2111 0b7c 01       		.byte	0x1
 2112 0b7d 5B       		.byte	0x5b
 2113 0b7e 920B0000 		.4byte	0xb92
 2114 0b82 23       		.uleb128 0x23
 2115 0b83 7500     		.ascii	"u\000"
 2116 0b85 01       		.byte	0x1
 2117 0b86 5C       		.byte	0x5c
 2118 0b87 0A0B0000 		.4byte	0xb0a
 2119 0b8b 00       		.byte	0
 2120 0b8c 0B       		.uleb128 0xb
 2121 0b8d 04       		.byte	0x4
 2122 0b8e BC090000 		.4byte	0x9bc
 2123 0b92 0B       		.uleb128 0xb
 2124 0b93 04       		.byte	0x4
 2125 0b94 980B0000 		.4byte	0xb98
 2126 0b98 17       		.uleb128 0x17
 2127 0b99 770A0000 		.4byte	0xa77
 2128 0b9d 1F       		.uleb128 0x1f
 2129 0b9e 5B020000 		.4byte	.LASF167
 2130 0ba2 04       		.byte	0x4
 2131 0ba3 BD01     		.2byte	0x1bd
 2132 0ba5 03       		.byte	0x3
 2133 0ba6 1D       		.uleb128 0x1d
 2134 0ba7 85000000 		.4byte	.LASF168
 2135 0bab 04       		.byte	0x4
 2136 0bac 0503     		.2byte	0x305
 2137 0bae 03       		.byte	0x3
 2138 0baf CC0B0000 		.4byte	0xbcc
 2139 0bb3 24       		.uleb128 0x24
 2140 0bb4 65737000 		.ascii	"esp\000"
 2141 0bb8 04       		.byte	0x4
 2142 0bb9 0503     		.2byte	0x305
 2143 0bbb CC0B0000 		.4byte	0xbcc
 2144 0bbf 1E       		.uleb128 0x1e
 2145 0bc0 9D080000 		.4byte	.LASF169
 2146 0bc4 04       		.byte	0x4
 2147 0bc5 0603     		.2byte	0x306
 2148 0bc7 40010000 		.4byte	0x140
 2149 0bcb 00       		.byte	0
 2150 0bcc 0B       		.uleb128 0xb
 2151 0bcd 04       		.byte	0x4
 2152 0bce EA070000 		.4byte	0x7ea
 2153 0bd2 1F       		.uleb128 0x1f
 2154 0bd3 D2000000 		.4byte	.LASF170
 2155 0bd7 04       		.byte	0x4
 2156 0bd8 C801     		.2byte	0x1c8
 2157 0bda 03       		.byte	0x3
 2158 0bdb 25       		.uleb128 0x25
 2159 0bdc BB080000 		.4byte	.LASF186
 2160 0be0 03       		.byte	0x3
 2161 0be1 7F01     		.2byte	0x17f
ARM GAS  /tmp/ccZwNDqj.s 			page 39


 2162 0be3 8F090000 		.4byte	0x98f
 2163 0be7 03       		.byte	0x3
 2164 0be8 F90B0000 		.4byte	0xbf9
 2165 0bec 24       		.uleb128 0x24
 2166 0bed 6F717000 		.ascii	"oqp\000"
 2167 0bf1 03       		.byte	0x3
 2168 0bf2 7F01     		.2byte	0x17f
 2169 0bf4 F90B0000 		.4byte	0xbf9
 2170 0bf8 00       		.byte	0
 2171 0bf9 0B       		.uleb128 0xb
 2172 0bfa 04       		.byte	0x4
 2173 0bfb A0080000 		.4byte	0x8a0
 2174 0bff 20       		.uleb128 0x20
 2175 0c00 6E020000 		.4byte	.LASF171
 2176 0c04 01       		.byte	0x1
 2177 0c05 70       		.byte	0x70
 2178 0c06 01       		.byte	0x1
 2179 0c07 150C0000 		.4byte	0xc15
 2180 0c0b 21       		.uleb128 0x21
 2181 0c0c 7500     		.ascii	"u\000"
 2182 0c0e 01       		.byte	0x1
 2183 0c0f 70       		.byte	0x70
 2184 0c10 0A0B0000 		.4byte	0xb0a
 2185 0c14 00       		.byte	0
 2186 0c15 20       		.uleb128 0x20
 2187 0c16 49000000 		.4byte	.LASF172
 2188 0c1a 01       		.byte	0x1
 2189 0c1b 7D       		.byte	0x7d
 2190 0c1c 01       		.byte	0x1
 2191 0c1d 430C0000 		.4byte	0xc43
 2192 0c21 21       		.uleb128 0x21
 2193 0c22 73647000 		.ascii	"sdp\000"
 2194 0c26 01       		.byte	0x1
 2195 0c27 7D       		.byte	0x7d
 2196 0c28 8C0B0000 		.4byte	0xb8c
 2197 0c2c 21       		.uleb128 0x21
 2198 0c2d 69737200 		.ascii	"isr\000"
 2199 0c31 01       		.byte	0x1
 2200 0c32 7D       		.byte	0x7d
 2201 0c33 CE000000 		.4byte	0xce
 2202 0c37 23       		.uleb128 0x23
 2203 0c38 73747300 		.ascii	"sts\000"
 2204 0c3c 01       		.byte	0x1
 2205 0c3d 7E       		.byte	0x7e
 2206 0c3e 40010000 		.4byte	0x140
 2207 0c42 00       		.byte	0
 2208 0c43 20       		.uleb128 0x20
 2209 0c44 D6050000 		.4byte	.LASF173
 2210 0c48 01       		.byte	0x1
 2211 0c49 92       		.byte	0x92
 2212 0c4a 01       		.byte	0x1
 2213 0c4b 850C0000 		.4byte	0xc85
 2214 0c4f 21       		.uleb128 0x21
 2215 0c50 73647000 		.ascii	"sdp\000"
 2216 0c54 01       		.byte	0x1
 2217 0c55 92       		.byte	0x92
 2218 0c56 8C0B0000 		.4byte	0xb8c
ARM GAS  /tmp/ccZwNDqj.s 			page 40


 2219 0c5a 23       		.uleb128 0x23
 2220 0c5b 7500     		.ascii	"u\000"
 2221 0c5d 01       		.byte	0x1
 2222 0c5e 93       		.byte	0x93
 2223 0c5f 0A0B0000 		.4byte	0xb0a
 2224 0c63 23       		.uleb128 0x23
 2225 0c64 63723100 		.ascii	"cr1\000"
 2226 0c68 01       		.byte	0x1
 2227 0c69 94       		.byte	0x94
 2228 0c6a CE000000 		.4byte	0xce
 2229 0c6e 23       		.uleb128 0x23
 2230 0c6f 69737200 		.ascii	"isr\000"
 2231 0c73 01       		.byte	0x1
 2232 0c74 95       		.byte	0x95
 2233 0c75 CE000000 		.4byte	0xce
 2234 0c79 26       		.uleb128 0x26
 2235 0c7a 23       		.uleb128 0x23
 2236 0c7b 6200     		.ascii	"b\000"
 2237 0c7d 01       		.byte	0x1
 2238 0c7e AF       		.byte	0xaf
 2239 0c7f 2A010000 		.4byte	0x12a
 2240 0c83 00       		.byte	0
 2241 0c84 00       		.byte	0
 2242 0c85 27       		.uleb128 0x27
 2243 0c86 BB040000 		.4byte	.LASF187
 2244 0c8a 01       		.byte	0x1
 2245 0c8b C6       		.byte	0xc6
 2246 0c8c 00000000 		.4byte	.LFB259
 2247 0c90 10000000 		.4byte	.LFE259-.LFB259
 2248 0c94 01       		.uleb128 0x1
 2249 0c95 9C       		.byte	0x9c
 2250 0c96 A70C0000 		.4byte	0xca7
 2251 0c9a 28       		.uleb128 0x28
 2252 0c9b 717000   		.ascii	"qp\000"
 2253 0c9e 01       		.byte	0x1
 2254 0c9f C6       		.byte	0xc6
 2255 0ca0 89080000 		.4byte	0x889
 2256 0ca4 01       		.uleb128 0x1
 2257 0ca5 50       		.byte	0x50
 2258 0ca6 00       		.byte	0
 2259 0ca7 29       		.uleb128 0x29
 2260 0ca8 C1030000 		.4byte	.LASF174
 2261 0cac 01       		.byte	0x1
 2262 0cad 0201     		.2byte	0x102
 2263 0caf 00000000 		.4byte	.LFB260
 2264 0cb3 FC000000 		.4byte	.LFE260-.LFB260
 2265 0cb7 01       		.uleb128 0x1
 2266 0cb8 9C       		.byte	0x9c
 2267 0cb9 25130000 		.4byte	0x1325
 2268 0cbd 2A       		.uleb128 0x2a
 2269 0cbe 430C0000 		.4byte	0xc43
 2270 0cc2 02000000 		.4byte	.LBB267
 2271 0cc6 00000000 		.4byte	.Ldebug_ranges0+0
 2272 0cca 01       		.byte	0x1
 2273 0ccb 0601     		.2byte	0x106
 2274 0ccd 1B130000 		.4byte	0x131b
 2275 0cd1 2B       		.uleb128 0x2b
ARM GAS  /tmp/ccZwNDqj.s 			page 41


 2276 0cd2 4F0C0000 		.4byte	0xc4f
 2277 0cd6 06       		.uleb128 0x6
 2278 0cd7 03       		.byte	0x3
 2279 0cd8 00000000 		.4byte	SD1
 2280 0cdc 9F       		.byte	0x9f
 2281 0cdd 2C       		.uleb128 0x2c
 2282 0cde 00000000 		.4byte	.Ldebug_ranges0+0
 2283 0ce2 2D       		.uleb128 0x2d
 2284 0ce3 5A0C0000 		.4byte	0xc5a
 2285 0ce7 00000000 		.4byte	.LLST0
 2286 0ceb 2D       		.uleb128 0x2d
 2287 0cec 630C0000 		.4byte	0xc63
 2288 0cf0 1E000000 		.4byte	.LLST1
 2289 0cf4 2D       		.uleb128 0x2d
 2290 0cf5 6E0C0000 		.4byte	0xc6e
 2291 0cf9 3C000000 		.4byte	.LLST2
 2292 0cfd 2E       		.uleb128 0x2e
 2293 0cfe 9D0B0000 		.4byte	0xb9d
 2294 0d02 24000000 		.4byte	.LBB269
 2295 0d06 06000000 		.4byte	.LBE269-.LBB269
 2296 0d0a 01       		.byte	0x1
 2297 0d0b BD       		.byte	0xbd
 2298 0d0c 5E0D0000 		.4byte	0xd5e
 2299 0d10 2F       		.uleb128 0x2f
 2300 0d11 4E0B0000 		.4byte	0xb4e
 2301 0d15 24000000 		.4byte	.LBB270
 2302 0d19 06000000 		.4byte	.LBE270-.LBB270
 2303 0d1d 04       		.byte	0x4
 2304 0d1e BF01     		.2byte	0x1bf
 2305 0d20 2F       		.uleb128 0x2f
 2306 0d21 3C0B0000 		.4byte	0xb3c
 2307 0d25 24000000 		.4byte	.LBB271
 2308 0d29 06000000 		.4byte	.LBE271-.LBB271
 2309 0d2d 13       		.byte	0x13
 2310 0d2e 5201     		.2byte	0x152
 2311 0d30 2F       		.uleb128 0x2f
 2312 0d31 2A0B0000 		.4byte	0xb2a
 2313 0d35 24000000 		.4byte	.LBB272
 2314 0d39 06000000 		.4byte	.LBE272-.LBB272
 2315 0d3d 0D       		.byte	0xd
 2316 0d3e DA01     		.2byte	0x1da
 2317 0d40 2F       		.uleb128 0x2f
 2318 0d41 100B0000 		.4byte	0xb10
 2319 0d45 24000000 		.4byte	.LBB273
 2320 0d49 06000000 		.4byte	.LBE273-.LBB273
 2321 0d4d 0D       		.byte	0xd
 2322 0d4e BE01     		.2byte	0x1be
 2323 0d50 30       		.uleb128 0x30
 2324 0d51 1D0B0000 		.4byte	0xb1d
 2325 0d55 5A000000 		.4byte	.LLST3
 2326 0d59 00       		.byte	0
 2327 0d5a 00       		.byte	0
 2328 0d5b 00       		.byte	0
 2329 0d5c 00       		.byte	0
 2330 0d5d 00       		.byte	0
 2331 0d5e 31       		.uleb128 0x31
 2332 0d5f DB0B0000 		.4byte	0xbdb
ARM GAS  /tmp/ccZwNDqj.s 			page 42


 2333 0d63 2A000000 		.4byte	.LBB275
 2334 0d67 18000000 		.4byte	.Ldebug_ranges0+0x18
 2335 0d6b 01       		.byte	0x1
 2336 0d6c BE       		.byte	0xbe
 2337 0d6d 7B0D0000 		.4byte	0xd7b
 2338 0d71 30       		.uleb128 0x30
 2339 0d72 EC0B0000 		.4byte	0xbec
 2340 0d76 7C000000 		.4byte	.LLST4
 2341 0d7a 00       		.byte	0
 2342 0d7b 2E       		.uleb128 0x2e
 2343 0d7c D20B0000 		.4byte	0xbd2
 2344 0d80 3A000000 		.4byte	.LBB278
 2345 0d84 06000000 		.4byte	.LBE278-.LBB278
 2346 0d88 01       		.byte	0x1
 2347 0d89 C1       		.byte	0xc1
 2348 0d8a DC0D0000 		.4byte	0xddc
 2349 0d8e 2F       		.uleb128 0x2f
 2350 0d8f 570B0000 		.4byte	0xb57
 2351 0d93 3A000000 		.4byte	.LBB279
 2352 0d97 06000000 		.4byte	.LBE279-.LBB279
 2353 0d9b 04       		.byte	0x4
 2354 0d9c CA01     		.2byte	0x1ca
 2355 0d9e 2F       		.uleb128 0x2f
 2356 0d9f 450B0000 		.4byte	0xb45
 2357 0da3 3A000000 		.4byte	.LBB280
 2358 0da7 06000000 		.4byte	.LBE280-.LBB280
 2359 0dab 13       		.byte	0x13
 2360 0dac 6801     		.2byte	0x168
 2361 0dae 2F       		.uleb128 0x2f
 2362 0daf 330B0000 		.4byte	0xb33
 2363 0db3 3A000000 		.4byte	.LBB281
 2364 0db7 06000000 		.4byte	.LBE281-.LBB281
 2365 0dbb 0D       		.byte	0xd
 2366 0dbc E501     		.2byte	0x1e5
 2367 0dbe 2F       		.uleb128 0x2f
 2368 0dbf 100B0000 		.4byte	0xb10
 2369 0dc3 3A000000 		.4byte	.LBB282
 2370 0dc7 06000000 		.4byte	.LBE282-.LBB282
 2371 0dcb 0D       		.byte	0xd
 2372 0dcc CC01     		.2byte	0x1cc
 2373 0dce 30       		.uleb128 0x30
 2374 0dcf 1D0B0000 		.4byte	0xb1d
 2375 0dd3 A4000000 		.4byte	.LLST5
 2376 0dd7 00       		.byte	0
 2377 0dd8 00       		.byte	0
 2378 0dd9 00       		.byte	0
 2379 0dda 00       		.byte	0
 2380 0ddb 00       		.byte	0
 2381 0ddc 2E       		.uleb128 0x2e
 2382 0ddd 9D0B0000 		.4byte	0xb9d
 2383 0de1 48000000 		.4byte	.LBB284
 2384 0de5 06000000 		.4byte	.LBE284-.LBB284
 2385 0de9 01       		.byte	0x1
 2386 0dea A8       		.byte	0xa8
 2387 0deb 3D0E0000 		.4byte	0xe3d
 2388 0def 2F       		.uleb128 0x2f
 2389 0df0 4E0B0000 		.4byte	0xb4e
ARM GAS  /tmp/ccZwNDqj.s 			page 43


 2390 0df4 48000000 		.4byte	.LBB285
 2391 0df8 06000000 		.4byte	.LBE285-.LBB285
 2392 0dfc 04       		.byte	0x4
 2393 0dfd BF01     		.2byte	0x1bf
 2394 0dff 2F       		.uleb128 0x2f
 2395 0e00 3C0B0000 		.4byte	0xb3c
 2396 0e04 48000000 		.4byte	.LBB286
 2397 0e08 06000000 		.4byte	.LBE286-.LBB286
 2398 0e0c 13       		.byte	0x13
 2399 0e0d 5201     		.2byte	0x152
 2400 0e0f 2F       		.uleb128 0x2f
 2401 0e10 2A0B0000 		.4byte	0xb2a
 2402 0e14 48000000 		.4byte	.LBB287
 2403 0e18 06000000 		.4byte	.LBE287-.LBB287
 2404 0e1c 0D       		.byte	0xd
 2405 0e1d DA01     		.2byte	0x1da
 2406 0e1f 2F       		.uleb128 0x2f
 2407 0e20 100B0000 		.4byte	0xb10
 2408 0e24 48000000 		.4byte	.LBB288
 2409 0e28 06000000 		.4byte	.LBE288-.LBB288
 2410 0e2c 0D       		.byte	0xd
 2411 0e2d BE01     		.2byte	0x1be
 2412 0e2f 30       		.uleb128 0x30
 2413 0e30 1D0B0000 		.4byte	0xb1d
 2414 0e34 B8000000 		.4byte	.LLST6
 2415 0e38 00       		.byte	0
 2416 0e39 00       		.byte	0
 2417 0e3a 00       		.byte	0
 2418 0e3b 00       		.byte	0
 2419 0e3c 00       		.byte	0
 2420 0e3d 2E       		.uleb128 0x2e
 2421 0e3e D20B0000 		.4byte	0xbd2
 2422 0e42 58000000 		.4byte	.LBB290
 2423 0e46 08000000 		.4byte	.LBE290-.LBB290
 2424 0e4a 01       		.byte	0x1
 2425 0e4b AA       		.byte	0xaa
 2426 0e4c 9E0E0000 		.4byte	0xe9e
 2427 0e50 2F       		.uleb128 0x2f
 2428 0e51 570B0000 		.4byte	0xb57
 2429 0e55 58000000 		.4byte	.LBB291
 2430 0e59 08000000 		.4byte	.LBE291-.LBB291
 2431 0e5d 04       		.byte	0x4
 2432 0e5e CA01     		.2byte	0x1ca
 2433 0e60 2F       		.uleb128 0x2f
 2434 0e61 450B0000 		.4byte	0xb45
 2435 0e65 58000000 		.4byte	.LBB292
 2436 0e69 08000000 		.4byte	.LBE292-.LBB292
 2437 0e6d 13       		.byte	0x13
 2438 0e6e 6801     		.2byte	0x168
 2439 0e70 2F       		.uleb128 0x2f
 2440 0e71 330B0000 		.4byte	0xb33
 2441 0e75 58000000 		.4byte	.LBB293
 2442 0e79 08000000 		.4byte	.LBE293-.LBB293
 2443 0e7d 0D       		.byte	0xd
 2444 0e7e E501     		.2byte	0x1e5
 2445 0e80 2F       		.uleb128 0x2f
 2446 0e81 100B0000 		.4byte	0xb10
ARM GAS  /tmp/ccZwNDqj.s 			page 44


 2447 0e85 58000000 		.4byte	.LBB294
 2448 0e89 08000000 		.4byte	.LBE294-.LBB294
 2449 0e8d 0D       		.byte	0xd
 2450 0e8e CC01     		.2byte	0x1cc
 2451 0e90 30       		.uleb128 0x30
 2452 0e91 1D0B0000 		.4byte	0xb1d
 2453 0e95 CD000000 		.4byte	.LLST7
 2454 0e99 00       		.byte	0
 2455 0e9a 00       		.byte	0
 2456 0e9b 00       		.byte	0
 2457 0e9c 00       		.byte	0
 2458 0e9d 00       		.byte	0
 2459 0e9e 2E       		.uleb128 0x2e
 2460 0e9f 9D0B0000 		.4byte	0xb9d
 2461 0ea3 60000000 		.4byte	.LBB296
 2462 0ea7 06000000 		.4byte	.LBE296-.LBB296
 2463 0eab 01       		.byte	0x1
 2464 0eac A1       		.byte	0xa1
 2465 0ead FF0E0000 		.4byte	0xeff
 2466 0eb1 2F       		.uleb128 0x2f
 2467 0eb2 4E0B0000 		.4byte	0xb4e
 2468 0eb6 60000000 		.4byte	.LBB297
 2469 0eba 06000000 		.4byte	.LBE297-.LBB297
 2470 0ebe 04       		.byte	0x4
 2471 0ebf BF01     		.2byte	0x1bf
 2472 0ec1 2F       		.uleb128 0x2f
 2473 0ec2 3C0B0000 		.4byte	0xb3c
 2474 0ec6 60000000 		.4byte	.LBB298
 2475 0eca 06000000 		.4byte	.LBE298-.LBB298
 2476 0ece 13       		.byte	0x13
 2477 0ecf 5201     		.2byte	0x152
 2478 0ed1 2F       		.uleb128 0x2f
 2479 0ed2 2A0B0000 		.4byte	0xb2a
 2480 0ed6 60000000 		.4byte	.LBB299
 2481 0eda 06000000 		.4byte	.LBE299-.LBB299
 2482 0ede 0D       		.byte	0xd
 2483 0edf DA01     		.2byte	0x1da
 2484 0ee1 2F       		.uleb128 0x2f
 2485 0ee2 100B0000 		.4byte	0xb10
 2486 0ee6 60000000 		.4byte	.LBB300
 2487 0eea 06000000 		.4byte	.LBE300-.LBB300
 2488 0eee 0D       		.byte	0xd
 2489 0eef BE01     		.2byte	0x1be
 2490 0ef1 30       		.uleb128 0x30
 2491 0ef2 1D0B0000 		.4byte	0xb1d
 2492 0ef6 E1000000 		.4byte	.LLST8
 2493 0efa 00       		.byte	0
 2494 0efb 00       		.byte	0
 2495 0efc 00       		.byte	0
 2496 0efd 00       		.byte	0
 2497 0efe 00       		.byte	0
 2498 0eff 2E       		.uleb128 0x2e
 2499 0f00 A60B0000 		.4byte	0xba6
 2500 0f04 66000000 		.4byte	.LBB302
 2501 0f08 0A000000 		.4byte	.LBE302-.LBB302
 2502 0f0c 01       		.byte	0x1
 2503 0f0d A2       		.byte	0xa2
ARM GAS  /tmp/ccZwNDqj.s 			page 45


 2504 0f0e 3F0F0000 		.4byte	0xf3f
 2505 0f12 30       		.uleb128 0x30
 2506 0f13 BF0B0000 		.4byte	0xbbf
 2507 0f17 F6000000 		.4byte	.LLST9
 2508 0f1b 30       		.uleb128 0x30
 2509 0f1c B30B0000 		.4byte	0xbb3
 2510 0f20 0C010000 		.4byte	.LLST10
 2511 0f24 32       		.uleb128 0x32
 2512 0f25 70000000 		.4byte	.LVL15
 2513 0f29 73140000 		.4byte	0x1473
 2514 0f2d 33       		.uleb128 0x33
 2515 0f2e 01       		.uleb128 0x1
 2516 0f2f 51       		.byte	0x51
 2517 0f30 03       		.uleb128 0x3
 2518 0f31 0A       		.byte	0xa
 2519 0f32 0002     		.2byte	0x200
 2520 0f34 33       		.uleb128 0x33
 2521 0f35 01       		.uleb128 0x1
 2522 0f36 50       		.byte	0x50
 2523 0f37 05       		.uleb128 0x5
 2524 0f38 03       		.byte	0x3
 2525 0f39 04000000 		.4byte	.LANCHOR0+4
 2526 0f3d 00       		.byte	0
 2527 0f3e 00       		.byte	0
 2528 0f3f 2E       		.uleb128 0x2e
 2529 0f40 D20B0000 		.4byte	0xbd2
 2530 0f44 70000000 		.4byte	.LBB304
 2531 0f48 08000000 		.4byte	.LBE304-.LBB304
 2532 0f4c 01       		.byte	0x1
 2533 0f4d A3       		.byte	0xa3
 2534 0f4e A00F0000 		.4byte	0xfa0
 2535 0f52 2F       		.uleb128 0x2f
 2536 0f53 570B0000 		.4byte	0xb57
 2537 0f57 70000000 		.4byte	.LBB305
 2538 0f5b 08000000 		.4byte	.LBE305-.LBB305
 2539 0f5f 04       		.byte	0x4
 2540 0f60 CA01     		.2byte	0x1ca
 2541 0f62 2F       		.uleb128 0x2f
 2542 0f63 450B0000 		.4byte	0xb45
 2543 0f67 70000000 		.4byte	.LBB306
 2544 0f6b 08000000 		.4byte	.LBE306-.LBB306
 2545 0f6f 13       		.byte	0x13
 2546 0f70 6801     		.2byte	0x168
 2547 0f72 2F       		.uleb128 0x2f
 2548 0f73 330B0000 		.4byte	0xb33
 2549 0f77 70000000 		.4byte	.LBB307
 2550 0f7b 08000000 		.4byte	.LBE307-.LBB307
 2551 0f7f 0D       		.byte	0xd
 2552 0f80 E501     		.2byte	0x1e5
 2553 0f82 2F       		.uleb128 0x2f
 2554 0f83 100B0000 		.4byte	0xb10
 2555 0f87 70000000 		.4byte	.LBB308
 2556 0f8b 08000000 		.4byte	.LBE308-.LBB308
 2557 0f8f 0D       		.byte	0xd
 2558 0f90 CC01     		.2byte	0x1cc
 2559 0f92 30       		.uleb128 0x30
 2560 0f93 1D0B0000 		.4byte	0xb1d
ARM GAS  /tmp/ccZwNDqj.s 			page 46


 2561 0f97 24010000 		.4byte	.LLST11
 2562 0f9b 00       		.byte	0
 2563 0f9c 00       		.byte	0
 2564 0f9d 00       		.byte	0
 2565 0f9e 00       		.byte	0
 2566 0f9f 00       		.byte	0
 2567 0fa0 2E       		.uleb128 0x2e
 2568 0fa1 150C0000 		.4byte	0xc15
 2569 0fa5 78000000 		.4byte	.LBB310
 2570 0fa9 36000000 		.4byte	.LBE310-.LBB310
 2571 0fad 01       		.byte	0x1
 2572 0fae 9D       		.byte	0x9d
 2573 0faf A8110000 		.4byte	0x11a8
 2574 0fb3 30       		.uleb128 0x30
 2575 0fb4 210C0000 		.4byte	0xc21
 2576 0fb8 38010000 		.4byte	.LLST12
 2577 0fbc 30       		.uleb128 0x30
 2578 0fbd 2C0C0000 		.4byte	0xc2c
 2579 0fc1 50010000 		.4byte	.LLST13
 2580 0fc5 34       		.uleb128 0x34
 2581 0fc6 78000000 		.4byte	.LBB311
 2582 0fca 36000000 		.4byte	.LBE311-.LBB311
 2583 0fce 2D       		.uleb128 0x2d
 2584 0fcf 370C0000 		.4byte	0xc37
 2585 0fd3 63010000 		.4byte	.LLST14
 2586 0fd7 2E       		.uleb128 0x2e
 2587 0fd8 9D0B0000 		.4byte	0xb9d
 2588 0fdc 9A000000 		.4byte	.LBB312
 2589 0fe0 06000000 		.4byte	.LBE312-.LBB312
 2590 0fe4 01       		.byte	0x1
 2591 0fe5 88       		.byte	0x88
 2592 0fe6 38100000 		.4byte	0x1038
 2593 0fea 2F       		.uleb128 0x2f
 2594 0feb 4E0B0000 		.4byte	0xb4e
 2595 0fef 9A000000 		.4byte	.LBB313
 2596 0ff3 06000000 		.4byte	.LBE313-.LBB313
 2597 0ff7 04       		.byte	0x4
 2598 0ff8 BF01     		.2byte	0x1bf
 2599 0ffa 2F       		.uleb128 0x2f
 2600 0ffb 3C0B0000 		.4byte	0xb3c
 2601 0fff 9A000000 		.4byte	.LBB314
 2602 1003 06000000 		.4byte	.LBE314-.LBB314
 2603 1007 13       		.byte	0x13
 2604 1008 5201     		.2byte	0x152
 2605 100a 2F       		.uleb128 0x2f
 2606 100b 2A0B0000 		.4byte	0xb2a
 2607 100f 9A000000 		.4byte	.LBB315
 2608 1013 06000000 		.4byte	.LBE315-.LBB315
 2609 1017 0D       		.byte	0xd
 2610 1018 DA01     		.2byte	0x1da
 2611 101a 2F       		.uleb128 0x2f
 2612 101b 100B0000 		.4byte	0xb10
 2613 101f 9A000000 		.4byte	.LBB316
 2614 1023 06000000 		.4byte	.LBE316-.LBB316
 2615 1027 0D       		.byte	0xd
 2616 1028 BE01     		.2byte	0x1be
 2617 102a 30       		.uleb128 0x30
ARM GAS  /tmp/ccZwNDqj.s 			page 47


 2618 102b 1D0B0000 		.4byte	0xb1d
 2619 102f 60020000 		.4byte	.LLST15
 2620 1033 00       		.byte	0
 2621 1034 00       		.byte	0
 2622 1035 00       		.byte	0
 2623 1036 00       		.byte	0
 2624 1037 00       		.byte	0
 2625 1038 2E       		.uleb128 0x2e
 2626 1039 A60B0000 		.4byte	0xba6
 2627 103d A0000000 		.4byte	.LBB318
 2628 1041 06000000 		.4byte	.LBE318-.LBB318
 2629 1045 01       		.byte	0x1
 2630 1046 89       		.byte	0x89
 2631 1047 49110000 		.4byte	0x1149
 2632 104b 30       		.uleb128 0x30
 2633 104c BF0B0000 		.4byte	0xbbf
 2634 1050 75020000 		.4byte	.LLST16
 2635 1054 30       		.uleb128 0x30
 2636 1055 B30B0000 		.4byte	0xbb3
 2637 1059 66030000 		.4byte	.LLST17
 2638 105d 32       		.uleb128 0x32
 2639 105e A6000000 		.4byte	.LVL22
 2640 1062 73140000 		.4byte	0x1473
 2641 1066 33       		.uleb128 0x33
 2642 1067 01       		.uleb128 0x1
 2643 1068 51       		.byte	0x51
 2644 1069 D301     		.uleb128 0xd3
 2645 106b 08       		.byte	0x8
 2646 106c 80       		.byte	0x80
 2647 106d 30       		.byte	0x30
 2648 106e 74       		.byte	0x74
 2649 106f 00       		.sleb128 0
 2650 1070 33       		.byte	0x33
 2651 1071 25       		.byte	0x25
 2652 1072 30       		.byte	0x30
 2653 1073 2E       		.byte	0x2e
 2654 1074 28       		.byte	0x28
 2655 1075 0100     		.2byte	0x1
 2656 1077 16       		.byte	0x16
 2657 1078 13       		.byte	0x13
 2658 1079 08       		.byte	0x8
 2659 107a 20       		.byte	0x20
 2660 107b 21       		.byte	0x21
 2661 107c 08       		.byte	0x8
 2662 107d 80       		.byte	0x80
 2663 107e 30       		.byte	0x30
 2664 107f 74       		.byte	0x74
 2665 1080 00       		.sleb128 0
 2666 1081 33       		.byte	0x33
 2667 1082 25       		.byte	0x25
 2668 1083 30       		.byte	0x30
 2669 1084 2E       		.byte	0x2e
 2670 1085 28       		.byte	0x28
 2671 1086 0100     		.2byte	0x1
 2672 1088 16       		.byte	0x16
 2673 1089 13       		.byte	0x13
 2674 108a 74       		.byte	0x74
ARM GAS  /tmp/ccZwNDqj.s 			page 48


 2675 108b 00       		.sleb128 0
 2676 108c 4F       		.byte	0x4f
 2677 108d 24       		.byte	0x24
 2678 108e 30       		.byte	0x30
 2679 108f 2D       		.byte	0x2d
 2680 1090 28       		.byte	0x28
 2681 1091 0100     		.2byte	0x1
 2682 1093 16       		.byte	0x16
 2683 1094 13       		.byte	0x13
 2684 1095 08       		.byte	0x8
 2685 1096 40       		.byte	0x40
 2686 1097 21       		.byte	0x21
 2687 1098 08       		.byte	0x8
 2688 1099 80       		.byte	0x80
 2689 109a 30       		.byte	0x30
 2690 109b 74       		.byte	0x74
 2691 109c 00       		.sleb128 0
 2692 109d 33       		.byte	0x33
 2693 109e 25       		.byte	0x25
 2694 109f 30       		.byte	0x30
 2695 10a0 2E       		.byte	0x2e
 2696 10a1 28       		.byte	0x28
 2697 10a2 0100     		.2byte	0x1
 2698 10a4 16       		.byte	0x16
 2699 10a5 13       		.byte	0x13
 2700 10a6 08       		.byte	0x8
 2701 10a7 20       		.byte	0x20
 2702 10a8 21       		.byte	0x21
 2703 10a9 08       		.byte	0x8
 2704 10aa 80       		.byte	0x80
 2705 10ab 30       		.byte	0x30
 2706 10ac 74       		.byte	0x74
 2707 10ad 00       		.sleb128 0
 2708 10ae 33       		.byte	0x33
 2709 10af 25       		.byte	0x25
 2710 10b0 30       		.byte	0x30
 2711 10b1 2E       		.byte	0x2e
 2712 10b2 28       		.byte	0x28
 2713 10b3 0100     		.2byte	0x1
 2714 10b5 16       		.byte	0x16
 2715 10b6 13       		.byte	0x13
 2716 10b7 74       		.byte	0x74
 2717 10b8 00       		.sleb128 0
 2718 10b9 4F       		.byte	0x4f
 2719 10ba 24       		.byte	0x24
 2720 10bb 30       		.byte	0x30
 2721 10bc 2D       		.byte	0x2d
 2722 10bd 28       		.byte	0x28
 2723 10be 0100     		.2byte	0x1
 2724 10c0 16       		.byte	0x16
 2725 10c1 13       		.byte	0x13
 2726 10c2 74       		.byte	0x74
 2727 10c3 00       		.sleb128 0
 2728 10c4 4E       		.byte	0x4e
 2729 10c5 24       		.byte	0x24
 2730 10c6 30       		.byte	0x30
 2731 10c7 2D       		.byte	0x2d
ARM GAS  /tmp/ccZwNDqj.s 			page 49


 2732 10c8 28       		.byte	0x28
 2733 10c9 0100     		.2byte	0x1
 2734 10cb 16       		.byte	0x16
 2735 10cc 13       		.byte	0x13
 2736 10cd 0A       		.byte	0xa
 2737 10ce 0001     		.2byte	0x100
 2738 10d0 21       		.byte	0x21
 2739 10d1 08       		.byte	0x8
 2740 10d2 80       		.byte	0x80
 2741 10d3 30       		.byte	0x30
 2742 10d4 74       		.byte	0x74
 2743 10d5 00       		.sleb128 0
 2744 10d6 33       		.byte	0x33
 2745 10d7 25       		.byte	0x25
 2746 10d8 30       		.byte	0x30
 2747 10d9 2E       		.byte	0x2e
 2748 10da 28       		.byte	0x28
 2749 10db 0100     		.2byte	0x1
 2750 10dd 16       		.byte	0x16
 2751 10de 13       		.byte	0x13
 2752 10df 08       		.byte	0x8
 2753 10e0 20       		.byte	0x20
 2754 10e1 21       		.byte	0x21
 2755 10e2 08       		.byte	0x8
 2756 10e3 80       		.byte	0x80
 2757 10e4 30       		.byte	0x30
 2758 10e5 74       		.byte	0x74
 2759 10e6 00       		.sleb128 0
 2760 10e7 33       		.byte	0x33
 2761 10e8 25       		.byte	0x25
 2762 10e9 30       		.byte	0x30
 2763 10ea 2E       		.byte	0x2e
 2764 10eb 28       		.byte	0x28
 2765 10ec 0100     		.2byte	0x1
 2766 10ee 16       		.byte	0x16
 2767 10ef 13       		.byte	0x13
 2768 10f0 74       		.byte	0x74
 2769 10f1 00       		.sleb128 0
 2770 10f2 4F       		.byte	0x4f
 2771 10f3 24       		.byte	0x24
 2772 10f4 30       		.byte	0x30
 2773 10f5 2D       		.byte	0x2d
 2774 10f6 28       		.byte	0x28
 2775 10f7 0100     		.2byte	0x1
 2776 10f9 16       		.byte	0x16
 2777 10fa 13       		.byte	0x13
 2778 10fb 08       		.byte	0x8
 2779 10fc 40       		.byte	0x40
 2780 10fd 21       		.byte	0x21
 2781 10fe 08       		.byte	0x8
 2782 10ff 80       		.byte	0x80
 2783 1100 30       		.byte	0x30
 2784 1101 74       		.byte	0x74
 2785 1102 00       		.sleb128 0
 2786 1103 33       		.byte	0x33
 2787 1104 25       		.byte	0x25
 2788 1105 30       		.byte	0x30
ARM GAS  /tmp/ccZwNDqj.s 			page 50


 2789 1106 2E       		.byte	0x2e
 2790 1107 28       		.byte	0x28
 2791 1108 0100     		.2byte	0x1
 2792 110a 16       		.byte	0x16
 2793 110b 13       		.byte	0x13
 2794 110c 08       		.byte	0x8
 2795 110d 20       		.byte	0x20
 2796 110e 21       		.byte	0x21
 2797 110f 08       		.byte	0x8
 2798 1110 80       		.byte	0x80
 2799 1111 30       		.byte	0x30
 2800 1112 74       		.byte	0x74
 2801 1113 00       		.sleb128 0
 2802 1114 33       		.byte	0x33
 2803 1115 25       		.byte	0x25
 2804 1116 30       		.byte	0x30
 2805 1117 2E       		.byte	0x2e
 2806 1118 28       		.byte	0x28
 2807 1119 0100     		.2byte	0x1
 2808 111b 16       		.byte	0x16
 2809 111c 13       		.byte	0x13
 2810 111d 74       		.byte	0x74
 2811 111e 00       		.sleb128 0
 2812 111f 4F       		.byte	0x4f
 2813 1120 24       		.byte	0x24
 2814 1121 30       		.byte	0x30
 2815 1122 2D       		.byte	0x2d
 2816 1123 28       		.byte	0x28
 2817 1124 0100     		.2byte	0x1
 2818 1126 16       		.byte	0x16
 2819 1127 13       		.byte	0x13
 2820 1128 74       		.byte	0x74
 2821 1129 00       		.sleb128 0
 2822 112a 4E       		.byte	0x4e
 2823 112b 24       		.byte	0x24
 2824 112c 30       		.byte	0x30
 2825 112d 2D       		.byte	0x2d
 2826 112e 28       		.byte	0x28
 2827 112f 0100     		.2byte	0x1
 2828 1131 16       		.byte	0x16
 2829 1132 13       		.byte	0x13
 2830 1133 74       		.byte	0x74
 2831 1134 00       		.sleb128 0
 2832 1135 4D       		.byte	0x4d
 2833 1136 24       		.byte	0x24
 2834 1137 30       		.byte	0x30
 2835 1138 2D       		.byte	0x2d
 2836 1139 28       		.byte	0x28
 2837 113a 0100     		.2byte	0x1
 2838 113c 16       		.byte	0x16
 2839 113d 13       		.byte	0x13
 2840 113e 33       		.uleb128 0x33
 2841 113f 01       		.uleb128 0x1
 2842 1140 50       		.byte	0x50
 2843 1141 05       		.uleb128 0x5
 2844 1142 03       		.byte	0x3
 2845 1143 04000000 		.4byte	.LANCHOR0+4
ARM GAS  /tmp/ccZwNDqj.s 			page 51


 2846 1147 00       		.byte	0
 2847 1148 00       		.byte	0
 2848 1149 35       		.uleb128 0x35
 2849 114a D20B0000 		.4byte	0xbd2
 2850 114e A6000000 		.4byte	.LBB320
 2851 1152 08000000 		.4byte	.LBE320-.LBB320
 2852 1156 01       		.byte	0x1
 2853 1157 8A       		.byte	0x8a
 2854 1158 2F       		.uleb128 0x2f
 2855 1159 570B0000 		.4byte	0xb57
 2856 115d A6000000 		.4byte	.LBB321
 2857 1161 08000000 		.4byte	.LBE321-.LBB321
 2858 1165 04       		.byte	0x4
 2859 1166 CA01     		.2byte	0x1ca
 2860 1168 2F       		.uleb128 0x2f
 2861 1169 450B0000 		.4byte	0xb45
 2862 116d A6000000 		.4byte	.LBB322
 2863 1171 08000000 		.4byte	.LBE322-.LBB322
 2864 1175 13       		.byte	0x13
 2865 1176 6801     		.2byte	0x168
 2866 1178 2F       		.uleb128 0x2f
 2867 1179 330B0000 		.4byte	0xb33
 2868 117d A6000000 		.4byte	.LBB323
 2869 1181 08000000 		.4byte	.LBE323-.LBB323
 2870 1185 0D       		.byte	0xd
 2871 1186 E501     		.2byte	0x1e5
 2872 1188 2F       		.uleb128 0x2f
 2873 1189 100B0000 		.4byte	0xb10
 2874 118d A6000000 		.4byte	.LBB324
 2875 1191 08000000 		.4byte	.LBE324-.LBB324
 2876 1195 0D       		.byte	0xd
 2877 1196 CC01     		.2byte	0x1cc
 2878 1198 30       		.uleb128 0x30
 2879 1199 1D0B0000 		.4byte	0xb1d
 2880 119d 7E030000 		.4byte	.LLST18
 2881 11a1 00       		.byte	0
 2882 11a2 00       		.byte	0
 2883 11a3 00       		.byte	0
 2884 11a4 00       		.byte	0
 2885 11a5 00       		.byte	0
 2886 11a6 00       		.byte	0
 2887 11a7 00       		.byte	0
 2888 11a8 36       		.uleb128 0x36
 2889 11a9 30000000 		.4byte	.Ldebug_ranges0+0x30
 2890 11ad CE120000 		.4byte	0x12ce
 2891 11b1 2D       		.uleb128 0x2d
 2892 11b2 7A0C0000 		.4byte	0xc7a
 2893 11b6 92030000 		.4byte	.LLST19
 2894 11ba 2E       		.uleb128 0x2e
 2895 11bb 9D0B0000 		.4byte	0xb9d
 2896 11bf AE000000 		.4byte	.LBB327
 2897 11c3 06000000 		.4byte	.LBE327-.LBB327
 2898 11c7 01       		.byte	0x1
 2899 11c8 B0       		.byte	0xb0
 2900 11c9 1B120000 		.4byte	0x121b
 2901 11cd 2F       		.uleb128 0x2f
 2902 11ce 4E0B0000 		.4byte	0xb4e
ARM GAS  /tmp/ccZwNDqj.s 			page 52


 2903 11d2 AE000000 		.4byte	.LBB328
 2904 11d6 06000000 		.4byte	.LBE328-.LBB328
 2905 11da 04       		.byte	0x4
 2906 11db BF01     		.2byte	0x1bf
 2907 11dd 2F       		.uleb128 0x2f
 2908 11de 3C0B0000 		.4byte	0xb3c
 2909 11e2 AE000000 		.4byte	.LBB329
 2910 11e6 06000000 		.4byte	.LBE329-.LBB329
 2911 11ea 13       		.byte	0x13
 2912 11eb 5201     		.2byte	0x152
 2913 11ed 2F       		.uleb128 0x2f
 2914 11ee 2A0B0000 		.4byte	0xb2a
 2915 11f2 AE000000 		.4byte	.LBB330
 2916 11f6 06000000 		.4byte	.LBE330-.LBB330
 2917 11fa 0D       		.byte	0xd
 2918 11fb DA01     		.2byte	0x1da
 2919 11fd 2F       		.uleb128 0x2f
 2920 11fe 100B0000 		.4byte	0xb10
 2921 1202 AE000000 		.4byte	.LBB331
 2922 1206 06000000 		.4byte	.LBE331-.LBB331
 2923 120a 0D       		.byte	0xd
 2924 120b BE01     		.2byte	0x1be
 2925 120d 30       		.uleb128 0x30
 2926 120e 1D0B0000 		.4byte	0xb1d
 2927 1212 B0030000 		.4byte	.LLST20
 2928 1216 00       		.byte	0
 2929 1217 00       		.byte	0
 2930 1218 00       		.byte	0
 2931 1219 00       		.byte	0
 2932 121a 00       		.byte	0
 2933 121b 2E       		.uleb128 0x2e
 2934 121c D20B0000 		.4byte	0xbd2
 2935 1220 C2000000 		.4byte	.LBB333
 2936 1224 08000000 		.4byte	.LBE333-.LBB333
 2937 1228 01       		.byte	0x1
 2938 1229 B8       		.byte	0xb8
 2939 122a 7C120000 		.4byte	0x127c
 2940 122e 2F       		.uleb128 0x2f
 2941 122f 570B0000 		.4byte	0xb57
 2942 1233 C2000000 		.4byte	.LBB334
 2943 1237 08000000 		.4byte	.LBE334-.LBB334
 2944 123b 04       		.byte	0x4
 2945 123c CA01     		.2byte	0x1ca
 2946 123e 2F       		.uleb128 0x2f
 2947 123f 450B0000 		.4byte	0xb45
 2948 1243 C2000000 		.4byte	.LBB335
 2949 1247 08000000 		.4byte	.LBE335-.LBB335
 2950 124b 13       		.byte	0x13
 2951 124c 6801     		.2byte	0x168
 2952 124e 2F       		.uleb128 0x2f
 2953 124f 330B0000 		.4byte	0xb33
 2954 1253 C2000000 		.4byte	.LBB336
 2955 1257 08000000 		.4byte	.LBE336-.LBB336
 2956 125b 0D       		.byte	0xd
 2957 125c E501     		.2byte	0x1e5
 2958 125e 2F       		.uleb128 0x2f
 2959 125f 100B0000 		.4byte	0xb10
ARM GAS  /tmp/ccZwNDqj.s 			page 53


 2960 1263 C2000000 		.4byte	.LBB337
 2961 1267 08000000 		.4byte	.LBE337-.LBB337
 2962 126b 0D       		.byte	0xd
 2963 126c CC01     		.2byte	0x1cc
 2964 126e 30       		.uleb128 0x30
 2965 126f 1D0B0000 		.4byte	0xb1d
 2966 1273 D2030000 		.4byte	.LLST21
 2967 1277 00       		.byte	0
 2968 1278 00       		.byte	0
 2969 1279 00       		.byte	0
 2970 127a 00       		.byte	0
 2971 127b 00       		.byte	0
 2972 127c 2E       		.uleb128 0x2e
 2973 127d A60B0000 		.4byte	0xba6
 2974 1281 DA000000 		.4byte	.LBB339
 2975 1285 08000000 		.4byte	.LBE339-.LBB339
 2976 1289 01       		.byte	0x1
 2977 128a B3       		.byte	0xb3
 2978 128b BA120000 		.4byte	0x12ba
 2979 128f 37       		.uleb128 0x37
 2980 1290 BF0B0000 		.4byte	0xbbf
 2981 1294 08       		.byte	0x8
 2982 1295 2B       		.uleb128 0x2b
 2983 1296 B30B0000 		.4byte	0xbb3
 2984 129a 06       		.uleb128 0x6
 2985 129b 03       		.byte	0x3
 2986 129c 04000000 		.4byte	SD1+4
 2987 12a0 9F       		.byte	0x9f
 2988 12a1 32       		.uleb128 0x32
 2989 12a2 E2000000 		.4byte	.LVL32
 2990 12a6 73140000 		.4byte	0x1473
 2991 12aa 33       		.uleb128 0x33
 2992 12ab 01       		.uleb128 0x1
 2993 12ac 51       		.byte	0x51
 2994 12ad 01       		.uleb128 0x1
 2995 12ae 38       		.byte	0x38
 2996 12af 33       		.uleb128 0x33
 2997 12b0 01       		.uleb128 0x1
 2998 12b1 50       		.byte	0x50
 2999 12b2 05       		.uleb128 0x5
 3000 12b3 03       		.byte	0x3
 3001 12b4 04000000 		.4byte	.LANCHOR0+4
 3002 12b8 00       		.byte	0
 3003 12b9 00       		.byte	0
 3004 12ba 32       		.uleb128 0x32
 3005 12bb BA000000 		.4byte	.LVL24
 3006 12bf 89140000 		.4byte	0x1489
 3007 12c3 33       		.uleb128 0x33
 3008 12c4 01       		.uleb128 0x1
 3009 12c5 50       		.byte	0x50
 3010 12c6 05       		.uleb128 0x5
 3011 12c7 03       		.byte	0x3
 3012 12c8 30000000 		.4byte	.LANCHOR0+48
 3013 12cc 00       		.byte	0
 3014 12cd 00       		.byte	0
 3015 12ce 2E       		.uleb128 0x2e
 3016 12cf A60B0000 		.4byte	0xba6
ARM GAS  /tmp/ccZwNDqj.s 			page 54


 3017 12d3 D0000000 		.4byte	.LBB342
 3018 12d7 0A000000 		.4byte	.LBE342-.LBB342
 3019 12db 01       		.byte	0x1
 3020 12dc BF       		.byte	0xbf
 3021 12dd 09130000 		.4byte	0x1309
 3022 12e1 30       		.uleb128 0x30
 3023 12e2 BF0B0000 		.4byte	0xbbf
 3024 12e6 E6030000 		.4byte	.LLST22
 3025 12ea 30       		.uleb128 0x30
 3026 12eb B30B0000 		.4byte	0xbb3
 3027 12ef FA030000 		.4byte	.LLST23
 3028 12f3 32       		.uleb128 0x32
 3029 12f4 D8000000 		.4byte	.LVL29
 3030 12f8 73140000 		.4byte	0x1473
 3031 12fc 33       		.uleb128 0x33
 3032 12fd 01       		.uleb128 0x1
 3033 12fe 51       		.byte	0x51
 3034 12ff 01       		.uleb128 0x1
 3035 1300 40       		.byte	0x40
 3036 1301 33       		.uleb128 0x33
 3037 1302 01       		.uleb128 0x1
 3038 1303 50       		.byte	0x50
 3039 1304 02       		.uleb128 0x2
 3040 1305 76       		.byte	0x76
 3041 1306 04       		.sleb128 4
 3042 1307 00       		.byte	0
 3043 1308 00       		.byte	0
 3044 1309 32       		.uleb128 0x32
 3045 130a 58000000 		.4byte	.LVL12
 3046 130e 9E140000 		.4byte	0x149e
 3047 1312 33       		.uleb128 0x33
 3048 1313 01       		.uleb128 0x1
 3049 1314 50       		.byte	0x50
 3050 1315 02       		.uleb128 0x2
 3051 1316 76       		.byte	0x76
 3052 1317 00       		.sleb128 0
 3053 1318 00       		.byte	0
 3054 1319 00       		.byte	0
 3055 131a 00       		.byte	0
 3056 131b 38       		.uleb128 0x38
 3057 131c 48000000 		.4byte	.LVL11
 3058 1320 B5140000 		.4byte	0x14b5
 3059 1324 00       		.byte	0
 3060 1325 29       		.uleb128 0x29
 3061 1326 25030000 		.4byte	.LASF175
 3062 132a 01       		.byte	0x1
 3063 132b 7401     		.2byte	0x174
 3064 132d 00000000 		.4byte	.LFB261
 3065 1331 28000000 		.4byte	.LFE261-.LFB261
 3066 1335 01       		.uleb128 0x1
 3067 1336 9C       		.byte	0x9c
 3068 1337 5A130000 		.4byte	0x135a
 3069 133b 32       		.uleb128 0x32
 3070 133c 0E000000 		.4byte	.LVL33
 3071 1340 BD140000 		.4byte	0x14bd
 3072 1344 33       		.uleb128 0x33
 3073 1345 01       		.uleb128 0x1
ARM GAS  /tmp/ccZwNDqj.s 			page 55


 3074 1346 52       		.byte	0x52
 3075 1347 05       		.uleb128 0x5
 3076 1348 03       		.byte	0x3
 3077 1349 00000000 		.4byte	notify1
 3078 134d 33       		.uleb128 0x33
 3079 134e 01       		.uleb128 0x1
 3080 134f 51       		.byte	0x51
 3081 1350 01       		.uleb128 0x1
 3082 1351 30       		.byte	0x30
 3083 1352 33       		.uleb128 0x33
 3084 1353 01       		.uleb128 0x1
 3085 1354 50       		.byte	0x50
 3086 1355 02       		.uleb128 0x2
 3087 1356 74       		.byte	0x74
 3088 1357 00       		.sleb128 0
 3089 1358 00       		.byte	0
 3090 1359 00       		.byte	0
 3091 135a 29       		.uleb128 0x29
 3092 135b 38050000 		.4byte	.LASF176
 3093 135f 01       		.byte	0x1
 3094 1360 A501     		.2byte	0x1a5
 3095 1362 00000000 		.4byte	.LFB262
 3096 1366 6C000000 		.4byte	.LFE262-.LFB262
 3097 136a 01       		.uleb128 0x1
 3098 136b 9C       		.byte	0x9c
 3099 136c E5130000 		.4byte	0x13e5
 3100 1370 39       		.uleb128 0x39
 3101 1371 73647000 		.ascii	"sdp\000"
 3102 1375 01       		.byte	0x1
 3103 1376 A501     		.2byte	0x1a5
 3104 1378 8C0B0000 		.4byte	0xb8c
 3105 137c 12040000 		.4byte	.LLST24
 3106 1380 3A       		.uleb128 0x3a
 3107 1381 70060000 		.4byte	.LASF166
 3108 1385 01       		.byte	0x1
 3109 1386 A501     		.2byte	0x1a5
 3110 1388 920B0000 		.4byte	0xb92
 3111 138c 54040000 		.4byte	.LLST25
 3112 1390 2A       		.uleb128 0x2a
 3113 1391 600B0000 		.4byte	0xb60
 3114 1395 12000000 		.4byte	.LBB347
 3115 1399 48000000 		.4byte	.Ldebug_ranges0+0x48
 3116 139d 01       		.byte	0x1
 3117 139e D001     		.2byte	0x1d0
 3118 13a0 CF130000 		.4byte	0x13cf
 3119 13a4 30       		.uleb128 0x30
 3120 13a5 6C0B0000 		.4byte	0xb6c
 3121 13a9 9A040000 		.4byte	.LLST26
 3122 13ad 30       		.uleb128 0x30
 3123 13ae 6C0B0000 		.4byte	0xb6c
 3124 13b2 9A040000 		.4byte	.LLST26
 3125 13b6 30       		.uleb128 0x30
 3126 13b7 770B0000 		.4byte	0xb77
 3127 13bb BB040000 		.4byte	.LLST28
 3128 13bf 2C       		.uleb128 0x2c
 3129 13c0 48000000 		.4byte	.Ldebug_ranges0+0x48
 3130 13c4 2D       		.uleb128 0x2d
ARM GAS  /tmp/ccZwNDqj.s 			page 56


 3131 13c5 820B0000 		.4byte	0xb82
 3132 13c9 EB040000 		.4byte	.LLST29
 3133 13cd 00       		.byte	0
 3134 13ce 00       		.byte	0
 3135 13cf 32       		.uleb128 0x32
 3136 13d0 5C000000 		.4byte	.LVL42
 3137 13d4 D9140000 		.4byte	0x14d9
 3138 13d8 33       		.uleb128 0x33
 3139 13d9 01       		.uleb128 0x1
 3140 13da 51       		.byte	0x51
 3141 13db 01       		.uleb128 0x1
 3142 13dc 3C       		.byte	0x3c
 3143 13dd 33       		.uleb128 0x33
 3144 13de 01       		.uleb128 0x1
 3145 13df 50       		.byte	0x50
 3146 13e0 02       		.uleb128 0x2
 3147 13e1 08       		.byte	0x8
 3148 13e2 25       		.byte	0x25
 3149 13e3 00       		.byte	0
 3150 13e4 00       		.byte	0
 3151 13e5 29       		.uleb128 0x29
 3152 13e6 D3080000 		.4byte	.LASF177
 3153 13ea 01       		.byte	0x1
 3154 13eb DC01     		.2byte	0x1dc
 3155 13ed 00000000 		.4byte	.LFB263
 3156 13f1 30000000 		.4byte	.LFE263-.LFB263
 3157 13f5 01       		.uleb128 0x1
 3158 13f6 9C       		.byte	0x9c
 3159 13f7 3A140000 		.4byte	0x143a
 3160 13fb 39       		.uleb128 0x39
 3161 13fc 73647000 		.ascii	"sdp\000"
 3162 1400 01       		.byte	0x1
 3163 1401 DC01     		.2byte	0x1dc
 3164 1403 8C0B0000 		.4byte	0xb8c
 3165 1407 FE040000 		.4byte	.LLST30
 3166 140b 2A       		.uleb128 0x2a
 3167 140c FF0B0000 		.4byte	0xbff
 3168 1410 0C000000 		.4byte	.LBB351
 3169 1414 60000000 		.4byte	.Ldebug_ranges0+0x60
 3170 1418 01       		.byte	0x1
 3171 1419 DF01     		.2byte	0x1df
 3172 141b 29140000 		.4byte	0x1429
 3173 141f 30       		.uleb128 0x30
 3174 1420 0B0C0000 		.4byte	0xc0b
 3175 1424 1F050000 		.4byte	.LLST31
 3176 1428 00       		.byte	0
 3177 1429 3B       		.uleb128 0x3b
 3178 142a 28000000 		.4byte	.LVL47
 3179 142e EF140000 		.4byte	0x14ef
 3180 1432 33       		.uleb128 0x33
 3181 1433 01       		.uleb128 0x1
 3182 1434 50       		.byte	0x50
 3183 1435 02       		.uleb128 0x2
 3184 1436 08       		.byte	0x8
 3185 1437 25       		.byte	0x25
 3186 1438 00       		.byte	0
 3187 1439 00       		.byte	0
ARM GAS  /tmp/ccZwNDqj.s 			page 57


 3188 143a 3C       		.uleb128 0x3c
 3189 143b 72010000 		.4byte	.LASF188
 3190 143f 01       		.byte	0x1
 3191 1440 48       		.byte	0x48
 3192 1441 980B0000 		.4byte	0xb98
 3193 1445 05       		.uleb128 0x5
 3194 1446 03       		.byte	0x3
 3195 1447 00000000 		.4byte	default_config
 3196 144b 3D       		.uleb128 0x3d
 3197 144c 51050000 		.4byte	.LASF178
 3198 1450 15       		.byte	0x15
 3199 1451 A706     		.2byte	0x6a7
 3200 1453 E9000000 		.4byte	0xe9
 3201 1457 3E       		.uleb128 0x3e
 3202 1458 636800   		.ascii	"ch\000"
 3203 145b 0A       		.byte	0xa
 3204 145c EB01     		.2byte	0x1eb
 3205 145e F4030000 		.4byte	0x3f4
 3206 1462 3F       		.uleb128 0x3f
 3207 1463 53443100 		.ascii	"SD1\000"
 3208 1467 01       		.byte	0x1
 3209 1468 27       		.byte	0x27
 3210 1469 BC090000 		.4byte	0x9bc
 3211 146d 05       		.uleb128 0x5
 3212 146e 03       		.byte	0x3
 3213 146f 00000000 		.4byte	SD1
 3214 1473 40       		.uleb128 0x40
 3215 1474 CD010000 		.4byte	.LASF179
 3216 1478 10       		.byte	0x10
 3217 1479 87       		.byte	0x87
 3218 147a 89140000 		.4byte	0x1489
 3219 147e 0D       		.uleb128 0xd
 3220 147f CC0B0000 		.4byte	0xbcc
 3221 1483 0D       		.uleb128 0xd
 3222 1484 40010000 		.4byte	0x140
 3223 1488 00       		.byte	0
 3224 1489 41       		.uleb128 0x41
 3225 148a AC010000 		.4byte	.LASF189
 3226 148e 03       		.byte	0x3
 3227 148f F7       		.byte	0xf7
 3228 1490 2A010000 		.4byte	0x12a
 3229 1494 9E140000 		.4byte	0x149e
 3230 1498 0D       		.uleb128 0xd
 3231 1499 F90B0000 		.4byte	0xbf9
 3232 149d 00       		.byte	0
 3233 149e 42       		.uleb128 0x42
 3234 149f 60060000 		.4byte	.LASF180
 3235 14a3 11       		.byte	0x11
 3236 14a4 2D01     		.2byte	0x12d
 3237 14a6 B5140000 		.4byte	0x14b5
 3238 14aa 0D       		.uleb128 0xd
 3239 14ab 8C0B0000 		.4byte	0xb8c
 3240 14af 0D       		.uleb128 0xd
 3241 14b0 AD000000 		.4byte	0xad
 3242 14b4 00       		.byte	0
 3243 14b5 43       		.uleb128 0x43
 3244 14b6 78030000 		.4byte	.LASF190
ARM GAS  /tmp/ccZwNDqj.s 			page 58


 3245 14ba 0D       		.byte	0xd
 3246 14bb 6501     		.2byte	0x165
 3247 14bd 42       		.uleb128 0x42
 3248 14be 03010000 		.4byte	.LASF181
 3249 14c2 11       		.byte	0x11
 3250 14c3 2A01     		.2byte	0x12a
 3251 14c5 D9140000 		.4byte	0x14d9
 3252 14c9 0D       		.uleb128 0xd
 3253 14ca 8C0B0000 		.4byte	0xb8c
 3254 14ce 0D       		.uleb128 0xd
 3255 14cf 6D080000 		.4byte	0x86d
 3256 14d3 0D       		.uleb128 0xd
 3257 14d4 6D080000 		.4byte	0x86d
 3258 14d8 00       		.byte	0
 3259 14d9 40       		.uleb128 0x40
 3260 14da 53000000 		.4byte	.LASF182
 3261 14de 14       		.byte	0x14
 3262 14df 4E       		.byte	0x4e
 3263 14e0 EF140000 		.4byte	0x14ef
 3264 14e4 0D       		.uleb128 0xd
 3265 14e5 CE000000 		.4byte	0xce
 3266 14e9 0D       		.uleb128 0xd
 3267 14ea CE000000 		.4byte	0xce
 3268 14ee 00       		.byte	0
 3269 14ef 44       		.uleb128 0x44
 3270 14f0 32060000 		.4byte	.LASF191
 3271 14f4 14       		.byte	0x14
 3272 14f5 4F       		.byte	0x4f
 3273 14f6 0D       		.uleb128 0xd
 3274 14f7 CE000000 		.4byte	0xce
 3275 14fb 00       		.byte	0
 3276 14fc 00       		.byte	0
 3277              		.section	.debug_abbrev,"",%progbits
 3278              	.Ldebug_abbrev0:
 3279 0000 01       		.uleb128 0x1
 3280 0001 11       		.uleb128 0x11
 3281 0002 01       		.byte	0x1
 3282 0003 25       		.uleb128 0x25
 3283 0004 0E       		.uleb128 0xe
 3284 0005 13       		.uleb128 0x13
 3285 0006 0B       		.uleb128 0xb
 3286 0007 03       		.uleb128 0x3
 3287 0008 0E       		.uleb128 0xe
 3288 0009 1B       		.uleb128 0x1b
 3289 000a 0E       		.uleb128 0xe
 3290 000b 55       		.uleb128 0x55
 3291 000c 17       		.uleb128 0x17
 3292 000d 11       		.uleb128 0x11
 3293 000e 01       		.uleb128 0x1
 3294 000f 10       		.uleb128 0x10
 3295 0010 17       		.uleb128 0x17
 3296 0011 00       		.byte	0
 3297 0012 00       		.byte	0
 3298 0013 02       		.uleb128 0x2
 3299 0014 24       		.uleb128 0x24
 3300 0015 00       		.byte	0
 3301 0016 0B       		.uleb128 0xb
ARM GAS  /tmp/ccZwNDqj.s 			page 59


 3302 0017 0B       		.uleb128 0xb
 3303 0018 3E       		.uleb128 0x3e
 3304 0019 0B       		.uleb128 0xb
 3305 001a 03       		.uleb128 0x3
 3306 001b 08       		.uleb128 0x8
 3307 001c 00       		.byte	0
 3308 001d 00       		.byte	0
 3309 001e 03       		.uleb128 0x3
 3310 001f 16       		.uleb128 0x16
 3311 0020 00       		.byte	0
 3312 0021 03       		.uleb128 0x3
 3313 0022 0E       		.uleb128 0xe
 3314 0023 3A       		.uleb128 0x3a
 3315 0024 0B       		.uleb128 0xb
 3316 0025 3B       		.uleb128 0x3b
 3317 0026 0B       		.uleb128 0xb
 3318 0027 49       		.uleb128 0x49
 3319 0028 13       		.uleb128 0x13
 3320 0029 00       		.byte	0
 3321 002a 00       		.byte	0
 3322 002b 04       		.uleb128 0x4
 3323 002c 24       		.uleb128 0x24
 3324 002d 00       		.byte	0
 3325 002e 0B       		.uleb128 0xb
 3326 002f 0B       		.uleb128 0xb
 3327 0030 3E       		.uleb128 0x3e
 3328 0031 0B       		.uleb128 0xb
 3329 0032 03       		.uleb128 0x3
 3330 0033 0E       		.uleb128 0xe
 3331 0034 00       		.byte	0
 3332 0035 00       		.byte	0
 3333 0036 05       		.uleb128 0x5
 3334 0037 35       		.uleb128 0x35
 3335 0038 00       		.byte	0
 3336 0039 49       		.uleb128 0x49
 3337 003a 13       		.uleb128 0x13
 3338 003b 00       		.byte	0
 3339 003c 00       		.byte	0
 3340 003d 06       		.uleb128 0x6
 3341 003e 13       		.uleb128 0x13
 3342 003f 01       		.byte	0x1
 3343 0040 03       		.uleb128 0x3
 3344 0041 0E       		.uleb128 0xe
 3345 0042 0B       		.uleb128 0xb
 3346 0043 0B       		.uleb128 0xb
 3347 0044 3A       		.uleb128 0x3a
 3348 0045 0B       		.uleb128 0xb
 3349 0046 3B       		.uleb128 0x3b
 3350 0047 0B       		.uleb128 0xb
 3351 0048 01       		.uleb128 0x1
 3352 0049 13       		.uleb128 0x13
 3353 004a 00       		.byte	0
 3354 004b 00       		.byte	0
 3355 004c 07       		.uleb128 0x7
 3356 004d 0D       		.uleb128 0xd
 3357 004e 00       		.byte	0
 3358 004f 03       		.uleb128 0x3
ARM GAS  /tmp/ccZwNDqj.s 			page 60


 3359 0050 0E       		.uleb128 0xe
 3360 0051 3A       		.uleb128 0x3a
 3361 0052 0B       		.uleb128 0xb
 3362 0053 3B       		.uleb128 0x3b
 3363 0054 0B       		.uleb128 0xb
 3364 0055 49       		.uleb128 0x49
 3365 0056 13       		.uleb128 0x13
 3366 0057 38       		.uleb128 0x38
 3367 0058 0B       		.uleb128 0xb
 3368 0059 00       		.byte	0
 3369 005a 00       		.byte	0
 3370 005b 08       		.uleb128 0x8
 3371 005c 0D       		.uleb128 0xd
 3372 005d 00       		.byte	0
 3373 005e 03       		.uleb128 0x3
 3374 005f 08       		.uleb128 0x8
 3375 0060 3A       		.uleb128 0x3a
 3376 0061 0B       		.uleb128 0xb
 3377 0062 3B       		.uleb128 0x3b
 3378 0063 05       		.uleb128 0x5
 3379 0064 49       		.uleb128 0x49
 3380 0065 13       		.uleb128 0x13
 3381 0066 38       		.uleb128 0x38
 3382 0067 0B       		.uleb128 0xb
 3383 0068 00       		.byte	0
 3384 0069 00       		.byte	0
 3385 006a 09       		.uleb128 0x9
 3386 006b 0D       		.uleb128 0xd
 3387 006c 00       		.byte	0
 3388 006d 03       		.uleb128 0x3
 3389 006e 0E       		.uleb128 0xe
 3390 006f 3A       		.uleb128 0x3a
 3391 0070 0B       		.uleb128 0xb
 3392 0071 3B       		.uleb128 0x3b
 3393 0072 05       		.uleb128 0x5
 3394 0073 49       		.uleb128 0x49
 3395 0074 13       		.uleb128 0x13
 3396 0075 38       		.uleb128 0x38
 3397 0076 0B       		.uleb128 0xb
 3398 0077 00       		.byte	0
 3399 0078 00       		.byte	0
 3400 0079 0A       		.uleb128 0xa
 3401 007a 13       		.uleb128 0x13
 3402 007b 01       		.byte	0x1
 3403 007c 03       		.uleb128 0x3
 3404 007d 0E       		.uleb128 0xe
 3405 007e 0B       		.uleb128 0xb
 3406 007f 0B       		.uleb128 0xb
 3407 0080 3A       		.uleb128 0x3a
 3408 0081 0B       		.uleb128 0xb
 3409 0082 3B       		.uleb128 0x3b
 3410 0083 05       		.uleb128 0x5
 3411 0084 01       		.uleb128 0x1
 3412 0085 13       		.uleb128 0x13
 3413 0086 00       		.byte	0
 3414 0087 00       		.byte	0
 3415 0088 0B       		.uleb128 0xb
ARM GAS  /tmp/ccZwNDqj.s 			page 61


 3416 0089 0F       		.uleb128 0xf
 3417 008a 00       		.byte	0
 3418 008b 0B       		.uleb128 0xb
 3419 008c 0B       		.uleb128 0xb
 3420 008d 49       		.uleb128 0x49
 3421 008e 13       		.uleb128 0x13
 3422 008f 00       		.byte	0
 3423 0090 00       		.byte	0
 3424 0091 0C       		.uleb128 0xc
 3425 0092 15       		.uleb128 0x15
 3426 0093 01       		.byte	0x1
 3427 0094 27       		.uleb128 0x27
 3428 0095 19       		.uleb128 0x19
 3429 0096 01       		.uleb128 0x1
 3430 0097 13       		.uleb128 0x13
 3431 0098 00       		.byte	0
 3432 0099 00       		.byte	0
 3433 009a 0D       		.uleb128 0xd
 3434 009b 05       		.uleb128 0x5
 3435 009c 00       		.byte	0
 3436 009d 49       		.uleb128 0x49
 3437 009e 13       		.uleb128 0x13
 3438 009f 00       		.byte	0
 3439 00a0 00       		.byte	0
 3440 00a1 0E       		.uleb128 0xe
 3441 00a2 0F       		.uleb128 0xf
 3442 00a3 00       		.byte	0
 3443 00a4 0B       		.uleb128 0xb
 3444 00a5 0B       		.uleb128 0xb
 3445 00a6 00       		.byte	0
 3446 00a7 00       		.byte	0
 3447 00a8 0F       		.uleb128 0xf
 3448 00a9 13       		.uleb128 0x13
 3449 00aa 01       		.byte	0x1
 3450 00ab 03       		.uleb128 0x3
 3451 00ac 0E       		.uleb128 0xe
 3452 00ad 0B       		.uleb128 0xb
 3453 00ae 05       		.uleb128 0x5
 3454 00af 3A       		.uleb128 0x3a
 3455 00b0 0B       		.uleb128 0xb
 3456 00b1 3B       		.uleb128 0x3b
 3457 00b2 05       		.uleb128 0x5
 3458 00b3 01       		.uleb128 0x1
 3459 00b4 13       		.uleb128 0x13
 3460 00b5 00       		.byte	0
 3461 00b6 00       		.byte	0
 3462 00b7 10       		.uleb128 0x10
 3463 00b8 13       		.uleb128 0x13
 3464 00b9 01       		.byte	0x1
 3465 00ba 0B       		.uleb128 0xb
 3466 00bb 0B       		.uleb128 0xb
 3467 00bc 3A       		.uleb128 0x3a
 3468 00bd 0B       		.uleb128 0xb
 3469 00be 3B       		.uleb128 0x3b
 3470 00bf 05       		.uleb128 0x5
 3471 00c0 01       		.uleb128 0x1
 3472 00c1 13       		.uleb128 0x13
ARM GAS  /tmp/ccZwNDqj.s 			page 62


 3473 00c2 00       		.byte	0
 3474 00c3 00       		.byte	0
 3475 00c4 11       		.uleb128 0x11
 3476 00c5 16       		.uleb128 0x16
 3477 00c6 00       		.byte	0
 3478 00c7 03       		.uleb128 0x3
 3479 00c8 0E       		.uleb128 0xe
 3480 00c9 3A       		.uleb128 0x3a
 3481 00ca 0B       		.uleb128 0xb
 3482 00cb 3B       		.uleb128 0x3b
 3483 00cc 05       		.uleb128 0x5
 3484 00cd 49       		.uleb128 0x49
 3485 00ce 13       		.uleb128 0x13
 3486 00cf 00       		.byte	0
 3487 00d0 00       		.byte	0
 3488 00d1 12       		.uleb128 0x12
 3489 00d2 0D       		.uleb128 0xd
 3490 00d3 00       		.byte	0
 3491 00d4 03       		.uleb128 0x3
 3492 00d5 08       		.uleb128 0x8
 3493 00d6 3A       		.uleb128 0x3a
 3494 00d7 0B       		.uleb128 0xb
 3495 00d8 3B       		.uleb128 0x3b
 3496 00d9 0B       		.uleb128 0xb
 3497 00da 49       		.uleb128 0x49
 3498 00db 13       		.uleb128 0x13
 3499 00dc 38       		.uleb128 0x38
 3500 00dd 0B       		.uleb128 0xb
 3501 00de 00       		.byte	0
 3502 00df 00       		.byte	0
 3503 00e0 13       		.uleb128 0x13
 3504 00e1 13       		.uleb128 0x13
 3505 00e2 01       		.byte	0x1
 3506 00e3 0B       		.uleb128 0xb
 3507 00e4 0B       		.uleb128 0xb
 3508 00e5 3A       		.uleb128 0x3a
 3509 00e6 0B       		.uleb128 0xb
 3510 00e7 3B       		.uleb128 0x3b
 3511 00e8 0B       		.uleb128 0xb
 3512 00e9 01       		.uleb128 0x1
 3513 00ea 13       		.uleb128 0x13
 3514 00eb 00       		.byte	0
 3515 00ec 00       		.byte	0
 3516 00ed 14       		.uleb128 0x14
 3517 00ee 17       		.uleb128 0x17
 3518 00ef 01       		.byte	0x1
 3519 00f0 0B       		.uleb128 0xb
 3520 00f1 0B       		.uleb128 0xb
 3521 00f2 3A       		.uleb128 0x3a
 3522 00f3 0B       		.uleb128 0xb
 3523 00f4 3B       		.uleb128 0x3b
 3524 00f5 0B       		.uleb128 0xb
 3525 00f6 01       		.uleb128 0x1
 3526 00f7 13       		.uleb128 0x13
 3527 00f8 00       		.byte	0
 3528 00f9 00       		.byte	0
 3529 00fa 15       		.uleb128 0x15
ARM GAS  /tmp/ccZwNDqj.s 			page 63


 3530 00fb 0D       		.uleb128 0xd
 3531 00fc 00       		.byte	0
 3532 00fd 03       		.uleb128 0x3
 3533 00fe 0E       		.uleb128 0xe
 3534 00ff 3A       		.uleb128 0x3a
 3535 0100 0B       		.uleb128 0xb
 3536 0101 3B       		.uleb128 0x3b
 3537 0102 0B       		.uleb128 0xb
 3538 0103 49       		.uleb128 0x49
 3539 0104 13       		.uleb128 0x13
 3540 0105 00       		.byte	0
 3541 0106 00       		.byte	0
 3542 0107 16       		.uleb128 0x16
 3543 0108 0D       		.uleb128 0xd
 3544 0109 00       		.byte	0
 3545 010a 03       		.uleb128 0x3
 3546 010b 0E       		.uleb128 0xe
 3547 010c 3A       		.uleb128 0x3a
 3548 010d 0B       		.uleb128 0xb
 3549 010e 3B       		.uleb128 0x3b
 3550 010f 05       		.uleb128 0x5
 3551 0110 49       		.uleb128 0x49
 3552 0111 13       		.uleb128 0x13
 3553 0112 00       		.byte	0
 3554 0113 00       		.byte	0
 3555 0114 17       		.uleb128 0x17
 3556 0115 26       		.uleb128 0x26
 3557 0116 00       		.byte	0
 3558 0117 49       		.uleb128 0x49
 3559 0118 13       		.uleb128 0x13
 3560 0119 00       		.byte	0
 3561 011a 00       		.byte	0
 3562 011b 18       		.uleb128 0x18
 3563 011c 01       		.uleb128 0x1
 3564 011d 01       		.byte	0x1
 3565 011e 49       		.uleb128 0x49
 3566 011f 13       		.uleb128 0x13
 3567 0120 01       		.uleb128 0x1
 3568 0121 13       		.uleb128 0x13
 3569 0122 00       		.byte	0
 3570 0123 00       		.byte	0
 3571 0124 19       		.uleb128 0x19
 3572 0125 21       		.uleb128 0x21
 3573 0126 00       		.byte	0
 3574 0127 49       		.uleb128 0x49
 3575 0128 13       		.uleb128 0x13
 3576 0129 2F       		.uleb128 0x2f
 3577 012a 0B       		.uleb128 0xb
 3578 012b 00       		.byte	0
 3579 012c 00       		.byte	0
 3580 012d 1A       		.uleb128 0x1a
 3581 012e 15       		.uleb128 0x15
 3582 012f 01       		.byte	0x1
 3583 0130 27       		.uleb128 0x27
 3584 0131 19       		.uleb128 0x19
 3585 0132 49       		.uleb128 0x49
 3586 0133 13       		.uleb128 0x13
ARM GAS  /tmp/ccZwNDqj.s 			page 64


 3587 0134 01       		.uleb128 0x1
 3588 0135 13       		.uleb128 0x13
 3589 0136 00       		.byte	0
 3590 0137 00       		.byte	0
 3591 0138 1B       		.uleb128 0x1b
 3592 0139 04       		.uleb128 0x4
 3593 013a 01       		.byte	0x1
 3594 013b 0B       		.uleb128 0xb
 3595 013c 0B       		.uleb128 0xb
 3596 013d 3A       		.uleb128 0x3a
 3597 013e 0B       		.uleb128 0xb
 3598 013f 3B       		.uleb128 0x3b
 3599 0140 0B       		.uleb128 0xb
 3600 0141 01       		.uleb128 0x1
 3601 0142 13       		.uleb128 0x13
 3602 0143 00       		.byte	0
 3603 0144 00       		.byte	0
 3604 0145 1C       		.uleb128 0x1c
 3605 0146 28       		.uleb128 0x28
 3606 0147 00       		.byte	0
 3607 0148 03       		.uleb128 0x3
 3608 0149 0E       		.uleb128 0xe
 3609 014a 1C       		.uleb128 0x1c
 3610 014b 0D       		.uleb128 0xd
 3611 014c 00       		.byte	0
 3612 014d 00       		.byte	0
 3613 014e 1D       		.uleb128 0x1d
 3614 014f 2E       		.uleb128 0x2e
 3615 0150 01       		.byte	0x1
 3616 0151 03       		.uleb128 0x3
 3617 0152 0E       		.uleb128 0xe
 3618 0153 3A       		.uleb128 0x3a
 3619 0154 0B       		.uleb128 0xb
 3620 0155 3B       		.uleb128 0x3b
 3621 0156 05       		.uleb128 0x5
 3622 0157 27       		.uleb128 0x27
 3623 0158 19       		.uleb128 0x19
 3624 0159 20       		.uleb128 0x20
 3625 015a 0B       		.uleb128 0xb
 3626 015b 01       		.uleb128 0x1
 3627 015c 13       		.uleb128 0x13
 3628 015d 00       		.byte	0
 3629 015e 00       		.byte	0
 3630 015f 1E       		.uleb128 0x1e
 3631 0160 05       		.uleb128 0x5
 3632 0161 00       		.byte	0
 3633 0162 03       		.uleb128 0x3
 3634 0163 0E       		.uleb128 0xe
 3635 0164 3A       		.uleb128 0x3a
 3636 0165 0B       		.uleb128 0xb
 3637 0166 3B       		.uleb128 0x3b
 3638 0167 05       		.uleb128 0x5
 3639 0168 49       		.uleb128 0x49
 3640 0169 13       		.uleb128 0x13
 3641 016a 00       		.byte	0
 3642 016b 00       		.byte	0
 3643 016c 1F       		.uleb128 0x1f
ARM GAS  /tmp/ccZwNDqj.s 			page 65


 3644 016d 2E       		.uleb128 0x2e
 3645 016e 00       		.byte	0
 3646 016f 03       		.uleb128 0x3
 3647 0170 0E       		.uleb128 0xe
 3648 0171 3A       		.uleb128 0x3a
 3649 0172 0B       		.uleb128 0xb
 3650 0173 3B       		.uleb128 0x3b
 3651 0174 05       		.uleb128 0x5
 3652 0175 27       		.uleb128 0x27
 3653 0176 19       		.uleb128 0x19
 3654 0177 20       		.uleb128 0x20
 3655 0178 0B       		.uleb128 0xb
 3656 0179 00       		.byte	0
 3657 017a 00       		.byte	0
 3658 017b 20       		.uleb128 0x20
 3659 017c 2E       		.uleb128 0x2e
 3660 017d 01       		.byte	0x1
 3661 017e 03       		.uleb128 0x3
 3662 017f 0E       		.uleb128 0xe
 3663 0180 3A       		.uleb128 0x3a
 3664 0181 0B       		.uleb128 0xb
 3665 0182 3B       		.uleb128 0x3b
 3666 0183 0B       		.uleb128 0xb
 3667 0184 27       		.uleb128 0x27
 3668 0185 19       		.uleb128 0x19
 3669 0186 20       		.uleb128 0x20
 3670 0187 0B       		.uleb128 0xb
 3671 0188 01       		.uleb128 0x1
 3672 0189 13       		.uleb128 0x13
 3673 018a 00       		.byte	0
 3674 018b 00       		.byte	0
 3675 018c 21       		.uleb128 0x21
 3676 018d 05       		.uleb128 0x5
 3677 018e 00       		.byte	0
 3678 018f 03       		.uleb128 0x3
 3679 0190 08       		.uleb128 0x8
 3680 0191 3A       		.uleb128 0x3a
 3681 0192 0B       		.uleb128 0xb
 3682 0193 3B       		.uleb128 0x3b
 3683 0194 0B       		.uleb128 0xb
 3684 0195 49       		.uleb128 0x49
 3685 0196 13       		.uleb128 0x13
 3686 0197 00       		.byte	0
 3687 0198 00       		.byte	0
 3688 0199 22       		.uleb128 0x22
 3689 019a 05       		.uleb128 0x5
 3690 019b 00       		.byte	0
 3691 019c 03       		.uleb128 0x3
 3692 019d 0E       		.uleb128 0xe
 3693 019e 3A       		.uleb128 0x3a
 3694 019f 0B       		.uleb128 0xb
 3695 01a0 3B       		.uleb128 0x3b
 3696 01a1 0B       		.uleb128 0xb
 3697 01a2 49       		.uleb128 0x49
 3698 01a3 13       		.uleb128 0x13
 3699 01a4 00       		.byte	0
 3700 01a5 00       		.byte	0
ARM GAS  /tmp/ccZwNDqj.s 			page 66


 3701 01a6 23       		.uleb128 0x23
 3702 01a7 34       		.uleb128 0x34
 3703 01a8 00       		.byte	0
 3704 01a9 03       		.uleb128 0x3
 3705 01aa 08       		.uleb128 0x8
 3706 01ab 3A       		.uleb128 0x3a
 3707 01ac 0B       		.uleb128 0xb
 3708 01ad 3B       		.uleb128 0x3b
 3709 01ae 0B       		.uleb128 0xb
 3710 01af 49       		.uleb128 0x49
 3711 01b0 13       		.uleb128 0x13
 3712 01b1 00       		.byte	0
 3713 01b2 00       		.byte	0
 3714 01b3 24       		.uleb128 0x24
 3715 01b4 05       		.uleb128 0x5
 3716 01b5 00       		.byte	0
 3717 01b6 03       		.uleb128 0x3
 3718 01b7 08       		.uleb128 0x8
 3719 01b8 3A       		.uleb128 0x3a
 3720 01b9 0B       		.uleb128 0xb
 3721 01ba 3B       		.uleb128 0x3b
 3722 01bb 05       		.uleb128 0x5
 3723 01bc 49       		.uleb128 0x49
 3724 01bd 13       		.uleb128 0x13
 3725 01be 00       		.byte	0
 3726 01bf 00       		.byte	0
 3727 01c0 25       		.uleb128 0x25
 3728 01c1 2E       		.uleb128 0x2e
 3729 01c2 01       		.byte	0x1
 3730 01c3 03       		.uleb128 0x3
 3731 01c4 0E       		.uleb128 0xe
 3732 01c5 3A       		.uleb128 0x3a
 3733 01c6 0B       		.uleb128 0xb
 3734 01c7 3B       		.uleb128 0x3b
 3735 01c8 05       		.uleb128 0x5
 3736 01c9 27       		.uleb128 0x27
 3737 01ca 19       		.uleb128 0x19
 3738 01cb 49       		.uleb128 0x49
 3739 01cc 13       		.uleb128 0x13
 3740 01cd 20       		.uleb128 0x20
 3741 01ce 0B       		.uleb128 0xb
 3742 01cf 01       		.uleb128 0x1
 3743 01d0 13       		.uleb128 0x13
 3744 01d1 00       		.byte	0
 3745 01d2 00       		.byte	0
 3746 01d3 26       		.uleb128 0x26
 3747 01d4 0B       		.uleb128 0xb
 3748 01d5 01       		.byte	0x1
 3749 01d6 00       		.byte	0
 3750 01d7 00       		.byte	0
 3751 01d8 27       		.uleb128 0x27
 3752 01d9 2E       		.uleb128 0x2e
 3753 01da 01       		.byte	0x1
 3754 01db 03       		.uleb128 0x3
 3755 01dc 0E       		.uleb128 0xe
 3756 01dd 3A       		.uleb128 0x3a
 3757 01de 0B       		.uleb128 0xb
ARM GAS  /tmp/ccZwNDqj.s 			page 67


 3758 01df 3B       		.uleb128 0x3b
 3759 01e0 0B       		.uleb128 0xb
 3760 01e1 27       		.uleb128 0x27
 3761 01e2 19       		.uleb128 0x19
 3762 01e3 11       		.uleb128 0x11
 3763 01e4 01       		.uleb128 0x1
 3764 01e5 12       		.uleb128 0x12
 3765 01e6 06       		.uleb128 0x6
 3766 01e7 40       		.uleb128 0x40
 3767 01e8 18       		.uleb128 0x18
 3768 01e9 9742     		.uleb128 0x2117
 3769 01eb 19       		.uleb128 0x19
 3770 01ec 01       		.uleb128 0x1
 3771 01ed 13       		.uleb128 0x13
 3772 01ee 00       		.byte	0
 3773 01ef 00       		.byte	0
 3774 01f0 28       		.uleb128 0x28
 3775 01f1 05       		.uleb128 0x5
 3776 01f2 00       		.byte	0
 3777 01f3 03       		.uleb128 0x3
 3778 01f4 08       		.uleb128 0x8
 3779 01f5 3A       		.uleb128 0x3a
 3780 01f6 0B       		.uleb128 0xb
 3781 01f7 3B       		.uleb128 0x3b
 3782 01f8 0B       		.uleb128 0xb
 3783 01f9 49       		.uleb128 0x49
 3784 01fa 13       		.uleb128 0x13
 3785 01fb 02       		.uleb128 0x2
 3786 01fc 18       		.uleb128 0x18
 3787 01fd 00       		.byte	0
 3788 01fe 00       		.byte	0
 3789 01ff 29       		.uleb128 0x29
 3790 0200 2E       		.uleb128 0x2e
 3791 0201 01       		.byte	0x1
 3792 0202 3F       		.uleb128 0x3f
 3793 0203 19       		.uleb128 0x19
 3794 0204 03       		.uleb128 0x3
 3795 0205 0E       		.uleb128 0xe
 3796 0206 3A       		.uleb128 0x3a
 3797 0207 0B       		.uleb128 0xb
 3798 0208 3B       		.uleb128 0x3b
 3799 0209 05       		.uleb128 0x5
 3800 020a 27       		.uleb128 0x27
 3801 020b 19       		.uleb128 0x19
 3802 020c 11       		.uleb128 0x11
 3803 020d 01       		.uleb128 0x1
 3804 020e 12       		.uleb128 0x12
 3805 020f 06       		.uleb128 0x6
 3806 0210 40       		.uleb128 0x40
 3807 0211 18       		.uleb128 0x18
 3808 0212 9742     		.uleb128 0x2117
 3809 0214 19       		.uleb128 0x19
 3810 0215 01       		.uleb128 0x1
 3811 0216 13       		.uleb128 0x13
 3812 0217 00       		.byte	0
 3813 0218 00       		.byte	0
 3814 0219 2A       		.uleb128 0x2a
ARM GAS  /tmp/ccZwNDqj.s 			page 68


 3815 021a 1D       		.uleb128 0x1d
 3816 021b 01       		.byte	0x1
 3817 021c 31       		.uleb128 0x31
 3818 021d 13       		.uleb128 0x13
 3819 021e 52       		.uleb128 0x52
 3820 021f 01       		.uleb128 0x1
 3821 0220 55       		.uleb128 0x55
 3822 0221 17       		.uleb128 0x17
 3823 0222 58       		.uleb128 0x58
 3824 0223 0B       		.uleb128 0xb
 3825 0224 59       		.uleb128 0x59
 3826 0225 05       		.uleb128 0x5
 3827 0226 01       		.uleb128 0x1
 3828 0227 13       		.uleb128 0x13
 3829 0228 00       		.byte	0
 3830 0229 00       		.byte	0
 3831 022a 2B       		.uleb128 0x2b
 3832 022b 05       		.uleb128 0x5
 3833 022c 00       		.byte	0
 3834 022d 31       		.uleb128 0x31
 3835 022e 13       		.uleb128 0x13
 3836 022f 02       		.uleb128 0x2
 3837 0230 18       		.uleb128 0x18
 3838 0231 00       		.byte	0
 3839 0232 00       		.byte	0
 3840 0233 2C       		.uleb128 0x2c
 3841 0234 0B       		.uleb128 0xb
 3842 0235 01       		.byte	0x1
 3843 0236 55       		.uleb128 0x55
 3844 0237 17       		.uleb128 0x17
 3845 0238 00       		.byte	0
 3846 0239 00       		.byte	0
 3847 023a 2D       		.uleb128 0x2d
 3848 023b 34       		.uleb128 0x34
 3849 023c 00       		.byte	0
 3850 023d 31       		.uleb128 0x31
 3851 023e 13       		.uleb128 0x13
 3852 023f 02       		.uleb128 0x2
 3853 0240 17       		.uleb128 0x17
 3854 0241 00       		.byte	0
 3855 0242 00       		.byte	0
 3856 0243 2E       		.uleb128 0x2e
 3857 0244 1D       		.uleb128 0x1d
 3858 0245 01       		.byte	0x1
 3859 0246 31       		.uleb128 0x31
 3860 0247 13       		.uleb128 0x13
 3861 0248 11       		.uleb128 0x11
 3862 0249 01       		.uleb128 0x1
 3863 024a 12       		.uleb128 0x12
 3864 024b 06       		.uleb128 0x6
 3865 024c 58       		.uleb128 0x58
 3866 024d 0B       		.uleb128 0xb
 3867 024e 59       		.uleb128 0x59
 3868 024f 0B       		.uleb128 0xb
 3869 0250 01       		.uleb128 0x1
 3870 0251 13       		.uleb128 0x13
 3871 0252 00       		.byte	0
ARM GAS  /tmp/ccZwNDqj.s 			page 69


 3872 0253 00       		.byte	0
 3873 0254 2F       		.uleb128 0x2f
 3874 0255 1D       		.uleb128 0x1d
 3875 0256 01       		.byte	0x1
 3876 0257 31       		.uleb128 0x31
 3877 0258 13       		.uleb128 0x13
 3878 0259 11       		.uleb128 0x11
 3879 025a 01       		.uleb128 0x1
 3880 025b 12       		.uleb128 0x12
 3881 025c 06       		.uleb128 0x6
 3882 025d 58       		.uleb128 0x58
 3883 025e 0B       		.uleb128 0xb
 3884 025f 59       		.uleb128 0x59
 3885 0260 05       		.uleb128 0x5
 3886 0261 00       		.byte	0
 3887 0262 00       		.byte	0
 3888 0263 30       		.uleb128 0x30
 3889 0264 05       		.uleb128 0x5
 3890 0265 00       		.byte	0
 3891 0266 31       		.uleb128 0x31
 3892 0267 13       		.uleb128 0x13
 3893 0268 02       		.uleb128 0x2
 3894 0269 17       		.uleb128 0x17
 3895 026a 00       		.byte	0
 3896 026b 00       		.byte	0
 3897 026c 31       		.uleb128 0x31
 3898 026d 1D       		.uleb128 0x1d
 3899 026e 01       		.byte	0x1
 3900 026f 31       		.uleb128 0x31
 3901 0270 13       		.uleb128 0x13
 3902 0271 52       		.uleb128 0x52
 3903 0272 01       		.uleb128 0x1
 3904 0273 55       		.uleb128 0x55
 3905 0274 17       		.uleb128 0x17
 3906 0275 58       		.uleb128 0x58
 3907 0276 0B       		.uleb128 0xb
 3908 0277 59       		.uleb128 0x59
 3909 0278 0B       		.uleb128 0xb
 3910 0279 01       		.uleb128 0x1
 3911 027a 13       		.uleb128 0x13
 3912 027b 00       		.byte	0
 3913 027c 00       		.byte	0
 3914 027d 32       		.uleb128 0x32
 3915 027e 898201   		.uleb128 0x4109
 3916 0281 01       		.byte	0x1
 3917 0282 11       		.uleb128 0x11
 3918 0283 01       		.uleb128 0x1
 3919 0284 31       		.uleb128 0x31
 3920 0285 13       		.uleb128 0x13
 3921 0286 00       		.byte	0
 3922 0287 00       		.byte	0
 3923 0288 33       		.uleb128 0x33
 3924 0289 8A8201   		.uleb128 0x410a
 3925 028c 00       		.byte	0
 3926 028d 02       		.uleb128 0x2
 3927 028e 18       		.uleb128 0x18
 3928 028f 9142     		.uleb128 0x2111
ARM GAS  /tmp/ccZwNDqj.s 			page 70


 3929 0291 18       		.uleb128 0x18
 3930 0292 00       		.byte	0
 3931 0293 00       		.byte	0
 3932 0294 34       		.uleb128 0x34
 3933 0295 0B       		.uleb128 0xb
 3934 0296 01       		.byte	0x1
 3935 0297 11       		.uleb128 0x11
 3936 0298 01       		.uleb128 0x1
 3937 0299 12       		.uleb128 0x12
 3938 029a 06       		.uleb128 0x6
 3939 029b 00       		.byte	0
 3940 029c 00       		.byte	0
 3941 029d 35       		.uleb128 0x35
 3942 029e 1D       		.uleb128 0x1d
 3943 029f 01       		.byte	0x1
 3944 02a0 31       		.uleb128 0x31
 3945 02a1 13       		.uleb128 0x13
 3946 02a2 11       		.uleb128 0x11
 3947 02a3 01       		.uleb128 0x1
 3948 02a4 12       		.uleb128 0x12
 3949 02a5 06       		.uleb128 0x6
 3950 02a6 58       		.uleb128 0x58
 3951 02a7 0B       		.uleb128 0xb
 3952 02a8 59       		.uleb128 0x59
 3953 02a9 0B       		.uleb128 0xb
 3954 02aa 00       		.byte	0
 3955 02ab 00       		.byte	0
 3956 02ac 36       		.uleb128 0x36
 3957 02ad 0B       		.uleb128 0xb
 3958 02ae 01       		.byte	0x1
 3959 02af 55       		.uleb128 0x55
 3960 02b0 17       		.uleb128 0x17
 3961 02b1 01       		.uleb128 0x1
 3962 02b2 13       		.uleb128 0x13
 3963 02b3 00       		.byte	0
 3964 02b4 00       		.byte	0
 3965 02b5 37       		.uleb128 0x37
 3966 02b6 05       		.uleb128 0x5
 3967 02b7 00       		.byte	0
 3968 02b8 31       		.uleb128 0x31
 3969 02b9 13       		.uleb128 0x13
 3970 02ba 1C       		.uleb128 0x1c
 3971 02bb 0B       		.uleb128 0xb
 3972 02bc 00       		.byte	0
 3973 02bd 00       		.byte	0
 3974 02be 38       		.uleb128 0x38
 3975 02bf 898201   		.uleb128 0x4109
 3976 02c2 00       		.byte	0
 3977 02c3 11       		.uleb128 0x11
 3978 02c4 01       		.uleb128 0x1
 3979 02c5 9542     		.uleb128 0x2115
 3980 02c7 19       		.uleb128 0x19
 3981 02c8 31       		.uleb128 0x31
 3982 02c9 13       		.uleb128 0x13
 3983 02ca 00       		.byte	0
 3984 02cb 00       		.byte	0
 3985 02cc 39       		.uleb128 0x39
ARM GAS  /tmp/ccZwNDqj.s 			page 71


 3986 02cd 05       		.uleb128 0x5
 3987 02ce 00       		.byte	0
 3988 02cf 03       		.uleb128 0x3
 3989 02d0 08       		.uleb128 0x8
 3990 02d1 3A       		.uleb128 0x3a
 3991 02d2 0B       		.uleb128 0xb
 3992 02d3 3B       		.uleb128 0x3b
 3993 02d4 05       		.uleb128 0x5
 3994 02d5 49       		.uleb128 0x49
 3995 02d6 13       		.uleb128 0x13
 3996 02d7 02       		.uleb128 0x2
 3997 02d8 17       		.uleb128 0x17
 3998 02d9 00       		.byte	0
 3999 02da 00       		.byte	0
 4000 02db 3A       		.uleb128 0x3a
 4001 02dc 05       		.uleb128 0x5
 4002 02dd 00       		.byte	0
 4003 02de 03       		.uleb128 0x3
 4004 02df 0E       		.uleb128 0xe
 4005 02e0 3A       		.uleb128 0x3a
 4006 02e1 0B       		.uleb128 0xb
 4007 02e2 3B       		.uleb128 0x3b
 4008 02e3 05       		.uleb128 0x5
 4009 02e4 49       		.uleb128 0x49
 4010 02e5 13       		.uleb128 0x13
 4011 02e6 02       		.uleb128 0x2
 4012 02e7 17       		.uleb128 0x17
 4013 02e8 00       		.byte	0
 4014 02e9 00       		.byte	0
 4015 02ea 3B       		.uleb128 0x3b
 4016 02eb 898201   		.uleb128 0x4109
 4017 02ee 01       		.byte	0x1
 4018 02ef 11       		.uleb128 0x11
 4019 02f0 01       		.uleb128 0x1
 4020 02f1 9542     		.uleb128 0x2115
 4021 02f3 19       		.uleb128 0x19
 4022 02f4 31       		.uleb128 0x31
 4023 02f5 13       		.uleb128 0x13
 4024 02f6 00       		.byte	0
 4025 02f7 00       		.byte	0
 4026 02f8 3C       		.uleb128 0x3c
 4027 02f9 34       		.uleb128 0x34
 4028 02fa 00       		.byte	0
 4029 02fb 03       		.uleb128 0x3
 4030 02fc 0E       		.uleb128 0xe
 4031 02fd 3A       		.uleb128 0x3a
 4032 02fe 0B       		.uleb128 0xb
 4033 02ff 3B       		.uleb128 0x3b
 4034 0300 0B       		.uleb128 0xb
 4035 0301 49       		.uleb128 0x49
 4036 0302 13       		.uleb128 0x13
 4037 0303 02       		.uleb128 0x2
 4038 0304 18       		.uleb128 0x18
 4039 0305 00       		.byte	0
 4040 0306 00       		.byte	0
 4041 0307 3D       		.uleb128 0x3d
 4042 0308 34       		.uleb128 0x34
ARM GAS  /tmp/ccZwNDqj.s 			page 72


 4043 0309 00       		.byte	0
 4044 030a 03       		.uleb128 0x3
 4045 030b 0E       		.uleb128 0xe
 4046 030c 3A       		.uleb128 0x3a
 4047 030d 0B       		.uleb128 0xb
 4048 030e 3B       		.uleb128 0x3b
 4049 030f 05       		.uleb128 0x5
 4050 0310 49       		.uleb128 0x49
 4051 0311 13       		.uleb128 0x13
 4052 0312 3F       		.uleb128 0x3f
 4053 0313 19       		.uleb128 0x19
 4054 0314 3C       		.uleb128 0x3c
 4055 0315 19       		.uleb128 0x19
 4056 0316 00       		.byte	0
 4057 0317 00       		.byte	0
 4058 0318 3E       		.uleb128 0x3e
 4059 0319 34       		.uleb128 0x34
 4060 031a 00       		.byte	0
 4061 031b 03       		.uleb128 0x3
 4062 031c 08       		.uleb128 0x8
 4063 031d 3A       		.uleb128 0x3a
 4064 031e 0B       		.uleb128 0xb
 4065 031f 3B       		.uleb128 0x3b
 4066 0320 05       		.uleb128 0x5
 4067 0321 49       		.uleb128 0x49
 4068 0322 13       		.uleb128 0x13
 4069 0323 3F       		.uleb128 0x3f
 4070 0324 19       		.uleb128 0x19
 4071 0325 3C       		.uleb128 0x3c
 4072 0326 19       		.uleb128 0x19
 4073 0327 00       		.byte	0
 4074 0328 00       		.byte	0
 4075 0329 3F       		.uleb128 0x3f
 4076 032a 34       		.uleb128 0x34
 4077 032b 00       		.byte	0
 4078 032c 03       		.uleb128 0x3
 4079 032d 08       		.uleb128 0x8
 4080 032e 3A       		.uleb128 0x3a
 4081 032f 0B       		.uleb128 0xb
 4082 0330 3B       		.uleb128 0x3b
 4083 0331 0B       		.uleb128 0xb
 4084 0332 49       		.uleb128 0x49
 4085 0333 13       		.uleb128 0x13
 4086 0334 3F       		.uleb128 0x3f
 4087 0335 19       		.uleb128 0x19
 4088 0336 02       		.uleb128 0x2
 4089 0337 18       		.uleb128 0x18
 4090 0338 00       		.byte	0
 4091 0339 00       		.byte	0
 4092 033a 40       		.uleb128 0x40
 4093 033b 2E       		.uleb128 0x2e
 4094 033c 01       		.byte	0x1
 4095 033d 3F       		.uleb128 0x3f
 4096 033e 19       		.uleb128 0x19
 4097 033f 03       		.uleb128 0x3
 4098 0340 0E       		.uleb128 0xe
 4099 0341 3A       		.uleb128 0x3a
ARM GAS  /tmp/ccZwNDqj.s 			page 73


 4100 0342 0B       		.uleb128 0xb
 4101 0343 3B       		.uleb128 0x3b
 4102 0344 0B       		.uleb128 0xb
 4103 0345 27       		.uleb128 0x27
 4104 0346 19       		.uleb128 0x19
 4105 0347 3C       		.uleb128 0x3c
 4106 0348 19       		.uleb128 0x19
 4107 0349 01       		.uleb128 0x1
 4108 034a 13       		.uleb128 0x13
 4109 034b 00       		.byte	0
 4110 034c 00       		.byte	0
 4111 034d 41       		.uleb128 0x41
 4112 034e 2E       		.uleb128 0x2e
 4113 034f 01       		.byte	0x1
 4114 0350 3F       		.uleb128 0x3f
 4115 0351 19       		.uleb128 0x19
 4116 0352 03       		.uleb128 0x3
 4117 0353 0E       		.uleb128 0xe
 4118 0354 3A       		.uleb128 0x3a
 4119 0355 0B       		.uleb128 0xb
 4120 0356 3B       		.uleb128 0x3b
 4121 0357 0B       		.uleb128 0xb
 4122 0358 27       		.uleb128 0x27
 4123 0359 19       		.uleb128 0x19
 4124 035a 49       		.uleb128 0x49
 4125 035b 13       		.uleb128 0x13
 4126 035c 3C       		.uleb128 0x3c
 4127 035d 19       		.uleb128 0x19
 4128 035e 01       		.uleb128 0x1
 4129 035f 13       		.uleb128 0x13
 4130 0360 00       		.byte	0
 4131 0361 00       		.byte	0
 4132 0362 42       		.uleb128 0x42
 4133 0363 2E       		.uleb128 0x2e
 4134 0364 01       		.byte	0x1
 4135 0365 3F       		.uleb128 0x3f
 4136 0366 19       		.uleb128 0x19
 4137 0367 03       		.uleb128 0x3
 4138 0368 0E       		.uleb128 0xe
 4139 0369 3A       		.uleb128 0x3a
 4140 036a 0B       		.uleb128 0xb
 4141 036b 3B       		.uleb128 0x3b
 4142 036c 05       		.uleb128 0x5
 4143 036d 27       		.uleb128 0x27
 4144 036e 19       		.uleb128 0x19
 4145 036f 3C       		.uleb128 0x3c
 4146 0370 19       		.uleb128 0x19
 4147 0371 01       		.uleb128 0x1
 4148 0372 13       		.uleb128 0x13
 4149 0373 00       		.byte	0
 4150 0374 00       		.byte	0
 4151 0375 43       		.uleb128 0x43
 4152 0376 2E       		.uleb128 0x2e
 4153 0377 00       		.byte	0
 4154 0378 3F       		.uleb128 0x3f
 4155 0379 19       		.uleb128 0x19
 4156 037a 03       		.uleb128 0x3
ARM GAS  /tmp/ccZwNDqj.s 			page 74


 4157 037b 0E       		.uleb128 0xe
 4158 037c 3A       		.uleb128 0x3a
 4159 037d 0B       		.uleb128 0xb
 4160 037e 3B       		.uleb128 0x3b
 4161 037f 05       		.uleb128 0x5
 4162 0380 27       		.uleb128 0x27
 4163 0381 19       		.uleb128 0x19
 4164 0382 3C       		.uleb128 0x3c
 4165 0383 19       		.uleb128 0x19
 4166 0384 00       		.byte	0
 4167 0385 00       		.byte	0
 4168 0386 44       		.uleb128 0x44
 4169 0387 2E       		.uleb128 0x2e
 4170 0388 01       		.byte	0x1
 4171 0389 3F       		.uleb128 0x3f
 4172 038a 19       		.uleb128 0x19
 4173 038b 03       		.uleb128 0x3
 4174 038c 0E       		.uleb128 0xe
 4175 038d 3A       		.uleb128 0x3a
 4176 038e 0B       		.uleb128 0xb
 4177 038f 3B       		.uleb128 0x3b
 4178 0390 0B       		.uleb128 0xb
 4179 0391 27       		.uleb128 0x27
 4180 0392 19       		.uleb128 0x19
 4181 0393 3C       		.uleb128 0x3c
 4182 0394 19       		.uleb128 0x19
 4183 0395 00       		.byte	0
 4184 0396 00       		.byte	0
 4185 0397 00       		.byte	0
 4186              		.section	.debug_loc,"",%progbits
 4187              	.Ldebug_loc0:
 4188              	.LLST0:
 4189 0000 06000000 		.4byte	.LVL2
 4190 0004 44000000 		.4byte	.LVL10
 4191 0008 0100     		.2byte	0x1
 4192 000a 55       		.byte	0x55
 4193 000b 48000000 		.4byte	.LVL11
 4194 000f FC000000 		.4byte	.LFE260
 4195 0013 0100     		.2byte	0x1
 4196 0015 55       		.byte	0x55
 4197 0016 00000000 		.4byte	0
 4198 001a 00000000 		.4byte	0
 4199              	.LLST1:
 4200 001e 08000000 		.4byte	.LVL3
 4201 0022 38000000 		.4byte	.LVL7
 4202 0026 0100     		.2byte	0x1
 4203 0028 57       		.byte	0x57
 4204 0029 48000000 		.4byte	.LVL11
 4205 002d FC000000 		.4byte	.LFE260
 4206 0031 0100     		.2byte	0x1
 4207 0033 57       		.byte	0x57
 4208 0034 00000000 		.4byte	0
 4209 0038 00000000 		.4byte	0
 4210              	.LLST2:
 4211 003c 0A000000 		.4byte	.LVL4
 4212 0040 44000000 		.4byte	.LVL10
 4213 0044 0100     		.2byte	0x1
ARM GAS  /tmp/ccZwNDqj.s 			page 75


 4214 0046 54       		.byte	0x54
 4215 0047 48000000 		.4byte	.LVL11
 4216 004b FC000000 		.4byte	.LFE260
 4217 004f 0100     		.2byte	0x1
 4218 0051 54       		.byte	0x54
 4219 0052 00000000 		.4byte	0
 4220 0056 00000000 		.4byte	0
 4221              	.LLST3:
 4222 005a 24000000 		.4byte	.LVL5
 4223 005e 40000000 		.4byte	.LVL9
 4224 0062 0300     		.2byte	0x3
 4225 0064 08       		.byte	0x8
 4226 0065 20       		.byte	0x20
 4227 0066 9F       		.byte	0x9f
 4228 0067 CA000000 		.4byte	.LVL27
 4229 006b DA000000 		.4byte	.LVL30
 4230 006f 0300     		.2byte	0x3
 4231 0071 08       		.byte	0x8
 4232 0072 20       		.byte	0x20
 4233 0073 9F       		.byte	0x9f
 4234 0074 00000000 		.4byte	0
 4235 0078 00000000 		.4byte	0
 4236              	.LLST4:
 4237 007c 2A000000 		.4byte	.LVL6
 4238 0080 40000000 		.4byte	.LVL9
 4239 0084 0600     		.2byte	0x6
 4240 0086 03       		.byte	0x3
 4241 0087 30000000 		.4byte	SD1+48
 4242 008b 9F       		.byte	0x9f
 4243 008c CA000000 		.4byte	.LVL27
 4244 0090 DA000000 		.4byte	.LVL30
 4245 0094 0600     		.2byte	0x6
 4246 0096 03       		.byte	0x3
 4247 0097 30000000 		.4byte	SD1+48
 4248 009b 9F       		.byte	0x9f
 4249 009c 00000000 		.4byte	0
 4250 00a0 00000000 		.4byte	0
 4251              	.LLST5:
 4252 00a4 3A000000 		.4byte	.LVL8
 4253 00a8 40000000 		.4byte	.LVL9
 4254 00ac 0200     		.2byte	0x2
 4255 00ae 30       		.byte	0x30
 4256 00af 9F       		.byte	0x9f
 4257 00b0 00000000 		.4byte	0
 4258 00b4 00000000 		.4byte	0
 4259              	.LLST6:
 4260 00b8 48000000 		.4byte	.LVL11
 4261 00bc 60000000 		.4byte	.LVL13
 4262 00c0 0300     		.2byte	0x3
 4263 00c2 08       		.byte	0x8
 4264 00c3 20       		.byte	0x20
 4265 00c4 9F       		.byte	0x9f
 4266 00c5 00000000 		.4byte	0
 4267 00c9 00000000 		.4byte	0
 4268              	.LLST7:
 4269 00cd 58000000 		.4byte	.LVL12
 4270 00d1 60000000 		.4byte	.LVL13
ARM GAS  /tmp/ccZwNDqj.s 			page 76


 4271 00d5 0200     		.2byte	0x2
 4272 00d7 30       		.byte	0x30
 4273 00d8 9F       		.byte	0x9f
 4274 00d9 00000000 		.4byte	0
 4275 00dd 00000000 		.4byte	0
 4276              	.LLST8:
 4277 00e1 60000000 		.4byte	.LVL13
 4278 00e5 78000000 		.4byte	.LVL16
 4279 00e9 0300     		.2byte	0x3
 4280 00eb 08       		.byte	0x8
 4281 00ec 20       		.byte	0x20
 4282 00ed 9F       		.byte	0x9f
 4283 00ee 00000000 		.4byte	0
 4284 00f2 00000000 		.4byte	0
 4285              	.LLST9:
 4286 00f6 66000000 		.4byte	.LVL14
 4287 00fa 78000000 		.4byte	.LVL16
 4288 00fe 0400     		.2byte	0x4
 4289 0100 0A       		.byte	0xa
 4290 0101 0002     		.2byte	0x200
 4291 0103 9F       		.byte	0x9f
 4292 0104 00000000 		.4byte	0
 4293 0108 00000000 		.4byte	0
 4294              	.LLST10:
 4295 010c 66000000 		.4byte	.LVL14
 4296 0110 78000000 		.4byte	.LVL16
 4297 0114 0600     		.2byte	0x6
 4298 0116 03       		.byte	0x3
 4299 0117 04000000 		.4byte	SD1+4
 4300 011b 9F       		.byte	0x9f
 4301 011c 00000000 		.4byte	0
 4302 0120 00000000 		.4byte	0
 4303              	.LLST11:
 4304 0124 70000000 		.4byte	.LVL15
 4305 0128 78000000 		.4byte	.LVL16
 4306 012c 0200     		.2byte	0x2
 4307 012e 30       		.byte	0x30
 4308 012f 9F       		.byte	0x9f
 4309 0130 00000000 		.4byte	0
 4310 0134 00000000 		.4byte	0
 4311              	.LLST12:
 4312 0138 78000000 		.4byte	.LVL16
 4313 013c AE000000 		.4byte	.LVL23
 4314 0140 0600     		.2byte	0x6
 4315 0142 03       		.byte	0x3
 4316 0143 00000000 		.4byte	SD1
 4317 0147 9F       		.byte	0x9f
 4318 0148 00000000 		.4byte	0
 4319 014c 00000000 		.4byte	0
 4320              	.LLST13:
 4321 0150 78000000 		.4byte	.LVL16
 4322 0154 AE000000 		.4byte	.LVL23
 4323 0158 0100     		.2byte	0x1
 4324 015a 54       		.byte	0x54
 4325 015b 00000000 		.4byte	0
 4326 015f 00000000 		.4byte	0
 4327              	.LLST14:
ARM GAS  /tmp/ccZwNDqj.s 			page 77


 4328 0163 78000000 		.4byte	.LVL16
 4329 0167 82000000 		.4byte	.LVL17
 4330 016b 0200     		.2byte	0x2
 4331 016d 30       		.byte	0x30
 4332 016e 9F       		.byte	0x9f
 4333 016f 82000000 		.4byte	.LVL17
 4334 0173 A5000000 		.4byte	.LVL22-1
 4335 0177 0100     		.2byte	0x1
 4336 0179 51       		.byte	0x51
 4337 017a A5000000 		.4byte	.LVL22-1
 4338 017e AE000000 		.4byte	.LVL23
 4339 0182 D400     		.2byte	0xd4
 4340 0184 08       		.byte	0x8
 4341 0185 80       		.byte	0x80
 4342 0186 30       		.byte	0x30
 4343 0187 74       		.byte	0x74
 4344 0188 00       		.sleb128 0
 4345 0189 33       		.byte	0x33
 4346 018a 25       		.byte	0x25
 4347 018b 30       		.byte	0x30
 4348 018c 2E       		.byte	0x2e
 4349 018d 28       		.byte	0x28
 4350 018e 0100     		.2byte	0x1
 4351 0190 16       		.byte	0x16
 4352 0191 13       		.byte	0x13
 4353 0192 08       		.byte	0x8
 4354 0193 20       		.byte	0x20
 4355 0194 21       		.byte	0x21
 4356 0195 08       		.byte	0x8
 4357 0196 80       		.byte	0x80
 4358 0197 30       		.byte	0x30
 4359 0198 74       		.byte	0x74
 4360 0199 00       		.sleb128 0
 4361 019a 33       		.byte	0x33
 4362 019b 25       		.byte	0x25
 4363 019c 30       		.byte	0x30
 4364 019d 2E       		.byte	0x2e
 4365 019e 28       		.byte	0x28
 4366 019f 0100     		.2byte	0x1
 4367 01a1 16       		.byte	0x16
 4368 01a2 13       		.byte	0x13
 4369 01a3 74       		.byte	0x74
 4370 01a4 00       		.sleb128 0
 4371 01a5 4F       		.byte	0x4f
 4372 01a6 24       		.byte	0x24
 4373 01a7 30       		.byte	0x30
 4374 01a8 2D       		.byte	0x2d
 4375 01a9 28       		.byte	0x28
 4376 01aa 0100     		.2byte	0x1
 4377 01ac 16       		.byte	0x16
 4378 01ad 13       		.byte	0x13
 4379 01ae 08       		.byte	0x8
 4380 01af 40       		.byte	0x40
 4381 01b0 21       		.byte	0x21
 4382 01b1 08       		.byte	0x8
 4383 01b2 80       		.byte	0x80
 4384 01b3 30       		.byte	0x30
ARM GAS  /tmp/ccZwNDqj.s 			page 78


 4385 01b4 74       		.byte	0x74
 4386 01b5 00       		.sleb128 0
 4387 01b6 33       		.byte	0x33
 4388 01b7 25       		.byte	0x25
 4389 01b8 30       		.byte	0x30
 4390 01b9 2E       		.byte	0x2e
 4391 01ba 28       		.byte	0x28
 4392 01bb 0100     		.2byte	0x1
 4393 01bd 16       		.byte	0x16
 4394 01be 13       		.byte	0x13
 4395 01bf 08       		.byte	0x8
 4396 01c0 20       		.byte	0x20
 4397 01c1 21       		.byte	0x21
 4398 01c2 08       		.byte	0x8
 4399 01c3 80       		.byte	0x80
 4400 01c4 30       		.byte	0x30
 4401 01c5 74       		.byte	0x74
 4402 01c6 00       		.sleb128 0
 4403 01c7 33       		.byte	0x33
 4404 01c8 25       		.byte	0x25
 4405 01c9 30       		.byte	0x30
 4406 01ca 2E       		.byte	0x2e
 4407 01cb 28       		.byte	0x28
 4408 01cc 0100     		.2byte	0x1
 4409 01ce 16       		.byte	0x16
 4410 01cf 13       		.byte	0x13
 4411 01d0 74       		.byte	0x74
 4412 01d1 00       		.sleb128 0
 4413 01d2 4F       		.byte	0x4f
 4414 01d3 24       		.byte	0x24
 4415 01d4 30       		.byte	0x30
 4416 01d5 2D       		.byte	0x2d
 4417 01d6 28       		.byte	0x28
 4418 01d7 0100     		.2byte	0x1
 4419 01d9 16       		.byte	0x16
 4420 01da 13       		.byte	0x13
 4421 01db 74       		.byte	0x74
 4422 01dc 00       		.sleb128 0
 4423 01dd 4E       		.byte	0x4e
 4424 01de 24       		.byte	0x24
 4425 01df 30       		.byte	0x30
 4426 01e0 2D       		.byte	0x2d
 4427 01e1 28       		.byte	0x28
 4428 01e2 0100     		.2byte	0x1
 4429 01e4 16       		.byte	0x16
 4430 01e5 13       		.byte	0x13
 4431 01e6 0A       		.byte	0xa
 4432 01e7 0001     		.2byte	0x100
 4433 01e9 21       		.byte	0x21
 4434 01ea 08       		.byte	0x8
 4435 01eb 80       		.byte	0x80
 4436 01ec 30       		.byte	0x30
 4437 01ed 74       		.byte	0x74
 4438 01ee 00       		.sleb128 0
 4439 01ef 33       		.byte	0x33
 4440 01f0 25       		.byte	0x25
 4441 01f1 30       		.byte	0x30
ARM GAS  /tmp/ccZwNDqj.s 			page 79


 4442 01f2 2E       		.byte	0x2e
 4443 01f3 28       		.byte	0x28
 4444 01f4 0100     		.2byte	0x1
 4445 01f6 16       		.byte	0x16
 4446 01f7 13       		.byte	0x13
 4447 01f8 08       		.byte	0x8
 4448 01f9 20       		.byte	0x20
 4449 01fa 21       		.byte	0x21
 4450 01fb 08       		.byte	0x8
 4451 01fc 80       		.byte	0x80
 4452 01fd 30       		.byte	0x30
 4453 01fe 74       		.byte	0x74
 4454 01ff 00       		.sleb128 0
 4455 0200 33       		.byte	0x33
 4456 0201 25       		.byte	0x25
 4457 0202 30       		.byte	0x30
 4458 0203 2E       		.byte	0x2e
 4459 0204 28       		.byte	0x28
 4460 0205 0100     		.2byte	0x1
 4461 0207 16       		.byte	0x16
 4462 0208 13       		.byte	0x13
 4463 0209 74       		.byte	0x74
 4464 020a 00       		.sleb128 0
 4465 020b 4F       		.byte	0x4f
 4466 020c 24       		.byte	0x24
 4467 020d 30       		.byte	0x30
 4468 020e 2D       		.byte	0x2d
 4469 020f 28       		.byte	0x28
 4470 0210 0100     		.2byte	0x1
 4471 0212 16       		.byte	0x16
 4472 0213 13       		.byte	0x13
 4473 0214 08       		.byte	0x8
 4474 0215 40       		.byte	0x40
 4475 0216 21       		.byte	0x21
 4476 0217 08       		.byte	0x8
 4477 0218 80       		.byte	0x80
 4478 0219 30       		.byte	0x30
 4479 021a 74       		.byte	0x74
 4480 021b 00       		.sleb128 0
 4481 021c 33       		.byte	0x33
 4482 021d 25       		.byte	0x25
 4483 021e 30       		.byte	0x30
 4484 021f 2E       		.byte	0x2e
 4485 0220 28       		.byte	0x28
 4486 0221 0100     		.2byte	0x1
 4487 0223 16       		.byte	0x16
 4488 0224 13       		.byte	0x13
 4489 0225 08       		.byte	0x8
 4490 0226 20       		.byte	0x20
 4491 0227 21       		.byte	0x21
 4492 0228 08       		.byte	0x8
 4493 0229 80       		.byte	0x80
 4494 022a 30       		.byte	0x30
 4495 022b 74       		.byte	0x74
 4496 022c 00       		.sleb128 0
 4497 022d 33       		.byte	0x33
 4498 022e 25       		.byte	0x25
ARM GAS  /tmp/ccZwNDqj.s 			page 80


 4499 022f 30       		.byte	0x30
 4500 0230 2E       		.byte	0x2e
 4501 0231 28       		.byte	0x28
 4502 0232 0100     		.2byte	0x1
 4503 0234 16       		.byte	0x16
 4504 0235 13       		.byte	0x13
 4505 0236 74       		.byte	0x74
 4506 0237 00       		.sleb128 0
 4507 0238 4F       		.byte	0x4f
 4508 0239 24       		.byte	0x24
 4509 023a 30       		.byte	0x30
 4510 023b 2D       		.byte	0x2d
 4511 023c 28       		.byte	0x28
 4512 023d 0100     		.2byte	0x1
 4513 023f 16       		.byte	0x16
 4514 0240 13       		.byte	0x13
 4515 0241 74       		.byte	0x74
 4516 0242 00       		.sleb128 0
 4517 0243 4E       		.byte	0x4e
 4518 0244 24       		.byte	0x24
 4519 0245 30       		.byte	0x30
 4520 0246 2D       		.byte	0x2d
 4521 0247 28       		.byte	0x28
 4522 0248 0100     		.2byte	0x1
 4523 024a 16       		.byte	0x16
 4524 024b 13       		.byte	0x13
 4525 024c 74       		.byte	0x74
 4526 024d 00       		.sleb128 0
 4527 024e 4D       		.byte	0x4d
 4528 024f 24       		.byte	0x24
 4529 0250 30       		.byte	0x30
 4530 0251 2D       		.byte	0x2d
 4531 0252 28       		.byte	0x28
 4532 0253 0100     		.2byte	0x1
 4533 0255 16       		.byte	0x16
 4534 0256 13       		.byte	0x13
 4535 0257 9F       		.byte	0x9f
 4536 0258 00000000 		.4byte	0
 4537 025c 00000000 		.4byte	0
 4538              	.LLST15:
 4539 0260 9A000000 		.4byte	.LVL20
 4540 0264 AE000000 		.4byte	.LVL23
 4541 0268 0300     		.2byte	0x3
 4542 026a 08       		.byte	0x8
 4543 026b 20       		.byte	0x20
 4544 026c 9F       		.byte	0x9f
 4545 026d 00000000 		.4byte	0
 4546 0271 00000000 		.4byte	0
 4547              	.LLST16:
 4548 0275 A0000000 		.4byte	.LVL21
 4549 0279 A5000000 		.4byte	.LVL22-1
 4550 027d 0100     		.2byte	0x1
 4551 027f 51       		.byte	0x51
 4552 0280 A5000000 		.4byte	.LVL22-1
 4553 0284 AE000000 		.4byte	.LVL23
 4554 0288 D400     		.2byte	0xd4
 4555 028a 08       		.byte	0x8
ARM GAS  /tmp/ccZwNDqj.s 			page 81


 4556 028b 80       		.byte	0x80
 4557 028c 30       		.byte	0x30
 4558 028d 74       		.byte	0x74
 4559 028e 00       		.sleb128 0
 4560 028f 33       		.byte	0x33
 4561 0290 25       		.byte	0x25
 4562 0291 30       		.byte	0x30
 4563 0292 2E       		.byte	0x2e
 4564 0293 28       		.byte	0x28
 4565 0294 0100     		.2byte	0x1
 4566 0296 16       		.byte	0x16
 4567 0297 13       		.byte	0x13
 4568 0298 08       		.byte	0x8
 4569 0299 20       		.byte	0x20
 4570 029a 21       		.byte	0x21
 4571 029b 08       		.byte	0x8
 4572 029c 80       		.byte	0x80
 4573 029d 30       		.byte	0x30
 4574 029e 74       		.byte	0x74
 4575 029f 00       		.sleb128 0
 4576 02a0 33       		.byte	0x33
 4577 02a1 25       		.byte	0x25
 4578 02a2 30       		.byte	0x30
 4579 02a3 2E       		.byte	0x2e
 4580 02a4 28       		.byte	0x28
 4581 02a5 0100     		.2byte	0x1
 4582 02a7 16       		.byte	0x16
 4583 02a8 13       		.byte	0x13
 4584 02a9 74       		.byte	0x74
 4585 02aa 00       		.sleb128 0
 4586 02ab 4F       		.byte	0x4f
 4587 02ac 24       		.byte	0x24
 4588 02ad 30       		.byte	0x30
 4589 02ae 2D       		.byte	0x2d
 4590 02af 28       		.byte	0x28
 4591 02b0 0100     		.2byte	0x1
 4592 02b2 16       		.byte	0x16
 4593 02b3 13       		.byte	0x13
 4594 02b4 08       		.byte	0x8
 4595 02b5 40       		.byte	0x40
 4596 02b6 21       		.byte	0x21
 4597 02b7 08       		.byte	0x8
 4598 02b8 80       		.byte	0x80
 4599 02b9 30       		.byte	0x30
 4600 02ba 74       		.byte	0x74
 4601 02bb 00       		.sleb128 0
 4602 02bc 33       		.byte	0x33
 4603 02bd 25       		.byte	0x25
 4604 02be 30       		.byte	0x30
 4605 02bf 2E       		.byte	0x2e
 4606 02c0 28       		.byte	0x28
 4607 02c1 0100     		.2byte	0x1
 4608 02c3 16       		.byte	0x16
 4609 02c4 13       		.byte	0x13
 4610 02c5 08       		.byte	0x8
 4611 02c6 20       		.byte	0x20
 4612 02c7 21       		.byte	0x21
ARM GAS  /tmp/ccZwNDqj.s 			page 82


 4613 02c8 08       		.byte	0x8
 4614 02c9 80       		.byte	0x80
 4615 02ca 30       		.byte	0x30
 4616 02cb 74       		.byte	0x74
 4617 02cc 00       		.sleb128 0
 4618 02cd 33       		.byte	0x33
 4619 02ce 25       		.byte	0x25
 4620 02cf 30       		.byte	0x30
 4621 02d0 2E       		.byte	0x2e
 4622 02d1 28       		.byte	0x28
 4623 02d2 0100     		.2byte	0x1
 4624 02d4 16       		.byte	0x16
 4625 02d5 13       		.byte	0x13
 4626 02d6 74       		.byte	0x74
 4627 02d7 00       		.sleb128 0
 4628 02d8 4F       		.byte	0x4f
 4629 02d9 24       		.byte	0x24
 4630 02da 30       		.byte	0x30
 4631 02db 2D       		.byte	0x2d
 4632 02dc 28       		.byte	0x28
 4633 02dd 0100     		.2byte	0x1
 4634 02df 16       		.byte	0x16
 4635 02e0 13       		.byte	0x13
 4636 02e1 74       		.byte	0x74
 4637 02e2 00       		.sleb128 0
 4638 02e3 4E       		.byte	0x4e
 4639 02e4 24       		.byte	0x24
 4640 02e5 30       		.byte	0x30
 4641 02e6 2D       		.byte	0x2d
 4642 02e7 28       		.byte	0x28
 4643 02e8 0100     		.2byte	0x1
 4644 02ea 16       		.byte	0x16
 4645 02eb 13       		.byte	0x13
 4646 02ec 0A       		.byte	0xa
 4647 02ed 0001     		.2byte	0x100
 4648 02ef 21       		.byte	0x21
 4649 02f0 08       		.byte	0x8
 4650 02f1 80       		.byte	0x80
 4651 02f2 30       		.byte	0x30
 4652 02f3 74       		.byte	0x74
 4653 02f4 00       		.sleb128 0
 4654 02f5 33       		.byte	0x33
 4655 02f6 25       		.byte	0x25
 4656 02f7 30       		.byte	0x30
 4657 02f8 2E       		.byte	0x2e
 4658 02f9 28       		.byte	0x28
 4659 02fa 0100     		.2byte	0x1
 4660 02fc 16       		.byte	0x16
 4661 02fd 13       		.byte	0x13
 4662 02fe 08       		.byte	0x8
 4663 02ff 20       		.byte	0x20
 4664 0300 21       		.byte	0x21
 4665 0301 08       		.byte	0x8
 4666 0302 80       		.byte	0x80
 4667 0303 30       		.byte	0x30
 4668 0304 74       		.byte	0x74
 4669 0305 00       		.sleb128 0
ARM GAS  /tmp/ccZwNDqj.s 			page 83


 4670 0306 33       		.byte	0x33
 4671 0307 25       		.byte	0x25
 4672 0308 30       		.byte	0x30
 4673 0309 2E       		.byte	0x2e
 4674 030a 28       		.byte	0x28
 4675 030b 0100     		.2byte	0x1
 4676 030d 16       		.byte	0x16
 4677 030e 13       		.byte	0x13
 4678 030f 74       		.byte	0x74
 4679 0310 00       		.sleb128 0
 4680 0311 4F       		.byte	0x4f
 4681 0312 24       		.byte	0x24
 4682 0313 30       		.byte	0x30
 4683 0314 2D       		.byte	0x2d
 4684 0315 28       		.byte	0x28
 4685 0316 0100     		.2byte	0x1
 4686 0318 16       		.byte	0x16
 4687 0319 13       		.byte	0x13
 4688 031a 08       		.byte	0x8
 4689 031b 40       		.byte	0x40
 4690 031c 21       		.byte	0x21
 4691 031d 08       		.byte	0x8
 4692 031e 80       		.byte	0x80
 4693 031f 30       		.byte	0x30
 4694 0320 74       		.byte	0x74
 4695 0321 00       		.sleb128 0
 4696 0322 33       		.byte	0x33
 4697 0323 25       		.byte	0x25
 4698 0324 30       		.byte	0x30
 4699 0325 2E       		.byte	0x2e
 4700 0326 28       		.byte	0x28
 4701 0327 0100     		.2byte	0x1
 4702 0329 16       		.byte	0x16
 4703 032a 13       		.byte	0x13
 4704 032b 08       		.byte	0x8
 4705 032c 20       		.byte	0x20
 4706 032d 21       		.byte	0x21
 4707 032e 08       		.byte	0x8
 4708 032f 80       		.byte	0x80
 4709 0330 30       		.byte	0x30
 4710 0331 74       		.byte	0x74
 4711 0332 00       		.sleb128 0
 4712 0333 33       		.byte	0x33
 4713 0334 25       		.byte	0x25
 4714 0335 30       		.byte	0x30
 4715 0336 2E       		.byte	0x2e
 4716 0337 28       		.byte	0x28
 4717 0338 0100     		.2byte	0x1
 4718 033a 16       		.byte	0x16
 4719 033b 13       		.byte	0x13
 4720 033c 74       		.byte	0x74
 4721 033d 00       		.sleb128 0
 4722 033e 4F       		.byte	0x4f
 4723 033f 24       		.byte	0x24
 4724 0340 30       		.byte	0x30
 4725 0341 2D       		.byte	0x2d
 4726 0342 28       		.byte	0x28
ARM GAS  /tmp/ccZwNDqj.s 			page 84


 4727 0343 0100     		.2byte	0x1
 4728 0345 16       		.byte	0x16
 4729 0346 13       		.byte	0x13
 4730 0347 74       		.byte	0x74
 4731 0348 00       		.sleb128 0
 4732 0349 4E       		.byte	0x4e
 4733 034a 24       		.byte	0x24
 4734 034b 30       		.byte	0x30
 4735 034c 2D       		.byte	0x2d
 4736 034d 28       		.byte	0x28
 4737 034e 0100     		.2byte	0x1
 4738 0350 16       		.byte	0x16
 4739 0351 13       		.byte	0x13
 4740 0352 74       		.byte	0x74
 4741 0353 00       		.sleb128 0
 4742 0354 4D       		.byte	0x4d
 4743 0355 24       		.byte	0x24
 4744 0356 30       		.byte	0x30
 4745 0357 2D       		.byte	0x2d
 4746 0358 28       		.byte	0x28
 4747 0359 0100     		.2byte	0x1
 4748 035b 16       		.byte	0x16
 4749 035c 13       		.byte	0x13
 4750 035d 9F       		.byte	0x9f
 4751 035e 00000000 		.4byte	0
 4752 0362 00000000 		.4byte	0
 4753              	.LLST17:
 4754 0366 A0000000 		.4byte	.LVL21
 4755 036a AE000000 		.4byte	.LVL23
 4756 036e 0600     		.2byte	0x6
 4757 0370 03       		.byte	0x3
 4758 0371 04000000 		.4byte	SD1+4
 4759 0375 9F       		.byte	0x9f
 4760 0376 00000000 		.4byte	0
 4761 037a 00000000 		.4byte	0
 4762              	.LLST18:
 4763 037e A6000000 		.4byte	.LVL22
 4764 0382 AE000000 		.4byte	.LVL23
 4765 0386 0200     		.2byte	0x2
 4766 0388 30       		.byte	0x30
 4767 0389 9F       		.byte	0x9f
 4768 038a 00000000 		.4byte	0
 4769 038e 00000000 		.4byte	0
 4770              	.LLST19:
 4771 0392 BA000000 		.4byte	.LVL24
 4772 0396 C0000000 		.4byte	.LVL25
 4773 039a 0100     		.2byte	0x1
 4774 039c 50       		.byte	0x50
 4775 039d DA000000 		.4byte	.LVL30
 4776 03a1 DC000000 		.4byte	.LVL31
 4777 03a5 0100     		.2byte	0x1
 4778 03a7 50       		.byte	0x50
 4779 03a8 00000000 		.4byte	0
 4780 03ac 00000000 		.4byte	0
 4781              	.LLST20:
 4782 03b0 AE000000 		.4byte	.LVL23
 4783 03b4 CA000000 		.4byte	.LVL27
ARM GAS  /tmp/ccZwNDqj.s 			page 85


 4784 03b8 0300     		.2byte	0x3
 4785 03ba 08       		.byte	0x8
 4786 03bb 20       		.byte	0x20
 4787 03bc 9F       		.byte	0x9f
 4788 03bd DA000000 		.4byte	.LVL30
 4789 03c1 FC000000 		.4byte	.LFE260
 4790 03c5 0300     		.2byte	0x3
 4791 03c7 08       		.byte	0x8
 4792 03c8 20       		.byte	0x20
 4793 03c9 9F       		.byte	0x9f
 4794 03ca 00000000 		.4byte	0
 4795 03ce 00000000 		.4byte	0
 4796              	.LLST21:
 4797 03d2 C2000000 		.4byte	.LVL26
 4798 03d6 CA000000 		.4byte	.LVL27
 4799 03da 0200     		.2byte	0x2
 4800 03dc 30       		.byte	0x30
 4801 03dd 9F       		.byte	0x9f
 4802 03de 00000000 		.4byte	0
 4803 03e2 00000000 		.4byte	0
 4804              	.LLST22:
 4805 03e6 D0000000 		.4byte	.LVL28
 4806 03ea DA000000 		.4byte	.LVL30
 4807 03ee 0200     		.2byte	0x2
 4808 03f0 40       		.byte	0x40
 4809 03f1 9F       		.byte	0x9f
 4810 03f2 00000000 		.4byte	0
 4811 03f6 00000000 		.4byte	0
 4812              	.LLST23:
 4813 03fa D0000000 		.4byte	.LVL28
 4814 03fe DA000000 		.4byte	.LVL30
 4815 0402 0600     		.2byte	0x6
 4816 0404 03       		.byte	0x3
 4817 0405 04000000 		.4byte	SD1+4
 4818 0409 9F       		.byte	0x9f
 4819 040a 00000000 		.4byte	0
 4820 040e 00000000 		.4byte	0
 4821              	.LLST24:
 4822 0412 00000000 		.4byte	.LVL34
 4823 0416 12000000 		.4byte	.LVL36
 4824 041a 0100     		.2byte	0x1
 4825 041c 50       		.byte	0x50
 4826 041d 12000000 		.4byte	.LVL36
 4827 0421 26000000 		.4byte	.LVL38
 4828 0425 0100     		.2byte	0x1
 4829 0427 55       		.byte	0x55
 4830 0428 26000000 		.4byte	.LVL38
 4831 042c 44000000 		.4byte	.LVL40
 4832 0430 0400     		.2byte	0x4
 4833 0432 F3       		.byte	0xf3
 4834 0433 01       		.uleb128 0x1
 4835 0434 50       		.byte	0x50
 4836 0435 9F       		.byte	0x9f
 4837 0436 44000000 		.4byte	.LVL40
 4838 043a 56000000 		.4byte	.LVL41
 4839 043e 0100     		.2byte	0x1
 4840 0440 50       		.byte	0x50
ARM GAS  /tmp/ccZwNDqj.s 			page 86


 4841 0441 56000000 		.4byte	.LVL41
 4842 0445 6C000000 		.4byte	.LFE262
 4843 0449 0100     		.2byte	0x1
 4844 044b 55       		.byte	0x55
 4845 044c 00000000 		.4byte	0
 4846 0450 00000000 		.4byte	0
 4847              	.LLST25:
 4848 0454 00000000 		.4byte	.LVL34
 4849 0458 0C000000 		.4byte	.LVL35
 4850 045c 0100     		.2byte	0x1
 4851 045e 51       		.byte	0x51
 4852 045f 0C000000 		.4byte	.LVL35
 4853 0463 2A000000 		.4byte	.LVL39
 4854 0467 0100     		.2byte	0x1
 4855 0469 54       		.byte	0x54
 4856 046a 2A000000 		.4byte	.LVL39
 4857 046e 44000000 		.4byte	.LVL40
 4858 0472 1300     		.2byte	0x13
 4859 0474 F3       		.byte	0xf3
 4860 0475 01       		.uleb128 0x1
 4861 0476 51       		.byte	0x51
 4862 0477 03       		.byte	0x3
 4863 0478 00000000 		.4byte	.LANCHOR1
 4864 047c F3       		.byte	0xf3
 4865 047d 01       		.uleb128 0x1
 4866 047e 51       		.byte	0x51
 4867 047f 30       		.byte	0x30
 4868 0480 2E       		.byte	0x2e
 4869 0481 28       		.byte	0x28
 4870 0482 0100     		.2byte	0x1
 4871 0484 16       		.byte	0x16
 4872 0485 13       		.byte	0x13
 4873 0486 9F       		.byte	0x9f
 4874 0487 44000000 		.4byte	.LVL40
 4875 048b 6C000000 		.4byte	.LFE262
 4876 048f 0100     		.2byte	0x1
 4877 0491 54       		.byte	0x54
 4878 0492 00000000 		.4byte	0
 4879 0496 00000000 		.4byte	0
 4880              	.LLST26:
 4881 049a 1E000000 		.4byte	.LVL37
 4882 049e 26000000 		.4byte	.LVL38
 4883 04a2 0100     		.2byte	0x1
 4884 04a4 55       		.byte	0x55
 4885 04a5 26000000 		.4byte	.LVL38
 4886 04a9 44000000 		.4byte	.LVL40
 4887 04ad 0400     		.2byte	0x4
 4888 04af F3       		.byte	0xf3
 4889 04b0 01       		.uleb128 0x1
 4890 04b1 50       		.byte	0x50
 4891 04b2 9F       		.byte	0x9f
 4892 04b3 00000000 		.4byte	0
 4893 04b7 00000000 		.4byte	0
 4894              	.LLST28:
 4895 04bb 1E000000 		.4byte	.LVL37
 4896 04bf 2A000000 		.4byte	.LVL39
 4897 04c3 0100     		.2byte	0x1
ARM GAS  /tmp/ccZwNDqj.s 			page 87


 4898 04c5 54       		.byte	0x54
 4899 04c6 2A000000 		.4byte	.LVL39
 4900 04ca 44000000 		.4byte	.LVL40
 4901 04ce 1300     		.2byte	0x13
 4902 04d0 F3       		.byte	0xf3
 4903 04d1 01       		.uleb128 0x1
 4904 04d2 51       		.byte	0x51
 4905 04d3 03       		.byte	0x3
 4906 04d4 00000000 		.4byte	.LANCHOR1
 4907 04d8 F3       		.byte	0xf3
 4908 04d9 01       		.uleb128 0x1
 4909 04da 51       		.byte	0x51
 4910 04db 30       		.byte	0x30
 4911 04dc 2E       		.byte	0x2e
 4912 04dd 28       		.byte	0x28
 4913 04de 0100     		.2byte	0x1
 4914 04e0 16       		.byte	0x16
 4915 04e1 13       		.byte	0x13
 4916 04e2 9F       		.byte	0x9f
 4917 04e3 00000000 		.4byte	0
 4918 04e7 00000000 		.4byte	0
 4919              	.LLST29:
 4920 04eb 1E000000 		.4byte	.LVL37
 4921 04ef 44000000 		.4byte	.LVL40
 4922 04f3 0100     		.2byte	0x1
 4923 04f5 53       		.byte	0x53
 4924 04f6 00000000 		.4byte	0
 4925 04fa 00000000 		.4byte	0
 4926              	.LLST30:
 4927 04fe 00000000 		.4byte	.LVL43
 4928 0502 24000000 		.4byte	.LVL46
 4929 0506 0100     		.2byte	0x1
 4930 0508 50       		.byte	0x50
 4931 0509 24000000 		.4byte	.LVL46
 4932 050d 30000000 		.4byte	.LFE263
 4933 0511 0400     		.2byte	0x4
 4934 0513 F3       		.byte	0xf3
 4935 0514 01       		.uleb128 0x1
 4936 0515 50       		.byte	0x50
 4937 0516 9F       		.byte	0x9f
 4938 0517 00000000 		.4byte	0
 4939 051b 00000000 		.4byte	0
 4940              	.LLST31:
 4941 051f 0C000000 		.4byte	.LVL44
 4942 0523 1A000000 		.4byte	.LVL45
 4943 0527 0100     		.2byte	0x1
 4944 0529 53       		.byte	0x53
 4945 052a 1A000000 		.4byte	.LVL45
 4946 052e 24000000 		.4byte	.LVL46
 4947 0532 0300     		.2byte	0x3
 4948 0534 70       		.byte	0x70
 4949 0535 F400     		.sleb128 116
 4950 0537 24000000 		.4byte	.LVL46
 4951 053b 27000000 		.4byte	.LVL47-1
 4952 053f 0500     		.2byte	0x5
 4953 0541 F3       		.byte	0xf3
 4954 0542 01       		.uleb128 0x1
ARM GAS  /tmp/ccZwNDqj.s 			page 88


 4955 0543 50       		.byte	0x50
 4956 0544 23       		.byte	0x23
 4957 0545 74       		.uleb128 0x74
 4958 0546 00000000 		.4byte	0
 4959 054a 00000000 		.4byte	0
 4960              		.section	.debug_aranges,"",%progbits
 4961 0000 3C000000 		.4byte	0x3c
 4962 0004 0200     		.2byte	0x2
 4963 0006 00000000 		.4byte	.Ldebug_info0
 4964 000a 04       		.byte	0x4
 4965 000b 00       		.byte	0
 4966 000c 0000     		.2byte	0
 4967 000e 0000     		.2byte	0
 4968 0010 00000000 		.4byte	.LFB259
 4969 0014 10000000 		.4byte	.LFE259-.LFB259
 4970 0018 00000000 		.4byte	.LFB260
 4971 001c FC000000 		.4byte	.LFE260-.LFB260
 4972 0020 00000000 		.4byte	.LFB261
 4973 0024 28000000 		.4byte	.LFE261-.LFB261
 4974 0028 00000000 		.4byte	.LFB262
 4975 002c 6C000000 		.4byte	.LFE262-.LFB262
 4976 0030 00000000 		.4byte	.LFB263
 4977 0034 30000000 		.4byte	.LFE263-.LFB263
 4978 0038 00000000 		.4byte	0
 4979 003c 00000000 		.4byte	0
 4980              		.section	.debug_ranges,"",%progbits
 4981              	.Ldebug_ranges0:
 4982 0000 02000000 		.4byte	.LBB267
 4983 0004 40000000 		.4byte	.LBE267
 4984 0008 48000000 		.4byte	.LBB346
 4985 000c FC000000 		.4byte	.LBE346
 4986 0010 00000000 		.4byte	0
 4987 0014 00000000 		.4byte	0
 4988 0018 2A000000 		.4byte	.LBB275
 4989 001c 34000000 		.4byte	.LBE275
 4990 0020 CA000000 		.4byte	.LBB341
 4991 0024 D0000000 		.4byte	.LBE341
 4992 0028 00000000 		.4byte	0
 4993 002c 00000000 		.4byte	0
 4994 0030 AE000000 		.4byte	.LBB326
 4995 0034 CA000000 		.4byte	.LBE326
 4996 0038 DA000000 		.4byte	.LBB344
 4997 003c FC000000 		.4byte	.LBE344
 4998 0040 00000000 		.4byte	0
 4999 0044 00000000 		.4byte	0
 5000 0048 12000000 		.4byte	.LBB347
 5001 004c 1C000000 		.4byte	.LBE347
 5002 0050 1E000000 		.4byte	.LBB350
 5003 0054 44000000 		.4byte	.LBE350
 5004 0058 00000000 		.4byte	0
 5005 005c 00000000 		.4byte	0
 5006 0060 0C000000 		.4byte	.LBB351
 5007 0064 0E000000 		.4byte	.LBE351
 5008 0068 10000000 		.4byte	.LBB354
 5009 006c 16000000 		.4byte	.LBE354
 5010 0070 00000000 		.4byte	0
 5011 0074 00000000 		.4byte	0
ARM GAS  /tmp/ccZwNDqj.s 			page 89


 5012 0078 00000000 		.4byte	.LFB259
 5013 007c 10000000 		.4byte	.LFE259
 5014 0080 00000000 		.4byte	.LFB260
 5015 0084 FC000000 		.4byte	.LFE260
 5016 0088 00000000 		.4byte	.LFB261
 5017 008c 28000000 		.4byte	.LFE261
 5018 0090 00000000 		.4byte	.LFB262
 5019 0094 6C000000 		.4byte	.LFE262
 5020 0098 00000000 		.4byte	.LFB263
 5021 009c 30000000 		.4byte	.LFE263
 5022 00a0 00000000 		.4byte	0
 5023 00a4 00000000 		.4byte	0
 5024              		.section	.debug_line,"",%progbits
 5025              	.Ldebug_line0:
 5026 0000 CF040000 		.section	.debug_str,"MS",%progbits,1
 5026      0200A603 
 5026      00000201 
 5026      FB0E0D00 
 5026      01010101 
 5027              	.LASF52:
 5028 0000 72656164 		.ascii	"ready_list_t\000"
 5028      795F6C69 
 5028      73745F74 
 5028      00
 5029              	.LASF2:
 5030 000d 73697A65 		.ascii	"size_t\000"
 5030      5F7400
 5031              	.LASF103:
 5032 0014 7264796D 		.ascii	"rdymsg\000"
 5032      736700
 5033              	.LASF19:
 5034 001b 75696E74 		.ascii	"uint64_t\000"
 5034      36345F74 
 5034      00
 5035              	.LASF3:
 5036 0024 5F5F7569 		.ascii	"__uint8_t\000"
 5036      6E74385F 
 5036      7400
 5037              	.LASF100:
 5038 002e 706F7274 		.ascii	"port_intctx\000"
 5038      5F696E74 
 5038      63747800 
 5039              	.LASF71:
 5040 003a 73797374 		.ascii	"system_debug_t\000"
 5040      656D5F64 
 5040      65627567 
 5040      5F7400
 5041              	.LASF172:
 5042 0049 7365745F 		.ascii	"set_error\000"
 5042      6572726F 
 5042      7200
 5043              	.LASF182:
 5044 0053 6E766963 		.ascii	"nvicEnableVector\000"
 5044      456E6162 
 5044      6C655665 
 5044      63746F72 
 5044      00
ARM GAS  /tmp/ccZwNDqj.s 			page 90


 5045              	.LASF157:
 5046 0064 706F7274 		.ascii	"port_lock\000"
 5046      5F6C6F63 
 5046      6B00
 5047              	.LASF14:
 5048 006e 6C6F6E67 		.ascii	"long long unsigned int\000"
 5048      206C6F6E 
 5048      6720756E 
 5048      7369676E 
 5048      65642069 
 5049              	.LASF168:
 5050 0085 6F73616C 		.ascii	"osalEventBroadcastFlagsI\000"
 5050      4576656E 
 5050      7442726F 
 5050      61646361 
 5050      7374466C 
 5051              	.LASF104:
 5052 009e 65786974 		.ascii	"exitcode\000"
 5052      636F6465 
 5052      00
 5053              	.LASF78:
 5054 00a7 6D61696E 		.ascii	"mainthread\000"
 5054      74687265 
 5054      616400
 5055              	.LASF8:
 5056 00b2 5F5F696E 		.ascii	"__int32_t\000"
 5056      7433325F 
 5056      7400
 5057              	.LASF68:
 5058 00bc 76697274 		.ascii	"virtual_timers_list_t\000"
 5058      75616C5F 
 5058      74696D65 
 5058      72735F6C 
 5058      6973745F 
 5059              	.LASF170:
 5060 00d2 6F73616C 		.ascii	"osalSysUnlockFromISR\000"
 5060      53797355 
 5060      6E6C6F63 
 5060      6B46726F 
 5060      6D495352 
 5061              	.LASF123:
 5062 00e7 696F5F71 		.ascii	"io_queue_t\000"
 5062      75657565 
 5062      5F7400
 5063              	.LASF51:
 5064 00f2 63685F74 		.ascii	"ch_threads_queue\000"
 5064      68726561 
 5064      64735F71 
 5064      75657565 
 5064      00
 5065              	.LASF181:
 5066 0103 73644F62 		.ascii	"sdObjectInit\000"
 5066      6A656374 
 5066      496E6974 
 5066      00
 5067              	.LASF156:
 5068 0110 72656164 		.ascii	"readt\000"
ARM GAS  /tmp/ccZwNDqj.s 			page 91


 5068      7400
 5069              	.LASF125:
 5070 0116 715F7761 		.ascii	"q_waiting\000"
 5070      6974696E 
 5070      6700
 5071              	.LASF112:
 5072 0120 6D757465 		.ascii	"mutex_t\000"
 5072      785F7400 
 5073              	.LASF12:
 5074 0128 6C6F6E67 		.ascii	"long long int\000"
 5074      206C6F6E 
 5074      6720696E 
 5074      7400
 5075              	.LASF1:
 5076 0136 7369676E 		.ascii	"signed char\000"
 5076      65642063 
 5076      68617200 
 5077              	.LASF92:
 5078 0142 47545052 		.ascii	"GTPR\000"
 5078      00
 5079              	.LASF37:
 5080 0147 705F7374 		.ascii	"p_state\000"
 5080      61746500 
 5081              	.LASF46:
 5082 014f 705F6D70 		.ascii	"p_mpool\000"
 5082      6F6F6C00 
 5083              	.LASF109:
 5084 0157 6D5F7175 		.ascii	"m_queue\000"
 5084      65756500 
 5085              	.LASF77:
 5086 015f 76746C69 		.ascii	"vtlist\000"
 5086      737400
 5087              	.LASF158:
 5088 0166 706F7274 		.ascii	"port_unlock\000"
 5088      5F756E6C 
 5088      6F636B00 
 5089              	.LASF188:
 5090 0172 64656661 		.ascii	"default_config\000"
 5090      756C745F 
 5090      636F6E66 
 5090      696700
 5091              	.LASF143:
 5092 0181 73746174 		.ascii	"state\000"
 5092      6500
 5093              	.LASF75:
 5094 0187 63685F73 		.ascii	"ch_system\000"
 5094      79737465 
 5094      6D00
 5095              	.LASF9:
 5096 0191 6C6F6E67 		.ascii	"long int\000"
 5096      20696E74 
 5096      00
 5097              	.LASF82:
 5098 019a 41504232 		.ascii	"APB2RSTR\000"
 5098      52535452 
 5098      00
 5099              	.LASF22:
ARM GAS  /tmp/ccZwNDqj.s 			page 92


 5100 01a3 74737461 		.ascii	"tstate_t\000"
 5100      74655F74 
 5100      00
 5101              	.LASF189:
 5102 01ac 63684F51 		.ascii	"chOQGetI\000"
 5102      47657449 
 5102      00
 5103              	.LASF39:
 5104 01b5 705F7265 		.ascii	"p_refs\000"
 5104      667300
 5105              	.LASF127:
 5106 01bc 715F6275 		.ascii	"q_buffer\000"
 5106      66666572 
 5106      00
 5107              	.LASF129:
 5108 01c5 715F7772 		.ascii	"q_wrptr\000"
 5108      70747200 
 5109              	.LASF179:
 5110 01cd 63684576 		.ascii	"chEvtBroadcastFlagsI\000"
 5110      7442726F 
 5110      61646361 
 5110      7374466C 
 5110      61677349 
 5111              	.LASF185:
 5112 01e2 2F6E6673 		.ascii	"/nfs/nfs4/home/ruswang/p442-submissions/p442-submis"
 5112      2F6E6673 
 5112      342F686F 
 5112      6D652F72 
 5112      75737761 
 5113 0215 73696F6E 		.ascii	"sions/lab1\000"
 5113      732F6C61 
 5113      623100
 5114              	.LASF34:
 5115 0220 705F6E65 		.ascii	"p_newer\000"
 5115      77657200 
 5116              	.LASF162:
 5117 0228 63685379 		.ascii	"chSysUnlockFromISR\000"
 5117      73556E6C 
 5117      6F636B46 
 5117      726F6D49 
 5117      535200
 5118              	.LASF57:
 5119 023b 725F6E65 		.ascii	"r_newer\000"
 5119      77657200 
 5120              	.LASF97:
 5121 0243 72656761 		.ascii	"regarm_t\000"
 5121      726D5F74 
 5121      00
 5122              	.LASF64:
 5123 024c 76745F70 		.ascii	"vt_prev\000"
 5123      72657600 
 5124              	.LASF101:
 5125 0254 6F666673 		.ascii	"offset\000"
 5125      657400
 5126              	.LASF167:
 5127 025b 6F73616C 		.ascii	"osalSysLockFromISR\000"
 5127      5379734C 
ARM GAS  /tmp/ccZwNDqj.s 			page 93


 5127      6F636B46 
 5127      726F6D49 
 5127      535200
 5128              	.LASF171:
 5129 026e 75736172 		.ascii	"usart_deinit\000"
 5129      745F6465 
 5129      696E6974 
 5129      00
 5130              	.LASF165:
 5131 027b 76616C75 		.ascii	"value\000"
 5131      6500
 5132              	.LASF124:
 5133 0281 696F5F71 		.ascii	"io_queue\000"
 5133      75657565 
 5133      00
 5134              	.LASF122:
 5135 028a 6576656E 		.ascii	"event_source_t\000"
 5135      745F736F 
 5135      75726365 
 5135      5F7400
 5136              	.LASF79:
 5137 0299 69646C65 		.ascii	"idle_thread_wa\000"
 5137      5F746872 
 5137      6561645F 
 5137      776100
 5138              	.LASF184:
 5139 02a8 2E2E2F43 		.ascii	"../ChibiOS/os/hal/ports/STM32/LLD/USARTv2/serial_ll"
 5139      68696269 
 5139      4F532F6F 
 5139      732F6861 
 5139      6C2F706F 
 5140 02db 642E6300 		.ascii	"d.c\000"
 5141              	.LASF146:
 5142 02df 75736172 		.ascii	"usart\000"
 5142      7400
 5143              	.LASF0:
 5144 02e5 756E7369 		.ascii	"unsigned int\000"
 5144      676E6564 
 5144      20696E74 
 5144      00
 5145              	.LASF63:
 5146 02f2 76745F6E 		.ascii	"vt_next\000"
 5146      65787400 
 5147              	.LASF16:
 5148 02fa 75696E74 		.ascii	"uint16_t\000"
 5148      31365F74 
 5148      00
 5149              	.LASF150:
 5150 0303 53657269 		.ascii	"SerialDriverVMT\000"
 5150      616C4472 
 5150      69766572 
 5150      564D5400 
 5151              	.LASF144:
 5152 0313 69717565 		.ascii	"iqueue\000"
 5152      756500
 5153              	.LASF41:
 5154 031a 705F6D73 		.ascii	"p_msgqueue\000"
ARM GAS  /tmp/ccZwNDqj.s 			page 94


 5154      67717565 
 5154      756500
 5155              	.LASF175:
 5156 0325 73645F6C 		.ascii	"sd_lld_init\000"
 5156      6C645F69 
 5156      6E697400 
 5157              	.LASF154:
 5158 0331 67657474 		.ascii	"gett\000"
 5158      00
 5159              	.LASF142:
 5160 0336 6576656E 		.ascii	"event\000"
 5160      7400
 5161              	.LASF7:
 5162 033c 73686F72 		.ascii	"short unsigned int\000"
 5162      7420756E 
 5162      7369676E 
 5162      65642069 
 5162      6E7400
 5163              	.LASF48:
 5164 034f 63685F74 		.ascii	"ch_thread\000"
 5164      68726561 
 5164      6400
 5165              	.LASF119:
 5166 0359 656C5F77 		.ascii	"el_wflags\000"
 5166      666C6167 
 5166      7300
 5167              	.LASF25:
 5168 0363 6D73675F 		.ascii	"msg_t\000"
 5168      7400
 5169              	.LASF145:
 5170 0369 6F717565 		.ascii	"oqueue\000"
 5170      756500
 5171              	.LASF115:
 5172 0370 656C5F6E 		.ascii	"el_next\000"
 5172      65787400 
 5173              	.LASF190:
 5174 0378 5F706F72 		.ascii	"_port_irq_epilogue\000"
 5174      745F6972 
 5174      715F6570 
 5174      696C6F67 
 5174      756500
 5175              	.LASF96:
 5176 038b 55534152 		.ascii	"USART_TypeDef\000"
 5176      545F5479 
 5176      70654465 
 5176      6600
 5177              	.LASF155:
 5178 0399 77726974 		.ascii	"writet\000"
 5178      657400
 5179              	.LASF105:
 5180 03a0 77746F62 		.ascii	"wtobjp\000"
 5180      6A7000
 5181              	.LASF53:
 5182 03a7 63685F72 		.ascii	"ch_ready_list\000"
 5182      65616479 
 5182      5F6C6973 
 5182      7400
ARM GAS  /tmp/ccZwNDqj.s 			page 95


 5183              	.LASF26:
 5184 03b5 6576656E 		.ascii	"eventmask_t\000"
 5184      746D6173 
 5184      6B5F7400 
 5185              	.LASF174:
 5186 03c1 56656374 		.ascii	"VectorD4\000"
 5186      6F724434 
 5186      00
 5187              	.LASF148:
 5188 03ca 73706565 		.ascii	"speed\000"
 5188      6400
 5189              	.LASF133:
 5190 03d0 716E6F74 		.ascii	"qnotify_t\000"
 5190      6966795F 
 5190      7400
 5191              	.LASF98:
 5192 03da 73746B61 		.ascii	"stkalign_t\000"
 5192      6C69676E 
 5192      5F7400
 5193              	.LASF47:
 5194 03e5 74687265 		.ascii	"threads_list_t\000"
 5194      6164735F 
 5194      6C697374 
 5194      5F7400
 5195              	.LASF151:
 5196 03f4 77726974 		.ascii	"write\000"
 5196      6500
 5197              	.LASF134:
 5198 03fa 696E7075 		.ascii	"input_queue_t\000"
 5198      745F7175 
 5198      6575655F 
 5198      7400
 5199              	.LASF153:
 5200 0408 70757474 		.ascii	"putt\000"
 5200      00
 5201              	.LASF164:
 5202 040d 75736172 		.ascii	"usart_init\000"
 5202      745F696E 
 5202      697400
 5203              	.LASF40:
 5204 0418 705F7761 		.ascii	"p_waiting\000"
 5204      6974696E 
 5204      6700
 5205              	.LASF80:
 5206 0422 73697A65 		.ascii	"sizetype\000"
 5206      74797065 
 5206      00
 5207              	.LASF69:
 5208 042b 63685F76 		.ascii	"ch_virtual_timers_list\000"
 5208      69727475 
 5208      616C5F74 
 5208      696D6572 
 5208      735F6C69 
 5209              	.LASF126:
 5210 0442 715F636F 		.ascii	"q_counter\000"
 5210      756E7465 
 5210      7200
ARM GAS  /tmp/ccZwNDqj.s 			page 96


 5211              	.LASF30:
 5212 044c 705F6E65 		.ascii	"p_next\000"
 5212      787400
 5213              	.LASF70:
 5214 0453 76745F6C 		.ascii	"vt_lasttime\000"
 5214      61737474 
 5214      696D6500 
 5215              	.LASF35:
 5216 045f 705F6F6C 		.ascii	"p_older\000"
 5216      64657200 
 5217              	.LASF56:
 5218 0467 725F6374 		.ascii	"r_ctx\000"
 5218      7800
 5219              	.LASF102:
 5220 046d 746D5F63 		.ascii	"tm_calibration_t\000"
 5220      616C6962 
 5220      72617469 
 5220      6F6E5F74 
 5220      00
 5221              	.LASF88:
 5222 047e 41484252 		.ascii	"AHBRSTR\000"
 5222      53545200 
 5223              	.LASF59:
 5224 0486 725F6375 		.ascii	"r_current\000"
 5224      7272656E 
 5224      7400
 5225              	.LASF83:
 5226 0490 41504231 		.ascii	"APB1RSTR\000"
 5226      52535452 
 5226      00
 5227              	.LASF117:
 5228 0499 656C5F65 		.ascii	"el_events\000"
 5228      76656E74 
 5228      7300
 5229              	.LASF149:
 5230 04a3 53657269 		.ascii	"SerialConfig\000"
 5230      616C436F 
 5230      6E666967 
 5230      00
 5231              	.LASF13:
 5232 04b0 5F5F7569 		.ascii	"__uint64_t\000"
 5232      6E743634 
 5232      5F7400
 5233              	.LASF187:
 5234 04bb 6E6F7469 		.ascii	"notify1\000"
 5234      66793100 
 5235              	.LASF23:
 5236 04c3 74726566 		.ascii	"trefs_t\000"
 5236      735F7400 
 5237              	.LASF94:
 5238 04cb 52455345 		.ascii	"RESERVED1\000"
 5238      52564544 
 5238      3100
 5239              	.LASF95:
 5240 04d5 52455345 		.ascii	"RESERVED2\000"
 5240      52564544 
 5240      3200
ARM GAS  /tmp/ccZwNDqj.s 			page 97


 5241              	.LASF61:
 5242 04df 76697274 		.ascii	"virtual_timer_t\000"
 5242      75616C5F 
 5242      74696D65 
 5242      725F7400 
 5243              	.LASF31:
 5244 04ef 705F7072 		.ascii	"p_prev\000"
 5244      657600
 5245              	.LASF24:
 5246 04f6 74707269 		.ascii	"tprio_t\000"
 5246      6F5F7400 
 5247              	.LASF130:
 5248 04fe 715F7264 		.ascii	"q_rdptr\000"
 5248      70747200 
 5249              	.LASF108:
 5250 0506 6D757465 		.ascii	"mutex\000"
 5250      7800
 5251              	.LASF72:
 5252 050c 63685F73 		.ascii	"ch_system_debug\000"
 5252      79737465 
 5252      6D5F6465 
 5252      62756700 
 5253              	.LASF136:
 5254 051c 5F426F6F 		.ascii	"_Bool\000"
 5254      6C00
 5255              	.LASF17:
 5256 0522 696E7433 		.ascii	"int32_t\000"
 5256      325F7400 
 5257              	.LASF4:
 5258 052a 756E7369 		.ascii	"unsigned char\000"
 5258      676E6564 
 5258      20636861 
 5258      7200
 5259              	.LASF176:
 5260 0538 73645F6C 		.ascii	"sd_lld_start\000"
 5260      6C645F73 
 5260      74617274 
 5260      00
 5261              	.LASF116:
 5262 0545 656C5F6C 		.ascii	"el_listener\000"
 5262      69737465 
 5262      6E657200 
 5263              	.LASF178:
 5264 0551 49544D5F 		.ascii	"ITM_RxBuffer\000"
 5264      52784275 
 5264      66666572 
 5264      00
 5265              	.LASF118:
 5266 055e 656C5F66 		.ascii	"el_flags\000"
 5266      6C616773 
 5266      00
 5267              	.LASF91:
 5268 0567 5243435F 		.ascii	"RCC_TypeDef\000"
 5268      54797065 
 5268      44656600 
 5269              	.LASF44:
 5270 0573 705F6D74 		.ascii	"p_mtxlist\000"
ARM GAS  /tmp/ccZwNDqj.s 			page 98


 5270      786C6973 
 5270      7400
 5271              	.LASF5:
 5272 057d 73686F72 		.ascii	"short int\000"
 5272      7420696E 
 5272      7400
 5273              	.LASF55:
 5274 0587 725F7072 		.ascii	"r_prio\000"
 5274      696F00
 5275              	.LASF106:
 5276 058e 65776D61 		.ascii	"ewmask\000"
 5276      736B00
 5277              	.LASF21:
 5278 0595 746D6F64 		.ascii	"tmode_t\000"
 5278      655F7400 
 5279              	.LASF38:
 5280 059d 705F666C 		.ascii	"p_flags\000"
 5280      61677300 
 5281              	.LASF138:
 5282 05a5 53445F53 		.ascii	"SD_STOP\000"
 5282      544F5000 
 5283              	.LASF85:
 5284 05ad 41504232 		.ascii	"APB2ENR\000"
 5284      454E5200 
 5285              	.LASF50:
 5286 05b5 74687265 		.ascii	"threads_queue_t\000"
 5286      6164735F 
 5286      71756575 
 5286      655F7400 
 5287              	.LASF62:
 5288 05c5 63685F76 		.ascii	"ch_virtual_timer\000"
 5288      69727475 
 5288      616C5F74 
 5288      696D6572 
 5288      00
 5289              	.LASF173:
 5290 05d6 73657276 		.ascii	"serve_interrupt\000"
 5290      655F696E 
 5290      74657272 
 5290      75707400 
 5291              	.LASF43:
 5292 05e6 705F6570 		.ascii	"p_epending\000"
 5292      656E6469 
 5292      6E6700
 5293              	.LASF137:
 5294 05f1 53445F55 		.ascii	"SD_UNINIT\000"
 5294      4E494E49 
 5294      5400
 5295              	.LASF18:
 5296 05fb 75696E74 		.ascii	"uint32_t\000"
 5296      33325F74 
 5296      00
 5297              	.LASF54:
 5298 0604 725F7175 		.ascii	"r_queue\000"
 5298      65756500 
 5299              	.LASF65:
 5300 060c 76745F64 		.ascii	"vt_delta\000"
ARM GAS  /tmp/ccZwNDqj.s 			page 99


 5300      656C7461 
 5300      00
 5301              	.LASF49:
 5302 0615 63685F74 		.ascii	"ch_threads_list\000"
 5302      68726561 
 5302      64735F6C 
 5302      69737400 
 5303              	.LASF141:
 5304 0625 53657269 		.ascii	"SerialDriver\000"
 5304      616C4472 
 5304      69766572 
 5304      00
 5305              	.LASF191:
 5306 0632 6E766963 		.ascii	"nvicDisableVector\000"
 5306      44697361 
 5306      626C6556 
 5306      6563746F 
 5306      7200
 5307              	.LASF11:
 5308 0644 6C6F6E67 		.ascii	"long unsigned int\000"
 5308      20756E73 
 5308      69676E65 
 5308      6420696E 
 5308      7400
 5309              	.LASF152:
 5310 0656 72656164 		.ascii	"read\000"
 5310      00
 5311              	.LASF107:
 5312 065b 63686172 		.ascii	"char\000"
 5312      00
 5313              	.LASF180:
 5314 0660 7364496E 		.ascii	"sdIncomingDataI\000"
 5314      636F6D69 
 5314      6E674461 
 5314      74614900 
 5315              	.LASF166:
 5316 0670 636F6E66 		.ascii	"config\000"
 5316      696700
 5317              	.LASF6:
 5318 0677 5F5F7569 		.ascii	"__uint16_t\000"
 5318      6E743136 
 5318      5F7400
 5319              	.LASF160:
 5320 0682 706F7274 		.ascii	"port_unlock_from_isr\000"
 5320      5F756E6C 
 5320      6F636B5F 
 5320      66726F6D 
 5320      5F697372 
 5321              	.LASF29:
 5322 0697 74687265 		.ascii	"thread_t\000"
 5322      61645F74 
 5322      00
 5323              	.LASF183:
 5324 06a0 474E5520 		.ascii	"GNU C 4.8.4 20140526 (release) [ARM/embedded-4_8-br"
 5324      4320342E 
 5324      382E3420 
 5324      32303134 
ARM GAS  /tmp/ccZwNDqj.s 			page 100


 5324      30353236 
 5325 06d3 616E6368 		.ascii	"anch revision 211358] -mcpu=cortex-m4 -mno-thumb-in"
 5325      20726576 
 5325      6973696F 
 5325      6E203231 
 5325      31333538 
 5326 0706 74657277 		.ascii	"terwork -mthumb -ggdb -O2 -fomit-frame-pointer -fal"
 5326      6F726B20 
 5326      2D6D7468 
 5326      756D6220 
 5326      2D676764 
 5327 0739 69676E2D 		.ascii	"ign-functions=16 -ffunction-sections -fdata-section"
 5327      66756E63 
 5327      74696F6E 
 5327      733D3136 
 5327      202D6666 
 5328 076c 73202D66 		.ascii	"s -fno-common\000"
 5328      6E6F2D63 
 5328      6F6D6D6F 
 5328      6E00
 5329              	.LASF111:
 5330 077a 6D5F6E65 		.ascii	"m_next\000"
 5330      787400
 5331              	.LASF28:
 5332 0781 73797374 		.ascii	"systime_t\000"
 5332      696D655F 
 5332      7400
 5333              	.LASF45:
 5334 078b 705F7265 		.ascii	"p_realprio\000"
 5334      616C7072 
 5334      696F00
 5335              	.LASF60:
 5336 0796 76746675 		.ascii	"vtfunc_t\000"
 5336      6E635F74 
 5336      00
 5337              	.LASF10:
 5338 079f 5F5F7569 		.ascii	"__uint32_t\000"
 5338      6E743332 
 5338      5F7400
 5339              	.LASF163:
 5340 07aa 5F5F7365 		.ascii	"__set_BASEPRI\000"
 5340      745F4241 
 5340      53455052 
 5340      4900
 5341              	.LASF73:
 5342 07b8 70616E69 		.ascii	"panic_msg\000"
 5342      635F6D73 
 5342      6700
 5343              	.LASF93:
 5344 07c2 52544F52 		.ascii	"RTOR\000"
 5344      00
 5345              	.LASF86:
 5346 07c7 41504231 		.ascii	"APB1ENR\000"
 5346      454E5200 
 5347              	.LASF113:
 5348 07cf 6576656E 		.ascii	"event_listener_t\000"
 5348      745F6C69 
ARM GAS  /tmp/ccZwNDqj.s 			page 101


 5348      7374656E 
 5348      65725F74 
 5348      00
 5349              	.LASF99:
 5350 07e0 636F6E74 		.ascii	"context\000"
 5350      65787400 
 5351              	.LASF58:
 5352 07e8 725F6F6C 		.ascii	"r_older\000"
 5352      64657200 
 5353              	.LASF74:
 5354 07f0 63685F73 		.ascii	"ch_system_t\000"
 5354      79737465 
 5354      6D5F7400 
 5355              	.LASF42:
 5356 07fc 705F6D73 		.ascii	"p_msg\000"
 5356      6700
 5357              	.LASF20:
 5358 0802 7274636E 		.ascii	"rtcnt_t\000"
 5358      745F7400 
 5359              	.LASF159:
 5360 080a 706F7274 		.ascii	"port_lock_from_isr\000"
 5360      5F6C6F63 
 5360      6B5F6672 
 5360      6F6D5F69 
 5360      737200
 5361              	.LASF139:
 5362 081d 53445F52 		.ascii	"SD_READY\000"
 5362      45414459 
 5362      00
 5363              	.LASF120:
 5364 0826 6576656E 		.ascii	"event_source\000"
 5364      745F736F 
 5364      75726365 
 5364      00
 5365              	.LASF67:
 5366 0833 76745F70 		.ascii	"vt_par\000"
 5366      617200
 5367              	.LASF27:
 5368 083a 6576656E 		.ascii	"eventflags_t\000"
 5368      74666C61 
 5368      67735F74 
 5368      00
 5369              	.LASF135:
 5370 0847 6F757470 		.ascii	"output_queue_t\000"
 5370      75745F71 
 5370      75657565 
 5370      5F7400
 5371              	.LASF140:
 5372 0856 73647374 		.ascii	"sdstate_t\000"
 5372      6174655F 
 5372      7400
 5373              	.LASF128:
 5374 0860 715F746F 		.ascii	"q_top\000"
 5374      7000
 5375              	.LASF36:
 5376 0866 705F6E61 		.ascii	"p_name\000"
 5376      6D6500
ARM GAS  /tmp/ccZwNDqj.s 			page 102


 5377              	.LASF121:
 5378 086d 65735F6E 		.ascii	"es_next\000"
 5378      65787400 
 5379              	.LASF87:
 5380 0875 42444352 		.ascii	"BDCR\000"
 5380      00
 5381              	.LASF131:
 5382 087a 715F6E6F 		.ascii	"q_notify\000"
 5382      74696679 
 5382      00
 5383              	.LASF76:
 5384 0883 726C6973 		.ascii	"rlist\000"
 5384      7400
 5385              	.LASF89:
 5386 0889 43464752 		.ascii	"CFGR2\000"
 5386      3200
 5387              	.LASF90:
 5388 088f 43464752 		.ascii	"CFGR3\000"
 5388      3300
 5389              	.LASF15:
 5390 0895 75696E74 		.ascii	"uint8_t\000"
 5390      385F7400 
 5391              	.LASF169:
 5392 089d 666C6167 		.ascii	"flags\000"
 5392      7300
 5393              	.LASF32:
 5394 08a3 705F7072 		.ascii	"p_prio\000"
 5394      696F00
 5395              	.LASF161:
 5396 08aa 63685379 		.ascii	"chSysLockFromISR\000"
 5396      734C6F63 
 5396      6B46726F 
 5396      6D495352 
 5396      00
 5397              	.LASF186:
 5398 08bb 63684F51 		.ascii	"chOQIsEmptyI\000"
 5398      4973456D 
 5398      70747949 
 5398      00
 5399              	.LASF81:
 5400 08c8 43464752 		.ascii	"CFGR\000"
 5400      00
 5401              	.LASF147:
 5402 08cd 636C6F63 		.ascii	"clock\000"
 5402      6B00
 5403              	.LASF177:
 5404 08d3 73645F6C 		.ascii	"sd_lld_stop\000"
 5404      6C645F73 
 5404      746F7000 
 5405              	.LASF132:
 5406 08df 715F6C69 		.ascii	"q_link\000"
 5406      6E6B00
 5407              	.LASF110:
 5408 08e6 6D5F6F77 		.ascii	"m_owner\000"
 5408      6E657200 
 5409              	.LASF33:
 5410 08ee 705F6374 		.ascii	"p_ctx\000"
ARM GAS  /tmp/ccZwNDqj.s 			page 103


 5410      7800
 5411              	.LASF66:
 5412 08f4 76745F66 		.ascii	"vt_func\000"
 5412      756E6300 
 5413              	.LASF84:
 5414 08fc 41484245 		.ascii	"AHBENR\000"
 5414      4E5200
 5415              	.LASF114:
 5416 0903 6576656E 		.ascii	"event_listener\000"
 5416      745F6C69 
 5416      7374656E 
 5416      657200
 5417              		.ident	"GCC: (GNU Tools for ARM Embedded Processors) 4.8.4 20140526 (release) [ARM/embedded-4_8-br
ARM GAS  /tmp/ccZwNDqj.s 			page 104


DEFINED SYMBOLS
                            *ABS*:00000000 serial_lld.c
     /tmp/ccZwNDqj.s:19     .text.notify1:00000000 $t
     /tmp/ccZwNDqj.s:24     .text.notify1:00000000 notify1
     /tmp/ccZwNDqj.s:42     .text.notify1:0000000c $d
     /tmp/ccZwNDqj.s:47     .text.VectorD4:00000000 $t
     /tmp/ccZwNDqj.s:53     .text.VectorD4:00000000 VectorD4
     /tmp/ccZwNDqj.s:434    .text.VectorD4:000000f0 $d
     /tmp/ccZwNDqj.s:444    .text.sd_lld_init:00000000 $t
     /tmp/ccZwNDqj.s:450    .text.sd_lld_init:00000000 sd_lld_init
     /tmp/ccZwNDqj.s:479    .text.sd_lld_init:00000018 $d
     /tmp/ccZwNDqj.s:487    .text.sd_lld_start:00000000 $t
     /tmp/ccZwNDqj.s:493    .text.sd_lld_start:00000000 sd_lld_start
     /tmp/ccZwNDqj.s:594    .text.sd_lld_start:00000060 $d
     /tmp/ccZwNDqj.s:601    .text.sd_lld_stop:00000000 $t
     /tmp/ccZwNDqj.s:607    .text.sd_lld_stop:00000000 sd_lld_stop
     /tmp/ccZwNDqj.s:661    .text.sd_lld_stop:00000028 $d
     /tmp/ccZwNDqj.s:682    .bss.SD1:00000000 SD1
     /tmp/ccZwNDqj.s:668    .rodata.default_config:00000000 $d
     /tmp/ccZwNDqj.s:672    .rodata.default_config:00000000 default_config
     /tmp/ccZwNDqj.s:678    .bss.SD1:00000000 $d
                     .debug_frame:00000010 $d
     /tmp/ccZwNDqj.s:443    .text.VectorD4:000000fc $t
     /tmp/ccZwNDqj.s:486    .text.sd_lld_init:00000028 $t
     /tmp/ccZwNDqj.s:600    .text.sd_lld_start:0000006c $t

UNDEFINED SYMBOLS
_port_irq_epilogue
sdIncomingDataI
chEvtBroadcastFlagsI
chOQGetI
sdObjectInit
nvicEnableVector
nvicDisableVector
