ARM GAS  /tmp/ccclLrIN.s 			page 1


   1              		.syntax unified
   2              		.cpu cortex-m4
   3              		.fpu softvfp
   4              		.eabi_attribute 20, 1
   5              		.eabi_attribute 21, 1
   6              		.eabi_attribute 23, 3
   7              		.eabi_attribute 24, 1
   8              		.eabi_attribute 25, 1
   9              		.eabi_attribute 26, 1
  10              		.eabi_attribute 30, 2
  11              		.eabi_attribute 34, 1
  12              		.eabi_attribute 18, 4
  13              		.thumb
  14              		.file	"serial.c"
  15              		.text
  16              	.Ltext0:
  17              		.cfi_sections	.debug_frame
  18              		.section	.text.readt,"ax",%progbits
  19              		.align	2
  20              		.p2align 4,,15
  21              		.thumb
  22              		.thumb_func
  23              		.type	readt, %function
  24              	readt:
  25              	.LFB262:
  26              		.file 1 "../ChibiOS/os/hal/src/serial.c"
  27              		.loc 1 90 0
  28              		.cfi_startproc
  29              		@ args = 0, pretend = 0, frame = 0
  30              		@ frame_needed = 0, uses_anonymous_args = 0
  31              		@ link register save eliminated.
  32              	.LVL0:
  33              		.loc 1 92 0
  34 0000 0C30     		adds	r0, r0, #12
  35              	.LVL1:
  36 0002 FFF7FEBF 		b	chIQReadTimeout
  37              	.LVL2:
  38              		.cfi_endproc
  39              	.LFE262:
  40              		.size	readt, .-readt
  41 0006 00BFAFF3 		.section	.text.read,"ax",%progbits
  41      0080AFF3 
  41      0080
  42              		.align	2
  43              		.p2align 4,,15
  44              		.thumb
  45              		.thumb_func
  46              		.type	read, %function
  47              	read:
  48              	.LFB256:
  49              		.loc 1 59 0
  50              		.cfi_startproc
  51              		@ args = 0, pretend = 0, frame = 0
  52              		@ frame_needed = 0, uses_anonymous_args = 0
  53              		@ link register save eliminated.
  54              	.LVL3:
  55              		.loc 1 61 0
ARM GAS  /tmp/ccclLrIN.s 			page 2


  56 0000 0C30     		adds	r0, r0, #12
  57              	.LVL4:
  58 0002 4FF0FF33 		mov	r3, #-1
  59 0006 FFF7FEBF 		b	chIQReadTimeout
  60              	.LVL5:
  61              		.cfi_endproc
  62              	.LFE256:
  63              		.size	read, .-read
  64 000a 00BFAFF3 		.section	.text.writet,"ax",%progbits
  64      0080
  65              		.align	2
  66              		.p2align 4,,15
  67              		.thumb
  68              		.thumb_func
  69              		.type	writet, %function
  70              	writet:
  71              	.LFB261:
  72              		.loc 1 85 0
  73              		.cfi_startproc
  74              		@ args = 0, pretend = 0, frame = 0
  75              		@ frame_needed = 0, uses_anonymous_args = 0
  76              		@ link register save eliminated.
  77              	.LVL6:
  78              		.loc 1 87 0
  79 0000 3030     		adds	r0, r0, #48
  80              	.LVL7:
  81 0002 FFF7FEBF 		b	chOQWriteTimeout
  82              	.LVL8:
  83              		.cfi_endproc
  84              	.LFE261:
  85              		.size	writet, .-writet
  86 0006 00BFAFF3 		.section	.text.write,"ax",%progbits
  86      0080AFF3 
  86      0080
  87              		.align	2
  88              		.p2align 4,,15
  89              		.thumb
  90              		.thumb_func
  91              		.type	write, %function
  92              	write:
  93              	.LFB255:
  94              		.loc 1 53 0
  95              		.cfi_startproc
  96              		@ args = 0, pretend = 0, frame = 0
  97              		@ frame_needed = 0, uses_anonymous_args = 0
  98              		@ link register save eliminated.
  99              	.LVL9:
 100              		.loc 1 55 0
 101 0000 3030     		adds	r0, r0, #48
 102              	.LVL10:
 103 0002 4FF0FF33 		mov	r3, #-1
 104 0006 FFF7FEBF 		b	chOQWriteTimeout
 105              	.LVL11:
 106              		.cfi_endproc
 107              	.LFE255:
 108              		.size	write, .-write
 109 000a 00BFAFF3 		.section	.text.gett,"ax",%progbits
ARM GAS  /tmp/ccclLrIN.s 			page 3


 109      0080
 110              		.align	2
 111              		.p2align 4,,15
 112              		.thumb
 113              		.thumb_func
 114              		.type	gett, %function
 115              	gett:
 116              	.LFB260:
 117              		.loc 1 80 0
 118              		.cfi_startproc
 119              		@ args = 0, pretend = 0, frame = 0
 120              		@ frame_needed = 0, uses_anonymous_args = 0
 121              		@ link register save eliminated.
 122              	.LVL12:
 123              		.loc 1 82 0
 124 0000 0C30     		adds	r0, r0, #12
 125              	.LVL13:
 126 0002 FFF7FEBF 		b	chIQGetTimeout
 127              	.LVL14:
 128              		.cfi_endproc
 129              	.LFE260:
 130              		.size	gett, .-gett
 131 0006 00BFAFF3 		.section	.text.get,"ax",%progbits
 131      0080AFF3 
 131      0080
 132              		.align	2
 133              		.p2align 4,,15
 134              		.thumb
 135              		.thumb_func
 136              		.type	get, %function
 137              	get:
 138              	.LFB258:
 139              		.loc 1 70 0
 140              		.cfi_startproc
 141              		@ args = 0, pretend = 0, frame = 0
 142              		@ frame_needed = 0, uses_anonymous_args = 0
 143              		@ link register save eliminated.
 144              	.LVL15:
 145              		.loc 1 72 0
 146 0000 0C30     		adds	r0, r0, #12
 147              	.LVL16:
 148 0002 4FF0FF31 		mov	r1, #-1
 149 0006 FFF7FEBF 		b	chIQGetTimeout
 150              	.LVL17:
 151              		.cfi_endproc
 152              	.LFE258:
 153              		.size	get, .-get
 154 000a 00BFAFF3 		.section	.text.putt,"ax",%progbits
 154      0080
 155              		.align	2
 156              		.p2align 4,,15
 157              		.thumb
 158              		.thumb_func
 159              		.type	putt, %function
 160              	putt:
 161              	.LFB259:
 162              		.loc 1 75 0
ARM GAS  /tmp/ccclLrIN.s 			page 4


 163              		.cfi_startproc
 164              		@ args = 0, pretend = 0, frame = 0
 165              		@ frame_needed = 0, uses_anonymous_args = 0
 166              		@ link register save eliminated.
 167              	.LVL18:
 168              		.loc 1 77 0
 169 0000 3030     		adds	r0, r0, #48
 170              	.LVL19:
 171 0002 FFF7FEBF 		b	chOQPutTimeout
 172              	.LVL20:
 173              		.cfi_endproc
 174              	.LFE259:
 175              		.size	putt, .-putt
 176 0006 00BFAFF3 		.section	.text.put,"ax",%progbits
 176      0080AFF3 
 176      0080
 177              		.align	2
 178              		.p2align 4,,15
 179              		.thumb
 180              		.thumb_func
 181              		.type	put, %function
 182              	put:
 183              	.LFB257:
 184              		.loc 1 65 0
 185              		.cfi_startproc
 186              		@ args = 0, pretend = 0, frame = 0
 187              		@ frame_needed = 0, uses_anonymous_args = 0
 188              		@ link register save eliminated.
 189              	.LVL21:
 190              		.loc 1 67 0
 191 0000 3030     		adds	r0, r0, #48
 192              	.LVL22:
 193 0002 4FF0FF32 		mov	r2, #-1
 194 0006 FFF7FEBF 		b	chOQPutTimeout
 195              	.LVL23:
 196              		.cfi_endproc
 197              	.LFE257:
 198              		.size	put, .-put
 199 000a 00BFAFF3 		.section	.text.sdInit,"ax",%progbits
 199      0080
 200              		.align	2
 201              		.p2align 4,,15
 202              		.global	sdInit
 203              		.thumb
 204              		.thumb_func
 205              		.type	sdInit, %function
 206              	sdInit:
 207              	.LFB263:
 208              		.loc 1 111 0
 209              		.cfi_startproc
 210              		@ args = 0, pretend = 0, frame = 0
 211              		@ frame_needed = 0, uses_anonymous_args = 0
 212              		@ link register save eliminated.
 213              		.loc 1 113 0
 214 0000 FFF7FEBF 		b	sd_lld_init
 215              	.LVL24:
 216              		.cfi_endproc
ARM GAS  /tmp/ccclLrIN.s 			page 5


 217              	.LFE263:
 218              		.size	sdInit, .-sdInit
 219 0004 AFF30080 		.section	.text.sdObjectInit,"ax",%progbits
 219      AFF30080 
 219      AFF30080 
 220              		.align	2
 221              		.p2align 4,,15
 222              		.global	sdObjectInit
 223              		.thumb
 224              		.thumb_func
 225              		.type	sdObjectInit, %function
 226              	sdObjectInit:
 227              	.LFB264:
 228              		.loc 1 131 0
 229              		.cfi_startproc
 230              		@ args = 0, pretend = 0, frame = 0
 231              		@ frame_needed = 0, uses_anonymous_args = 0
 232              	.LVL25:
 233 0000 70B5     		push	{r4, r5, r6, lr}
 234              		.cfi_def_cfa_offset 16
 235              		.cfi_offset 4, -16
 236              		.cfi_offset 5, -12
 237              		.cfi_offset 6, -8
 238              		.cfi_offset 14, -4
 239              		.loc 1 133 0
 240 0002 0E4B     		ldr	r3, .L11
 241              		.loc 1 131 0
 242 0004 0446     		mov	r4, r0
 243 0006 82B0     		sub	sp, sp, #8
 244              		.cfi_def_cfa_offset 24
 245              		.loc 1 133 0
 246 0008 40F8043B 		str	r3, [r0], #4
 247              	.LVL26:
 248              		.loc 1 135 0
 249 000c 0126     		movs	r6, #1
 250              		.loc 1 136 0
 251 000e 0094     		str	r4, [sp]
 252              		.loc 1 131 0
 253 0010 0B46     		mov	r3, r1
 254 0012 1546     		mov	r5, r2
 255              	.LBB66:
 256              	.LBB67:
 257              	.LBB68:
 258              		.file 2 "../ChibiOS/os/rt/include/chevents.h"
 259              		.loc 2 172 0
 260 0014 6060     		str	r0, [r4, #4]
 261              	.LBE68:
 262              	.LBE67:
 263              	.LBE66:
 264              		.loc 1 136 0
 265 0016 04F15401 		add	r1, r4, #84
 266              	.LVL27:
 267 001a 04F10C00 		add	r0, r4, #12
 268              	.LVL28:
 269              		.loc 1 135 0
 270 001e 2672     		strb	r6, [r4, #8]
 271              		.loc 1 136 0
ARM GAS  /tmp/ccclLrIN.s 			page 6


 272 0020 1022     		movs	r2, #16
 273              	.LVL29:
 274 0022 FFF7FEFF 		bl	chIQObjectInit
 275              	.LVL30:
 276              		.loc 1 137 0
 277 0026 0094     		str	r4, [sp]
 278 0028 2B46     		mov	r3, r5
 279 002a 04F13000 		add	r0, r4, #48
 280 002e 04F16401 		add	r1, r4, #100
 281 0032 1022     		movs	r2, #16
 282 0034 FFF7FEFF 		bl	chOQObjectInit
 283              	.LVL31:
 284              		.loc 1 138 0
 285 0038 02B0     		add	sp, sp, #8
 286              		@ sp needed
 287 003a 70BD     		pop	{r4, r5, r6, pc}
 288              	.LVL32:
 289              	.L12:
 290              		.align	2
 291              	.L11:
 292 003c 00000000 		.word	.LANCHOR0
 293              		.cfi_endproc
 294              	.LFE264:
 295              		.size	sdObjectInit, .-sdObjectInit
 296              		.section	.text.sdStart,"ax",%progbits
 297              		.align	2
 298              		.p2align 4,,15
 299              		.global	sdStart
 300              		.thumb
 301              		.thumb_func
 302              		.type	sdStart, %function
 303              	sdStart:
 304              	.LFB265:
 305              		.loc 1 150 0
 306              		.cfi_startproc
 307              		@ args = 0, pretend = 0, frame = 0
 308              		@ frame_needed = 0, uses_anonymous_args = 0
 309              	.LVL33:
 310 0000 10B5     		push	{r4, lr}
 311              		.cfi_def_cfa_offset 8
 312              		.cfi_offset 4, -8
 313              		.cfi_offset 14, -4
 314              	.LBB69:
 315              	.LBB70:
 316              	.LBB71:
 317              	.LBB72:
 318              	.LBB73:
 319              		.file 3 "../ChibiOS/os/ext/CMSIS/include/core_cmFunc.h"
 320              		.loc 3 546 0
 321 0002 2023     		movs	r3, #32
 322              	.LBE73:
 323              	.LBE72:
 324              	.LBE71:
 325              	.LBE70:
 326              	.LBE69:
 327              		.loc 1 150 0
 328 0004 0446     		mov	r4, r0
ARM GAS  /tmp/ccclLrIN.s 			page 7


 329              	.LBB78:
 330              	.LBB77:
 331              	.LBB76:
 332              	.LBB75:
 333              	.LBB74:
 334              		.loc 3 546 0
 335              	@ 546 "../ChibiOS/os/ext/CMSIS/include/core_cmFunc.h" 1
 336 0006 83F31188 		MSR basepri, r3
 337              	@ 0 "" 2
 338              		.thumb
 339              	.LBE74:
 340              	.LBE75:
 341              	.LBE76:
 342              	.LBE77:
 343              	.LBE78:
 344              		.loc 1 157 0
 345 000a FFF7FEFF 		bl	sd_lld_start
 346              	.LVL34:
 347              		.loc 1 158 0
 348 000e 0223     		movs	r3, #2
 349 0010 2372     		strb	r3, [r4, #8]
 350              	.LVL35:
 351              	.LBB79:
 352              	.LBB80:
 353              	.LBB81:
 354              	.LBB82:
 355              	.LBB83:
 356              	.LBB84:
 357              		.loc 3 546 0
 358 0012 0023     		movs	r3, #0
 359              	@ 546 "../ChibiOS/os/ext/CMSIS/include/core_cmFunc.h" 1
 360 0014 83F31188 		MSR basepri, r3
 361              	@ 0 "" 2
 362              		.thumb
 363 0018 10BD     		pop	{r4, pc}
 364              	.LBE84:
 365              	.LBE83:
 366              	.LBE82:
 367              	.LBE81:
 368              	.LBE80:
 369              	.LBE79:
 370              		.cfi_endproc
 371              	.LFE265:
 372              		.size	sdStart, .-sdStart
 373              		.section	.text.sdStop,"ax",%progbits
 374              		.align	2
 375              		.p2align 4,,15
 376              		.global	sdStop
 377              		.thumb
 378              		.thumb_func
 379              		.type	sdStop, %function
 380              	sdStop:
 381              	.LFB266:
 382              		.loc 1 171 0
 383              		.cfi_startproc
 384              		@ args = 0, pretend = 0, frame = 0
 385              		@ frame_needed = 0, uses_anonymous_args = 0
ARM GAS  /tmp/ccclLrIN.s 			page 8


 386              	.LVL36:
 387 0000 10B5     		push	{r4, lr}
 388              		.cfi_def_cfa_offset 8
 389              		.cfi_offset 4, -8
 390              		.cfi_offset 14, -4
 391              	.LBB85:
 392              	.LBB86:
 393              	.LBB87:
 394              	.LBB88:
 395              	.LBB89:
 396              		.loc 3 546 0
 397 0002 2023     		movs	r3, #32
 398              	.LBE89:
 399              	.LBE88:
 400              	.LBE87:
 401              	.LBE86:
 402              	.LBE85:
 403              		.loc 1 171 0
 404 0004 0446     		mov	r4, r0
 405              	.LBB94:
 406              	.LBB93:
 407              	.LBB92:
 408              	.LBB91:
 409              	.LBB90:
 410              		.loc 3 546 0
 411              	@ 546 "../ChibiOS/os/ext/CMSIS/include/core_cmFunc.h" 1
 412 0006 83F31188 		MSR basepri, r3
 413              	@ 0 "" 2
 414              		.thumb
 415              	.LBE90:
 416              	.LBE91:
 417              	.LBE92:
 418              	.LBE93:
 419              	.LBE94:
 420              		.loc 1 178 0
 421 000a FFF7FEFF 		bl	sd_lld_stop
 422              	.LVL37:
 423              		.loc 1 179 0
 424 000e 0123     		movs	r3, #1
 425 0010 2372     		strb	r3, [r4, #8]
 426              		.loc 1 180 0
 427 0012 04F13000 		add	r0, r4, #48
 428 0016 FFF7FEFF 		bl	chOQResetI
 429              	.LVL38:
 430              		.loc 1 181 0
 431 001a 04F10C00 		add	r0, r4, #12
 432 001e FFF7FEFF 		bl	chIQResetI
 433              	.LVL39:
 434              	.LBB95:
 435              	.LBB96:
 436              		.file 4 "../ChibiOS/os/hal/osal/rt/osal.h"
 437              		.loc 4 532 0
 438 0022 FFF7FEFF 		bl	chSchRescheduleS
 439              	.LVL40:
 440              	.LBE96:
 441              	.LBE95:
 442              	.LBB97:
ARM GAS  /tmp/ccclLrIN.s 			page 9


 443              	.LBB98:
 444              	.LBB99:
 445              	.LBB100:
 446              	.LBB101:
 447              	.LBB102:
 448              		.loc 3 546 0
 449 0026 0023     		movs	r3, #0
 450              	@ 546 "../ChibiOS/os/ext/CMSIS/include/core_cmFunc.h" 1
 451 0028 83F31188 		MSR basepri, r3
 452              	@ 0 "" 2
 453              		.thumb
 454 002c 10BD     		pop	{r4, pc}
 455              	.LBE102:
 456              	.LBE101:
 457              	.LBE100:
 458              	.LBE99:
 459              	.LBE98:
 460              	.LBE97:
 461              		.cfi_endproc
 462              	.LFE266:
 463              		.size	sdStop, .-sdStop
 464 002e 00BF     		.section	.text.sdIncomingDataI,"ax",%progbits
 465              		.align	2
 466              		.p2align 4,,15
 467              		.global	sdIncomingDataI
 468              		.thumb
 469              		.thumb_func
 470              		.type	sdIncomingDataI, %function
 471              	sdIncomingDataI:
 472              	.LFB267:
 473              		.loc 1 202 0
 474              		.cfi_startproc
 475              		@ args = 0, pretend = 0, frame = 0
 476              		@ frame_needed = 0, uses_anonymous_args = 0
 477              	.LVL41:
 478 0000 38B5     		push	{r3, r4, r5, lr}
 479              		.cfi_def_cfa_offset 16
 480              		.cfi_offset 3, -16
 481              		.cfi_offset 4, -12
 482              		.cfi_offset 5, -8
 483              		.cfi_offset 14, -4
 484              		.loc 1 207 0
 485 0002 4369     		ldr	r3, [r0, #20]
 486              		.loc 1 202 0
 487 0004 0446     		mov	r4, r0
 488              	.LVL42:
 489 0006 0D46     		mov	r5, r1
 490              		.loc 1 207 0
 491 0008 3BB1     		cbz	r3, .L19
 492              		.loc 1 209 0
 493 000a 2946     		mov	r1, r5
 494              	.LVL43:
 495 000c 04F10C00 		add	r0, r4, #12
 496              	.LVL44:
 497 0010 FFF7FEFF 		bl	chIQPutI
 498              	.LVL45:
 499 0014 0028     		cmp	r0, #0
ARM GAS  /tmp/ccclLrIN.s 			page 10


 500 0016 0BDB     		blt	.L20
 501              	.L15:
 502 0018 38BD     		pop	{r3, r4, r5, pc}
 503              	.LVL46:
 504              	.L19:
 505              	.LBB103:
 506              	.LBB104:
 507              		.loc 4 776 0
 508 001a 0430     		adds	r0, r0, #4
 509              	.LVL47:
 510 001c 0421     		movs	r1, #4
 511              	.LVL48:
 512 001e FFF7FEFF 		bl	chEvtBroadcastFlagsI
 513              	.LVL49:
 514              	.LBE104:
 515              	.LBE103:
 516              		.loc 1 209 0
 517 0022 2946     		mov	r1, r5
 518 0024 04F10C00 		add	r0, r4, #12
 519 0028 FFF7FEFF 		bl	chIQPutI
 520              	.LVL50:
 521 002c 0028     		cmp	r0, #0
 522 002e F3DA     		bge	.L15
 523              	.LVL51:
 524              	.L20:
 525              	.LBB105:
 526              	.LBB106:
 527              		.loc 4 776 0
 528 0030 201D     		adds	r0, r4, #4
 529              	.LVL52:
 530 0032 8021     		movs	r1, #128
 531              	.LBE106:
 532              	.LBE105:
 533              		.loc 1 211 0
 534 0034 BDE83840 		pop	{r3, r4, r5, lr}
 535              	.LVL53:
 536              	.LBB108:
 537              	.LBB107:
 538              		.loc 4 776 0
 539 0038 FFF7FEBF 		b	chEvtBroadcastFlagsI
 540              	.LVL54:
 541              	.LBE107:
 542              	.LBE108:
 543              		.cfi_endproc
 544              	.LFE267:
 545              		.size	sdIncomingDataI, .-sdIncomingDataI
 546 003c AFF30080 		.section	.text.sdRequestDataI,"ax",%progbits
 547              		.align	2
 548              		.p2align 4,,15
 549              		.global	sdRequestDataI
 550              		.thumb
 551              		.thumb_func
 552              		.type	sdRequestDataI, %function
 553              	sdRequestDataI:
 554              	.LFB268:
 555              		.loc 1 228 0
 556              		.cfi_startproc
ARM GAS  /tmp/ccclLrIN.s 			page 11


 557              		@ args = 0, pretend = 0, frame = 0
 558              		@ frame_needed = 0, uses_anonymous_args = 0
 559              	.LVL55:
 560 0000 38B5     		push	{r3, r4, r5, lr}
 561              		.cfi_def_cfa_offset 16
 562              		.cfi_offset 3, -16
 563              		.cfi_offset 4, -12
 564              		.cfi_offset 5, -8
 565              		.cfi_offset 14, -4
 566              		.loc 1 228 0
 567 0002 0446     		mov	r4, r0
 568              		.loc 1 234 0
 569 0004 3030     		adds	r0, r0, #48
 570              	.LVL56:
 571 0006 FFF7FEFF 		bl	chOQGetI
 572              	.LVL57:
 573              		.loc 1 235 0
 574 000a 051E     		subs	r5, r0, #0
 575 000c 01DB     		blt	.L23
 576              		.loc 1 238 0
 577 000e 2846     		mov	r0, r5
 578 0010 38BD     		pop	{r3, r4, r5, pc}
 579              	.LVL58:
 580              	.L23:
 581              	.LBB109:
 582              	.LBB110:
 583              		.loc 4 776 0
 584 0012 201D     		adds	r0, r4, #4
 585              	.LVL59:
 586 0014 0821     		movs	r1, #8
 587 0016 FFF7FEFF 		bl	chEvtBroadcastFlagsI
 588              	.LVL60:
 589              	.LBE110:
 590              	.LBE109:
 591              		.loc 1 238 0
 592 001a 2846     		mov	r0, r5
 593 001c 38BD     		pop	{r3, r4, r5, pc}
 594              		.cfi_endproc
 595              	.LFE268:
 596              		.size	sdRequestDataI, .-sdRequestDataI
 597 001e 00BF     		.section	.rodata.vmt,"a",%progbits
 598              		.align	2
 599              		.set	.LANCHOR0,. + 0
 600              		.type	vmt, %object
 601              		.size	vmt, 32
 602              	vmt:
 603 0000 00000000 		.word	write
 604 0004 00000000 		.word	read
 605 0008 00000000 		.word	put
 606 000c 00000000 		.word	get
 607 0010 00000000 		.word	putt
 608 0014 00000000 		.word	gett
 609 0018 00000000 		.word	writet
 610 001c 00000000 		.word	readt
 611              		.text
 612              	.Letext0:
 613              		.file 5 "/nfs/nfs5/home/research/hardware/arm2/gcc-arm-embedded/gcc-arm-none-eabi-4_8-2014q2/lib/g
ARM GAS  /tmp/ccclLrIN.s 			page 12


 614              		.file 6 "/nfs/nfs5/home/research/hardware/arm2/gcc-arm-embedded/gcc-arm-none-eabi-4_8-2014q2/arm-n
 615              		.file 7 "/nfs/nfs5/home/research/hardware/arm2/gcc-arm-embedded/gcc-arm-none-eabi-4_8-2014q2/arm-n
 616              		.file 8 "../ChibiOS/os/rt/ports/ARMCMx/compilers/GCC/chtypes.h"
 617              		.file 9 "../ChibiOS/os/rt/include/chsystypes.h"
 618              		.file 10 "../ChibiOS/os/rt/include/chschd.h"
 619              		.file 11 "../ChibiOS/os/ext/CMSIS/ST/stm32f303xc.h"
 620              		.file 12 "../ChibiOS/os/rt/ports/ARMCMx/chcore.h"
 621              		.file 13 "../ChibiOS/os/rt/ports/ARMCMx/chcore_v7m.h"
 622              		.file 14 "../ChibiOS/os/rt/include/chtm.h"
 623              		.file 15 "../ChibiOS/os/rt/include/chmtx.h"
 624              		.file 16 "../ChibiOS/os/rt/include/chqueues.h"
 625              		.file 17 "../ChibiOS/os/hal/include/serial.h"
 626              		.file 18 "../ChibiOS/os/hal/ports/STM32/LLD/USARTv2/serial_lld.h"
 627              		.file 19 "../ChibiOS/os/rt/include/chsys.h"
 628              		.file 20 "../ChibiOS/os/ext/CMSIS/include/core_cm4.h"