ARM GAS  /tmp/ccKTO0Fm.s 			page 1


   1              		.syntax unified
   2              		.cpu cortex-m4
   3              		.fpu softvfp
   4              		.eabi_attribute 20, 1
   5              		.eabi_attribute 21, 1
   6              		.eabi_attribute 23, 3
   7              		.eabi_attribute 24, 1
   8              		.eabi_attribute 25, 1
   9              		.eabi_attribute 26, 1
  10              		.eabi_attribute 30, 2
  11              		.eabi_attribute 34, 1
  12              		.eabi_attribute 18, 4
  13              		.thumb
  14              		.file	"test.c"
  15              		.text
  16              	.Ltext0:
  17              		.cfi_sections	.debug_frame
  18              		.section	.text.tmr,"ax",%progbits
  19              		.align	2
  20              		.p2align 4,,15
  21              		.thumb
  22              		.thumb_func
  23              		.type	tmr, %function
  24              	tmr:
  25              	.LFB268:
  26              		.file 1 "../ChibiOS/test/rt/test.c"
  27              		.loc 1 261 0
  28              		.cfi_startproc
  29              		@ args = 0, pretend = 0, frame = 0
  30              		@ frame_needed = 0, uses_anonymous_args = 0
  31              		@ link register save eliminated.
  32              	.LVL0:
  33              		.loc 1 264 0
  34 0000 014B     		ldr	r3, .L2
  35 0002 0122     		movs	r2, #1
  36 0004 1A70     		strb	r2, [r3]
  37 0006 7047     		bx	lr
  38              	.L3:
  39              		.align	2
  40              	.L2:
  41 0008 00000000 		.word	.LANCHOR0
  42              		.cfi_endproc
  43              	.LFE268:
  44              		.size	tmr, .-tmr
  45 000c AFF30080 		.section	.text.print_line,"ax",%progbits
  46              		.align	2
  47              		.p2align 4,,15
  48              		.thumb
  49              		.thumb_func
  50              		.type	print_line, %function
  51              	print_line:
  52              	.LFB271:
  53              		.loc 1 300 0
  54              		.cfi_startproc
  55              		@ args = 0, pretend = 0, frame = 0
  56              		@ frame_needed = 0, uses_anonymous_args = 0
  57              	.LVL1:
ARM GAS  /tmp/ccKTO0Fm.s 			page 2


  58 0000 70B5     		push	{r4, r5, r6, lr}
  59              		.cfi_def_cfa_offset 16
  60              		.cfi_offset 4, -16
  61              		.cfi_offset 5, -12
  62              		.cfi_offset 6, -8
  63              		.cfi_offset 14, -4
  64 0002 084E     		ldr	r6, .L8
  65              		.loc 1 300 0
  66 0004 4C24     		movs	r4, #76
  67              	.LVL2:
  68              	.L6:
  69              		.loc 1 304 0 discriminator 2
  70 0006 3068     		ldr	r0, [r6]
  71 0008 064D     		ldr	r5, .L8
  72 000a 0368     		ldr	r3, [r0]
  73 000c 2D21     		movs	r1, #45
  74 000e 9B68     		ldr	r3, [r3, #8]
  75 0010 9847     		blx	r3
  76              	.LVL3:
  77              		.loc 1 303 0 discriminator 2
  78 0012 013C     		subs	r4, r4, #1
  79              	.LVL4:
  80 0014 F7D1     		bne	.L6
  81              		.loc 1 305 0
  82 0016 2868     		ldr	r0, [r5]
  83 0018 0349     		ldr	r1, .L8+4
  84 001a 0368     		ldr	r3, [r0]
  85 001c 0222     		movs	r2, #2
  86 001e 1B68     		ldr	r3, [r3]
  87 0020 9847     		blx	r3
  88              	.LVL5:
  89 0022 70BD     		pop	{r4, r5, r6, pc}
  90              	.LVL6:
  91              	.L9:
  92              		.align	2
  93              	.L8:
  94 0024 00000000 		.word	.LANCHOR1
  95 0028 00000000 		.word	.LC0
  96              		.cfi_endproc
  97              	.LFE271:
  98              		.size	print_line, .-print_line
  99 002c AFF30080 		.section	.text.test_printn,"ax",%progbits
 100              		.align	2
 101              		.p2align 4,,15
 102              		.global	test_printn
 103              		.thumb
 104              		.thumb_func
 105              		.type	test_printn, %function
 106              	test_printn:
 107              	.LFB255:
 108              		.loc 1 91 0
 109              		.cfi_startproc
 110              		@ args = 0, pretend = 0, frame = 16
 111              		@ frame_needed = 0, uses_anonymous_args = 0
 112              	.LVL7:
 113 0000 70B5     		push	{r4, r5, r6, lr}
 114              		.cfi_def_cfa_offset 16
ARM GAS  /tmp/ccKTO0Fm.s 			page 3


 115              		.cfi_offset 4, -16
 116              		.cfi_offset 5, -12
 117              		.cfi_offset 6, -8
 118              		.cfi_offset 14, -4
 119 0002 84B0     		sub	sp, sp, #16
 120              		.cfi_def_cfa_offset 32
 121              		.loc 1 94 0
 122 0004 18B3     		cbz	r0, .L18
 123 0006 0DF10105 		add	r5, sp, #1
 124              		.loc 1 99 0
 125 000a 154E     		ldr	r6, .L20
 126 000c 2B46     		mov	r3, r5
 127              	.LVL8:
 128              	.L14:
 129 000e A6FB0012 		umull	r1, r2, r6, r0
 130 0012 D208     		lsrs	r2, r2, #3
 131 0014 02EB8201 		add	r1, r2, r2, lsl #2
 132 0018 A0EB4101 		sub	r1, r0, r1, lsl #1
 133 001c 3031     		adds	r1, r1, #48
 134 001e C9B2     		uxtb	r1, r1
 135 0020 03F8011C 		strb	r1, [r3, #-1]
 136 0024 1C46     		mov	r4, r3
 137              	.LVL9:
 138              		.loc 1 98 0
 139 0026 1046     		mov	r0, r2
 140 0028 0133     		adds	r3, r3, #1
 141              	.LVL10:
 142 002a 002A     		cmp	r2, #0
 143 002c EFD1     		bne	.L14
 144              		.loc 1 100 0 discriminator 1
 145 002e 6B46     		mov	r3, sp
 146 0030 9C42     		cmp	r4, r3
 147 0032 0AD9     		bls	.L10
 148 0034 0B4E     		ldr	r6, .L20+4
 149 0036 02E0     		b	.L17
 150              	.LVL11:
 151              	.L19:
 152 0038 14F8021C 		ldrb	r1, [r4, #-2]	@ zero_extendqisi2
 153 003c 013C     		subs	r4, r4, #1
 154              	.LVL12:
 155              	.L17:
 156              		.loc 1 101 0
 157 003e 3068     		ldr	r0, [r6]
 158              	.LVL13:
 159 0040 0368     		ldr	r3, [r0]
 160 0042 9B68     		ldr	r3, [r3, #8]
 161 0044 9847     		blx	r3
 162              	.LVL14:
 163              		.loc 1 100 0
 164 0046 AC42     		cmp	r4, r5
 165 0048 F6D1     		bne	.L19
 166              	.LVL15:
 167              	.L10:
 168              		.loc 1 103 0
 169 004a 04B0     		add	sp, sp, #16
 170              		@ sp needed
 171 004c 70BD     		pop	{r4, r5, r6, pc}
ARM GAS  /tmp/ccKTO0Fm.s 			page 4


 172              	.LVL16:
 173              	.L18:
 174              	.LBB171:
 175              	.LBB172:
 176              		.loc 1 95 0
 177 004e 054B     		ldr	r3, .L20+4
 178 0050 1868     		ldr	r0, [r3]
 179              	.LVL17:
 180 0052 0368     		ldr	r3, [r0]
 181 0054 3021     		movs	r1, #48
 182 0056 9B68     		ldr	r3, [r3, #8]
 183 0058 9847     		blx	r3
 184              	.LVL18:
 185              	.LBE172:
 186              	.LBE171:
 187              		.loc 1 103 0
 188 005a 04B0     		add	sp, sp, #16
 189              		@ sp needed
 190 005c 70BD     		pop	{r4, r5, r6, pc}
 191              	.L21:
 192 005e 00BF     		.align	2
 193              	.L20:
 194 0060 CDCCCCCC 		.word	-858993459
 195 0064 00000000 		.word	.LANCHOR1
 196              		.cfi_endproc
 197              	.LFE255:
 198              		.size	test_printn, .-test_printn
 199 0068 AFF30080 		.section	.text.test_print,"ax",%progbits
 199      AFF30080 
 200              		.align	2
 201              		.p2align 4,,15
 202              		.global	test_print
 203              		.thumb
 204              		.thumb_func
 205              		.type	test_print, %function
 206              	test_print:
 207              	.LFB256:
 208              		.loc 1 110 0
 209              		.cfi_startproc
 210              		@ args = 0, pretend = 0, frame = 0
 211              		@ frame_needed = 0, uses_anonymous_args = 0
 212              	.LVL19:
 213 0000 38B5     		push	{r3, r4, r5, lr}
 214              		.cfi_def_cfa_offset 16
 215              		.cfi_offset 3, -16
 216              		.cfi_offset 4, -12
 217              		.cfi_offset 5, -8
 218              		.cfi_offset 14, -4
 219              		.loc 1 112 0
 220 0002 0178     		ldrb	r1, [r0]	@ zero_extendqisi2
 221 0004 49B1     		cbz	r1, .L22
 222 0006 054D     		ldr	r5, .L29
 223 0008 0446     		mov	r4, r0
 224              	.LVL20:
 225              	.L25:
 226              		.loc 1 113 0
 227 000a 2868     		ldr	r0, [r5]
ARM GAS  /tmp/ccKTO0Fm.s 			page 5


 228              	.LVL21:
 229 000c 0368     		ldr	r3, [r0]
 230 000e 9B68     		ldr	r3, [r3, #8]
 231 0010 9847     		blx	r3
 232              	.LVL22:
 233              		.loc 1 112 0
 234 0012 14F8011F 		ldrb	r1, [r4, #1]!	@ zero_extendqisi2
 235              	.LVL23:
 236 0016 0029     		cmp	r1, #0
 237 0018 F7D1     		bne	.L25
 238              	.LVL24:
 239              	.L22:
 240 001a 38BD     		pop	{r3, r4, r5, pc}
 241              	.L30:
 242              		.align	2
 243              	.L29:
 244 001c 00000000 		.word	.LANCHOR1
 245              		.cfi_endproc
 246              	.LFE256:
 247              		.size	test_print, .-test_print
 248              		.section	.text.test_println,"ax",%progbits
 249              		.align	2
 250              		.p2align 4,,15
 251              		.global	test_println
 252              		.thumb
 253              		.thumb_func
 254              		.type	test_println, %function
 255              	test_println:
 256              	.LFB257:
 257              		.loc 1 121 0
 258              		.cfi_startproc
 259              		@ args = 0, pretend = 0, frame = 0
 260              		@ frame_needed = 0, uses_anonymous_args = 0
 261              	.LVL25:
 262 0000 38B5     		push	{r3, r4, r5, lr}
 263              		.cfi_def_cfa_offset 16
 264              		.cfi_offset 3, -16
 265              		.cfi_offset 4, -12
 266              		.cfi_offset 5, -8
 267              		.cfi_offset 14, -4
 268              	.LBB173:
 269              	.LBB174:
 270              		.loc 1 112 0
 271 0002 0178     		ldrb	r1, [r0]	@ zero_extendqisi2
 272 0004 084D     		ldr	r5, .L39
 273 0006 0446     		mov	r4, r0
 274 0008 39B1     		cbz	r1, .L33
 275              	.LVL26:
 276              	.L34:
 277              		.loc 1 113 0
 278 000a 2868     		ldr	r0, [r5]
 279              	.LVL27:
 280 000c 0368     		ldr	r3, [r0]
 281 000e 9B68     		ldr	r3, [r3, #8]
 282 0010 9847     		blx	r3
 283              	.LVL28:
 284              		.loc 1 112 0
ARM GAS  /tmp/ccKTO0Fm.s 			page 6


 285 0012 14F8011F 		ldrb	r1, [r4, #1]!	@ zero_extendqisi2
 286              	.LVL29:
 287 0016 0029     		cmp	r1, #0
 288 0018 F7D1     		bne	.L34
 289              	.LVL30:
 290              	.L33:
 291              	.LBE174:
 292              	.LBE173:
 293              		.loc 1 124 0
 294 001a 2868     		ldr	r0, [r5]
 295 001c 0349     		ldr	r1, .L39+4
 296 001e 0368     		ldr	r3, [r0]
 297 0020 0222     		movs	r2, #2
 298 0022 1B68     		ldr	r3, [r3]
 299 0024 9847     		blx	r3
 300              	.LVL31:
 301 0026 38BD     		pop	{r3, r4, r5, pc}
 302              	.L40:
 303              		.align	2
 304              	.L39:
 305 0028 00000000 		.word	.LANCHOR1
 306 002c 00000000 		.word	.LC0
 307              		.cfi_endproc
 308              	.LFE257:
 309              		.size	test_println, .-test_println
 310              		.section	.text.test_emit_token,"ax",%progbits
 311              		.align	2
 312              		.p2align 4,,15
 313              		.global	test_emit_token
 314              		.thumb
 315              		.thumb_func
 316              		.type	test_emit_token, %function
 317              	test_emit_token:
 318              	.LFB260:
 319              		.loc 1 147 0
 320              		.cfi_startproc
 321              		@ args = 0, pretend = 0, frame = 0
 322              		@ frame_needed = 0, uses_anonymous_args = 0
 323              		@ link register save eliminated.
 324              	.LVL32:
 325              	.LBB175:
 326              	.LBB176:
 327              	.LBB177:
 328              	.LBB178:
 329              		.file 2 "../ChibiOS/os/ext/CMSIS/include/core_cmFunc.h"
 330              		.loc 2 546 0
 331 0000 2023     		movs	r3, #32
 332              	@ 546 "../ChibiOS/os/ext/CMSIS/include/core_cmFunc.h" 1
 333 0002 83F31188 		MSR basepri, r3
 334              	@ 0 "" 2
 335              		.thumb
 336              	.LBE178:
 337              	.LBE177:
 338              	.LBE176:
 339              	.LBE175:
 340              		.loc 1 150 0
 341 0006 044B     		ldr	r3, .L42
ARM GAS  /tmp/ccKTO0Fm.s 			page 7


 342 0008 1A68     		ldr	r2, [r3]
 343 000a 511C     		adds	r1, r2, #1
 344 000c 1960     		str	r1, [r3]
 345 000e 1070     		strb	r0, [r2]
 346              	.LVL33:
 347              	.LBB179:
 348              	.LBB180:
 349              	.LBB181:
 350              	.LBB182:
 351              	.LBB183:
 352              		.loc 2 546 0
 353 0010 0023     		movs	r3, #0
 354              	@ 546 "../ChibiOS/os/ext/CMSIS/include/core_cmFunc.h" 1
 355 0012 83F31188 		MSR basepri, r3
 356              	@ 0 "" 2
 357              		.thumb
 358 0016 7047     		bx	lr
 359              	.L43:
 360              		.align	2
 361              	.L42:
 362 0018 00000000 		.word	.LANCHOR2
 363              	.LBE183:
 364              	.LBE182:
 365              	.LBE181:
 366              	.LBE180:
 367              	.LBE179:
 368              		.cfi_endproc
 369              	.LFE260:
 370              		.size	test_emit_token, .-test_emit_token
 371 001c AFF30080 		.section	.text._test_fail,"ax",%progbits
 372              		.align	2
 373              		.p2align 4,,15
 374              		.global	_test_fail
 375              		.thumb
 376              		.thumb_func
 377              		.type	_test_fail, %function
 378              	_test_fail:
 379              	.LFB261:
 380              		.loc 1 157 0
 381              		.cfi_startproc
 382              		@ args = 0, pretend = 0, frame = 0
 383              		@ frame_needed = 0, uses_anonymous_args = 0
 384              		@ link register save eliminated.
 385              	.LVL34:
 386              		.loc 1 161 0
 387 0000 0349     		ldr	r1, .L45
 388              		.loc 1 159 0
 389 0002 044A     		ldr	r2, .L45+4
 390              		.loc 1 160 0
 391 0004 044B     		ldr	r3, .L45+8
 392              		.loc 1 161 0
 393 0006 0860     		str	r0, [r1]
 394              		.loc 1 159 0
 395 0008 0120     		movs	r0, #1
 396              	.LVL35:
 397 000a 1070     		strb	r0, [r2]
 398              		.loc 1 160 0
ARM GAS  /tmp/ccKTO0Fm.s 			page 8


 399 000c 1870     		strb	r0, [r3]
 400              		.loc 1 163 0
 401 000e 7047     		bx	lr
 402              	.L46:
 403              		.align	2
 404              	.L45:
 405 0010 00000000 		.word	.LANCHOR5
 406 0014 00000000 		.word	.LANCHOR3
 407 0018 00000000 		.word	.LANCHOR4
 408              		.cfi_endproc
 409              	.LFE261:
 410              		.size	_test_fail, .-_test_fail
 411 001c AFF30080 		.section	.text._test_assert,"ax",%progbits
 412              		.align	2
 413              		.p2align 4,,15
 414              		.global	_test_assert
 415              		.thumb
 416              		.thumb_func
 417              		.type	_test_assert, %function
 418              	_test_assert:
 419              	.LFB262:
 420              		.loc 1 165 0
 421              		.cfi_startproc
 422              		@ args = 0, pretend = 0, frame = 0
 423              		@ frame_needed = 0, uses_anonymous_args = 0
 424              		@ link register save eliminated.
 425              	.LVL36:
 426 0000 10B4     		push	{r4}
 427              		.cfi_def_cfa_offset 4
 428              		.cfi_offset 4, -4
 429              		.loc 1 167 0
 430 0002 51B9     		cbnz	r1, .L49
 431              	.LVL37:
 432              	.LBB184:
 433              	.LBB185:
 434              		.loc 1 159 0
 435 0004 074C     		ldr	r4, .L50
 436              		.loc 1 160 0
 437 0006 0849     		ldr	r1, .L50+4
 438              	.LVL38:
 439              		.loc 1 161 0
 440 0008 084A     		ldr	r2, .L50+8
 441              		.loc 1 159 0
 442 000a 0123     		movs	r3, #1
 443 000c 2370     		strb	r3, [r4]
 444              		.loc 1 161 0
 445 000e 1060     		str	r0, [r2]
 446              		.loc 1 160 0
 447 0010 0B70     		strb	r3, [r1]
 448              	.LBE185:
 449              	.LBE184:
 450              		.loc 1 170 0
 451 0012 1846     		mov	r0, r3
 452              	.LVL39:
 453 0014 5DF8044B 		ldr	r4, [sp], #4
 454 0018 7047     		bx	lr
 455              	.LVL40:
ARM GAS  /tmp/ccKTO0Fm.s 			page 9


 456              	.L49:
 457              		.loc 1 169 0
 458 001a 0023     		movs	r3, #0
 459              		.loc 1 170 0
 460 001c 1846     		mov	r0, r3
 461              	.LVL41:
 462 001e 5DF8044B 		ldr	r4, [sp], #4
 463 0022 7047     		bx	lr
 464              	.L51:
 465              		.align	2
 466              	.L50:
 467 0024 00000000 		.word	.LANCHOR3
 468 0028 00000000 		.word	.LANCHOR4
 469 002c 00000000 		.word	.LANCHOR5
 470              		.cfi_endproc
 471              	.LFE262:
 472              		.size	_test_assert, .-_test_assert
 473              		.section	.text._test_assert_sequence,"ax",%progbits
 474              		.align	2
 475              		.p2align 4,,15
 476              		.global	_test_assert_sequence
 477              		.thumb
 478              		.thumb_func
 479              		.type	_test_assert_sequence, %function
 480              	_test_assert_sequence:
 481              	.LFB263:
 482              		.loc 1 172 0
 483              		.cfi_startproc
 484              		@ args = 0, pretend = 0, frame = 0
 485              		@ frame_needed = 0, uses_anonymous_args = 0
 486              		@ link register save eliminated.
 487              	.LVL42:
 488 0000 F0B4     		push	{r4, r5, r6, r7}
 489              		.cfi_def_cfa_offset 16
 490              		.cfi_offset 4, -16
 491              		.cfi_offset 5, -12
 492              		.cfi_offset 6, -8
 493              		.cfi_offset 7, -4
 494 0002 0E4E     		ldr	r6, .L58
 495              		.loc 1 173 0
 496 0004 0E4F     		ldr	r7, .L58+4
 497 0006 3568     		ldr	r5, [r6]
 498 0008 3B46     		mov	r3, r7
 499              		.loc 1 174 0
 500 000a 05E0     		b	.L53
 501              	.LVL43:
 502              	.L56:
 503              		.loc 1 175 0
 504 000c 13F8014B 		ldrb	r4, [r3], #1	@ zero_extendqisi2
 505              	.LVL44:
 506 0010 11F8012B 		ldrb	r2, [r1], #1	@ zero_extendqisi2
 507              	.LVL45:
 508 0014 9442     		cmp	r4, r2
 509 0016 07D1     		bne	.L57
 510              	.LVL46:
 511              	.L53:
 512              		.loc 1 174 0 discriminator 1
ARM GAS  /tmp/ccKTO0Fm.s 			page 10


 513 0018 AB42     		cmp	r3, r5
 514 001a F7D3     		bcc	.L56
 515              		.loc 1 178 0
 516 001c 0B78     		ldrb	r3, [r1]	@ zero_extendqisi2
 517              	.LVL47:
 518 001e 1BB9     		cbnz	r3, .L57
 519              	.LBB186:
 520              	.LBB187:
 521              		.loc 1 132 0
 522 0020 3760     		str	r7, [r6]
 523              	.LBE187:
 524              	.LBE186:
 525              		.loc 1 182 0
 526 0022 1846     		mov	r0, r3
 527              	.LVL48:
 528 0024 F0BC     		pop	{r4, r5, r6, r7}
 529 0026 7047     		bx	lr
 530              	.LVL49:
 531              	.L57:
 532              	.LBB188:
 533              	.LBB189:
 534              		.loc 1 159 0
 535 0028 064C     		ldr	r4, .L58+8
 536              		.loc 1 160 0
 537 002a 0749     		ldr	r1, .L58+12
 538              		.loc 1 161 0
 539 002c 074A     		ldr	r2, .L58+16
 540              		.loc 1 159 0
 541 002e 0123     		movs	r3, #1
 542 0030 2370     		strb	r3, [r4]
 543              		.loc 1 161 0
 544 0032 1060     		str	r0, [r2]
 545              		.loc 1 160 0
 546 0034 0B70     		strb	r3, [r1]
 547              	.LBE189:
 548              	.LBE188:
 549              		.loc 1 182 0
 550 0036 1846     		mov	r0, r3
 551              	.LVL50:
 552 0038 F0BC     		pop	{r4, r5, r6, r7}
 553 003a 7047     		bx	lr
 554              	.L59:
 555              		.align	2
 556              	.L58:
 557 003c 00000000 		.word	.LANCHOR2
 558 0040 00000000 		.word	.LANCHOR6
 559 0044 00000000 		.word	.LANCHOR3
 560 0048 00000000 		.word	.LANCHOR4
 561 004c 00000000 		.word	.LANCHOR5
 562              		.cfi_endproc
 563              	.LFE263:
 564              		.size	_test_assert_sequence, .-_test_assert_sequence
 565              		.section	.text._test_assert_time_window,"ax",%progbits
 566              		.align	2
 567              		.p2align 4,,15
 568              		.global	_test_assert_time_window
 569              		.thumb
ARM GAS  /tmp/ccKTO0Fm.s 			page 11


 570              		.thumb_func
 571              		.type	_test_assert_time_window, %function
 572              	_test_assert_time_window:
 573              	.LFB264:
 574              		.loc 1 184 0
 575              		.cfi_startproc
 576              		@ args = 0, pretend = 0, frame = 0
 577              		@ frame_needed = 0, uses_anonymous_args = 0
 578              		@ link register save eliminated.
 579              	.LVL51:
 580 0000 10B4     		push	{r4}
 581              		.cfi_def_cfa_offset 4
 582              		.cfi_offset 4, -4
 583              	.LBB190:
 584              	.LBB191:
 585              	.LBB192:
 586              	.LBB193:
 587              	.LBB194:
 588              	.LBB195:
 589              	.LBB196:
 590              		.loc 2 546 0
 591 0002 2023     		movs	r3, #32
 592              	@ 546 "../ChibiOS/os/ext/CMSIS/include/core_cmFunc.h" 1
 593 0004 83F31188 		MSR basepri, r3
 594              	@ 0 "" 2
 595              		.thumb
 596              	.LBE196:
 597              	.LBE195:
 598              	.LBE194:
 599              	.LBE193:
 600              	.LBB197:
 601              	.LBB198:
 602              	.LBB199:
 603              	.LBB200:
 604              		.file 3 "../ChibiOS/os/hal/ports/STM32/LLD/TIMv1/st_lld.h"
 605              		.loc 3 128 0
 606 0008 4FF08044 		mov	r4, #1073741824
 607              	.LBE200:
 608              	.LBE199:
 609              	.LBE198:
 610              	.LBE197:
 611              	.LBB204:
 612              	.LBB205:
 613              	.LBB206:
 614              	.LBB207:
 615              	.LBB208:
 616              		.loc 2 546 0
 617 000c 0023     		movs	r3, #0
 618              	.LBE208:
 619              	.LBE207:
 620              	.LBE206:
 621              	.LBE205:
 622              	.LBE204:
 623              	.LBB213:
 624              	.LBB203:
 625              	.LBB202:
 626              	.LBB201:
ARM GAS  /tmp/ccKTO0Fm.s 			page 12


 627              		.loc 3 128 0
 628 000e 646A     		ldr	r4, [r4, #36]
 629              	.LVL52:
 630              	.LBE201:
 631              	.LBE202:
 632              	.LBE203:
 633              	.LBE213:
 634              	.LBB214:
 635              	.LBB212:
 636              	.LBB211:
 637              	.LBB210:
 638              	.LBB209:
 639              		.loc 2 546 0
 640              	@ 546 "../ChibiOS/os/ext/CMSIS/include/core_cmFunc.h" 1
 641 0010 83F31188 		MSR basepri, r3
 642              	@ 0 "" 2
 643              	.LVL53:
 644              		.thumb
 645              	.LBE209:
 646              	.LBE210:
 647              	.LBE211:
 648              	.LBE212:
 649              	.LBE214:
 650              	.LBE192:
 651              	.LBE191:
 652              	.LBB215:
 653              	.LBB216:
 654              		.file 4 "../ChibiOS/os/rt/include/chvt.h"
 655              		.loc 4 285 0
 656 0014 641A     		subs	r4, r4, r1
 657              	.LVL54:
 658 0016 511A     		subs	r1, r2, r1
 659              	.LVL55:
 660              	.LBE216:
 661              	.LBE215:
 662              	.LBE190:
 663              	.LBB217:
 664              	.LBB218:
 665              		.loc 1 167 0
 666 0018 8C42     		cmp	r4, r1
 667 001a 06D3     		bcc	.L61
 668              	.LVL56:
 669              	.LBB219:
 670              	.LBB220:
 671              		.loc 1 159 0
 672 001c 054C     		ldr	r4, .L63
 673              		.loc 1 160 0
 674 001e 0649     		ldr	r1, .L63+4
 675              		.loc 1 161 0
 676 0020 064A     		ldr	r2, .L63+8
 677              	.LVL57:
 678              		.loc 1 159 0
 679 0022 0123     		movs	r3, #1
 680 0024 2370     		strb	r3, [r4]
 681              		.loc 1 160 0
 682 0026 0B70     		strb	r3, [r1]
 683              		.loc 1 161 0
ARM GAS  /tmp/ccKTO0Fm.s 			page 13


 684 0028 1060     		str	r0, [r2]
 685              	.LVL58:
 686              	.L61:
 687              	.LBE220:
 688              	.LBE219:
 689              	.LBE218:
 690              	.LBE217:
 691              		.loc 1 187 0
 692 002a 1846     		mov	r0, r3
 693              	.LVL59:
 694 002c 5DF8044B 		ldr	r4, [sp], #4
 695 0030 7047     		bx	lr
 696              	.L64:
 697 0032 00BF     		.align	2
 698              	.L63:
 699 0034 00000000 		.word	.LANCHOR3
 700 0038 00000000 		.word	.LANCHOR4
 701 003c 00000000 		.word	.LANCHOR5
 702              		.cfi_endproc
 703              	.LFE264:
 704              		.size	_test_assert_time_window, .-_test_assert_time_window
 705              		.section	.text.test_terminate_threads,"ax",%progbits
 706              		.align	2
 707              		.p2align 4,,15
 708              		.global	test_terminate_threads
 709              		.thumb
 710              		.thumb_func
 711              		.type	test_terminate_threads, %function
 712              	test_terminate_threads:
 713              	.LFB265:
 714              		.loc 1 196 0
 715              		.cfi_startproc
 716              		@ args = 0, pretend = 0, frame = 0
 717              		@ frame_needed = 0, uses_anonymous_args = 0
 718              	.LVL60:
 719 0000 38B5     		push	{r3, r4, r5, lr}
 720              		.cfi_def_cfa_offset 16
 721              		.cfi_offset 3, -16
 722              		.cfi_offset 4, -12
 723              		.cfi_offset 5, -8
 724              		.cfi_offset 14, -4
 725 0002 064C     		ldr	r4, .L72
 726 0004 04F11405 		add	r5, r4, #20
 727              	.LVL61:
 728              	.L68:
 729              		.loc 1 200 0
 730 0008 54F8043F 		ldr	r3, [r4, #4]!
 731              		.loc 1 201 0
 732 000c 1846     		mov	r0, r3
 733              		.loc 1 200 0
 734 000e 0BB1     		cbz	r3, .L66
 735              		.loc 1 201 0
 736 0010 FFF7FEFF 		bl	chThdTerminate
 737              	.LVL62:
 738              	.L66:
 739              		.loc 1 199 0
 740 0014 AC42     		cmp	r4, r5
ARM GAS  /tmp/ccKTO0Fm.s 			page 14


 741 0016 F7D1     		bne	.L68
 742              		.loc 1 202 0
 743 0018 38BD     		pop	{r3, r4, r5, pc}
 744              	.L73:
 745 001a 00BF     		.align	2
 746              	.L72:
 747 001c FCFFFFFF 		.word	.LANCHOR7-4
 748              		.cfi_endproc
 749              	.LFE265:
 750              		.size	test_terminate_threads, .-test_terminate_threads
 751              		.section	.text.test_wait_threads,"ax",%progbits
 752              		.align	2
 753              		.p2align 4,,15
 754              		.global	test_wait_threads
 755              		.thumb
 756              		.thumb_func
 757              		.type	test_wait_threads, %function
 758              	test_wait_threads:
 759              	.LFB266:
 760              		.loc 1 207 0
 761              		.cfi_startproc
 762              		@ args = 0, pretend = 0, frame = 0
 763              		@ frame_needed = 0, uses_anonymous_args = 0
 764              	.LVL63:
 765 0000 70B5     		push	{r4, r5, r6, lr}
 766              		.cfi_def_cfa_offset 16
 767              		.cfi_offset 4, -16
 768              		.cfi_offset 5, -12
 769              		.cfi_offset 6, -8
 770              		.cfi_offset 14, -4
 771 0002 074C     		ldr	r4, .L81
 772              		.loc 1 213 0
 773 0004 0026     		movs	r6, #0
 774 0006 04F11405 		add	r5, r4, #20
 775              	.LVL64:
 776              	.L77:
 777              		.loc 1 211 0
 778 000a 54F8043B 		ldr	r3, [r4], #4
 779              		.loc 1 212 0
 780 000e 1846     		mov	r0, r3
 781              		.loc 1 211 0
 782 0010 1BB1     		cbz	r3, .L75
 783              		.loc 1 212 0
 784 0012 FFF7FEFF 		bl	chThdWait
 785              	.LVL65:
 786              		.loc 1 213 0
 787 0016 44F8046C 		str	r6, [r4, #-4]
 788              	.L75:
 789              		.loc 1 210 0
 790 001a AC42     		cmp	r4, r5
 791 001c F5D1     		bne	.L77
 792              		.loc 1 215 0
 793 001e 70BD     		pop	{r4, r5, r6, pc}
 794              	.L82:
 795              		.align	2
 796              	.L81:
 797 0020 00000000 		.word	.LANCHOR7
ARM GAS  /tmp/ccKTO0Fm.s 			page 15


 798              		.cfi_endproc
 799              	.LFE266:
 800              		.size	test_wait_threads, .-test_wait_threads
 801 0024 AFF30080 		.section	.text.test_wait_tick,"ax",%progbits
 801      AFF30080 
 801      AFF30080 
 802              		.align	2
 803              		.p2align 4,,15
 804              		.global	test_wait_tick
 805              		.thumb
 806              		.thumb_func
 807              		.type	test_wait_tick, %function
 808              	test_wait_tick:
 809              	.LFB267:
 810              		.loc 1 245 0
 811              		.cfi_startproc
 812              		@ args = 0, pretend = 0, frame = 0
 813              		@ frame_needed = 0, uses_anonymous_args = 0
 814 0000 08B5     		push	{r3, lr}
 815              		.cfi_def_cfa_offset 8
 816              		.cfi_offset 3, -8
 817              		.cfi_offset 14, -4
 818              		.loc 1 247 0
 819 0002 0120     		movs	r0, #1
 820 0004 FFF7FEFF 		bl	chThdSleep
 821              	.LVL66:
 822              	.LBB221:
 823              	.LBB222:
 824              	.LBB223:
 825              	.LBB224:
 826              	.LBB225:
 827              	.LBB226:
 828              		.loc 2 546 0
 829 0008 2023     		movs	r3, #32
 830              	@ 546 "../ChibiOS/os/ext/CMSIS/include/core_cmFunc.h" 1
 831 000a 83F31188 		MSR basepri, r3
 832              	@ 0 "" 2
 833              		.thumb
 834              	.LBE226:
 835              	.LBE225:
 836              	.LBE224:
 837              	.LBE223:
 838              	.LBB227:
 839              	.LBB228:
 840              	.LBB229:
 841              	.LBB230:
 842              		.loc 3 128 0
 843 000e 4FF08042 		mov	r2, #1073741824
 844              	.LBE230:
 845              	.LBE229:
 846              	.LBE228:
 847              	.LBE227:
 848              	.LBB234:
 849              	.LBB235:
 850              	.LBB236:
 851              	.LBB237:
 852              	.LBB238:
ARM GAS  /tmp/ccKTO0Fm.s 			page 16


 853              		.loc 2 546 0
 854 0012 0023     		movs	r3, #0
 855              	.LBE238:
 856              	.LBE237:
 857              	.LBE236:
 858              	.LBE235:
 859              	.LBE234:
 860              	.LBB243:
 861              	.LBB233:
 862              	.LBB232:
 863              	.LBB231:
 864              		.loc 3 128 0
 865 0014 506A     		ldr	r0, [r2, #36]
 866              	.LVL67:
 867              	.LBE231:
 868              	.LBE232:
 869              	.LBE233:
 870              	.LBE243:
 871              	.LBB244:
 872              	.LBB242:
 873              	.LBB241:
 874              	.LBB240:
 875              	.LBB239:
 876              		.loc 2 546 0
 877              	@ 546 "../ChibiOS/os/ext/CMSIS/include/core_cmFunc.h" 1
 878 0016 83F31188 		MSR basepri, r3
 879              	@ 0 "" 2
 880              		.thumb
 881              	.LBE239:
 882              	.LBE240:
 883              	.LBE241:
 884              	.LBE242:
 885              	.LBE244:
 886              	.LBE222:
 887              	.LBE221:
 888              		.loc 1 249 0
 889 001a 08BD     		pop	{r3, pc}
 890              		.cfi_endproc
 891              	.LFE267:
 892              		.size	test_wait_tick, .-test_wait_tick
 893 001c AFF30080 		.section	.text.test_start_timer,"ax",%progbits
 894              		.align	2
 895              		.p2align 4,,15
 896              		.global	test_start_timer
 897              		.thumb
 898              		.thumb_func
 899              		.type	test_start_timer, %function
 900              	test_start_timer:
 901              	.LFB269:
 902              		.loc 1 272 0
 903              		.cfi_startproc
 904              		@ args = 0, pretend = 0, frame = 0
 905              		@ frame_needed = 0, uses_anonymous_args = 0
 906              	.LVL68:
 907              		.loc 1 274 0
 908 0000 42F21073 		movw	r3, #10000
 909 0004 03FB00F0 		mul	r0, r3, r0
ARM GAS  /tmp/ccKTO0Fm.s 			page 17


 910              	.LVL69:
 911 0008 0D49     		ldr	r1, .L89
 912              		.loc 1 275 0
 913 000a 0E4A     		ldr	r2, .L89+4
 914              		.loc 1 272 0
 915 000c 10B5     		push	{r4, lr}
 916              		.cfi_def_cfa_offset 8
 917              		.cfi_offset 4, -8
 918              		.cfi_offset 14, -4
 919              		.loc 1 274 0
 920 000e 441E     		subs	r4, r0, #1
 921 0010 A1FB0434 		umull	r3, r4, r1, r4
 922 0014 A409     		lsrs	r4, r4, #6
 923              		.loc 1 275 0
 924 0016 0021     		movs	r1, #0
 925              		.loc 1 274 0
 926 0018 0134     		adds	r4, r4, #1
 927              	.LVL70:
 928              		.loc 1 275 0
 929 001a 1170     		strb	r1, [r2]
 930              	.LVL71:
 931              	.LBB260:
 932              	.LBB261:
 933              	.LBB262:
 934              	.LBB263:
 935              	.LBB264:
 936              		.loc 2 546 0
 937 001c 2023     		movs	r3, #32
 938              	@ 546 "../ChibiOS/os/ext/CMSIS/include/core_cmFunc.h" 1
 939 001e 83F31188 		MSR basepri, r3
 940              	@ 0 "" 2
 941              	.LVL72:
 942              		.thumb
 943              	.LBE264:
 944              	.LBE263:
 945              	.LBE262:
 946              	.LBE261:
 947              	.LBE260:
 948              		.loc 4 353 0
 949 0022 0948     		ldr	r0, .L89+8
 950              	.LBB274:
 951              	.LBB265:
 952              	.LBB266:
 953              	.LBB267:
 954              	.LBB268:
 955              		.loc 4 355 0
 956 0024 C368     		ldr	r3, [r0, #12]
 957 0026 0BB1     		cbz	r3, .L85
 958              		.loc 4 356 0
 959 0028 FFF7FEFF 		bl	chVTDoResetI
 960              	.LVL73:
 961              	.L85:
 962              	.LBE268:
 963              	.LBE267:
 964              		.loc 4 402 0
 965 002c 2146     		mov	r1, r4
 966 002e 0648     		ldr	r0, .L89+8
ARM GAS  /tmp/ccKTO0Fm.s 			page 18


 967 0030 064A     		ldr	r2, .L89+12
 968 0032 0023     		movs	r3, #0
 969 0034 FFF7FEFF 		bl	chVTDoSetI
 970              	.LVL74:
 971              	.LBE266:
 972              	.LBE265:
 973              	.LBB269:
 974              	.LBB270:
 975              	.LBB271:
 976              	.LBB272:
 977              	.LBB273:
 978              		.loc 2 546 0
 979 0038 0023     		movs	r3, #0
 980              	@ 546 "../ChibiOS/os/ext/CMSIS/include/core_cmFunc.h" 1
 981 003a 83F31188 		MSR basepri, r3
 982              	@ 0 "" 2
 983              		.thumb
 984 003e 10BD     		pop	{r4, pc}
 985              	.LVL75:
 986              	.L90:
 987              		.align	2
 988              	.L89:
 989 0040 D34D6210 		.word	274877907
 990 0044 00000000 		.word	.LANCHOR0
 991 0048 00000000 		.word	.LANCHOR8
 992 004c 00000000 		.word	tmr
 993              	.LBE273:
 994              	.LBE272:
 995              	.LBE271:
 996              	.LBE270:
 997              	.LBE269:
 998              	.LBE274:
 999              		.cfi_endproc
 1000              	.LFE269:
 1001              		.size	test_start_timer, .-test_start_timer
 1002              		.section	.text.TestThread,"ax",%progbits
 1003              		.align	2
 1004              		.p2align 4,,15
 1005              		.global	TestThread
 1006              		.thumb
 1007              		.thumb_func
 1008              		.type	TestThread, %function
 1009              	TestThread:
 1010              	.LFB272:
 1011              		.loc 1 314 0
 1012              		.cfi_startproc
 1013              		@ args = 0, pretend = 0, frame = 16
 1014              		@ frame_needed = 0, uses_anonymous_args = 0
 1015              	.LVL76:
 1016 0000 2DE9F04F 		push	{r4, r5, r6, r7, r8, r9, r10, fp, lr}
 1017              		.cfi_def_cfa_offset 36
 1018              		.cfi_offset 4, -36
 1019              		.cfi_offset 5, -32
 1020              		.cfi_offset 6, -28
 1021              		.cfi_offset 7, -24
 1022              		.cfi_offset 8, -20
 1023              		.cfi_offset 9, -16
ARM GAS  /tmp/ccKTO0Fm.s 			page 19


 1024              		.cfi_offset 10, -12
 1025              		.cfi_offset 11, -8
 1026              		.cfi_offset 14, -4
 1027              		.loc 1 317 0
 1028 0004 9F4C     		ldr	r4, .L158
 1029 0006 A04D     		ldr	r5, .L158+4
 1030 0008 2060     		str	r0, [r4]
 1031              		.loc 1 314 0
 1032 000a 85B0     		sub	sp, sp, #20
 1033              		.cfi_def_cfa_offset 56
 1034              		.loc 1 318 0
 1035 000c 9F48     		ldr	r0, .L158+8
 1036              	.LVL77:
 1037 000e FFF7FEFF 		bl	test_println
 1038              	.LVL78:
 1039              		.loc 1 319 0
 1040 0012 9F48     		ldr	r0, .L158+12
 1041 0014 FFF7FEFF 		bl	test_println
 1042              	.LVL79:
 1043              		.loc 1 320 0
 1044 0018 9E48     		ldr	r0, .L158+16
 1045 001a FFF7FEFF 		bl	test_println
 1046              	.LVL80:
 1047              	.LBB311:
 1048              	.LBB312:
 1049              		.loc 1 112 0
 1050 001e 2A21     		movs	r1, #42
 1051              	.LVL81:
 1052              	.L93:
 1053              		.loc 1 113 0
 1054 0020 2068     		ldr	r0, [r4]
 1055              	.LVL82:
 1056 0022 0368     		ldr	r3, [r0]
 1057 0024 9B68     		ldr	r3, [r3, #8]
 1058 0026 9847     		blx	r3
 1059              	.LVL83:
 1060              		.loc 1 112 0
 1061 0028 15F8011F 		ldrb	r1, [r5, #1]!	@ zero_extendqisi2
 1062              	.LVL84:
 1063 002c 0029     		cmp	r1, #0
 1064 002e F7D1     		bne	.L93
 1065              	.LBE312:
 1066              	.LBE311:
 1067              		.loc 1 322 0
 1068 0030 9948     		ldr	r0, .L158+20
 1069 0032 9A4D     		ldr	r5, .L158+24
 1070              	.LVL85:
 1071 0034 FFF7FEFF 		bl	test_println
 1072              	.LVL86:
 1073              	.LBB313:
 1074              	.LBB314:
 1075              		.loc 1 112 0
 1076 0038 2A21     		movs	r1, #42
 1077              	.LVL87:
 1078              	.L131:
 1079              		.loc 1 113 0
 1080 003a 2068     		ldr	r0, [r4]
ARM GAS  /tmp/ccKTO0Fm.s 			page 20


 1081              	.LVL88:
 1082 003c 0368     		ldr	r3, [r0]
 1083 003e 9B68     		ldr	r3, [r3, #8]
 1084 0040 9847     		blx	r3
 1085              	.LVL89:
 1086              		.loc 1 112 0
 1087 0042 15F8011F 		ldrb	r1, [r5, #1]!	@ zero_extendqisi2
 1088              	.LVL90:
 1089 0046 0029     		cmp	r1, #0
 1090 0048 F7D1     		bne	.L131
 1091              	.LBE314:
 1092              	.LBE313:
 1093              		.loc 1 324 0
 1094 004a 9548     		ldr	r0, .L158+28
 1095 004c 954D     		ldr	r5, .L158+32
 1096              	.LVL91:
 1097 004e FFF7FEFF 		bl	test_println
 1098              	.LVL92:
 1099              	.LBB315:
 1100              	.LBB316:
 1101              		.loc 1 112 0
 1102 0052 2A21     		movs	r1, #42
 1103              	.LVL93:
 1104              	.L132:
 1105              		.loc 1 113 0
 1106 0054 2068     		ldr	r0, [r4]
 1107              	.LVL94:
 1108 0056 0368     		ldr	r3, [r0]
 1109 0058 9B68     		ldr	r3, [r3, #8]
 1110 005a 9847     		blx	r3
 1111              	.LVL95:
 1112              		.loc 1 112 0
 1113 005c 15F8011F 		ldrb	r1, [r5, #1]!	@ zero_extendqisi2
 1114              	.LVL96:
 1115 0060 0029     		cmp	r1, #0
 1116 0062 F7D1     		bne	.L132
 1117              	.LBE316:
 1118              	.LBE315:
 1119              		.loc 1 327 0
 1120 0064 9048     		ldr	r0, .L158+36
 1121 0066 914D     		ldr	r5, .L158+40
 1122              	.LVL97:
 1123 0068 FFF7FEFF 		bl	test_println
 1124              	.LVL98:
 1125              	.LBB317:
 1126              	.LBB318:
 1127              		.loc 1 112 0
 1128 006c 2A21     		movs	r1, #42
 1129              	.LVL99:
 1130              	.L133:
 1131              		.loc 1 113 0
 1132 006e 2068     		ldr	r0, [r4]
 1133              	.LVL100:
 1134 0070 0368     		ldr	r3, [r0]
 1135 0072 9B68     		ldr	r3, [r3, #8]
 1136 0074 9847     		blx	r3
 1137              	.LVL101:
ARM GAS  /tmp/ccKTO0Fm.s 			page 21


 1138              		.loc 1 112 0
 1139 0076 15F8011F 		ldrb	r1, [r5, #1]!	@ zero_extendqisi2
 1140              	.LVL102:
 1141 007a 0029     		cmp	r1, #0
 1142 007c F7D1     		bne	.L133
 1143              	.LBE318:
 1144              	.LBE317:
 1145              		.loc 1 330 0
 1146 007e 8C48     		ldr	r0, .L158+44
 1147 0080 8C4D     		ldr	r5, .L158+48
 1148              	.LVL103:
 1149 0082 FFF7FEFF 		bl	test_println
 1150              	.LVL104:
 1151              	.LBB319:
 1152              	.LBB320:
 1153              		.loc 1 112 0
 1154 0086 2A21     		movs	r1, #42
 1155              	.LVL105:
 1156              	.L134:
 1157              		.loc 1 113 0
 1158 0088 2068     		ldr	r0, [r4]
 1159              	.LVL106:
 1160 008a 0368     		ldr	r3, [r0]
 1161 008c 9B68     		ldr	r3, [r3, #8]
 1162 008e 9847     		blx	r3
 1163              	.LVL107:
 1164              		.loc 1 112 0
 1165 0090 15F8011F 		ldrb	r1, [r5, #1]!	@ zero_extendqisi2
 1166              	.LVL108:
 1167 0094 0029     		cmp	r1, #0
 1168 0096 F7D1     		bne	.L134
 1169              	.LBE320:
 1170              	.LBE319:
 1171              		.loc 1 333 0
 1172 0098 8748     		ldr	r0, .L158+52
 1173 009a 884D     		ldr	r5, .L158+56
 1174              	.LVL109:
 1175 009c FFF7FEFF 		bl	test_println
 1176              	.LVL110:
 1177              	.LBB321:
 1178              	.LBB322:
 1179              		.loc 1 112 0
 1180 00a0 2A21     		movs	r1, #42
 1181              	.LVL111:
 1182              	.L135:
 1183              		.loc 1 113 0
 1184 00a2 2068     		ldr	r0, [r4]
 1185              	.LVL112:
 1186 00a4 0368     		ldr	r3, [r0]
 1187 00a6 9B68     		ldr	r3, [r3, #8]
 1188 00a8 9847     		blx	r3
 1189              	.LVL113:
 1190              		.loc 1 112 0
 1191 00aa 15F8011F 		ldrb	r1, [r5, #1]!	@ zero_extendqisi2
 1192              	.LVL114:
 1193 00ae 0029     		cmp	r1, #0
 1194 00b0 F7D1     		bne	.L135
ARM GAS  /tmp/ccKTO0Fm.s 			page 22


 1195              	.LBE322:
 1196              	.LBE321:
 1197              		.loc 1 337 0
 1198 00b2 8348     		ldr	r0, .L158+60
 1199 00b4 834D     		ldr	r5, .L158+64
 1200              	.LVL115:
 1201 00b6 FFF7FEFF 		bl	test_println
 1202              	.LVL116:
 1203              	.LBB323:
 1204              	.LBB324:
 1205              		.loc 1 112 0
 1206 00ba 2A21     		movs	r1, #42
 1207              	.LVL117:
 1208              	.L136:
 1209              		.loc 1 113 0
 1210 00bc 2068     		ldr	r0, [r4]
 1211              	.LVL118:
 1212 00be 0368     		ldr	r3, [r0]
 1213 00c0 9B68     		ldr	r3, [r3, #8]
 1214 00c2 9847     		blx	r3
 1215              	.LVL119:
 1216              		.loc 1 112 0
 1217 00c4 15F8011F 		ldrb	r1, [r5, #1]!	@ zero_extendqisi2
 1218              	.LVL120:
 1219 00c8 0029     		cmp	r1, #0
 1220 00ca F7D1     		bne	.L136
 1221              	.LBE324:
 1222              	.LBE323:
 1223              		.loc 1 341 0
 1224 00cc 7E48     		ldr	r0, .L158+68
 1225 00ce 7F4D     		ldr	r5, .L158+72
 1226              	.LVL121:
 1227 00d0 FFF7FEFF 		bl	test_println
 1228              	.LVL122:
 1229              	.LBB325:
 1230              	.LBB326:
 1231              		.loc 1 112 0
 1232 00d4 2A21     		movs	r1, #42
 1233              	.LVL123:
 1234              	.L137:
 1235              		.loc 1 113 0
 1236 00d6 2068     		ldr	r0, [r4]
 1237              	.LVL124:
 1238 00d8 0368     		ldr	r3, [r0]
 1239 00da 9B68     		ldr	r3, [r3, #8]
 1240 00dc 9847     		blx	r3
 1241              	.LVL125:
 1242              		.loc 1 112 0
 1243 00de 15F8011F 		ldrb	r1, [r5, #1]!	@ zero_extendqisi2
 1244              	.LVL126:
 1245 00e2 0029     		cmp	r1, #0
 1246 00e4 F7D1     		bne	.L137
 1247 00e6 7A4A     		ldr	r2, .L158+76
 1248              	.LBE326:
 1249              	.LBE325:
 1250              		.loc 1 345 0
 1251 00e8 7A48     		ldr	r0, .L158+80
ARM GAS  /tmp/ccKTO0Fm.s 			page 23


 1252 00ea 0191     		str	r1, [sp, #4]
 1253 00ec 0392     		str	r2, [sp, #12]
 1254 00ee FFF7FEFF 		bl	test_println
 1255              	.LVL127:
 1256              		.loc 1 347 0
 1257 00f2 6648     		ldr	r0, .L158+8
 1258              	.LBB327:
 1259              	.LBB328:
 1260              		.loc 1 113 0
 1261 00f4 DFF88CB1 		ldr	fp, .L158
 1262              	.LBE328:
 1263              	.LBE327:
 1264              		.loc 1 349 0
 1265 00f8 774F     		ldr	r7, .L158+84
 1266              		.loc 1 347 0
 1267 00fa FFF7FEFF 		bl	test_println
 1268              	.LVL128:
 1269              		.loc 1 349 0
 1270 00fe 774B     		ldr	r3, .L158+88
 1271              		.loc 1 350 0
 1272 0100 0199     		ldr	r1, [sp, #4]
 1273 0102 0291     		str	r1, [sp, #8]
 1274              		.loc 1 349 0
 1275 0104 1970     		strb	r1, [r3]
 1276              	.LVL129:
 1277              	.L138:
 1278 0106 029B     		ldr	r3, [sp, #8]
 1279 0108 0133     		adds	r3, r3, #1
 1280 010a 0293     		str	r3, [sp, #8]
 1281              	.LVL130:
 1282              	.LBB330:
 1283              	.LBB331:
 1284              		.loc 1 112 0 discriminator 1
 1285 010c 4FF00008 		mov	r8, #0
 1286              	.LVL131:
 1287              	.L127:
 1288              	.LBE331:
 1289              	.LBE330:
 1290              		.loc 1 353 0 discriminator 1
 1291 0110 57F8043B 		ldr	r3, [r7], #4
 1292 0114 002B     		cmp	r3, #0
 1293 0116 00F08780 		beq	.L156
 1294              	.L125:
 1295 011a 714D     		ldr	r5, .L158+92
 1296              		.loc 1 354 0
 1297 011c FFF7FEFF 		bl	print_line
 1298              	.LVL132:
 1299              	.LBB333:
 1300              	.LBB329:
 1301              		.loc 1 112 0
 1302 0120 2D21     		movs	r1, #45
 1303              	.LVL133:
 1304              	.L109:
 1305              		.loc 1 113 0
 1306 0122 2068     		ldr	r0, [r4]
 1307              	.LVL134:
 1308 0124 0368     		ldr	r3, [r0]
ARM GAS  /tmp/ccKTO0Fm.s 			page 24


 1309 0126 9B68     		ldr	r3, [r3, #8]
 1310 0128 9847     		blx	r3
 1311              	.LVL135:
 1312              		.loc 1 112 0
 1313 012a 15F8011F 		ldrb	r1, [r5, #1]!	@ zero_extendqisi2
 1314              	.LVL136:
 1315 012e 0029     		cmp	r1, #0
 1316 0130 F7D1     		bne	.L109
 1317              	.LBE329:
 1318              	.LBE333:
 1319              		.loc 1 356 0
 1320 0132 0298     		ldr	r0, [sp, #8]
 1321 0134 6B4D     		ldr	r5, .L158+96
 1322              	.LVL137:
 1323 0136 FFF7FEFF 		bl	test_printn
 1324              	.LVL138:
 1325              	.LBB334:
 1326              	.LBB335:
 1327              		.loc 1 113 0
 1328 013a DBF80000 		ldr	r0, [fp]
 1329              	.LVL139:
 1330 013e 0368     		ldr	r3, [r0]
 1331 0140 2E21     		movs	r1, #46
 1332 0142 9B68     		ldr	r3, [r3, #8]
 1333              	.LBE335:
 1334              	.LBE334:
 1335              		.loc 1 358 0
 1336 0144 08F10108 		add	r8, r8, #1
 1337              	.LVL140:
 1338              	.LBB337:
 1339              	.LBB336:
 1340              		.loc 1 113 0
 1341 0148 9847     		blx	r3
 1342              	.LVL141:
 1343              	.LBE336:
 1344              	.LBE337:
 1345              		.loc 1 358 0
 1346 014a 4046     		mov	r0, r8
 1347 014c FFF7FEFF 		bl	test_printn
 1348              	.LVL142:
 1349              	.LBB338:
 1350              	.LBB339:
 1351              		.loc 1 112 0
 1352 0150 2021     		movs	r1, #32
 1353              	.LVL143:
 1354              	.L139:
 1355              		.loc 1 113 0
 1356 0152 2068     		ldr	r0, [r4]
 1357              	.LVL144:
 1358 0154 0368     		ldr	r3, [r0]
 1359 0156 9B68     		ldr	r3, [r3, #8]
 1360 0158 9847     		blx	r3
 1361              	.LVL145:
 1362              		.loc 1 112 0
 1363 015a 15F8011F 		ldrb	r1, [r5, #1]!	@ zero_extendqisi2
 1364              	.LVL146:
 1365 015e 0029     		cmp	r1, #0
ARM GAS  /tmp/ccKTO0Fm.s 			page 25


 1366 0160 F7D1     		bne	.L139
 1367              	.LBE339:
 1368              	.LBE338:
 1369              		.loc 1 360 0
 1370 0162 57F8043C 		ldr	r3, [r7, #-4]
 1371 0166 1D68     		ldr	r5, [r3]
 1372              	.LVL147:
 1373              	.LBB340:
 1374              	.LBB341:
 1375              		.loc 1 112 0
 1376 0168 2978     		ldrb	r1, [r5]	@ zero_extendqisi2
 1377 016a 39B1     		cbz	r1, .L114
 1378              	.LVL148:
 1379              	.L115:
 1380              		.loc 1 113 0
 1381 016c 2068     		ldr	r0, [r4]
 1382              	.LVL149:
 1383 016e 0368     		ldr	r3, [r0]
 1384 0170 9B68     		ldr	r3, [r3, #8]
 1385 0172 9847     		blx	r3
 1386              	.LVL150:
 1387              		.loc 1 112 0
 1388 0174 15F8011F 		ldrb	r1, [r5, #1]!	@ zero_extendqisi2
 1389              	.LVL151:
 1390 0178 0029     		cmp	r1, #0
 1391 017a F7D1     		bne	.L115
 1392              	.LVL152:
 1393              	.L114:
 1394              	.LBE341:
 1395              	.LBE340:
 1396              		.loc 1 361 0
 1397 017c 5A48     		ldr	r0, .L158+100
 1398              	.LBB342:
 1399              	.LBB343:
 1400              		.loc 1 287 0
 1401 017e 5B4D     		ldr	r5, .L158+104
 1402              	.LBB344:
 1403              	.LBB345:
 1404              		.loc 1 132 0
 1405 0180 5B4E     		ldr	r6, .L158+108
 1406 0182 DFF89891 		ldr	r9, .L158+152
 1407              	.LBE345:
 1408              	.LBE344:
 1409              	.LBE343:
 1410              	.LBE342:
 1411              		.loc 1 361 0
 1412 0186 FFF7FEFF 		bl	test_println
 1413              	.LVL153:
 1414              		.loc 1 363 0
 1415 018a 4FF4FA60 		mov	r0, #2000
 1416 018e FFF7FEFF 		bl	chThdSleep
 1417              	.LVL154:
 1418              	.LBB350:
 1419              	.LBB348:
 1420              		.loc 1 289 0
 1421 0192 584A     		ldr	r2, .L158+112
 1422              	.LBE348:
ARM GAS  /tmp/ccKTO0Fm.s 			page 26


 1423              	.LBE350:
 1424              		.loc 1 365 0
 1425 0194 57F804AC 		ldr	r10, [r7, #-4]
 1426              	.LVL155:
 1427              	.LBB351:
 1428              	.LBB349:
 1429              	.LBB347:
 1430              	.LBB346:
 1431              		.loc 1 132 0
 1432 0198 C6F80090 		str	r9, [r6]
 1433              	.LBE346:
 1434              	.LBE347:
 1435              		.loc 1 287 0
 1436 019c 0023     		movs	r3, #0
 1437              		.loc 1 289 0
 1438 019e 1360     		str	r3, [r2]
 1439 01a0 5360     		str	r3, [r2, #4]
 1440 01a2 9360     		str	r3, [r2, #8]
 1441 01a4 D360     		str	r3, [r2, #12]
 1442 01a6 1361     		str	r3, [r2, #16]
 1443              		.loc 1 291 0
 1444 01a8 DAF80420 		ldr	r2, [r10, #4]
 1445              		.loc 1 287 0
 1446 01ac 2B70     		strb	r3, [r5]
 1447              	.LVL156:
 1448              		.loc 1 291 0
 1449 01ae 02B1     		cbz	r2, .L113
 1450              		.loc 1 292 0
 1451 01b0 9047     		blx	r2
 1452              	.LVL157:
 1453              	.L113:
 1454              		.loc 1 293 0
 1455 01b2 DAF80C30 		ldr	r3, [r10, #12]
 1456 01b6 9847     		blx	r3
 1457              	.LVL158:
 1458              		.loc 1 294 0
 1459 01b8 DAF80830 		ldr	r3, [r10, #8]
 1460 01bc 03B1     		cbz	r3, .L116
 1461              		.loc 1 295 0
 1462 01be 9847     		blx	r3
 1463              	.LVL159:
 1464              	.L116:
 1465              		.loc 1 297 0
 1466 01c0 FFF7FEFF 		bl	test_wait_threads
 1467              	.LVL160:
 1468              	.LBE349:
 1469              	.LBE351:
 1470              		.loc 1 366 0
 1471 01c4 2B78     		ldrb	r3, [r5]	@ zero_extendqisi2
 1472 01c6 002B     		cmp	r3, #0
 1473 01c8 4FD0     		beq	.L117
 1474 01ca 4B4D     		ldr	r5, .L158+116
 1475              	.LBB352:
 1476              	.LBB353:
 1477              		.loc 1 112 0
 1478 01cc 2D21     		movs	r1, #45
 1479              	.L119:
ARM GAS  /tmp/ccKTO0Fm.s 			page 27


 1480              	.LVL161:
 1481              		.loc 1 113 0
 1482 01ce 2068     		ldr	r0, [r4]
 1483              	.LVL162:
 1484 01d0 0368     		ldr	r3, [r0]
 1485 01d2 9B68     		ldr	r3, [r3, #8]
 1486 01d4 9847     		blx	r3
 1487              	.LVL163:
 1488              		.loc 1 112 0
 1489 01d6 15F8011F 		ldrb	r1, [r5, #1]!	@ zero_extendqisi2
 1490              	.LVL164:
 1491 01da 0029     		cmp	r1, #0
 1492 01dc F7D1     		bne	.L119
 1493              	.LBE353:
 1494              	.LBE352:
 1495              		.loc 1 368 0
 1496 01de 474B     		ldr	r3, .L158+120
 1497 01e0 474D     		ldr	r5, .L158+124
 1498              	.LVL165:
 1499 01e2 1868     		ldr	r0, [r3]
 1500 01e4 FFF7FEFF 		bl	test_printn
 1501              	.LVL166:
 1502              	.LBB354:
 1503              	.LBB332:
 1504              		.loc 1 112 0
 1505 01e8 2021     		movs	r1, #32
 1506              	.LVL167:
 1507              	.L140:
 1508              		.loc 1 113 0
 1509 01ea 2068     		ldr	r0, [r4]
 1510              	.LVL168:
 1511 01ec 0368     		ldr	r3, [r0]
 1512 01ee 9B68     		ldr	r3, [r3, #8]
 1513 01f0 9847     		blx	r3
 1514              	.LVL169:
 1515              		.loc 1 112 0
 1516 01f2 15F8011F 		ldrb	r1, [r5, #1]!	@ zero_extendqisi2
 1517              	.LVL170:
 1518 01f6 0029     		cmp	r1, #0
 1519 01f8 F7D1     		bne	.L140
 1520              	.LVL171:
 1521              	.LBE332:
 1522              	.LBE354:
 1523              	.LBB355:
 1524              	.LBB356:
 1525              		.loc 1 138 0
 1526 01fa 3368     		ldr	r3, [r6]
 1527 01fc 4B45     		cmp	r3, r9
 1528 01fe 0BD9     		bls	.L123
 1529 0200 404D     		ldr	r5, .L158+128
 1530              	.LVL172:
 1531              	.L124:
 1532              		.loc 1 139 0
 1533 0202 2068     		ldr	r0, [r4]
 1534 0204 15F8011C 		ldrb	r1, [r5, #-1]	@ zero_extendqisi2
 1535 0208 0368     		ldr	r3, [r0]
 1536 020a 9B68     		ldr	r3, [r3, #8]
ARM GAS  /tmp/ccKTO0Fm.s 			page 28


 1537 020c 9847     		blx	r3
 1538              	.LVL173:
 1539              		.loc 1 138 0
 1540 020e 3368     		ldr	r3, [r6]
 1541              	.LVL174:
 1542 0210 9D42     		cmp	r5, r3
 1543 0212 05F10105 		add	r5, r5, #1
 1544              	.LVL175:
 1545 0216 F4D3     		bcc	.L124
 1546              	.LVL176:
 1547              	.L123:
 1548              	.LBE356:
 1549              	.LBE355:
 1550              		.loc 1 371 0
 1551 0218 3B48     		ldr	r0, .L158+132
 1552 021a FFF7FEFF 		bl	test_println
 1553              	.LVL177:
 1554              		.loc 1 353 0
 1555 021e 57F8043B 		ldr	r3, [r7], #4
 1556 0222 002B     		cmp	r3, #0
 1557 0224 7FF479AF 		bne	.L125
 1558              	.LVL178:
 1559              	.L156:
 1560              		.loc 1 351 0
 1561 0228 039A     		ldr	r2, [sp, #12]
 1562 022a 52F8047F 		ldr	r7, [r2, #4]!
 1563 022e 0392     		str	r2, [sp, #12]
 1564 0230 002F     		cmp	r7, #0
 1565 0232 7FF468AF 		bne	.L138
 1566              		.loc 1 379 0
 1567 0236 FFF7FEFF 		bl	print_line
 1568              	.LVL179:
 1569 023a 344D     		ldr	r5, .L158+136
 1570              		.loc 1 380 0
 1571 023c 1348     		ldr	r0, .L158+8
 1572 023e FFF7FEFF 		bl	test_println
 1573              	.LVL180:
 1574              	.LBB357:
 1575              	.LBB358:
 1576              		.loc 1 112 0
 1577 0242 4621     		movs	r1, #70
 1578              	.LVL181:
 1579              	.L141:
 1580              		.loc 1 113 0
 1581 0244 2068     		ldr	r0, [r4]
 1582              	.LVL182:
 1583 0246 0368     		ldr	r3, [r0]
 1584 0248 9B68     		ldr	r3, [r3, #8]
 1585 024a 9847     		blx	r3
 1586              	.LVL183:
 1587              		.loc 1 112 0
 1588 024c 15F8011F 		ldrb	r1, [r5, #1]!	@ zero_extendqisi2
 1589              	.LVL184:
 1590 0250 0029     		cmp	r1, #0
 1591 0252 F7D1     		bne	.L141
 1592              	.LBE358:
 1593              	.LBE357:
ARM GAS  /tmp/ccKTO0Fm.s 			page 29


 1594              		.loc 1 382 0
 1595 0254 214A     		ldr	r2, .L158+88
 1596 0256 1378     		ldrb	r3, [r2]	@ zero_extendqisi2
 1597 0258 5BB9     		cbnz	r3, .L157
 1598              		.loc 1 385 0
 1599 025a 2D48     		ldr	r0, .L158+140
 1600 025c FFF7FEFF 		bl	test_println
 1601              	.LVL185:
 1602              		.loc 1 387 0
 1603 0260 1E4B     		ldr	r3, .L158+88
 1604 0262 1878     		ldrb	r0, [r3]	@ zero_extendqisi2
 1605              		.loc 1 388 0
 1606 0264 05B0     		add	sp, sp, #20
 1607              		@ sp needed
 1608 0266 BDE8F08F 		pop	{r4, r5, r6, r7, r8, r9, r10, fp, pc}
 1609              	.LVL186:
 1610              	.L117:
 1611              		.loc 1 374 0
 1612 026a 2A48     		ldr	r0, .L158+144
 1613 026c FFF7FEFF 		bl	test_println
 1614              	.LVL187:
 1615 0270 4EE7     		b	.L127
 1616              	.LVL188:
 1617              	.L157:
 1618              		.loc 1 383 0
 1619 0272 2948     		ldr	r0, .L158+148
 1620 0274 FFF7FEFF 		bl	test_println
 1621              	.LVL189:
 1622              		.loc 1 387 0
 1623 0278 184B     		ldr	r3, .L158+88
 1624 027a 1878     		ldrb	r0, [r3]	@ zero_extendqisi2
 1625              		.loc 1 388 0
 1626 027c 05B0     		add	sp, sp, #20
 1627              		@ sp needed
 1628 027e BDE8F08F 		pop	{r4, r5, r6, r7, r8, r9, r10, fp, pc}
 1629              	.LVL190:
 1630              	.L159:
 1631 0282 00BF     		.align	2
 1632              	.L158:
 1633 0284 00000000 		.word	.LANCHOR1
 1634 0288 28000000 		.word	.LC4
 1635 028c 04000000 		.word	.LC1
 1636 0290 08000000 		.word	.LC2
 1637 0294 24000000 		.word	.LC3
 1638 0298 90000000 		.word	.LC12
 1639 029c 9C000000 		.word	.LC13
 1640 02a0 B0000000 		.word	.LC14
 1641 02a4 C8000000 		.word	.LC15
 1642 02a8 DC000000 		.word	.LC16
 1643 02ac 24010000 		.word	.LC17
 1644 02b0 38010000 		.word	.LC18
 1645 02b4 44010000 		.word	.LC19
 1646 02b8 58010000 		.word	.LC20
 1647 02bc 64010000 		.word	.LC21
 1648 02c0 78010000 		.word	.LC22
 1649 02c4 90010000 		.word	.LC23
 1650 02c8 A4010000 		.word	.LC24
ARM GAS  /tmp/ccKTO0Fm.s 			page 30


 1651 02cc C0010000 		.word	.LC25
 1652 02d0 00000000 		.word	.LANCHOR9
 1653 02d4 D4010000 		.word	.LC26
 1654 02d8 00000000 		.word	patternthd
 1655 02dc 00000000 		.word	.LANCHOR4
 1656 02e0 3C000000 		.word	.LC5
 1657 02e4 FC010000 		.word	.LC27
 1658 02e8 4C000000 		.word	.LC6
 1659 02ec 00000000 		.word	.LANCHOR3
 1660 02f0 00000000 		.word	.LANCHOR2
 1661 02f4 00000000 		.word	.LANCHOR7
 1662 02f8 50000000 		.word	.LC7
 1663 02fc 00000000 		.word	.LANCHOR5
 1664 0300 00020000 		.word	.LC28
 1665 0304 01000000 		.word	.LANCHOR6+1
 1666 0308 68000000 		.word	.LC8
 1667 030c 04020000 		.word	.LC29
 1668 0310 88000000 		.word	.LC11
 1669 0314 6C000000 		.word	.LC9
 1670 0318 80000000 		.word	.LC10
 1671 031c 00000000 		.word	.LANCHOR6
 1672              		.cfi_endproc
 1673              	.LFE272:
 1674              		.size	TestThread, .-TestThread
 1675              		.global	test_timer_done
 1676              		.global	wa
 1677              		.global	threads
 1678              		.global	test
 1679              		.section	.bss.test,"aw",%nobits
 1680              		.align	3
 1681              		.type	test, %object
 1682              		.size	test, 1640
 1683              	test:
 1684 0000 00000000 		.space	1640
 1684      00000000 
 1684      00000000 
 1684      00000000 
 1684      00000000 
 1685              		.section	.bss.failpoint,"aw",%nobits
 1686              		.align	2
 1687              		.set	.LANCHOR5,. + 0
 1688              		.type	failpoint, %object
 1689              		.size	failpoint, 4
 1690              	failpoint:
 1691 0000 00000000 		.space	4
 1692              		.section	.bss.local_fail,"aw",%nobits
 1693              		.set	.LANCHOR3,. + 0
 1694              		.type	local_fail, %object
 1695              		.size	local_fail, 1
 1696              	local_fail:
 1697 0000 00       		.space	1
 1698              		.section	.bss.test_timer_done,"aw",%nobits
 1699              		.set	.LANCHOR0,. + 0
 1700              		.type	test_timer_done, %object
 1701              		.size	test_timer_done, 1
 1702              	test_timer_done:
 1703 0000 00       		.space	1
ARM GAS  /tmp/ccKTO0Fm.s 			page 31


 1704              		.section	.rodata.wa,"a",%progbits
 1705              		.align	2
 1706              		.type	wa, %object
 1707              		.size	wa, 20
 1708              	wa:
 1709 0000 00000000 		.word	test
 1710 0004 48010000 		.word	test+328
 1711 0008 90020000 		.word	test+656
 1712 000c D8030000 		.word	test+984
 1713 0010 20050000 		.word	test+1312
 1714              		.section	.bss.tokp,"aw",%nobits
 1715              		.align	2
 1716              		.set	.LANCHOR2,. + 0
 1717              		.type	tokp, %object
 1718              		.size	tokp, 4
 1719              	tokp:
 1720 0000 00000000 		.space	4
 1721              		.section	.bss.global_fail,"aw",%nobits
 1722              		.set	.LANCHOR4,. + 0
 1723              		.type	global_fail, %object
 1724              		.size	global_fail, 1
 1725              	global_fail:
 1726 0000 00       		.space	1
 1727              		.section	.rodata.str1.4,"aMS",%progbits,1
 1728              		.align	2
 1729              	.LC0:
 1730 0000 0D0A00   		.ascii	"\015\012\000"
 1731 0003 00       		.space	1
 1732              	.LC1:
 1733 0004 00       		.ascii	"\000"
 1734 0005 000000   		.space	3
 1735              	.LC2:
 1736 0008 2A2A2A20 		.ascii	"*** ChibiOS/RT test suite\000"
 1736      43686962 
 1736      694F532F 
 1736      52542074 
 1736      65737420 
 1737 0022 0000     		.space	2
 1738              	.LC3:
 1739 0024 2A2A2A00 		.ascii	"***\000"
 1740              	.LC4:
 1741 0028 2A2A2A20 		.ascii	"*** Kernel:       \000"
 1741      4B65726E 
 1741      656C3A20 
 1741      20202020 
 1741      202000
 1742 003b 00       		.space	1
 1743              	.LC5:
 1744 003c 2D2D2D20 		.ascii	"--- Test Case \000"
 1744      54657374 
 1744      20436173 
 1744      652000
 1745 004b 00       		.space	1
 1746              	.LC6:
 1747 004c 2900     		.ascii	")\000"
 1748 004e 0000     		.space	2
 1749              	.LC7:
ARM GAS  /tmp/ccKTO0Fm.s 			page 32


 1750 0050 2D2D2D20 		.ascii	"--- Result: FAILURE (#\000"
 1750      52657375 
 1750      6C743A20 
 1750      4641494C 
 1750      55524520 
 1751 0067 00       		.space	1
 1752              	.LC8:
 1753 0068 5D2900   		.ascii	"])\000"
 1754 006b 00       		.space	1
 1755              	.LC9:
 1756 006c 2D2D2D20 		.ascii	"--- Result: SUCCESS\000"
 1756      52657375 
 1756      6C743A20 
 1756      53554343 
 1756      45535300 
 1757              	.LC10:
 1758 0080 4641494C 		.ascii	"FAILURE\000"
 1758      55524500 
 1759              	.LC11:
 1760 0088 53554343 		.ascii	"SUCCESS\000"
 1760      45535300 
 1761              	.LC12:
 1762 0090 332E302E 		.ascii	"3.0.0dev\000"
 1762      30646576 
 1762      00
 1763 0099 000000   		.space	3
 1764              	.LC13:
 1765 009c 2A2A2A20 		.ascii	"*** Compiled:     \000"
 1765      436F6D70 
 1765      696C6564 
 1765      3A202020 
 1765      202000
 1766 00af 00       		.space	1
 1767              	.LC14:
 1768 00b0 46656220 		.ascii	"Feb 28 2015 - 23:12:05\000"
 1768      32382032 
 1768      30313520 
 1768      2D203233 
 1768      3A31323A 
 1769 00c7 00       		.space	1
 1770              	.LC15:
 1771 00c8 2A2A2A20 		.ascii	"*** Compiler:     \000"
 1771      436F6D70 
 1771      696C6572 
 1771      3A202020 
 1771      202000
 1772 00db 00       		.space	1
 1773              	.LC16:
 1774 00dc 47434320 		.ascii	"GCC 4.8.4 20140526 (release) [ARM/embedded-4_8-bran"
 1774      342E382E 
 1774      34203230 
 1774      31343035 
 1774      32362028 
 1775 010f 63682072 		.ascii	"ch revision 211358]\000"
 1775      65766973 
 1775      696F6E20 
 1775      32313133 
ARM GAS  /tmp/ccKTO0Fm.s 			page 33


 1775      35385D00 
 1776 0123 00       		.space	1
 1777              	.LC17:
 1778 0124 2A2A2A20 		.ascii	"*** Architecture: \000"
 1778      41726368 
 1778      69746563 
 1778      74757265 
 1778      3A2000
 1779 0137 00       		.space	1
 1780              	.LC18:
 1781 0138 41524D76 		.ascii	"ARMv7-ME\000"
 1781      372D4D45 
 1781      00
 1782 0141 000000   		.space	3
 1783              	.LC19:
 1784 0144 2A2A2A20 		.ascii	"*** Core Variant: \000"
 1784      436F7265 
 1784      20566172 
 1784      69616E74 
 1784      3A2000
 1785 0157 00       		.space	1
 1786              	.LC20:
 1787 0158 436F7274 		.ascii	"Cortex-M4\000"
 1787      65782D4D 
 1787      3400
 1788 0162 0000     		.space	2
 1789              	.LC21:
 1790 0164 2A2A2A20 		.ascii	"*** Port Info:    \000"
 1790      506F7274 
 1790      20496E66 
 1790      6F3A2020 
 1790      202000
 1791 0177 00       		.space	1
 1792              	.LC22:
 1793 0178 41647661 		.ascii	"Advanced kernel mode\000"
 1793      6E636564 
 1793      206B6572 
 1793      6E656C20 
 1793      6D6F6465 
 1794 018d 000000   		.space	3
 1795              	.LC23:
 1796 0190 2A2A2A20 		.ascii	"*** Platform:     \000"
 1796      506C6174 
 1796      666F726D 
 1796      3A202020 
 1796      202000
 1797 01a3 00       		.space	1
 1798              	.LC24:
 1799 01a4 53544D33 		.ascii	"STM32F303xC Analog & DSP\000"
 1799      32463330 
 1799      33784320 
 1799      416E616C 
 1799      6F672026 
 1800 01bd 000000   		.space	3
 1801              	.LC25:
 1802 01c0 2A2A2A20 		.ascii	"*** Test Board:   \000"
 1802      54657374 
ARM GAS  /tmp/ccKTO0Fm.s 			page 34


 1802      20426F61 
 1802      72643A20 
 1802      202000
 1803 01d3 00       		.space	1
 1804              	.LC26:
 1805 01d4 53544D69 		.ascii	"STMicroelectronics STM32F3-Discovery\000"
 1805      63726F65 
 1805      6C656374 
 1805      726F6E69 
 1805      63732053 
 1806 01f9 000000   		.space	3
 1807              	.LC27:
 1808 01fc 202800   		.ascii	" (\000"
 1809 01ff 00       		.space	1
 1810              	.LC28:
 1811 0200 205B00   		.ascii	" [\000"
 1812 0203 00       		.space	1
 1813              	.LC29:
 1814 0204 46696E61 		.ascii	"Final result: \000"
 1814      6C207265 
 1814      73756C74 
 1814      3A2000
 1815 0213 00       		.section	.bss.vt,"aw",%nobits
 1816              		.align	2
 1817              		.set	.LANCHOR8,. + 0
 1818              		.type	vt, %object
 1819              		.size	vt, 20
 1820              	vt:
 1821 0000 00000000 		.space	20
 1821      00000000 
 1821      00000000 
 1821      00000000 
 1821      00000000 
 1822              		.section	.bss.threads,"aw",%nobits
 1823              		.align	2
 1824              		.set	.LANCHOR7,. + 0
 1825              		.type	threads, %object
 1826              		.size	threads, 20
 1827              	threads:
 1828 0000 00000000 		.space	20
 1828      00000000 
 1828      00000000 
 1828      00000000 
 1828      00000000 
 1829              		.section	.rodata.patterns,"a",%progbits
 1830              		.align	2
 1831              		.set	.LANCHOR9,. + 0
 1832              		.type	patterns, %object
 1833              		.size	patterns, 48
 1834              	patterns:
 1835 0000 00000000 		.word	patternthd
 1836 0004 00000000 		.word	patternsem
 1837 0008 00000000 		.word	patternmtx
 1838 000c 00000000 		.word	patternmsg
 1839 0010 00000000 		.word	patternmbox
 1840 0014 00000000 		.word	patternevt
 1841 0018 00000000 		.word	patternheap
ARM GAS  /tmp/ccKTO0Fm.s 			page 35


 1842 001c 00000000 		.word	patternpools
 1843 0020 00000000 		.word	patterndyn
 1844 0024 00000000 		.word	patternqueues
 1845 0028 00000000 		.word	patternbmk
 1846 002c 00000000 		.word	0
 1847              		.section	.bss.chp,"aw",%nobits
 1848              		.align	2
 1849              		.set	.LANCHOR1,. + 0
 1850              		.type	chp, %object
 1851              		.size	chp, 4
 1852              	chp:
 1853 0000 00000000 		.space	4
 1854              		.section	.bss.tokens_buffer,"aw",%nobits
 1855              		.align	2
 1856              		.set	.LANCHOR6,. + 0
 1857              		.type	tokens_buffer, %object
 1858              		.size	tokens_buffer, 16
 1859              	tokens_buffer:
 1860 0000 00000000 		.space	16
 1860      00000000 
 1860      00000000 
 1860      00000000 
 1861              		.text
 1862              	.Letext0:
 1863              		.file 5 "/nfs/nfs5/home/research/hardware/arm2/gcc-arm-embedded/gcc-arm-none-eabi-4_8-2014q2/lib/g
 1864              		.file 6 "/nfs/nfs5/home/research/hardware/arm2/gcc-arm-embedded/gcc-arm-none-eabi-4_8-2014q2/arm-n
 1865              		.file 7 "/nfs/nfs5/home/research/hardware/arm2/gcc-arm-embedded/gcc-arm-none-eabi-4_8-2014q2/arm-n
 1866              		.file 8 "../ChibiOS/os/rt/ports/ARMCMx/compilers/GCC/chtypes.h"
 1867              		.file 9 "../ChibiOS/os/rt/include/chsystypes.h"
 1868              		.file 10 "../ChibiOS/os/rt/include/chschd.h"
 1869              		.file 11 "../ChibiOS/os/rt/ports/ARMCMx/chcore.h"
 1870              		.file 12 "../ChibiOS/os/rt/ports/ARMCMx/chcore_v7m.h"
 1871              		.file 13 "../ChibiOS/os/hal/ports/STM32/LLD/TIMv1/stm32_tim.h"
 1872              		.file 14 "../ChibiOS/os/rt/include/chtm.h"
 1873              		.file 15 "../ChibiOS/os/rt/include/chmtx.h"
 1874              		.file 16 "../ChibiOS/os/rt/include/chstreams.h"
 1875              		.file 17 "../ChibiOS/test/rt/test.h"
 1876              		.file 18 "../ChibiOS/os/rt/ports/ARMCMx/chcore_timer.h"
 1877              		.file 19 "../ChibiOS/os/rt/include/chsys.h"
 1878              		.file 20 "../ChibiOS/os/ext/CMSIS/include/core_cm4.h"
 1879              		.file 21 "../ChibiOS/test/rt/testthd.h"
 1880              		.file 22 "../ChibiOS/test/rt/testsem.h"
 1881              		.file 23 "../ChibiOS/test/rt/testmtx.h"
 1882              		.file 24 "../ChibiOS/test/rt/testmsg.h"
 1883              		.file 25 "../ChibiOS/test/rt/testmbox.h"
 1884              		.file 26 "../ChibiOS/test/rt/testevt.h"
 1885              		.file 27 "../ChibiOS/test/rt/testheap.h"
 1886              		.file 28 "../ChibiOS/test/rt/testpools.h"
 1887              		.file 29 "../ChibiOS/test/rt/testdyn.h"
 1888              		.file 30 "../ChibiOS/test/rt/testqueues.h"
 1889              		.file 31 "../ChibiOS/test/rt/testbmk.h"
 1890              		.file 32 "../ChibiOS/os/rt/include/chthreads.h"