ARM GAS  /tmp/ccXKUqnZ.s 			page 1


   1              		.syntax unified
   2              		.cpu cortex-m4
   3              		.fpu softvfp
   4              		.eabi_attribute 20, 1
   5              		.eabi_attribute 21, 1
   6              		.eabi_attribute 23, 3
   7              		.eabi_attribute 24, 1
   8              		.eabi_attribute 25, 1
   9              		.eabi_attribute 26, 1
  10              		.eabi_attribute 30, 2
  11              		.eabi_attribute 34, 1
  12              		.eabi_attribute 18, 4
  13              		.thumb
  14              		.file	"testevt.c"
  15              		.text
  16              	.Ltext0:
  17              		.cfi_sections	.debug_frame
  18              		.section	.text.h3,"ax",%progbits
  19              		.align	2
  20              		.p2align 4,,15
  21              		.thumb
  22              		.thumb_func
  23              		.type	h3, %function
  24              	h3:
  25              	.LFB229:
  26              		.file 1 "../ChibiOS/test/rt/testevt.c"
  27              		.loc 1 82 0
  28              		.cfi_startproc
  29              		@ args = 0, pretend = 0, frame = 0
  30              		@ frame_needed = 0, uses_anonymous_args = 0
  31              		@ link register save eliminated.
  32              	.LVL0:
  33              		.loc 1 82 0
  34 0000 4320     		movs	r0, #67
  35              	.LVL1:
  36 0002 FFF7FEBF 		b	test_emit_token
  37              	.LVL2:
  38              		.cfi_endproc
  39              	.LFE229:
  40              		.size	h3, .-h3
  41 0006 00BFAFF3 		.section	.text.h2,"ax",%progbits
  41      0080AFF3 
  41      0080
  42              		.align	2
  43              		.p2align 4,,15
  44              		.thumb
  45              		.thumb_func
  46              		.type	h2, %function
  47              	h2:
  48              	.LFB228:
  49              		.loc 1 81 0
  50              		.cfi_startproc
  51              		@ args = 0, pretend = 0, frame = 0
  52              		@ frame_needed = 0, uses_anonymous_args = 0
  53              		@ link register save eliminated.
  54              	.LVL3:
  55              		.loc 1 81 0
ARM GAS  /tmp/ccXKUqnZ.s 			page 2


  56 0000 4220     		movs	r0, #66
  57              	.LVL4:
  58 0002 FFF7FEBF 		b	test_emit_token
  59              	.LVL5:
  60              		.cfi_endproc
  61              	.LFE228:
  62              		.size	h2, .-h2
  63 0006 00BFAFF3 		.section	.text.h1,"ax",%progbits
  63      0080AFF3 
  63      0080
  64              		.align	2
  65              		.p2align 4,,15
  66              		.thumb
  67              		.thumb_func
  68              		.type	h1, %function
  69              	h1:
  70              	.LFB227:
  71              		.loc 1 80 0
  72              		.cfi_startproc
  73              		@ args = 0, pretend = 0, frame = 0
  74              		@ frame_needed = 0, uses_anonymous_args = 0
  75              		@ link register save eliminated.
  76              	.LVL6:
  77              		.loc 1 80 0
  78 0000 4120     		movs	r0, #65
  79              	.LVL7:
  80 0002 FFF7FEBF 		b	test_emit_token
  81              	.LVL8:
  82              		.cfi_endproc
  83              	.LFE227:
  84              		.size	h1, .-h1
  85 0006 00BFAFF3 		.section	.text.evt1_execute,"ax",%progbits
  85      0080AFF3 
  85      0080
  86              		.align	2
  87              		.p2align 4,,15
  88              		.thumb
  89              		.thumb_func
  90              		.type	evt1_execute, %function
  91              	evt1_execute:
  92              	.LFB230:
  93              		.loc 1 85 0
  94              		.cfi_startproc
  95              		@ args = 0, pretend = 0, frame = 40
  96              		@ frame_needed = 0, uses_anonymous_args = 0
  97              	.LVL9:
  98 0000 10B5     		push	{r4, lr}
  99              		.cfi_def_cfa_offset 8
 100              		.cfi_offset 4, -8
 101              		.cfi_offset 14, -4
 102              	.LBB126:
 103              	.LBB127:
 104              		.file 2 "../ChibiOS/os/rt/include/chevents.h"
 105              		.loc 2 172 0
 106 0002 1F4C     		ldr	r4, .L9
 107              	.LBE127:
 108              	.LBE126:
ARM GAS  /tmp/ccXKUqnZ.s 			page 3


 109              		.loc 1 85 0
 110 0004 8AB0     		sub	sp, sp, #40
 111              		.cfi_def_cfa_offset 48
 112              	.LBB129:
 113              	.LBB130:
 114              		.loc 2 193 0
 115 0006 2046     		mov	r0, r4
 116 0008 6946     		mov	r1, sp
 117 000a 0122     		movs	r2, #1
 118 000c 4FF0FF33 		mov	r3, #-1
 119              	.LBE130:
 120              	.LBE129:
 121              	.LBB132:
 122              	.LBB128:
 123              		.loc 2 172 0
 124 0010 2460     		str	r4, [r4]
 125              	.LVL10:
 126              	.LBE128:
 127              	.LBE132:
 128              	.LBB133:
 129              	.LBB131:
 130              		.loc 2 193 0
 131 0012 FFF7FEFF 		bl	chEvtRegisterMaskWithFlags
 132              	.LVL11:
 133              	.LBE131:
 134              	.LBE133:
 135              	.LBB134:
 136              	.LBB135:
 137 0016 2046     		mov	r0, r4
 138 0018 05A9     		add	r1, sp, #20
 139              	.LVL12:
 140 001a 0222     		movs	r2, #2
 141 001c 4FF0FF33 		mov	r3, #-1
 142 0020 FFF7FEFF 		bl	chEvtRegisterMaskWithFlags
 143              	.LVL13:
 144              	.LBE135:
 145              	.LBE134:
 146              	.LBB136:
 147              	.LBB137:
 148              		.loc 2 226 0
 149 0024 2168     		ldr	r1, [r4]
 150              	.LBE137:
 151              	.LBE136:
 152              		.loc 1 94 0
 153 0026 091B     		subs	r1, r1, r4
 154 0028 18BF     		it	ne
 155 002a 0121     		movne	r1, #1
 156 002c 0120     		movs	r0, #1
 157 002e FFF7FEFF 		bl	_test_assert
 158              	.LVL14:
 159 0032 08B1     		cbz	r0, .L8
 160              	.L4:
 161              		.loc 1 105 0
 162 0034 0AB0     		add	sp, sp, #40
 163              	.LVL15:
 164              		@ sp needed
 165 0036 10BD     		pop	{r4, pc}
ARM GAS  /tmp/ccXKUqnZ.s 			page 4


 166              	.LVL16:
 167              	.L8:
 168              		.loc 1 95 0
 169 0038 6946     		mov	r1, sp
 170 003a 2046     		mov	r0, r4
 171 003c FFF7FEFF 		bl	chEvtUnregister
 172              	.LVL17:
 173              	.LBB138:
 174              	.LBB139:
 175              		.loc 2 226 0
 176 0040 2168     		ldr	r1, [r4]
 177              	.LBE139:
 178              	.LBE138:
 179              		.loc 1 96 0
 180 0042 091B     		subs	r1, r1, r4
 181 0044 18BF     		it	ne
 182 0046 0121     		movne	r1, #1
 183 0048 0220     		movs	r0, #2
 184 004a FFF7FEFF 		bl	_test_assert
 185              	.LVL18:
 186 004e 0028     		cmp	r0, #0
 187 0050 F0D1     		bne	.L4
 188              		.loc 1 97 0
 189 0052 05A9     		add	r1, sp, #20
 190              	.LVL19:
 191 0054 2046     		mov	r0, r4
 192 0056 FFF7FEFF 		bl	chEvtUnregister
 193              	.LVL20:
 194              		.loc 1 98 0
 195 005a 2168     		ldr	r1, [r4]
 196 005c 0B1B     		subs	r3, r1, r4
 197 005e 5942     		rsbs	r1, r3, #0
 198 0060 5941     		adcs	r1, r1, r3
 199 0062 0320     		movs	r0, #3
 200 0064 FFF7FEFF 		bl	_test_assert
 201              	.LVL21:
 202 0068 0028     		cmp	r0, #0
 203 006a E3D1     		bne	.L4
 204              		.loc 1 103 0
 205 006c 0548     		ldr	r0, .L9+4
 206 006e 0721     		movs	r1, #7
 207 0070 FFF7FEFF 		bl	chEvtDispatch
 208              	.LVL22:
 209              		.loc 1 104 0
 210 0074 0449     		ldr	r1, .L9+8
 211 0076 0420     		movs	r0, #4
 212 0078 FFF7FEFF 		bl	_test_assert_sequence
 213              	.LVL23:
 214 007c DAE7     		b	.L4
 215              	.L10:
 216 007e 00BF     		.align	2
 217              	.L9:
 218 0080 00000000 		.word	.LANCHOR0
 219 0084 00000000 		.word	.LANCHOR1
 220 0088 00000000 		.word	.LC0
 221              		.cfi_endproc
 222              	.LFE230:
ARM GAS  /tmp/ccXKUqnZ.s 			page 5


 223              		.size	evt1_execute, .-evt1_execute
 224 008c AFF30080 		.section	.text.evt1_setup,"ax",%progbits
 225              		.align	2
 226              		.p2align 4,,15
 227              		.thumb
 228              		.thumb_func
 229              		.type	evt1_setup, %function
 230              	evt1_setup:
 231              	.LFB226:
 232              		.loc 1 75 0
 233              		.cfi_startproc
 234              		@ args = 0, pretend = 0, frame = 0
 235              		@ frame_needed = 0, uses_anonymous_args = 0
 236              		@ link register save eliminated.
 237              		.loc 1 77 0
 238 0000 4FF0FF30 		mov	r0, #-1
 239 0004 FFF7FEBF 		b	chEvtGetAndClearEvents
 240              	.LVL24:
 241              		.cfi_endproc
 242              	.LFE226:
 243              		.size	evt1_setup, .-evt1_setup
 244 0008 AFF30080 		.section	.text.evt2_setup,"ax",%progbits
 244      AFF30080 
 245              		.align	2
 246              		.p2align 4,,15
 247              		.thumb
 248              		.thumb_func
 249              		.type	evt2_setup, %function
 250              	evt2_setup:
 251              	.LFB231:
 252              		.loc 1 128 0
 253              		.cfi_startproc
 254              		@ args = 0, pretend = 0, frame = 0
 255              		@ frame_needed = 0, uses_anonymous_args = 0
 256              		@ link register save eliminated.
 257              		.loc 1 130 0
 258 0000 4FF0FF30 		mov	r0, #-1
 259 0004 FFF7FEBF 		b	chEvtGetAndClearEvents
 260              	.LVL25:
 261              		.cfi_endproc
 262              	.LFE231:
 263              		.size	evt2_setup, .-evt2_setup
 264 0008 AFF30080 		.section	.text.evt3_setup,"ax",%progbits
 264      AFF30080 
 265              		.align	2
 266              		.p2align 4,,15
 267              		.thumb
 268              		.thumb_func
 269              		.type	evt3_setup, %function
 270              	evt3_setup:
 271              	.LFB235:
 272              		.loc 1 249 0
 273              		.cfi_startproc
 274              		@ args = 0, pretend = 0, frame = 0
 275              		@ frame_needed = 0, uses_anonymous_args = 0
 276              		@ link register save eliminated.
 277              		.loc 1 251 0
ARM GAS  /tmp/ccXKUqnZ.s 			page 6


 278 0000 4FF0FF30 		mov	r0, #-1
 279 0004 FFF7FEBF 		b	chEvtGetAndClearEvents
 280              	.LVL26:
 281              		.cfi_endproc
 282              	.LFE235:
 283              		.size	evt3_setup, .-evt3_setup
 284 0008 AFF30080 		.section	.text.evt2_execute,"ax",%progbits
 284      AFF30080 
 285              		.align	2
 286              		.p2align 4,,15
 287              		.thumb
 288              		.thumb_func
 289              		.type	evt2_execute, %function
 290              	evt2_execute:
 291              	.LFB234:
 292              		.loc 1 149 0
 293              		.cfi_startproc
 294              		@ args = 0, pretend = 0, frame = 40
 295              		@ frame_needed = 0, uses_anonymous_args = 0
 296 0000 2DE9F04F 		push	{r4, r5, r6, r7, r8, r9, r10, fp, lr}
 297              		.cfi_def_cfa_offset 36
 298              		.cfi_offset 4, -36
 299              		.cfi_offset 5, -32
 300              		.cfi_offset 6, -28
 301              		.cfi_offset 7, -24
 302              		.cfi_offset 8, -20
 303              		.cfi_offset 9, -16
 304              		.cfi_offset 10, -12
 305              		.cfi_offset 11, -8
 306              		.cfi_offset 14, -4
 307              		.loc 1 157 0
 308 0004 0720     		movs	r0, #7
 309              		.loc 1 149 0
 310 0006 8DB0     		sub	sp, sp, #52
 311              		.cfi_def_cfa_offset 88
 312              		.loc 1 157 0
 313 0008 FFF7FEFF 		bl	chEvtAddEvents
 314              	.LVL27:
 315              		.loc 1 158 0
 316 000c 4FF0FF30 		mov	r0, #-1
 317 0010 FFF7FEFF 		bl	chEvtWaitOne
 318              	.LVL28:
 319              		.loc 1 159 0
 320 0014 B0F10109 		subs	r9, r0, #1
 321 0018 D9F10001 		rsbs	r1, r9, #0
 322 001c 51EB0901 		adcs	r1, r1, r9
 323 0020 0120     		movs	r0, #1
 324              	.LVL29:
 325 0022 FFF7FEFF 		bl	_test_assert
 326              	.LVL30:
 327 0026 10B1     		cbz	r0, .L17
 328              	.LVL31:
 329              	.L14:
 330              		.loc 1 224 0
 331 0028 0DB0     		add	sp, sp, #52
 332              		@ sp needed
 333 002a BDE8F08F 		pop	{r4, r5, r6, r7, r8, r9, r10, fp, pc}
ARM GAS  /tmp/ccXKUqnZ.s 			page 7


 334              	.LVL32:
 335              	.L17:
 336              		.loc 1 160 0
 337 002e 4FF0FF30 		mov	r0, #-1
 338 0032 FFF7FEFF 		bl	chEvtWaitOne
 339              	.LVL33:
 340              		.loc 1 161 0
 341 0036 B0F10208 		subs	r8, r0, #2
 342 003a D8F10001 		rsbs	r1, r8, #0
 343 003e 51EB0801 		adcs	r1, r1, r8
 344 0042 0220     		movs	r0, #2
 345              	.LVL34:
 346 0044 FFF7FEFF 		bl	_test_assert
 347              	.LVL35:
 348 0048 0028     		cmp	r0, #0
 349 004a EDD1     		bne	.L14
 350              		.loc 1 162 0
 351 004c 4FF0FF30 		mov	r0, #-1
 352 0050 FFF7FEFF 		bl	chEvtWaitOne
 353              	.LVL36:
 354              		.loc 1 163 0
 355 0054 B0F1040C 		subs	ip, r0, #4
 356 0058 DCF10001 		rsbs	r1, ip, #0
 357 005c 51EB0C01 		adcs	r1, r1, ip
 358 0060 0320     		movs	r0, #3
 359              	.LVL37:
 360 0062 FFF7FEFF 		bl	_test_assert
 361              	.LVL38:
 362 0066 0028     		cmp	r0, #0
 363 0068 DED1     		bne	.L14
 364              		.loc 1 164 0
 365 006a 4FF0FF30 		mov	r0, #-1
 366 006e FFF7FEFF 		bl	chEvtGetAndClearEvents
 367              	.LVL39:
 368              		.loc 1 165 0
 369 0072 D0F10101 		rsbs	r1, r0, #1
 370 0076 38BF     		it	cc
 371 0078 0021     		movcc	r1, #0
 372 007a 0420     		movs	r0, #4
 373              	.LVL40:
 374 007c FFF7FEFF 		bl	_test_assert
 375              	.LVL41:
 376 0080 0446     		mov	r4, r0
 377 0082 0028     		cmp	r0, #0
 378 0084 D0D1     		bne	.L14
 379              		.loc 1 170 0
 380 0086 FFF7FEFF 		bl	test_wait_tick
 381              	.LVL42:
 382              	.LBB140:
 383              	.LBB141:
 384              	.LBB142:
 385              	.LBB143:
 386              	.LBB144:
 387              	.LBB145:
 388              		.file 3 "../ChibiOS/os/ext/CMSIS/include/core_cmFunc.h"
 389              		.loc 3 546 0
 390 008a 4FF02009 		mov	r9, #32
ARM GAS  /tmp/ccXKUqnZ.s 			page 8


 391              	@ 546 "../ChibiOS/os/ext/CMSIS/include/core_cmFunc.h" 1
 392 008e 89F31188 		MSR basepri, r9
 393              	@ 0 "" 2
 394              		.thumb
 395              	.LBE145:
 396              	.LBE144:
 397              	.LBE143:
 398              	.LBE142:
 399              	.LBB146:
 400              	.LBB147:
 401              	.LBB148:
 402              	.LBB149:
 403              		.file 4 "../ChibiOS/os/hal/ports/STM32/LLD/TIMv1/st_lld.h"
 404              		.loc 4 128 0
 405 0092 4FF08048 		mov	r8, #1073741824
 406 0096 D8F82450 		ldr	r5, [r8, #36]
 407              	.LVL43:
 408              	.LBE149:
 409              	.LBE148:
 410              	.LBE147:
 411              	.LBE146:
 412              	.LBB150:
 413              	.LBB151:
 414              	.LBB152:
 415              	.LBB153:
 416              	.LBB154:
 417              		.loc 3 546 0
 418              	@ 546 "../ChibiOS/os/ext/CMSIS/include/core_cmFunc.h" 1
 419 009a 84F31188 		MSR basepri, r4
 420              	@ 0 "" 2
 421              	.LVL44:
 422              		.thumb
 423              	.LBE154:
 424              	.LBE153:
 425              	.LBE152:
 426              	.LBE151:
 427              	.LBE150:
 428              	.LBE141:
 429              	.LBE140:
 430              	.LBB155:
 431              	.LBB156:
 432              	.LBB157:
 433              	.LBB158:
 434              		.file 5 "../ChibiOS/os/rt/include/chthreads.h"
 435              		.loc 5 179 0
 436 009e 794F     		ldr	r7, .L18
 437              	.LBE158:
 438              	.LBE157:
 439              	.LBE156:
 440              	.LBE155:
 441              		.loc 1 172 0
 442 00a0 DFF8FCA1 		ldr	r10, .L18+28
 443              	.LBB162:
 444              	.LBB161:
 445              	.LBB160:
 446              	.LBB159:
 447              		.loc 5 179 0
ARM GAS  /tmp/ccXKUqnZ.s 			page 9


 448 00a4 B969     		ldr	r1, [r7, #24]
 449              	.LBE159:
 450              	.LBE160:
 451              	.LBE161:
 452              	.LBE162:
 453              		.loc 1 172 0
 454 00a6 DAF80060 		ldr	r6, [r10]
 455 00aa 8A68     		ldr	r2, [r1, #8]
 456 00ac 764B     		ldr	r3, .L18+4
 457 00ae 0091     		str	r1, [sp]
 458 00b0 013A     		subs	r2, r2, #1
 459 00b2 4FF4A471 		mov	r1, #328
 460 00b6 3046     		mov	r0, r6
 461 00b8 FFF7FEFF 		bl	chThdCreateStatic
 462              	.LVL45:
 463 00bc 734C     		ldr	r4, .L18+8
 464 00be 2060     		str	r0, [r4]
 465              		.loc 1 174 0
 466 00c0 4FF0FF30 		mov	r0, #-1
 467 00c4 FFF7FEFF 		bl	chEvtWaitOne
 468              	.LVL46:
 469              		.loc 1 175 0
 470 00c8 05F5FA71 		add	r1, r5, #500
 471              	.LVL47:
 472              		.loc 1 174 0
 473 00cc 8346     		mov	fp, r0
 474              	.LVL48:
 475              		.loc 1 175 0
 476 00ce 05F22622 		addw	r2, r5, #550
 477 00d2 0520     		movs	r0, #5
 478              	.LVL49:
 479 00d4 FFF7FEFF 		bl	_test_assert_time_window
 480              	.LVL50:
 481 00d8 0028     		cmp	r0, #0
 482 00da A5D1     		bne	.L14
 483              		.loc 1 176 0
 484 00dc BBF1010E 		subs	lr, fp, #1
 485 00e0 DEF10001 		rsbs	r1, lr, #0
 486 00e4 51EB0E01 		adcs	r1, r1, lr
 487 00e8 0620     		movs	r0, #6
 488 00ea FFF7FEFF 		bl	_test_assert
 489              	.LVL51:
 490 00ee 0028     		cmp	r0, #0
 491 00f0 9AD1     		bne	.L14
 492              		.loc 1 177 0
 493 00f2 4FF0FF30 		mov	r0, #-1
 494 00f6 FFF7FEFF 		bl	chEvtGetAndClearEvents
 495              	.LVL52:
 496              		.loc 1 178 0
 497 00fa D0F10101 		rsbs	r1, r0, #1
 498 00fe 38BF     		it	cc
 499 0100 0021     		movcc	r1, #0
 500 0102 0720     		movs	r0, #7
 501              	.LVL53:
 502 0104 FFF7FEFF 		bl	_test_assert
 503              	.LVL54:
 504 0108 0028     		cmp	r0, #0
ARM GAS  /tmp/ccXKUqnZ.s 			page 10


 505 010a 8DD1     		bne	.L14
 506              		.loc 1 179 0
 507 010c FFF7FEFF 		bl	test_wait_threads
 508              	.LVL55:
 509              		.loc 1 184 0
 510 0110 0520     		movs	r0, #5
 511 0112 FFF7FEFF 		bl	chEvtAddEvents
 512              	.LVL56:
 513              		.loc 1 185 0
 514 0116 4FF0FF30 		mov	r0, #-1
 515 011a FFF7FEFF 		bl	chEvtWaitAny
 516              	.LVL57:
 517              		.loc 1 186 0
 518 011e 451F     		subs	r5, r0, #5
 519              	.LVL58:
 520 0120 6942     		rsbs	r1, r5, #0
 521 0122 6941     		adcs	r1, r1, r5
 522 0124 0820     		movs	r0, #8
 523              	.LVL59:
 524 0126 FFF7FEFF 		bl	_test_assert
 525              	.LVL60:
 526 012a 0028     		cmp	r0, #0
 527 012c 7FF47CAF 		bne	.L14
 528              		.loc 1 187 0
 529 0130 4FF0FF30 		mov	r0, #-1
 530 0134 FFF7FEFF 		bl	chEvtGetAndClearEvents
 531              	.LVL61:
 532              		.loc 1 188 0
 533 0138 D0F10101 		rsbs	r1, r0, #1
 534 013c 38BF     		it	cc
 535 013e 0021     		movcc	r1, #0
 536 0140 0920     		movs	r0, #9
 537              	.LVL62:
 538 0142 FFF7FEFF 		bl	_test_assert
 539              	.LVL63:
 540 0146 8346     		mov	fp, r0
 541 0148 0028     		cmp	r0, #0
 542 014a 7FF46DAF 		bne	.L14
 543              		.loc 1 193 0
 544 014e FFF7FEFF 		bl	test_wait_tick
 545              	.LVL64:
 546              	.LBB163:
 547              	.LBB164:
 548              	.LBB165:
 549              	.LBB166:
 550              	.LBB167:
 551              	.LBB168:
 552              		.loc 3 546 0
 553              	@ 546 "../ChibiOS/os/ext/CMSIS/include/core_cmFunc.h" 1
 554 0152 89F31188 		MSR basepri, r9
 555              	@ 0 "" 2
 556              		.thumb
 557              	.LBE168:
 558              	.LBE167:
 559              	.LBE166:
 560              	.LBE165:
 561              	.LBB169:
ARM GAS  /tmp/ccXKUqnZ.s 			page 11


 562              	.LBB170:
 563              	.LBB171:
 564              	.LBB172:
 565              		.loc 4 128 0
 566 0156 D8F82450 		ldr	r5, [r8, #36]
 567              	.LVL65:
 568              	.LBE172:
 569              	.LBE171:
 570              	.LBE170:
 571              	.LBE169:
 572              	.LBB173:
 573              	.LBB174:
 574              	.LBB175:
 575              	.LBB176:
 576              	.LBB177:
 577              		.loc 3 546 0
 578              	@ 546 "../ChibiOS/os/ext/CMSIS/include/core_cmFunc.h" 1
 579 015a 8BF31188 		MSR basepri, fp
 580              	@ 0 "" 2
 581              	.LVL66:
 582              		.thumb
 583              	.LBE177:
 584              	.LBE176:
 585              	.LBE175:
 586              	.LBE174:
 587              	.LBE173:
 588              	.LBE164:
 589              	.LBE163:
 590              	.LBB178:
 591              	.LBB179:
 592              	.LBB180:
 593              	.LBB181:
 594              		.loc 5 179 0
 595 015e B969     		ldr	r1, [r7, #24]
 596              	.LBE181:
 597              	.LBE180:
 598              	.LBE179:
 599              	.LBE178:
 600              		.loc 1 195 0
 601 0160 494B     		ldr	r3, .L18+4
 602 0162 8A68     		ldr	r2, [r1, #8]
 603 0164 0091     		str	r1, [sp]
 604 0166 013A     		subs	r2, r2, #1
 605 0168 4FF4A471 		mov	r1, #328
 606 016c 3046     		mov	r0, r6
 607 016e FFF7FEFF 		bl	chThdCreateStatic
 608              	.LVL67:
 609 0172 2060     		str	r0, [r4]
 610              		.loc 1 197 0
 611 0174 4FF0FF30 		mov	r0, #-1
 612 0178 FFF7FEFF 		bl	chEvtWaitAny
 613              	.LVL68:
 614              		.loc 1 198 0
 615 017c 05F5FA71 		add	r1, r5, #500
 616              	.LVL69:
 617              		.loc 1 197 0
 618 0180 0646     		mov	r6, r0
ARM GAS  /tmp/ccXKUqnZ.s 			page 12


 619              	.LVL70:
 620              		.loc 1 198 0
 621 0182 05F22622 		addw	r2, r5, #550
 622 0186 0A20     		movs	r0, #10
 623              	.LVL71:
 624 0188 FFF7FEFF 		bl	_test_assert_time_window
 625              	.LVL72:
 626 018c 0028     		cmp	r0, #0
 627 018e 7FF44BAF 		bne	.L14
 628              		.loc 1 199 0
 629 0192 701E     		subs	r0, r6, #1
 630 0194 4142     		rsbs	r1, r0, #0
 631 0196 4141     		adcs	r1, r1, r0
 632 0198 0B20     		movs	r0, #11
 633 019a FFF7FEFF 		bl	_test_assert
 634              	.LVL73:
 635 019e 0028     		cmp	r0, #0
 636 01a0 7FF442AF 		bne	.L14
 637              		.loc 1 200 0
 638 01a4 4FF0FF30 		mov	r0, #-1
 639 01a8 FFF7FEFF 		bl	chEvtGetAndClearEvents
 640              	.LVL74:
 641              		.loc 1 201 0
 642 01ac D0F10101 		rsbs	r1, r0, #1
 643 01b0 38BF     		it	cc
 644 01b2 0021     		movcc	r1, #0
 645 01b4 0C20     		movs	r0, #12
 646              	.LVL75:
 647 01b6 FFF7FEFF 		bl	_test_assert
 648              	.LVL76:
 649 01ba 8146     		mov	r9, r0
 650 01bc 0028     		cmp	r0, #0
 651 01be 7FF433AF 		bne	.L14
 652              	.LBB182:
 653              	.LBB183:
 654              		.loc 2 172 0
 655 01c2 334E     		ldr	r6, .L18+12
 656              	.LBE183:
 657              	.LBE182:
 658              	.LBB185:
 659              	.LBB186:
 660 01c4 334D     		ldr	r5, .L18+16
 661              	.LVL77:
 662              	.LBE186:
 663              	.LBE185:
 664              		.loc 1 202 0
 665 01c6 FFF7FEFF 		bl	test_wait_threads
 666              	.LVL78:
 667              	.LBB188:
 668              	.LBB189:
 669              		.loc 2 193 0
 670 01ca 3046     		mov	r0, r6
 671 01cc 02A9     		add	r1, sp, #8
 672 01ce 0122     		movs	r2, #1
 673 01d0 4FF0FF33 		mov	r3, #-1
 674              	.LBE189:
 675              	.LBE188:
ARM GAS  /tmp/ccXKUqnZ.s 			page 13


 676              	.LBB191:
 677              	.LBB184:
 678              		.loc 2 172 0
 679 01d4 3660     		str	r6, [r6]
 680              	.LVL79:
 681              	.LBE184:
 682              	.LBE191:
 683              	.LBB192:
 684              	.LBB187:
 685 01d6 2D60     		str	r5, [r5]
 686              	.LVL80:
 687              	.LBE187:
 688              	.LBE192:
 689              	.LBB193:
 690              	.LBB190:
 691              		.loc 2 193 0
 692 01d8 FFF7FEFF 		bl	chEvtRegisterMaskWithFlags
 693              	.LVL81:
 694              	.LBE190:
 695              	.LBE193:
 696              	.LBB194:
 697              	.LBB195:
 698 01dc 2846     		mov	r0, r5
 699 01de 07A9     		add	r1, sp, #28
 700              	.LVL82:
 701 01e0 0422     		movs	r2, #4
 702 01e2 4FF0FF33 		mov	r3, #-1
 703 01e6 FFF7FEFF 		bl	chEvtRegisterMaskWithFlags
 704              	.LVL83:
 705              	.LBE195:
 706              	.LBE194:
 707              		.loc 1 211 0
 708 01ea FFF7FEFF 		bl	test_wait_tick
 709              	.LVL84:
 710              	.LBB196:
 711              	.LBB197:
 712              	.LBB198:
 713              	.LBB199:
 714              	.LBB200:
 715              	.LBB201:
 716              		.loc 3 546 0
 717 01ee 2023     		movs	r3, #32
 718              	@ 546 "../ChibiOS/os/ext/CMSIS/include/core_cmFunc.h" 1
 719 01f0 83F31188 		MSR basepri, r3
 720              	@ 0 "" 2
 721              		.thumb
 722              	.LBE201:
 723              	.LBE200:
 724              	.LBE199:
 725              	.LBE198:
 726              	.LBB202:
 727              	.LBB203:
 728              	.LBB204:
 729              	.LBB205:
 730              		.loc 4 128 0
 731 01f4 D8F82480 		ldr	r8, [r8, #36]
 732              	.LVL85:
ARM GAS  /tmp/ccXKUqnZ.s 			page 14


 733              	.LBE205:
 734              	.LBE204:
 735              	.LBE203:
 736              	.LBE202:
 737              	.LBB206:
 738              	.LBB207:
 739              	.LBB208:
 740              	.LBB209:
 741              	.LBB210:
 742              		.loc 3 546 0
 743              	@ 546 "../ChibiOS/os/ext/CMSIS/include/core_cmFunc.h" 1
 744 01f8 89F31188 		MSR basepri, r9
 745              	@ 0 "" 2
 746              	.LVL86:
 747              		.thumb
 748              	.LBE210:
 749              	.LBE209:
 750              	.LBE208:
 751              	.LBE207:
 752              	.LBE206:
 753              	.LBE197:
 754              	.LBE196:
 755              	.LBB211:
 756              	.LBB212:
 757              		.loc 5 192 0
 758 01fc BA69     		ldr	r2, [r7, #24]
 759              	.LBE212:
 760              	.LBE211:
 761              		.loc 1 213 0
 762 01fe 264B     		ldr	r3, .L18+20
 763 0200 9268     		ldr	r2, [r2, #8]
 764 0202 DAF80000 		ldr	r0, [r10]
 765 0206 0093     		str	r3, [sp]
 766 0208 013A     		subs	r2, r2, #1
 767 020a 4FF4A471 		mov	r1, #328
 768 020e 234B     		ldr	r3, .L18+24
 769 0210 FFF7FEFF 		bl	chThdCreateStatic
 770              	.LVL87:
 771 0214 2060     		str	r0, [r4]
 772              		.loc 1 215 0
 773 0216 0520     		movs	r0, #5
 774 0218 FFF7FEFF 		bl	chEvtWaitAll
 775              	.LVL88:
 776              		.loc 1 216 0
 777 021c 08F5FA71 		add	r1, r8, #500
 778              	.LVL89:
 779 0220 08F22622 		addw	r2, r8, #550
 780 0224 0D20     		movs	r0, #13
 781 0226 FFF7FEFF 		bl	_test_assert_time_window
 782              	.LVL90:
 783 022a 0028     		cmp	r0, #0
 784 022c 7FF4FCAE 		bne	.L14
 785              		.loc 1 217 0
 786 0230 4FF0FF30 		mov	r0, #-1
 787 0234 FFF7FEFF 		bl	chEvtGetAndClearEvents
 788              	.LVL91:
 789              		.loc 1 218 0
ARM GAS  /tmp/ccXKUqnZ.s 			page 15


 790 0238 D0F10101 		rsbs	r1, r0, #1
 791 023c 38BF     		it	cc
 792 023e 0021     		movcc	r1, #0
 793 0240 0E20     		movs	r0, #14
 794              	.LVL92:
 795 0242 FFF7FEFF 		bl	_test_assert
 796              	.LVL93:
 797 0246 0028     		cmp	r0, #0
 798 0248 7FF4EEAE 		bne	.L14
 799              		.loc 1 219 0
 800 024c FFF7FEFF 		bl	test_wait_threads
 801              	.LVL94:
 802              		.loc 1 220 0
 803 0250 3046     		mov	r0, r6
 804 0252 02A9     		add	r1, sp, #8
 805              	.LVL95:
 806 0254 FFF7FEFF 		bl	chEvtUnregister
 807              	.LVL96:
 808              		.loc 1 221 0
 809 0258 2846     		mov	r0, r5
 810 025a 07A9     		add	r1, sp, #28
 811              	.LVL97:
 812 025c FFF7FEFF 		bl	chEvtUnregister
 813              	.LVL98:
 814              		.loc 1 222 0
 815 0260 3168     		ldr	r1, [r6]
 816 0262 8A1B     		subs	r2, r1, r6
 817 0264 5142     		rsbs	r1, r2, #0
 818 0266 5141     		adcs	r1, r1, r2
 819 0268 0F20     		movs	r0, #15
 820 026a FFF7FEFF 		bl	_test_assert
 821              	.LVL99:
 822 026e 0028     		cmp	r0, #0
 823 0270 7FF4DAAE 		bne	.L14
 824              	.LVL100:
 825              		.loc 1 223 0
 826 0274 2968     		ldr	r1, [r5]
 827 0276 4B1B     		subs	r3, r1, r5
 828 0278 5942     		rsbs	r1, r3, #0
 829 027a 5941     		adcs	r1, r1, r3
 830 027c 1020     		movs	r0, #16
 831 027e FFF7FEFF 		bl	_test_assert
 832              	.LVL101:
 833 0282 D1E6     		b	.L14
 834              	.L19:
 835              		.align	2
 836              	.L18:
 837 0284 00000000 		.word	ch
 838 0288 00000000 		.word	thread1
 839 028c 00000000 		.word	threads
 840 0290 00000000 		.word	.LANCHOR0
 841 0294 00000000 		.word	.LANCHOR2
 842 0298 04000000 		.word	.LC1
 843 029c 00000000 		.word	thread2
 844 02a0 00000000 		.word	wa
 845              		.cfi_endproc
 846              	.LFE234:
ARM GAS  /tmp/ccXKUqnZ.s 			page 16


 847              		.size	evt2_execute, .-evt2_execute
 848 02a4 AFF30080 		.section	.text.thread2,"ax",%progbits
 848      AFF30080 
 848      AFF30080 
 849              		.align	2
 850              		.p2align 4,,15
 851              		.thumb
 852              		.thumb_func
 853              		.type	thread2, %function
 854              	thread2:
 855              	.LFB233:
 856              		.loc 1 140 0
 857              		.cfi_startproc
 858              		@ args = 0, pretend = 0, frame = 0
 859              		@ frame_needed = 0, uses_anonymous_args = 0
 860              	.LVL102:
 861 0000 08B5     		push	{r3, lr}
 862              		.cfi_def_cfa_offset 8
 863              		.cfi_offset 3, -8
 864              		.cfi_offset 14, -4
 865              	.LBB213:
 866              	.LBB214:
 867              		.loc 2 239 0
 868 0002 0021     		movs	r1, #0
 869 0004 0648     		ldr	r0, .L21
 870              	.LVL103:
 871 0006 FFF7FEFF 		bl	chEvtBroadcastFlags
 872              	.LVL104:
 873              	.LBE214:
 874              	.LBE213:
 875              		.loc 1 144 0
 876 000a 4FF4FA70 		mov	r0, #500
 877 000e FFF7FEFF 		bl	chThdSleep
 878              	.LVL105:
 879              	.LBB215:
 880              	.LBB216:
 881              		.loc 2 239 0
 882 0012 0448     		ldr	r0, .L21+4
 883 0014 0021     		movs	r1, #0
 884 0016 FFF7FEFF 		bl	chEvtBroadcastFlags
 885              	.LVL106:
 886              	.LBE216:
 887              	.LBE215:
 888              		.loc 1 147 0
 889 001a 0020     		movs	r0, #0
 890 001c 08BD     		pop	{r3, pc}
 891              	.L22:
 892 001e 00BF     		.align	2
 893              	.L21:
 894 0020 00000000 		.word	.LANCHOR0
 895 0024 00000000 		.word	.LANCHOR2
 896              		.cfi_endproc
 897              	.LFE233:
 898              		.size	thread2, .-thread2
 899 0028 AFF30080 		.section	.text.thread1,"ax",%progbits
 899      AFF30080 
 900              		.align	2
ARM GAS  /tmp/ccXKUqnZ.s 			page 17


 901              		.p2align 4,,15
 902              		.thumb
 903              		.thumb_func
 904              		.type	thread1, %function
 905              	thread1:
 906              	.LFB232:
 907              		.loc 1 133 0
 908              		.cfi_startproc
 909              		@ args = 0, pretend = 0, frame = 0
 910              		@ frame_needed = 0, uses_anonymous_args = 0
 911              	.LVL107:
 912 0000 10B5     		push	{r4, lr}
 913              		.cfi_def_cfa_offset 8
 914              		.cfi_offset 4, -8
 915              		.cfi_offset 14, -4
 916              		.loc 1 133 0
 917 0002 0446     		mov	r4, r0
 918              		.loc 1 135 0
 919 0004 4FF4FA70 		mov	r0, #500
 920              	.LVL108:
 921 0008 FFF7FEFF 		bl	chThdSleep
 922              	.LVL109:
 923              		.loc 1 136 0
 924 000c 2046     		mov	r0, r4
 925 000e 0121     		movs	r1, #1
 926 0010 FFF7FEFF 		bl	chEvtSignal
 927              	.LVL110:
 928              		.loc 1 138 0
 929 0014 0020     		movs	r0, #0
 930 0016 10BD     		pop	{r4, pc}
 931              		.cfi_endproc
 932              	.LFE232:
 933              		.size	thread1, .-thread1
 934 0018 AFF30080 		.section	.text.evt3_execute,"ax",%progbits
 934      AFF30080 
 935              		.align	2
 936              		.p2align 4,,15
 937              		.thumb
 938              		.thumb_func
 939              		.type	evt3_execute, %function
 940              	evt3_execute:
 941              	.LFB236:
 942              		.loc 1 254 0
 943              		.cfi_startproc
 944              		@ args = 0, pretend = 0, frame = 0
 945              		@ frame_needed = 0, uses_anonymous_args = 0
 946 0000 08B5     		push	{r3, lr}
 947              		.cfi_def_cfa_offset 8
 948              		.cfi_offset 3, -8
 949              		.cfi_offset 14, -4
 950              		.loc 1 260 0
 951 0002 0021     		movs	r1, #0
 952 0004 4FF0FF30 		mov	r0, #-1
 953 0008 FFF7FEFF 		bl	chEvtWaitOneTimeout
 954              	.LVL111:
 955              		.loc 1 261 0
 956 000c D0F10101 		rsbs	r1, r0, #1
ARM GAS  /tmp/ccXKUqnZ.s 			page 18


 957 0010 38BF     		it	cc
 958 0012 0021     		movcc	r1, #0
 959 0014 0120     		movs	r0, #1
 960              	.LVL112:
 961 0016 FFF7FEFF 		bl	_test_assert
 962              	.LVL113:
 963 001a 00B1     		cbz	r0, .L28
 964              	.L24:
 965 001c 08BD     		pop	{r3, pc}
 966              	.L28:
 967              		.loc 1 262 0
 968 001e 0146     		mov	r1, r0
 969 0020 4FF0FF30 		mov	r0, #-1
 970 0024 FFF7FEFF 		bl	chEvtWaitAnyTimeout
 971              	.LVL114:
 972              		.loc 1 263 0
 973 0028 D0F10101 		rsbs	r1, r0, #1
 974 002c 38BF     		it	cc
 975 002e 0021     		movcc	r1, #0
 976 0030 0220     		movs	r0, #2
 977              	.LVL115:
 978 0032 FFF7FEFF 		bl	_test_assert
 979              	.LVL116:
 980 0036 0028     		cmp	r0, #0
 981 0038 F0D1     		bne	.L24
 982              		.loc 1 264 0
 983 003a 0146     		mov	r1, r0
 984 003c 4FF0FF30 		mov	r0, #-1
 985 0040 FFF7FEFF 		bl	chEvtWaitAllTimeout
 986              	.LVL117:
 987              		.loc 1 265 0
 988 0044 D0F10101 		rsbs	r1, r0, #1
 989 0048 38BF     		it	cc
 990 004a 0021     		movcc	r1, #0
 991 004c 0320     		movs	r0, #3
 992              	.LVL118:
 993 004e FFF7FEFF 		bl	_test_assert
 994              	.LVL119:
 995 0052 0028     		cmp	r0, #0
 996 0054 E2D1     		bne	.L24
 997              	.LBB219:
 998              	.LBB220:
 999              		.loc 1 266 0
 1000 0056 0A21     		movs	r1, #10
 1001 0058 4FF0FF30 		mov	r0, #-1
 1002 005c FFF7FEFF 		bl	chEvtWaitOneTimeout
 1003              	.LVL120:
 1004              		.loc 1 267 0
 1005 0060 D0F10101 		rsbs	r1, r0, #1
 1006 0064 38BF     		it	cc
 1007 0066 0021     		movcc	r1, #0
 1008 0068 0420     		movs	r0, #4
 1009              	.LVL121:
 1010 006a FFF7FEFF 		bl	_test_assert
 1011              	.LVL122:
 1012 006e 0028     		cmp	r0, #0
 1013 0070 D4D1     		bne	.L24
ARM GAS  /tmp/ccXKUqnZ.s 			page 19


 1014              		.loc 1 268 0
 1015 0072 0A21     		movs	r1, #10
 1016 0074 4FF0FF30 		mov	r0, #-1
 1017 0078 FFF7FEFF 		bl	chEvtWaitAnyTimeout
 1018              	.LVL123:
 1019              		.loc 1 269 0
 1020 007c D0F10101 		rsbs	r1, r0, #1
 1021 0080 38BF     		it	cc
 1022 0082 0021     		movcc	r1, #0
 1023 0084 0520     		movs	r0, #5
 1024              	.LVL124:
 1025 0086 FFF7FEFF 		bl	_test_assert
 1026              	.LVL125:
 1027 008a 0028     		cmp	r0, #0
 1028 008c C6D1     		bne	.L24
 1029              		.loc 1 270 0
 1030 008e 0A21     		movs	r1, #10
 1031 0090 4FF0FF30 		mov	r0, #-1
 1032 0094 FFF7FEFF 		bl	chEvtWaitAllTimeout
 1033              	.LVL126:
 1034              		.loc 1 271 0
 1035 0098 D0F10101 		rsbs	r1, r0, #1
 1036 009c 38BF     		it	cc
 1037 009e 0021     		movcc	r1, #0
 1038 00a0 0620     		movs	r0, #6
 1039              	.LVL127:
 1040              	.LBE220:
 1041              	.LBE219:
 1042              		.loc 1 272 0
 1043 00a2 BDE80840 		pop	{r3, lr}
 1044              	.LBB222:
 1045              	.LBB221:
 1046              		.loc 1 271 0
 1047 00a6 FFF7FEBF 		b	_test_assert
 1048              	.LVL128:
 1049              	.LBE221:
 1050              	.LBE222:
 1051              		.cfi_endproc
 1052              	.LFE236:
 1053              		.size	evt3_execute, .-evt3_execute
 1054              		.global	patternevt
 1055              		.global	testevt3
 1056              		.global	testevt2
 1057              		.global	testevt1
 1058 00aa 00BFAFF3 		.section	.rodata.patternevt,"a",%progbits
 1058      0080
 1059              		.align	2
 1060              		.type	patternevt, %object
 1061              		.size	patternevt, 16
 1062              	patternevt:
 1063 0000 00000000 		.word	testevt1
 1064 0004 00000000 		.word	testevt2
 1065 0008 00000000 		.word	testevt3
 1066 000c 00000000 		.word	0
 1067              		.section	.rodata.testevt2,"a",%progbits
 1068              		.align	2
 1069              		.type	testevt2, %object
ARM GAS  /tmp/ccXKUqnZ.s 			page 20


 1070              		.size	testevt2, 16
 1071              	testevt2:
 1072 0000 1C000000 		.word	.LC3
 1073 0004 00000000 		.word	evt2_setup
 1074 0008 00000000 		.word	0
 1075 000c 00000000 		.word	evt2_execute
 1076              		.section	.rodata.str1.4,"aMS",%progbits,1
 1077              		.align	2
 1078              	.LC0:
 1079 0000 41424300 		.ascii	"ABC\000"
 1080              	.LC1:
 1081 0004 4100     		.ascii	"A\000"
 1082 0006 0000     		.space	2
 1083              	.LC2:
 1084 0008 4576656E 		.ascii	"Events, timeouts\000"
 1084      74732C20 
 1084      74696D65 
 1084      6F757473 
 1084      00
 1085 0019 000000   		.space	3
 1086              	.LC3:
 1087 001c 4576656E 		.ascii	"Events, wait and broadcast\000"
 1087      74732C20 
 1087      77616974 
 1087      20616E64 
 1087      2062726F 
 1088 0037 00       		.space	1
 1089              	.LC4:
 1090 0038 4576656E 		.ascii	"Events, registration and dispatch\000"
 1090      74732C20 
 1090      72656769 
 1090      73747261 
 1090      74696F6E 
 1091 005a 0000     		.section	.rodata.testevt1,"a",%progbits
 1092              		.align	2
 1093              		.type	testevt1, %object
 1094              		.size	testevt1, 16
 1095              	testevt1:
 1096 0000 38000000 		.word	.LC4
 1097 0004 00000000 		.word	evt1_setup
 1098 0008 00000000 		.word	0
 1099 000c 00000000 		.word	evt1_execute
 1100              		.section	.rodata.evhndl,"a",%progbits
 1101              		.align	2
 1102              		.set	.LANCHOR1,. + 0
 1103              		.type	evhndl, %object
 1104              		.size	evhndl, 12
 1105              	evhndl:
 1106 0000 00000000 		.word	h1
 1107 0004 00000000 		.word	h2
 1108 0008 00000000 		.word	h3
 1109              		.section	.rodata.testevt3,"a",%progbits
 1110              		.align	2
 1111              		.type	testevt3, %object
 1112              		.size	testevt3, 16
 1113              	testevt3:
 1114 0000 08000000 		.word	.LC2
ARM GAS  /tmp/ccXKUqnZ.s 			page 21


 1115 0004 00000000 		.word	evt3_setup
 1116 0008 00000000 		.word	0
 1117 000c 00000000 		.word	evt3_execute
 1118              		.section	.data.es1,"aw",%progbits
 1119              		.align	2
 1120              		.set	.LANCHOR0,. + 0
 1121              		.type	es1, %object
 1122              		.size	es1, 4
 1123              	es1:
 1124 0000 00000000 		.word	es1
 1125              		.section	.data.es2,"aw",%progbits
 1126              		.align	2
 1127              		.set	.LANCHOR2,. + 0
 1128              		.type	es2, %object
 1129              		.size	es2, 4
 1130              	es2:
 1131 0000 00000000 		.word	es2
 1132              		.text
 1133              	.Letext0:
 1134              		.file 6 "/nfs/nfs5/home/research/hardware/arm2/gcc-arm-embedded/gcc-arm-none-eabi-4_8-2014q2/lib/g
 1135              		.file 7 "/nfs/nfs5/home/research/hardware/arm2/gcc-arm-embedded/gcc-arm-none-eabi-4_8-2014q2/arm-n
 1136              		.file 8 "/nfs/nfs5/home/research/hardware/arm2/gcc-arm-embedded/gcc-arm-none-eabi-4_8-2014q2/arm-n
 1137              		.file 9 "../ChibiOS/os/rt/ports/ARMCMx/compilers/GCC/chtypes.h"
 1138              		.file 10 "../ChibiOS/os/rt/include/chsystypes.h"
 1139              		.file 11 "../ChibiOS/os/rt/include/chschd.h"
 1140              		.file 12 "../ChibiOS/os/rt/ports/ARMCMx/chcore.h"
 1141              		.file 13 "../ChibiOS/os/rt/ports/ARMCMx/chcore_v7m.h"
 1142              		.file 14 "../ChibiOS/os/hal/ports/STM32/LLD/TIMv1/stm32_tim.h"
 1143              		.file 15 "../ChibiOS/os/rt/include/chtm.h"
 1144              		.file 16 "../ChibiOS/os/rt/include/chmtx.h"
 1145              		.file 17 "../ChibiOS/test/rt/test.h"
 1146              		.file 18 "../ChibiOS/os/rt/ports/ARMCMx/chcore_timer.h"
 1147              		.file 19 "../ChibiOS/os/rt/include/chsys.h"
 1148              		.file 20 "../ChibiOS/os/rt/include/chvt.h"
 1149              		.file 21 "../ChibiOS/os/ext/CMSIS/include/core_cm4.h"