ARM GAS  /tmp/ccnOECIF.s 			page 1


   1              		.syntax unified
   2              		.cpu cortex-m4
   3              		.fpu softvfp
   4              		.eabi_attribute 20, 1
   5              		.eabi_attribute 21, 1
   6              		.eabi_attribute 23, 3
   7              		.eabi_attribute 24, 1
   8              		.eabi_attribute 25, 1
   9              		.eabi_attribute 26, 1
  10              		.eabi_attribute 30, 2
  11              		.eabi_attribute 34, 1
  12              		.eabi_attribute 18, 4
  13              		.thumb
  14              		.file	"testmbox.c"
  15              		.text
  16              	.Ltext0:
  17              		.cfi_sections	.debug_frame
  18              		.section	.text.mbox1_execute,"ax",%progbits
  19              		.align	2
  20              		.p2align 4,,15
  21              		.thumb
  22              		.thumb_func
  23              		.type	mbox1_execute, %function
  24              	mbox1_execute:
  25              	.LFB227:
  26              		.file 1 "../ChibiOS/test/rt/testmbox.c"
  27              		.loc 1 76 0
  28              		.cfi_startproc
  29              		@ args = 0, pretend = 0, frame = 8
  30              		@ frame_needed = 0, uses_anonymous_args = 0
  31              	.LVL0:
  32 0000 2DE9F041 		push	{r4, r5, r6, r7, r8, lr}
  33              		.cfi_def_cfa_offset 24
  34              		.cfi_offset 4, -24
  35              		.cfi_offset 5, -20
  36              		.cfi_offset 6, -16
  37              		.cfi_offset 7, -12
  38              		.cfi_offset 8, -8
  39              		.cfi_offset 14, -4
  40              	.LBB335:
  41              	.LBB336:
  42              	.LBB337:
  43              	.LBB338:
  44              		.file 2 "../ChibiOS/os/ext/CMSIS/include/core_cmFunc.h"
  45              		.loc 2 546 0
  46 0004 2023     		movs	r3, #32
  47              	.LBE338:
  48              	.LBE337:
  49              	.LBE336:
  50              	.LBE335:
  51              		.loc 1 76 0
  52 0006 82B0     		sub	sp, sp, #8
  53              		.cfi_def_cfa_offset 32
  54              	.LBB342:
  55              	.LBB341:
  56              	.LBB340:
  57              	.LBB339:
ARM GAS  /tmp/ccnOECIF.s 			page 2


  58              		.loc 2 546 0
  59              	@ 546 "../ChibiOS/os/ext/CMSIS/include/core_cmFunc.h" 1
  60 0008 83F31188 		MSR basepri, r3
  61              	@ 0 "" 2
  62              	.LVL1:
  63              		.thumb
  64              	.LBE339:
  65              	.LBE340:
  66              	.LBE341:
  67              	.LBE342:
  68              		.file 3 "../ChibiOS/os/rt/include/chmboxes.h"
  69              		.loc 3 159 0
  70 000c 9B4E     		ldr	r6, .L36
  71              		.loc 1 83 0
  72 000e 716A     		ldr	r1, [r6, #36]
  73 0010 B1F1050E 		subs	lr, r1, #5
  74 0014 DEF10001 		rsbs	r1, lr, #0
  75 0018 51EB0E01 		adcs	r1, r1, lr
  76 001c 0120     		movs	r0, #1
  77 001e FFF7FEFF 		bl	_test_assert
  78              	.LVL2:
  79 0022 0028     		cmp	r0, #0
  80 0024 40F02381 		bne	.L31
  81              	.LVL3:
  82              	.LBB343:
  83              	.LBB344:
  84              	.LBB345:
  85              	.LBB346:
  86              	.LBB347:
  87              		.loc 2 546 0
  88              	@ 546 "../ChibiOS/os/ext/CMSIS/include/core_cmFunc.h" 1
  89 0028 80F31188 		MSR basepri, r0
  90              	@ 0 "" 2
  91              	.LVL4:
  92              		.thumb
  93 002c 4224     		movs	r4, #66
  94              	.LVL5:
  95              	.L6:
  96              	.LBE347:
  97              	.LBE346:
  98              	.LBE345:
  99              	.LBE344:
 100              	.LBE343:
 101              		.loc 1 89 0
 102 002e 934D     		ldr	r5, .L36
 103 0030 2146     		mov	r1, r4
 104 0032 2846     		mov	r0, r5
 105 0034 4FF0FF32 		mov	r2, #-1
 106 0038 FFF7FEFF 		bl	chMBPost
 107              	.LVL6:
 108              		.loc 1 90 0
 109 003c D0F10101 		rsbs	r1, r0, #1
 110 0040 38BF     		it	cc
 111 0042 0021     		movcc	r1, #0
 112 0044 0220     		movs	r0, #2
 113              	.LVL7:
 114 0046 0134     		adds	r4, r4, #1
ARM GAS  /tmp/ccnOECIF.s 			page 3


 115              	.LVL8:
 116 0048 FFF7FEFF 		bl	_test_assert
 117              	.LVL9:
 118 004c 88B9     		cbnz	r0, .L1
 119              		.loc 1 88 0
 120 004e 462C     		cmp	r4, #70
 121 0050 EDD1     		bne	.L6
 122              		.loc 1 92 0
 123 0052 4121     		movs	r1, #65
 124 0054 2846     		mov	r0, r5
 125 0056 4FF0FF32 		mov	r2, #-1
 126 005a FFF7FEFF 		bl	chMBPostAhead
 127              	.LVL10:
 128              		.loc 1 93 0
 129 005e D0F10101 		rsbs	r1, r0, #1
 130 0062 38BF     		it	cc
 131 0064 0021     		movcc	r1, #0
 132 0066 0320     		movs	r0, #3
 133              	.LVL11:
 134 0068 FFF7FEFF 		bl	_test_assert
 135              	.LVL12:
 136 006c 0028     		cmp	r0, #0
 137 006e 00F00981 		beq	.L33
 138              	.LVL13:
 139              	.L1:
 140              		.loc 1 220 0
 141 0072 02B0     		add	sp, sp, #8
 142              		@ sp needed
 143 0074 BDE8F081 		pop	{r4, r5, r6, r7, r8, pc}
 144              	.LVL14:
 145              	.L17:
 146              	.LBB348:
 147              	.LBB349:
 148              	.LBB350:
 149              	.LBB351:
 150              	.LBB352:
 151              		.loc 2 546 0
 152              	@ 546 "../ChibiOS/os/ext/CMSIS/include/core_cmFunc.h" 1
 153 0078 85F31188 		MSR basepri, r5
 154              	@ 0 "" 2
 155              	.LVL15:
 156              		.thumb
 157              	.LBE352:
 158              	.LBE351:
 159              	.LBE350:
 160              	.LBE349:
 161              	.LBE348:
 162              	.LBB353:
 163              	.LBB354:
 164              	.LBB355:
 165              	.LBB356:
 166              	@ 546 "../ChibiOS/os/ext/CMSIS/include/core_cmFunc.h" 1
 167 007c 86F31188 		MSR basepri, r6
 168              	@ 0 "" 2
 169              	.LVL16:
 170              		.thumb
 171              	.LBE356:
ARM GAS  /tmp/ccnOECIF.s 			page 4


 172              	.LBE355:
 173              	.LBE354:
 174              	.LBE353:
 175              		.loc 1 180 0
 176 0080 A169     		ldr	r1, [r4, #24]
 177 0082 D1F10101 		rsbs	r1, r1, #1
 178 0086 38BF     		it	cc
 179 0088 0021     		movcc	r1, #0
 180 008a 1F20     		movs	r0, #31
 181 008c FFF7FEFF 		bl	_test_assert
 182              	.LVL17:
 183 0090 0028     		cmp	r0, #0
 184 0092 40F0B682 		bne	.L30
 185              	.LVL18:
 186              	.LBB357:
 187              	.LBB358:
 188              	.LBB359:
 189              	.LBB360:
 190              	.LBB361:
 191              		.loc 2 546 0
 192              	@ 546 "../ChibiOS/os/ext/CMSIS/include/core_cmFunc.h" 1
 193 0096 85F31188 		MSR basepri, r5
 194              	@ 0 "" 2
 195              		.thumb
 196              	.LBE361:
 197              	.LBE360:
 198              	.LBE359:
 199              	.LBE358:
 200              	.LBE357:
 201              		.loc 1 181 0
 202 009a E168     		ldr	r1, [r4, #12]
 203 009c A368     		ldr	r3, [r4, #8]
 204 009e CA1A     		subs	r2, r1, r3
 205 00a0 5142     		rsbs	r1, r2, #0
 206 00a2 5141     		adcs	r1, r1, r2
 207 00a4 3046     		mov	r0, r6
 208 00a6 FFF7FEFF 		bl	_test_assert
 209              	.LVL19:
 210 00aa 0028     		cmp	r0, #0
 211 00ac E1D1     		bne	.L1
 212              	.LVL20:
 213              	.LBB362:
 214              	.LBB363:
 215              	.LBB364:
 216              	.LBB365:
 217              		.loc 2 546 0
 218              	@ 546 "../ChibiOS/os/ext/CMSIS/include/core_cmFunc.h" 1
 219 00ae 86F31188 		MSR basepri, r6
 220              	@ 0 "" 2
 221              		.thumb
 222              	.LBE365:
 223              	.LBE364:
 224              	.LBE363:
 225              	.LBE362:
 226              		.loc 1 184 0
 227 00b2 4521     		movs	r1, #69
 228 00b4 2046     		mov	r0, r4
ARM GAS  /tmp/ccnOECIF.s 			page 5


 229 00b6 FFF7FEFF 		bl	chMBPostAheadI
 230              	.LVL21:
 231              		.loc 1 185 0
 232 00ba D0F10101 		rsbs	r1, r0, #1
 233 00be 38BF     		it	cc
 234 00c0 0021     		movcc	r1, #0
 235 00c2 2120     		movs	r0, #33
 236              	.LVL22:
 237 00c4 FFF7FEFF 		bl	_test_assert
 238              	.LVL23:
 239 00c8 0028     		cmp	r0, #0
 240 00ca D2D1     		bne	.L1
 241              		.loc 1 186 0
 242 00cc 4421     		movs	r1, #68
 243 00ce 2046     		mov	r0, r4
 244 00d0 FFF7FEFF 		bl	chMBPostAheadI
 245              	.LVL24:
 246              		.loc 1 187 0
 247 00d4 D0F10101 		rsbs	r1, r0, #1
 248 00d8 38BF     		it	cc
 249 00da 0021     		movcc	r1, #0
 250 00dc 2220     		movs	r0, #34
 251              	.LVL25:
 252 00de FFF7FEFF 		bl	_test_assert
 253              	.LVL26:
 254 00e2 0028     		cmp	r0, #0
 255 00e4 C5D1     		bne	.L1
 256              		.loc 1 188 0
 257 00e6 4321     		movs	r1, #67
 258 00e8 2046     		mov	r0, r4
 259 00ea FFF7FEFF 		bl	chMBPostAheadI
 260              	.LVL27:
 261              		.loc 1 189 0
 262 00ee D0F10101 		rsbs	r1, r0, #1
 263 00f2 38BF     		it	cc
 264 00f4 0021     		movcc	r1, #0
 265 00f6 2320     		movs	r0, #35
 266              	.LVL28:
 267 00f8 FFF7FEFF 		bl	_test_assert
 268              	.LVL29:
 269 00fc 0028     		cmp	r0, #0
 270 00fe B8D1     		bne	.L1
 271              		.loc 1 190 0
 272 0100 4221     		movs	r1, #66
 273 0102 2046     		mov	r0, r4
 274 0104 FFF7FEFF 		bl	chMBPostAheadI
 275              	.LVL30:
 276              		.loc 1 191 0
 277 0108 D0F10101 		rsbs	r1, r0, #1
 278 010c 38BF     		it	cc
 279 010e 0021     		movcc	r1, #0
 280 0110 2420     		movs	r0, #36
 281              	.LVL31:
 282 0112 FFF7FEFF 		bl	_test_assert
 283              	.LVL32:
 284 0116 0028     		cmp	r0, #0
 285 0118 ABD1     		bne	.L1
ARM GAS  /tmp/ccnOECIF.s 			page 6


 286              		.loc 1 192 0
 287 011a 584C     		ldr	r4, .L36
 288 011c 4121     		movs	r1, #65
 289 011e 2046     		mov	r0, r4
 290 0120 FFF7FEFF 		bl	chMBPostAheadI
 291              	.LVL33:
 292              	.LBB366:
 293              	.LBB367:
 294              	.LBB368:
 295              	.LBB369:
 296              	.LBB370:
 297              		.loc 2 546 0
 298 0124 0023     		movs	r3, #0
 299              	.LBE370:
 300              	.LBE369:
 301              	.LBE368:
 302              	.LBE367:
 303              	.LBE366:
 304              		.loc 1 192 0
 305 0126 0146     		mov	r1, r0
 306              	.LVL34:
 307              	.LBB375:
 308              	.LBB374:
 309              	.LBB373:
 310              	.LBB372:
 311              	.LBB371:
 312              		.loc 2 546 0
 313              	@ 546 "../ChibiOS/os/ext/CMSIS/include/core_cmFunc.h" 1
 314 0128 83F31188 		MSR basepri, r3
 315              	@ 0 "" 2
 316              		.thumb
 317              	.LBE371:
 318              	.LBE372:
 319              	.LBE373:
 320              	.LBE374:
 321              	.LBE375:
 322              		.loc 1 194 0
 323 012c CB1A     		subs	r3, r1, r3
 324 012e 5942     		rsbs	r1, r3, #0
 325 0130 5941     		adcs	r1, r1, r3
 326 0132 2520     		movs	r0, #37
 327              	.LVL35:
 328 0134 FFF7FEFF 		bl	_test_assert
 329              	.LVL36:
 330 0138 0028     		cmp	r0, #0
 331 013a 9AD1     		bne	.L1
 332              		.loc 1 195 0
 333 013c E168     		ldr	r1, [r4, #12]
 334 013e A368     		ldr	r3, [r4, #8]
 335 0140 B1EB0308 		subs	r8, r1, r3
 336 0144 D8F10001 		rsbs	r1, r8, #0
 337 0148 51EB0801 		adcs	r1, r1, r8
 338 014c 2620     		movs	r0, #38
 339 014e FFF7FEFF 		bl	_test_assert
 340              	.LVL37:
 341 0152 0028     		cmp	r0, #0
 342 0154 8DD1     		bne	.L1
ARM GAS  /tmp/ccnOECIF.s 			page 7


 343              	.LBB376:
 344              	.LBB377:
 345              	.LBB378:
 346              	.LBB379:
 347              	.LBB380:
 348              		.loc 2 546 0
 349 0156 8046     		mov	r8, r0
 350              	.LBE380:
 351              	.LBE379:
 352              	.LBE378:
 353              	.LBE377:
 354              	.LBE376:
 355              		.loc 1 195 0
 356 0158 0524     		movs	r4, #5
 357              	.LBB385:
 358              	.LBB386:
 359              	.LBB387:
 360              	.LBB388:
 361              		.loc 2 546 0
 362 015a 2027     		movs	r7, #32
 363              	.LVL38:
 364              	.L20:
 365 015c 2026     		movs	r6, #32
 366              	@ 546 "../ChibiOS/os/ext/CMSIS/include/core_cmFunc.h" 1
 367 015e 87F31188 		MSR basepri, r7
 368              	@ 0 "" 2
 369              		.thumb
 370              	.LBE388:
 371              	.LBE387:
 372              	.LBE386:
 373              	.LBE385:
 374              		.loc 1 198 0
 375 0162 464D     		ldr	r5, .L36
 376 0164 01A9     		add	r1, sp, #4
 377 0166 2846     		mov	r0, r5
 378 0168 FFF7FEFF 		bl	chMBFetchI
 379              	.LVL39:
 380 016c 0146     		mov	r1, r0
 381              	.LVL40:
 382              	.LBB389:
 383              	.LBB384:
 384              	.LBB383:
 385              	.LBB382:
 386              	.LBB381:
 387              		.loc 2 546 0
 388              	@ 546 "../ChibiOS/os/ext/CMSIS/include/core_cmFunc.h" 1
 389 016e 88F31188 		MSR basepri, r8
 390              	@ 0 "" 2
 391              		.thumb
 392              	.LBE381:
 393              	.LBE382:
 394              	.LBE383:
 395              	.LBE384:
 396              	.LBE389:
 397              		.loc 1 200 0
 398 0172 D1F10101 		rsbs	r1, r1, #1
 399 0176 38BF     		it	cc
ARM GAS  /tmp/ccnOECIF.s 			page 8


 400 0178 0021     		movcc	r1, #0
 401 017a 2720     		movs	r0, #39
 402              	.LVL41:
 403 017c FFF7FEFF 		bl	_test_assert
 404              	.LVL42:
 405 0180 0028     		cmp	r0, #0
 406 0182 7FF476AF 		bne	.L1
 407              		.loc 1 201 0
 408 0186 9DF80400 		ldrb	r0, [sp, #4]	@ zero_extendqisi2
 409 018a FFF7FEFF 		bl	test_emit_token
 410              	.LVL43:
 411              		.loc 1 196 0
 412 018e 013C     		subs	r4, r4, #1
 413              	.LVL44:
 414 0190 E4D1     		bne	.L20
 415              		.loc 1 203 0
 416 0192 2820     		movs	r0, #40
 417 0194 3A49     		ldr	r1, .L36+4
 418 0196 FFF7FEFF 		bl	_test_assert_sequence
 419              	.LVL45:
 420 019a 0028     		cmp	r0, #0
 421 019c 7FF469AF 		bne	.L1
 422              	.LVL46:
 423              	.LBB390:
 424              	.LBB391:
 425              	.LBB392:
 426              	.LBB393:
 427              		.loc 2 546 0
 428              	@ 546 "../ChibiOS/os/ext/CMSIS/include/core_cmFunc.h" 1
 429 01a0 86F31188 		MSR basepri, r6
 430              	@ 0 "" 2
 431              	.LVL47:
 432              		.thumb
 433              	.LBE393:
 434              	.LBE392:
 435              	.LBE391:
 436              	.LBE390:
 437              		.loc 1 204 0
 438 01a4 696A     		ldr	r1, [r5, #36]
 439 01a6 B1F1050C 		subs	ip, r1, #5
 440 01aa DCF10001 		rsbs	r1, ip, #0
 441 01ae 51EB0C01 		adcs	r1, r1, ip
 442 01b2 2920     		movs	r0, #41
 443 01b4 FFF7FEFF 		bl	_test_assert
 444              	.LVL48:
 445 01b8 0028     		cmp	r0, #0
 446 01ba 40F0CB80 		bne	.L29
 447              	.LVL49:
 448              	.LBB394:
 449              	.LBB395:
 450              	.LBB396:
 451              	.LBB397:
 452              	.LBB398:
 453              		.loc 2 546 0
 454              	@ 546 "../ChibiOS/os/ext/CMSIS/include/core_cmFunc.h" 1
 455 01be 84F31188 		MSR basepri, r4
 456              	@ 0 "" 2
ARM GAS  /tmp/ccnOECIF.s 			page 9


 457              	.LVL50:
 458              		.thumb
 459              	.LBE398:
 460              	.LBE397:
 461              	.LBE396:
 462              	.LBE395:
 463              	.LBE394:
 464              	.LBB399:
 465              	.LBB400:
 466              	.LBB401:
 467              	.LBB402:
 468              	@ 546 "../ChibiOS/os/ext/CMSIS/include/core_cmFunc.h" 1
 469 01c2 86F31188 		MSR basepri, r6
 470              	@ 0 "" 2
 471              	.LVL51:
 472              		.thumb
 473              	.LBE402:
 474              	.LBE401:
 475              	.LBE400:
 476              	.LBE399:
 477              		.loc 1 205 0
 478 01c6 A969     		ldr	r1, [r5, #24]
 479 01c8 D1F10101 		rsbs	r1, r1, #1
 480 01cc 38BF     		it	cc
 481 01ce 0021     		movcc	r1, #0
 482 01d0 2A20     		movs	r0, #42
 483 01d2 FFF7FEFF 		bl	_test_assert
 484              	.LVL52:
 485 01d6 0028     		cmp	r0, #0
 486 01d8 40F0BC80 		bne	.L29
 487              	.LVL53:
 488              	.LBB403:
 489              	.LBB404:
 490              	.LBB405:
 491              	.LBB406:
 492              	.LBB407:
 493              		.loc 2 546 0
 494              	@ 546 "../ChibiOS/os/ext/CMSIS/include/core_cmFunc.h" 1
 495 01dc 84F31188 		MSR basepri, r4
 496              	@ 0 "" 2
 497              		.thumb
 498              	.LBE407:
 499              	.LBE406:
 500              	.LBE405:
 501              	.LBE404:
 502              	.LBE403:
 503              		.loc 1 206 0
 504 01e0 E968     		ldr	r1, [r5, #12]
 505 01e2 AB68     		ldr	r3, [r5, #8]
 506 01e4 B1EB030E 		subs	lr, r1, r3
 507 01e8 DEF10001 		rsbs	r1, lr, #0
 508 01ec 51EB0E01 		adcs	r1, r1, lr
 509 01f0 2B20     		movs	r0, #43
 510 01f2 FFF7FEFF 		bl	_test_assert
 511              	.LVL54:
 512 01f6 0028     		cmp	r0, #0
 513 01f8 7FF43BAF 		bne	.L1
ARM GAS  /tmp/ccnOECIF.s 			page 10


 514              		.loc 1 211 0
 515 01fc 2846     		mov	r0, r5
 516 01fe FFF7FEFF 		bl	chMBReset
 517              	.LVL55:
 518              	.LBB408:
 519              	.LBB409:
 520              	.LBB410:
 521              	.LBB411:
 522              		.loc 2 546 0
 523              	@ 546 "../ChibiOS/os/ext/CMSIS/include/core_cmFunc.h" 1
 524 0202 86F31188 		MSR basepri, r6
 525              	@ 0 "" 2
 526              	.LVL56:
 527              		.thumb
 528              	.LBE411:
 529              	.LBE410:
 530              	.LBE409:
 531              	.LBE408:
 532              		.loc 1 216 0
 533 0206 696A     		ldr	r1, [r5, #36]
 534 0208 4F1F     		subs	r7, r1, #5
 535 020a 7942     		rsbs	r1, r7, #0
 536 020c 7941     		adcs	r1, r1, r7
 537 020e 2C20     		movs	r0, #44
 538 0210 FFF7FEFF 		bl	_test_assert
 539              	.LVL57:
 540 0214 0028     		cmp	r0, #0
 541 0216 40F09D80 		bne	.L29
 542              	.LVL58:
 543              	.LBB412:
 544              	.LBB413:
 545              	.LBB414:
 546              	.LBB415:
 547              	.LBB416:
 548              		.loc 2 546 0
 549              	@ 546 "../ChibiOS/os/ext/CMSIS/include/core_cmFunc.h" 1
 550 021a 84F31188 		MSR basepri, r4
 551              	@ 0 "" 2
 552              	.LVL59:
 553              		.thumb
 554              	.LBE416:
 555              	.LBE415:
 556              	.LBE414:
 557              	.LBE413:
 558              	.LBE412:
 559              	.LBB417:
 560              	.LBB418:
 561              	.LBB419:
 562              	.LBB420:
 563              	@ 546 "../ChibiOS/os/ext/CMSIS/include/core_cmFunc.h" 1
 564 021e 86F31188 		MSR basepri, r6
 565              	@ 0 "" 2
 566              	.LVL60:
 567              		.thumb
 568              	.LBE420:
 569              	.LBE419:
 570              	.LBE418:
ARM GAS  /tmp/ccnOECIF.s 			page 11


 571              	.LBE417:
 572              		.loc 1 217 0
 573 0222 A969     		ldr	r1, [r5, #24]
 574 0224 D1F10101 		rsbs	r1, r1, #1
 575 0228 38BF     		it	cc
 576 022a 0021     		movcc	r1, #0
 577 022c 2D20     		movs	r0, #45
 578 022e FFF7FEFF 		bl	_test_assert
 579              	.LVL61:
 580 0232 0028     		cmp	r0, #0
 581 0234 40F08E80 		bne	.L29
 582              	.LVL62:
 583              	.LBB421:
 584              	.LBB422:
 585              	.LBB423:
 586              	.LBB424:
 587              	.LBB425:
 588              		.loc 2 546 0
 589              	@ 546 "../ChibiOS/os/ext/CMSIS/include/core_cmFunc.h" 1
 590 0238 84F31188 		MSR basepri, r4
 591              	@ 0 "" 2
 592              	.LVL63:
 593              		.thumb
 594              	.LBE425:
 595              	.LBE424:
 596              	.LBE423:
 597              	.LBE422:
 598              	.LBE421:
 599              	.LBB426:
 600              	.LBB427:
 601              	.LBB428:
 602              	.LBB429:
 603              	@ 546 "../ChibiOS/os/ext/CMSIS/include/core_cmFunc.h" 1
 604 023c 86F31188 		MSR basepri, r6
 605              	@ 0 "" 2
 606              		.thumb
 607              	.LBE429:
 608              	.LBE428:
 609              	.LBE427:
 610              	.LBE426:
 611              		.loc 1 218 0
 612 0240 2968     		ldr	r1, [r5]
 613 0242 AB68     		ldr	r3, [r5, #8]
 614 0244 CA1A     		subs	r2, r1, r3
 615 0246 5142     		rsbs	r1, r2, #0
 616 0248 5141     		adcs	r1, r1, r2
 617 024a 2E20     		movs	r0, #46
 618 024c FFF7FEFF 		bl	_test_assert
 619              	.LVL64:
 620 0250 0028     		cmp	r0, #0
 621 0252 7FD1     		bne	.L29
 622              	.LVL65:
 623              	.LBB430:
 624              	.LBB431:
 625              	.LBB432:
 626              	.LBB433:
 627              	.LBB434:
ARM GAS  /tmp/ccnOECIF.s 			page 12


 628              		.loc 2 546 0
 629              	@ 546 "../ChibiOS/os/ext/CMSIS/include/core_cmFunc.h" 1
 630 0254 84F31188 		MSR basepri, r4
 631              	@ 0 "" 2
 632              	.LVL66:
 633              		.thumb
 634              	.LBE434:
 635              	.LBE433:
 636              	.LBE432:
 637              	.LBE431:
 638              	.LBE430:
 639              	.LBB435:
 640              	.LBB436:
 641              	.LBB437:
 642              	.LBB438:
 643              	@ 546 "../ChibiOS/os/ext/CMSIS/include/core_cmFunc.h" 1
 644 0258 86F31188 		MSR basepri, r6
 645              	@ 0 "" 2
 646              		.thumb
 647              	.LBE438:
 648              	.LBE437:
 649              	.LBE436:
 650              	.LBE435:
 651              		.loc 1 219 0
 652 025c 2968     		ldr	r1, [r5]
 653 025e EB68     		ldr	r3, [r5, #12]
 654 0260 CB1A     		subs	r3, r1, r3
 655 0262 5942     		rsbs	r1, r3, #0
 656 0264 4FF02F00 		mov	r0, #47
 657 0268 5941     		adcs	r1, r1, r3
 658 026a FFF7FEFF 		bl	_test_assert
 659              	.LVL67:
 660              	.L31:
 661              	.LBB439:
 662              	.LBB440:
 663              	.LBB441:
 664              	.LBB442:
 665              	.LBB443:
 666              		.loc 2 546 0
 667 026e 0023     		movs	r3, #0
 668              	.L26:
 669              	.LVL68:
 670              	.LBE443:
 671              	.LBE442:
 672              	.LBE441:
 673              	.LBE440:
 674              	.LBE439:
 675              	.LBB444:
 676              	.LBB445:
 677              	.LBB446:
 678              	.LBB447:
 679              	.LBB448:
 680              	@ 546 "../ChibiOS/os/ext/CMSIS/include/core_cmFunc.h" 1
 681 0270 83F31188 		MSR basepri, r3
 682              	@ 0 "" 2
 683              		.thumb
 684              	.LBE448:
ARM GAS  /tmp/ccnOECIF.s 			page 13


 685              	.LBE447:
 686              	.LBE446:
 687              	.LBE445:
 688              	.LBE444:
 689              		.loc 1 220 0
 690 0274 02B0     		add	sp, sp, #8
 691              		@ sp needed
 692 0276 BDE8F081 		pop	{r4, r5, r6, r7, r8, pc}
 693              	.L37:
 694 027a 00BF     		.align	2
 695              	.L36:
 696 027c 00000000 		.word	.LANCHOR0
 697 0280 00000000 		.word	.LC0
 698              	.LVL69:
 699              	.L33:
 700              		.loc 1 98 0
 701 0284 5821     		movs	r1, #88
 702 0286 0122     		movs	r2, #1
 703 0288 2846     		mov	r0, r5
 704 028a FFF7FEFF 		bl	chMBPost
 705              	.LVL70:
 706              		.loc 1 99 0
 707 028e B0F1FF37 		subs	r7, r0, #-1
 708 0292 7942     		rsbs	r1, r7, #0
 709 0294 7941     		adcs	r1, r1, r7
 710 0296 0420     		movs	r0, #4
 711              	.LVL71:
 712 0298 FFF7FEFF 		bl	_test_assert
 713              	.LVL72:
 714 029c 0446     		mov	r4, r0
 715 029e 0028     		cmp	r0, #0
 716 02a0 7FF4E7AE 		bne	.L1
 717              	.LVL73:
 718              	.LBB449:
 719              	.LBB450:
 720              	.LBB451:
 721              	.LBB452:
 722              		.loc 2 546 0
 723 02a4 2027     		movs	r7, #32
 724              	.LVL74:
 725              	@ 546 "../ChibiOS/os/ext/CMSIS/include/core_cmFunc.h" 1
 726 02a6 87F31188 		MSR basepri, r7
 727              	@ 0 "" 2
 728              		.thumb
 729              	.LBE452:
 730              	.LBE451:
 731              	.LBE450:
 732              	.LBE449:
 733              		.loc 1 101 0
 734 02aa 5821     		movs	r1, #88
 735 02ac 2846     		mov	r0, r5
 736 02ae FFF7FEFF 		bl	chMBPostI
 737              	.LVL75:
 738 02b2 0146     		mov	r1, r0
 739              	.LVL76:
 740              	.LBB453:
 741              	.LBB454:
ARM GAS  /tmp/ccnOECIF.s 			page 14


 742              	.LBB455:
 743              	.LBB456:
 744              	.LBB457:
 745              		.loc 2 546 0
 746              	@ 546 "../ChibiOS/os/ext/CMSIS/include/core_cmFunc.h" 1
 747 02b4 84F31188 		MSR basepri, r4
 748              	@ 0 "" 2
 749              		.thumb
 750              	.LBE457:
 751              	.LBE456:
 752              	.LBE455:
 753              	.LBE454:
 754              	.LBE453:
 755              		.loc 1 103 0
 756 02b8 B1F1FF34 		subs	r4, r1, #-1
 757 02bc 6142     		rsbs	r1, r4, #0
 758 02be 6141     		adcs	r1, r1, r4
 759 02c0 0520     		movs	r0, #5
 760              	.LVL77:
 761 02c2 FFF7FEFF 		bl	_test_assert
 762              	.LVL78:
 763 02c6 0028     		cmp	r0, #0
 764 02c8 7FF4D3AE 		bne	.L1
 765              		.loc 1 104 0
 766 02cc 5821     		movs	r1, #88
 767 02ce 0122     		movs	r2, #1
 768 02d0 2846     		mov	r0, r5
 769 02d2 FFF7FEFF 		bl	chMBPostAhead
 770              	.LVL79:
 771              		.loc 1 105 0
 772 02d6 B0F1FF32 		subs	r2, r0, #-1
 773 02da 5142     		rsbs	r1, r2, #0
 774 02dc 5141     		adcs	r1, r1, r2
 775 02de 0620     		movs	r0, #6
 776              	.LVL80:
 777 02e0 FFF7FEFF 		bl	_test_assert
 778              	.LVL81:
 779 02e4 0446     		mov	r4, r0
 780 02e6 0028     		cmp	r0, #0
 781 02e8 7FF4C3AE 		bne	.L1
 782              	.LVL82:
 783              	.LBB458:
 784              	.LBB459:
 785              	.LBB460:
 786              	.LBB461:
 787              		.loc 2 546 0
 788              	@ 546 "../ChibiOS/os/ext/CMSIS/include/core_cmFunc.h" 1
 789 02ec 87F31188 		MSR basepri, r7
 790              	@ 0 "" 2
 791              		.thumb
 792              	.LBE461:
 793              	.LBE460:
 794              	.LBE459:
 795              	.LBE458:
 796              		.loc 1 107 0
 797 02f0 5821     		movs	r1, #88
 798 02f2 2846     		mov	r0, r5
ARM GAS  /tmp/ccnOECIF.s 			page 15


 799 02f4 FFF7FEFF 		bl	chMBPostAheadI
 800              	.LVL83:
 801 02f8 0146     		mov	r1, r0
 802              	.LVL84:
 803              	.LBB462:
 804              	.LBB463:
 805              	.LBB464:
 806              	.LBB465:
 807              	.LBB466:
 808              		.loc 2 546 0
 809              	@ 546 "../ChibiOS/os/ext/CMSIS/include/core_cmFunc.h" 1
 810 02fa 84F31188 		MSR basepri, r4
 811              	@ 0 "" 2
 812              		.thumb
 813              	.LBE466:
 814              	.LBE465:
 815              	.LBE464:
 816              	.LBE463:
 817              	.LBE462:
 818              		.loc 1 109 0
 819 02fe B1F1FF33 		subs	r3, r1, #-1
 820 0302 5942     		rsbs	r1, r3, #0
 821 0304 4FF00700 		mov	r0, #7
 822              	.LVL85:
 823 0308 5941     		adcs	r1, r1, r3
 824 030a FFF7FEFF 		bl	_test_assert
 825              	.LVL86:
 826 030e 8046     		mov	r8, r0
 827 0310 0028     		cmp	r0, #0
 828 0312 7FF4AEAE 		bne	.L1
 829              	.LVL87:
 830              	.LBB467:
 831              	.LBB468:
 832              	.LBB469:
 833              	.LBB470:
 834              		.loc 2 546 0
 835              	@ 546 "../ChibiOS/os/ext/CMSIS/include/core_cmFunc.h" 1
 836 0316 87F31188 		MSR basepri, r7
 837              	@ 0 "" 2
 838              	.LVL88:
 839              		.thumb
 840              	.LBE470:
 841              	.LBE469:
 842              	.LBE468:
 843              	.LBE467:
 844              		.loc 1 114 0
 845 031a 696A     		ldr	r1, [r5, #36]
 846 031c D1F10101 		rsbs	r1, r1, #1
 847 0320 4FF00800 		mov	r0, #8
 848 0324 38BF     		it	cc
 849 0326 0021     		movcc	r1, #0
 850 0328 FFF7FEFF 		bl	_test_assert
 851              	.LVL89:
 852 032c 0446     		mov	r4, r0
 853 032e 10B1     		cbz	r0, .L7
 854              	.LVL90:
 855              	.LBB471:
ARM GAS  /tmp/ccnOECIF.s 			page 16


 856              	.LBB472:
 857              	.LBB473:
 858              	.LBB474:
 859              	.LBB475:
 860              		.loc 2 546 0
 861              	@ 546 "../ChibiOS/os/ext/CMSIS/include/core_cmFunc.h" 1
 862 0330 88F31188 		MSR basepri, r8
 863              	@ 0 "" 2
 864              		.thumb
 865 0334 9DE6     		b	.L1
 866              	.LVL91:
 867              	.L7:
 868              	.LBE475:
 869              	.LBE474:
 870              	.LBE473:
 871              	.LBE472:
 872              	.LBE471:
 873              	.LBB476:
 874              	.LBB477:
 875              	.LBB478:
 876              	.LBB479:
 877              	.LBB480:
 878              	@ 546 "../ChibiOS/os/ext/CMSIS/include/core_cmFunc.h" 1
 879 0336 80F31188 		MSR basepri, r0
 880              	@ 0 "" 2
 881              	.LVL92:
 882              		.thumb
 883              	.LBE480:
 884              	.LBE479:
 885              	.LBE478:
 886              	.LBE477:
 887              	.LBE476:
 888              	.LBB481:
 889              	.LBB482:
 890              	.LBB483:
 891              	.LBB484:
 892              	@ 546 "../ChibiOS/os/ext/CMSIS/include/core_cmFunc.h" 1
 893 033a 87F31188 		MSR basepri, r7
 894              	@ 0 "" 2
 895              	.LVL93:
 896              		.thumb
 897              	.LBE484:
 898              	.LBE483:
 899              	.LBE482:
 900              	.LBE481:
 901              		.loc 1 115 0
 902 033e A969     		ldr	r1, [r5, #24]
 903 0340 B1F10508 		subs	r8, r1, #5
 904 0344 D8F10001 		rsbs	r1, r8, #0
 905 0348 51EB0801 		adcs	r1, r1, r8
 906 034c 0920     		movs	r0, #9
 907 034e FFF7FEFF 		bl	_test_assert
 908              	.LVL94:
 909 0352 10B1     		cbz	r0, .L8
 910              	.LVL95:
 911              	.L29:
 912              	.LBB485:
ARM GAS  /tmp/ccnOECIF.s 			page 17


 913              	.LBB486:
 914              	.LBB487:
 915              	.LBB488:
 916              	.LBB489:
 917              		.loc 2 546 0
 918              	@ 546 "../ChibiOS/os/ext/CMSIS/include/core_cmFunc.h" 1
 919 0354 84F31188 		MSR basepri, r4
 920              	@ 0 "" 2
 921              		.thumb
 922 0358 8BE6     		b	.L1
 923              	.LVL96:
 924              	.L8:
 925              	.LBE489:
 926              	.LBE488:
 927              	.LBE487:
 928              	.LBE486:
 929              	.LBE485:
 930              	.LBB490:
 931              	.LBB491:
 932              	.LBB492:
 933              	.LBB493:
 934              	.LBB494:
 935              	@ 546 "../ChibiOS/os/ext/CMSIS/include/core_cmFunc.h" 1
 936 035a 80F31188 		MSR basepri, r0
 937              	@ 0 "" 2
 938              	.LVL97:
 939              		.thumb
 940              	.LBE494:
 941              	.LBE493:
 942              	.LBE492:
 943              	.LBE491:
 944              	.LBE490:
 945              	.LBB495:
 946              	.LBB496:
 947              	.LBB497:
 948              	.LBB498:
 949              	@ 546 "../ChibiOS/os/ext/CMSIS/include/core_cmFunc.h" 1
 950 035e 87F31188 		MSR basepri, r7
 951              	@ 0 "" 2
 952              		.thumb
 953              	.LBE498:
 954              	.LBE497:
 955              	.LBE496:
 956              	.LBE495:
 957              		.loc 1 116 0
 958 0362 E968     		ldr	r1, [r5, #12]
 959 0364 AB68     		ldr	r3, [r5, #8]
 960 0366 B1EB030C 		subs	ip, r1, r3
 961 036a DCF10001 		rsbs	r1, ip, #0
 962 036e 4FF00A00 		mov	r0, #10
 963 0372 51EB0C01 		adcs	r1, r1, ip
 964 0376 FFF7FEFF 		bl	_test_assert
 965              	.LVL98:
 966              	.LBB499:
 967              	.LBB500:
 968              	.LBB501:
 969              	.LBB502:
ARM GAS  /tmp/ccnOECIF.s 			page 18


 970              	.LBB503:
 971              		.loc 2 546 0
 972 037a 0023     		movs	r3, #0
 973              	.LBE503:
 974              	.LBE502:
 975              	.LBE501:
 976              	.LBE500:
 977              	.LBE499:
 978              		.loc 1 116 0
 979 037c 0028     		cmp	r0, #0
 980 037e 7FF477AF 		bne	.L26
 981              	.LVL99:
 982              	.LBB504:
 983              	.LBB505:
 984              	.LBB506:
 985              	.LBB507:
 986              	.LBB508:
 987              		.loc 2 546 0
 988              	@ 546 "../ChibiOS/os/ext/CMSIS/include/core_cmFunc.h" 1
 989 0382 83F31188 		MSR basepri, r3
 990              	@ 0 "" 2
 991              	.LVL100:
 992              		.thumb
 993 0386 0525     		movs	r5, #5
 994 0388 05E0     		b	.L11
 995              	.LVL101:
 996              	.L35:
 997              	.LBE508:
 998              	.LBE507:
 999              	.LBE506:
 1000              	.LBE505:
 1001              	.LBE504:
 1002              		.loc 1 124 0
 1003 038a 9DF80400 		ldrb	r0, [sp, #4]	@ zero_extendqisi2
 1004 038e FFF7FEFF 		bl	test_emit_token
 1005              	.LVL102:
 1006              		.loc 1 121 0
 1007 0392 013D     		subs	r5, r5, #1
 1008              	.LVL103:
 1009 0394 10D0     		beq	.L34
 1010              	.LVL104:
 1011              	.L11:
 1012              		.loc 1 122 0
 1013 0396 9C4C     		ldr	r4, .L38
 1014 0398 01A9     		add	r1, sp, #4
 1015 039a 2046     		mov	r0, r4
 1016 039c 4FF0FF32 		mov	r2, #-1
 1017 03a0 FFF7FEFF 		bl	chMBFetch
 1018              	.LVL105:
 1019              		.loc 1 123 0
 1020 03a4 D0F10101 		rsbs	r1, r0, #1
 1021 03a8 38BF     		it	cc
 1022 03aa 0021     		movcc	r1, #0
 1023 03ac 0B20     		movs	r0, #11
 1024              	.LVL106:
 1025 03ae FFF7FEFF 		bl	_test_assert
 1026              	.LVL107:
ARM GAS  /tmp/ccnOECIF.s 			page 19


 1027 03b2 0028     		cmp	r0, #0
 1028 03b4 E9D0     		beq	.L35
 1029 03b6 5CE6     		b	.L1
 1030              	.L34:
 1031              		.loc 1 126 0
 1032 03b8 0C20     		movs	r0, #12
 1033 03ba 9449     		ldr	r1, .L38+4
 1034 03bc FFF7FEFF 		bl	_test_assert_sequence
 1035              	.LVL108:
 1036 03c0 0028     		cmp	r0, #0
 1037 03c2 7FF456AE 		bne	.L1
 1038              		.loc 1 131 0
 1039 03c6 4721     		movs	r1, #71
 1040 03c8 2046     		mov	r0, r4
 1041 03ca 4FF0FF32 		mov	r2, #-1
 1042 03ce FFF7FEFF 		bl	chMBPost
 1043              	.LVL109:
 1044              		.loc 1 132 0
 1045 03d2 D0F10101 		rsbs	r1, r0, #1
 1046 03d6 38BF     		it	cc
 1047 03d8 0021     		movcc	r1, #0
 1048 03da 0D20     		movs	r0, #13
 1049              	.LVL110:
 1050 03dc FFF7FEFF 		bl	_test_assert
 1051              	.LVL111:
 1052 03e0 0028     		cmp	r0, #0
 1053 03e2 7FF446AE 		bne	.L1
 1054              		.loc 1 133 0
 1055 03e6 01A9     		add	r1, sp, #4
 1056 03e8 2046     		mov	r0, r4
 1057 03ea 4FF0FF32 		mov	r2, #-1
 1058 03ee FFF7FEFF 		bl	chMBFetch
 1059              	.LVL112:
 1060              		.loc 1 134 0
 1061 03f2 D0F10101 		rsbs	r1, r0, #1
 1062 03f6 38BF     		it	cc
 1063 03f8 0021     		movcc	r1, #0
 1064 03fa 0E20     		movs	r0, #14
 1065              	.LVL113:
 1066 03fc FFF7FEFF 		bl	_test_assert
 1067              	.LVL114:
 1068 0400 0028     		cmp	r0, #0
 1069 0402 7FF436AE 		bne	.L1
 1070              		.loc 1 135 0
 1071 0406 2168     		ldr	r1, [r4]
 1072 0408 A368     		ldr	r3, [r4, #8]
 1073 040a B1EB030E 		subs	lr, r1, r3
 1074 040e DEF10001 		rsbs	r1, lr, #0
 1075 0412 51EB0E01 		adcs	r1, r1, lr
 1076 0416 0F20     		movs	r0, #15
 1077 0418 FFF7FEFF 		bl	_test_assert
 1078              	.LVL115:
 1079 041c 0028     		cmp	r0, #0
 1080 041e 7FF428AE 		bne	.L1
 1081              		.loc 1 136 0
 1082 0422 2168     		ldr	r1, [r4]
 1083 0424 E368     		ldr	r3, [r4, #12]
ARM GAS  /tmp/ccnOECIF.s 			page 20


 1084 0426 CF1A     		subs	r7, r1, r3
 1085 0428 7942     		rsbs	r1, r7, #0
 1086 042a 7941     		adcs	r1, r1, r7
 1087 042c 1020     		movs	r0, #16
 1088 042e FFF7FEFF 		bl	_test_assert
 1089              	.LVL116:
 1090 0432 0028     		cmp	r0, #0
 1091 0434 7FF41DAE 		bne	.L1
 1092              		.loc 1 141 0
 1093 0438 01A9     		add	r1, sp, #4
 1094 043a 2046     		mov	r0, r4
 1095 043c 0122     		movs	r2, #1
 1096 043e FFF7FEFF 		bl	chMBFetch
 1097              	.LVL117:
 1098              		.loc 1 142 0
 1099 0442 B0F1FF30 		subs	r0, r0, #-1
 1100              	.LVL118:
 1101 0446 4142     		rsbs	r1, r0, #0
 1102 0448 4141     		adcs	r1, r1, r0
 1103 044a 1120     		movs	r0, #17
 1104              	.LVL119:
 1105 044c FFF7FEFF 		bl	_test_assert
 1106              	.LVL120:
 1107 0450 0028     		cmp	r0, #0
 1108 0452 7FF40EAE 		bne	.L1
 1109              	.LVL121:
 1110              	.LBB509:
 1111              	.LBB510:
 1112              	.LBB511:
 1113              	.LBB512:
 1114              		.loc 2 546 0
 1115 0456 2027     		movs	r7, #32
 1116              	@ 546 "../ChibiOS/os/ext/CMSIS/include/core_cmFunc.h" 1
 1117 0458 87F31188 		MSR basepri, r7
 1118              	@ 0 "" 2
 1119              		.thumb
 1120              	.LBE512:
 1121              	.LBE511:
 1122              	.LBE510:
 1123              	.LBE509:
 1124              		.loc 1 144 0
 1125 045c 01A9     		add	r1, sp, #4
 1126 045e 2046     		mov	r0, r4
 1127 0460 FFF7FEFF 		bl	chMBFetchI
 1128              	.LVL122:
 1129 0464 0146     		mov	r1, r0
 1130              	.LVL123:
 1131              	.LBB513:
 1132              	.LBB514:
 1133              	.LBB515:
 1134              	.LBB516:
 1135              	.LBB517:
 1136              		.loc 2 546 0
 1137              	@ 546 "../ChibiOS/os/ext/CMSIS/include/core_cmFunc.h" 1
 1138 0466 85F31188 		MSR basepri, r5
 1139              	@ 0 "" 2
 1140              		.thumb
ARM GAS  /tmp/ccnOECIF.s 			page 21


 1141              	.LBE517:
 1142              	.LBE516:
 1143              	.LBE515:
 1144              	.LBE514:
 1145              	.LBE513:
 1146              		.loc 1 146 0
 1147 046a B1F1FF32 		subs	r2, r1, #-1
 1148 046e 5142     		rsbs	r1, r2, #0
 1149 0470 5141     		adcs	r1, r1, r2
 1150 0472 1220     		movs	r0, #18
 1151              	.LVL124:
 1152 0474 FFF7FEFF 		bl	_test_assert
 1153              	.LVL125:
 1154 0478 0028     		cmp	r0, #0
 1155 047a 7FF4FAAD 		bne	.L1
 1156              	.LVL126:
 1157              	.LBB518:
 1158              	.LBB519:
 1159              	.LBB520:
 1160              	.LBB521:
 1161              		.loc 2 546 0
 1162              	@ 546 "../ChibiOS/os/ext/CMSIS/include/core_cmFunc.h" 1
 1163 047e 87F31188 		MSR basepri, r7
 1164              	@ 0 "" 2
 1165              	.LVL127:
 1166              		.thumb
 1167              	.LBE521:
 1168              	.LBE520:
 1169              	.LBE519:
 1170              	.LBE518:
 1171              		.loc 1 151 0
 1172 0482 616A     		ldr	r1, [r4, #36]
 1173 0484 4B1F     		subs	r3, r1, #5
 1174 0486 5942     		rsbs	r1, r3, #0
 1175 0488 5941     		adcs	r1, r1, r3
 1176 048a 1320     		movs	r0, #19
 1177 048c FFF7FEFF 		bl	_test_assert
 1178              	.LVL128:
 1179 0490 0028     		cmp	r0, #0
 1180 0492 7FF4ECAE 		bne	.L31
 1181              	.LVL129:
 1182              	.LBB522:
 1183              	.LBB523:
 1184              	.LBB524:
 1185              	.LBB525:
 1186              	.LBB526:
 1187              		.loc 2 546 0
 1188 0496 0027     		movs	r7, #0
 1189              	@ 546 "../ChibiOS/os/ext/CMSIS/include/core_cmFunc.h" 1
 1190 0498 87F31188 		MSR basepri, r7
 1191              	@ 0 "" 2
 1192              	.LVL130:
 1193              		.thumb
 1194              	.LBE526:
 1195              	.LBE525:
 1196              	.LBE524:
 1197              	.LBE523:
ARM GAS  /tmp/ccnOECIF.s 			page 22


 1198              	.LBE522:
 1199              	.LBB527:
 1200              	.LBB528:
 1201              	.LBB529:
 1202              	.LBB530:
 1203 049c 2025     		movs	r5, #32
 1204              	.LVL131:
 1205              	@ 546 "../ChibiOS/os/ext/CMSIS/include/core_cmFunc.h" 1
 1206 049e 85F31188 		MSR basepri, r5
 1207              	@ 0 "" 2
 1208              	.LVL132:
 1209              		.thumb
 1210              	.LBE530:
 1211              	.LBE529:
 1212              	.LBE528:
 1213              	.LBE527:
 1214              		.loc 1 152 0
 1215 04a2 B169     		ldr	r1, [r6, #24]
 1216              		.loc 3 178 0
 1217 04a4 584C     		ldr	r4, .L38
 1218              		.loc 1 152 0
 1219 04a6 B1EB0708 		subs	r8, r1, r7
 1220 04aa D8F10001 		rsbs	r1, r8, #0
 1221 04ae 51EB0801 		adcs	r1, r1, r8
 1222 04b2 1420     		movs	r0, #20
 1223 04b4 FFF7FEFF 		bl	_test_assert
 1224              	.LVL133:
 1225 04b8 0646     		mov	r6, r0
 1226 04ba 10B1     		cbz	r0, .L13
 1227              	.LVL134:
 1228              	.LBB531:
 1229              	.LBB532:
 1230              	.LBB533:
 1231              	.LBB534:
 1232              	.LBB535:
 1233              		.loc 2 546 0
 1234              	@ 546 "../ChibiOS/os/ext/CMSIS/include/core_cmFunc.h" 1
 1235 04bc 87F31188 		MSR basepri, r7
 1236              	@ 0 "" 2
 1237              		.thumb
 1238 04c0 D7E5     		b	.L1
 1239              	.LVL135:
 1240              	.L13:
 1241              	.LBE535:
 1242              	.LBE534:
 1243              	.LBE533:
 1244              	.LBE532:
 1245              	.LBE531:
 1246              	.LBB536:
 1247              	.LBB537:
 1248              	.LBB538:
 1249              	.LBB539:
 1250              	.LBB540:
 1251              	@ 546 "../ChibiOS/os/ext/CMSIS/include/core_cmFunc.h" 1
 1252 04c2 80F31188 		MSR basepri, r0
 1253              	@ 0 "" 2
 1254              	.LVL136:
ARM GAS  /tmp/ccnOECIF.s 			page 23


 1255              		.thumb
 1256              	.LBE540:
 1257              	.LBE539:
 1258              	.LBE538:
 1259              	.LBE537:
 1260              	.LBE536:
 1261              	.LBB541:
 1262              	.LBB542:
 1263              	.LBB543:
 1264              	.LBB544:
 1265              	@ 546 "../ChibiOS/os/ext/CMSIS/include/core_cmFunc.h" 1
 1266 04c6 85F31188 		MSR basepri, r5
 1267              	@ 0 "" 2
 1268              		.thumb
 1269              	.LBE544:
 1270              	.LBE543:
 1271              	.LBE542:
 1272              	.LBE541:
 1273              		.loc 1 153 0
 1274 04ca E168     		ldr	r1, [r4, #12]
 1275 04cc A368     		ldr	r3, [r4, #8]
 1276 04ce B1EB030C 		subs	ip, r1, r3
 1277 04d2 DCF10001 		rsbs	r1, ip, #0
 1278 04d6 51EB0C01 		adcs	r1, r1, ip
 1279 04da 1520     		movs	r0, #21
 1280 04dc FFF7FEFF 		bl	_test_assert
 1281              	.LVL137:
 1282 04e0 10B1     		cbz	r0, .L14
 1283              	.LVL138:
 1284              	.LBB545:
 1285              	.LBB546:
 1286              	.LBB547:
 1287              	.LBB548:
 1288              	.LBB549:
 1289              		.loc 2 546 0
 1290              	@ 546 "../ChibiOS/os/ext/CMSIS/include/core_cmFunc.h" 1
 1291 04e2 86F31188 		MSR basepri, r6
 1292              	@ 0 "" 2
 1293              		.thumb
 1294 04e6 C4E5     		b	.L1
 1295              	.LVL139:
 1296              	.L14:
 1297              	.LBE549:
 1298              	.LBE548:
 1299              	.LBE547:
 1300              	.LBE546:
 1301              	.LBE545:
 1302              	.LBB550:
 1303              	.LBB551:
 1304              	.LBB552:
 1305              	.LBB553:
 1306              	.LBB554:
 1307              	@ 546 "../ChibiOS/os/ext/CMSIS/include/core_cmFunc.h" 1
 1308 04e8 80F31188 		MSR basepri, r0
 1309              	@ 0 "" 2
 1310              	.LVL140:
 1311              		.thumb
ARM GAS  /tmp/ccnOECIF.s 			page 24


 1312              	.LBE554:
 1313              	.LBE553:
 1314              	.LBE552:
 1315              	.LBE551:
 1316              	.LBE550:
 1317              	.LBB555:
 1318              	.LBB556:
 1319              	.LBB557:
 1320              	.LBB558:
 1321              	@ 546 "../ChibiOS/os/ext/CMSIS/include/core_cmFunc.h" 1
 1322 04ec 85F31188 		MSR basepri, r5
 1323              	@ 0 "" 2
 1324              		.thumb
 1325              	.LBE558:
 1326              	.LBE557:
 1327              	.LBE556:
 1328              	.LBE555:
 1329              		.loc 1 159 0
 1330 04f0 4121     		movs	r1, #65
 1331 04f2 2046     		mov	r0, r4
 1332 04f4 FFF7FEFF 		bl	chMBPostI
 1333              	.LVL141:
 1334              		.loc 1 160 0
 1335 04f8 D0F10101 		rsbs	r1, r0, #1
 1336 04fc 38BF     		it	cc
 1337 04fe 0021     		movcc	r1, #0
 1338 0500 1620     		movs	r0, #22
 1339              	.LVL142:
 1340 0502 FFF7FEFF 		bl	_test_assert
 1341              	.LVL143:
 1342 0506 0028     		cmp	r0, #0
 1343 0508 7FF4B3AD 		bne	.L1
 1344              		.loc 1 161 0
 1345 050c 4221     		movs	r1, #66
 1346 050e 2046     		mov	r0, r4
 1347 0510 FFF7FEFF 		bl	chMBPostI
 1348              	.LVL144:
 1349              		.loc 1 162 0
 1350 0514 D0F10101 		rsbs	r1, r0, #1
 1351 0518 38BF     		it	cc
 1352 051a 0021     		movcc	r1, #0
 1353 051c 1720     		movs	r0, #23
 1354              	.LVL145:
 1355 051e FFF7FEFF 		bl	_test_assert
 1356              	.LVL146:
 1357 0522 0028     		cmp	r0, #0
 1358 0524 7FF4A5AD 		bne	.L1
 1359              		.loc 1 163 0
 1360 0528 4321     		movs	r1, #67
 1361 052a 2046     		mov	r0, r4
 1362 052c FFF7FEFF 		bl	chMBPostI
 1363              	.LVL147:
 1364              		.loc 1 164 0
 1365 0530 D0F10101 		rsbs	r1, r0, #1
 1366 0534 38BF     		it	cc
 1367 0536 0021     		movcc	r1, #0
 1368 0538 1820     		movs	r0, #24
ARM GAS  /tmp/ccnOECIF.s 			page 25


 1369              	.LVL148:
 1370 053a FFF7FEFF 		bl	_test_assert
 1371              	.LVL149:
 1372 053e 0028     		cmp	r0, #0
 1373 0540 7FF497AD 		bne	.L1
 1374              		.loc 1 165 0
 1375 0544 4421     		movs	r1, #68
 1376 0546 2046     		mov	r0, r4
 1377 0548 FFF7FEFF 		bl	chMBPostI
 1378              	.LVL150:
 1379              		.loc 1 166 0
 1380 054c D0F10101 		rsbs	r1, r0, #1
 1381 0550 38BF     		it	cc
 1382 0552 0021     		movcc	r1, #0
 1383 0554 1920     		movs	r0, #25
 1384              	.LVL151:
 1385 0556 FFF7FEFF 		bl	_test_assert
 1386              	.LVL152:
 1387 055a 0646     		mov	r6, r0
 1388 055c 0028     		cmp	r0, #0
 1389 055e 7FF488AD 		bne	.L1
 1390              		.loc 1 167 0
 1391 0562 2046     		mov	r0, r4
 1392 0564 4521     		movs	r1, #69
 1393 0566 FFF7FEFF 		bl	chMBPostI
 1394              	.LVL153:
 1395 056a 0146     		mov	r1, r0
 1396              	.LVL154:
 1397              	.LBB559:
 1398              	.LBB560:
 1399              	.LBB561:
 1400              	.LBB562:
 1401              	.LBB563:
 1402              		.loc 2 546 0
 1403              	@ 546 "../ChibiOS/os/ext/CMSIS/include/core_cmFunc.h" 1
 1404 056c 86F31188 		MSR basepri, r6
 1405              	@ 0 "" 2
 1406              		.thumb
 1407              	.LBE563:
 1408              	.LBE562:
 1409              	.LBE561:
 1410              	.LBE560:
 1411              	.LBE559:
 1412              		.loc 1 169 0
 1413 0570 D1F10101 		rsbs	r1, r1, #1
 1414 0574 38BF     		it	cc
 1415 0576 0021     		movcc	r1, #0
 1416 0578 1A20     		movs	r0, #26
 1417              	.LVL155:
 1418 057a FFF7FEFF 		bl	_test_assert
 1419              	.LVL156:
 1420 057e 0028     		cmp	r0, #0
 1421 0580 7FF477AD 		bne	.L1
 1422              		.loc 1 170 0
 1423 0584 E168     		ldr	r1, [r4, #12]
 1424 0586 A368     		ldr	r3, [r4, #8]
 1425 0588 B1EB030E 		subs	lr, r1, r3
ARM GAS  /tmp/ccnOECIF.s 			page 26


 1426 058c DEF10001 		rsbs	r1, lr, #0
 1427 0590 51EB0E01 		adcs	r1, r1, lr
 1428 0594 1B20     		movs	r0, #27
 1429 0596 FFF7FEFF 		bl	_test_assert
 1430              	.LVL157:
 1431 059a 0028     		cmp	r0, #0
 1432 059c 7FF469AD 		bne	.L1
 1433              	.LBB564:
 1434              	.LBB565:
 1435              	.LBB566:
 1436              	.LBB567:
 1437              		.loc 2 546 0
 1438 05a0 A846     		mov	r8, r5
 1439              	.LBE567:
 1440              	.LBE566:
 1441              	.LBE565:
 1442              	.LBE564:
 1443              	.LBB571:
 1444              	.LBB572:
 1445              	.LBB573:
 1446              	.LBB574:
 1447              	.LBB575:
 1448 05a2 0746     		mov	r7, r0
 1449              	.LBE575:
 1450              	.LBE574:
 1451              	.LBE573:
 1452              	.LBE572:
 1453              	.LBE571:
 1454              		.loc 1 170 0
 1455 05a4 0525     		movs	r5, #5
 1456              	.L16:
 1457              	.LVL158:
 1458              	.LBB580:
 1459              	.LBB570:
 1460              	.LBB569:
 1461              	.LBB568:
 1462              		.loc 2 546 0
 1463 05a6 2026     		movs	r6, #32
 1464              	@ 546 "../ChibiOS/os/ext/CMSIS/include/core_cmFunc.h" 1
 1465 05a8 88F31188 		MSR basepri, r8
 1466              	@ 0 "" 2
 1467              		.thumb
 1468              	.LBE568:
 1469              	.LBE569:
 1470              	.LBE570:
 1471              	.LBE580:
 1472              		.loc 1 173 0
 1473 05ac 164C     		ldr	r4, .L38
 1474 05ae 01A9     		add	r1, sp, #4
 1475 05b0 2046     		mov	r0, r4
 1476 05b2 FFF7FEFF 		bl	chMBFetchI
 1477              	.LVL159:
 1478 05b6 0146     		mov	r1, r0
 1479              	.LVL160:
 1480              	.LBB581:
 1481              	.LBB579:
 1482              	.LBB578:
ARM GAS  /tmp/ccnOECIF.s 			page 27


 1483              	.LBB577:
 1484              	.LBB576:
 1485              		.loc 2 546 0
 1486              	@ 546 "../ChibiOS/os/ext/CMSIS/include/core_cmFunc.h" 1
 1487 05b8 87F31188 		MSR basepri, r7
 1488              	@ 0 "" 2
 1489              		.thumb
 1490              	.LBE576:
 1491              	.LBE577:
 1492              	.LBE578:
 1493              	.LBE579:
 1494              	.LBE581:
 1495              		.loc 1 175 0
 1496 05bc D1F10101 		rsbs	r1, r1, #1
 1497 05c0 38BF     		it	cc
 1498 05c2 0021     		movcc	r1, #0
 1499 05c4 1C20     		movs	r0, #28
 1500              	.LVL161:
 1501 05c6 FFF7FEFF 		bl	_test_assert
 1502              	.LVL162:
 1503 05ca 0028     		cmp	r0, #0
 1504 05cc 7FF451AD 		bne	.L1
 1505              		.loc 1 176 0
 1506 05d0 9DF80400 		ldrb	r0, [sp, #4]	@ zero_extendqisi2
 1507 05d4 FFF7FEFF 		bl	test_emit_token
 1508              	.LVL163:
 1509              		.loc 1 171 0
 1510 05d8 013D     		subs	r5, r5, #1
 1511              	.LVL164:
 1512 05da E4D1     		bne	.L16
 1513              		.loc 1 178 0
 1514 05dc 1D20     		movs	r0, #29
 1515 05de 0B49     		ldr	r1, .L38+4
 1516 05e0 FFF7FEFF 		bl	_test_assert_sequence
 1517              	.LVL165:
 1518 05e4 0028     		cmp	r0, #0
 1519 05e6 7FF444AD 		bne	.L1
 1520              	.LVL166:
 1521              	.LBB582:
 1522              	.LBB583:
 1523              	.LBB584:
 1524              	.LBB585:
 1525              		.loc 2 546 0
 1526              	@ 546 "../ChibiOS/os/ext/CMSIS/include/core_cmFunc.h" 1
 1527 05ea 86F31188 		MSR basepri, r6
 1528              	@ 0 "" 2
 1529              	.LVL167:
 1530              		.thumb
 1531              	.LBE585:
 1532              	.LBE584:
 1533              	.LBE583:
 1534              	.LBE582:
 1535              		.loc 1 179 0
 1536 05ee 616A     		ldr	r1, [r4, #36]
 1537 05f0 4F1F     		subs	r7, r1, #5
 1538 05f2 7942     		rsbs	r1, r7, #0
 1539 05f4 7941     		adcs	r1, r1, r7
ARM GAS  /tmp/ccnOECIF.s 			page 28


 1540 05f6 1E20     		movs	r0, #30
 1541 05f8 FFF7FEFF 		bl	_test_assert
 1542              	.LVL168:
 1543 05fc 0028     		cmp	r0, #0
 1544 05fe 3FF43BAD 		beq	.L17
 1545              	.LVL169:
 1546              	.L30:
 1547              	.LBB586:
 1548              	.LBB587:
 1549              	.LBB588:
 1550              	.LBB589:
 1551              	.LBB590:
 1552              		.loc 2 546 0
 1553              	@ 546 "../ChibiOS/os/ext/CMSIS/include/core_cmFunc.h" 1
 1554 0602 85F31188 		MSR basepri, r5
 1555              	@ 0 "" 2
 1556              		.thumb
 1557 0606 34E5     		b	.L1
 1558              	.L39:
 1559              		.align	2
 1560              	.L38:
 1561 0608 00000000 		.word	.LANCHOR0
 1562 060c 00000000 		.word	.LC0
 1563              	.LBE590:
 1564              	.LBE589:
 1565              	.LBE588:
 1566              	.LBE587:
 1567              	.LBE586:
 1568              		.cfi_endproc
 1569              	.LFE227:
 1570              		.size	mbox1_execute, .-mbox1_execute
 1571              		.section	.text.mbox1_setup,"ax",%progbits
 1572              		.align	2
 1573              		.p2align 4,,15
 1574              		.thumb
 1575              		.thumb_func
 1576              		.type	mbox1_setup, %function
 1577              	mbox1_setup:
 1578              	.LFB226:
 1579              		.loc 1 71 0
 1580              		.cfi_startproc
 1581              		@ args = 0, pretend = 0, frame = 0
 1582              		@ frame_needed = 0, uses_anonymous_args = 0
 1583              		@ link register save eliminated.
 1584              		.loc 1 73 0
 1585 0000 0248     		ldr	r0, .L41
 1586 0002 0349     		ldr	r1, .L41+4
 1587 0004 0522     		movs	r2, #5
 1588 0006 FFF7FEBF 		b	chMBObjectInit
 1589              	.LVL170:
 1590              	.L42:
 1591 000a 00BF     		.align	2
 1592              	.L41:
 1593 000c 00000000 		.word	.LANCHOR0
 1594 0010 00000000 		.word	test
 1595              		.cfi_endproc
 1596              	.LFE226:
ARM GAS  /tmp/ccnOECIF.s 			page 29


 1597              		.size	mbox1_setup, .-mbox1_setup
 1598              		.global	patternmbox
 1599              		.global	testmbox1
 1600 0014 AFF30080 		.section	.data.mb1,"aw",%progbits
 1600      AFF30080 
 1600      AFF30080 
 1601              		.align	2
 1602              		.set	.LANCHOR0,. + 0
 1603              		.type	mb1, %object
 1604              		.size	mb1, 40
 1605              	mb1:
 1606 0000 00000000 		.word	test
 1607 0004 14000000 		.word	test+20
 1608 0008 00000000 		.word	test
 1609 000c 00000000 		.word	test
 1610 0010 10000000 		.word	mb1+16
 1611 0014 10000000 		.word	mb1+16
 1612 0018 00000000 		.word	0
 1613 001c 1C000000 		.word	mb1+28
 1614 0020 1C000000 		.word	mb1+28
 1615 0024 05000000 		.word	5
 1616              		.section	.rodata.patternmbox,"a",%progbits
 1617              		.align	2
 1618              		.type	patternmbox, %object
 1619              		.size	patternmbox, 8
 1620              	patternmbox:
 1621 0000 00000000 		.word	testmbox1
 1622 0004 00000000 		.word	0
 1623              		.section	.rodata.str1.4,"aMS",%progbits,1
 1624              		.align	2
 1625              	.LC0:
 1626 0000 41424344 		.ascii	"ABCDE\000"
 1626      4500
 1627 0006 0000     		.space	2
 1628              	.LC1:
 1629 0008 4D61696C 		.ascii	"Mailboxes, queuing and timeouts\000"
 1629      626F7865 
 1629      732C2071 
 1629      75657569 
 1629      6E672061 
 1630              		.section	.rodata.testmbox1,"a",%progbits
 1631              		.align	2
 1632              		.type	testmbox1, %object
 1633              		.size	testmbox1, 16
 1634              	testmbox1:
 1635 0000 08000000 		.word	.LC1
 1636 0004 00000000 		.word	mbox1_setup
 1637 0008 00000000 		.word	0
 1638 000c 00000000 		.word	mbox1_execute
 1639              		.text
 1640              	.Letext0:
 1641              		.file 4 "/nfs/nfs5/home/research/hardware/arm2/gcc-arm-embedded/gcc-arm-none-eabi-4_8-2014q2/arm-n
 1642              		.file 5 "/nfs/nfs5/home/research/hardware/arm2/gcc-arm-embedded/gcc-arm-none-eabi-4_8-2014q2/arm-n
 1643              		.file 6 "../ChibiOS/os/rt/ports/ARMCMx/compilers/GCC/chtypes.h"
 1644              		.file 7 "../ChibiOS/os/rt/include/chsystypes.h"
 1645              		.file 8 "../ChibiOS/os/rt/include/chschd.h"
 1646              		.file 9 "../ChibiOS/os/rt/ports/ARMCMx/chcore.h"
ARM GAS  /tmp/ccnOECIF.s 			page 30


 1647              		.file 10 "../ChibiOS/os/rt/ports/ARMCMx/chcore_v7m.h"
 1648              		.file 11 "../ChibiOS/os/rt/include/chtm.h"
 1649              		.file 12 "../ChibiOS/os/rt/include/chmtx.h"
 1650              		.file 13 "../ChibiOS/os/rt/include/chsem.h"
 1651              		.file 14 "../ChibiOS/test/rt/test.h"
 1652              		.file 15 "../ChibiOS/os/rt/include/chsys.h"
 1653              		.file 16 "../ChibiOS/os/ext/CMSIS/include/core_cm4.h"