ARM GAS  /tmp/ccldI6Va.s 			page 1


   1              		.syntax unified
   2              		.cpu cortex-m4
   3              		.fpu softvfp
   4              		.eabi_attribute 20, 1
   5              		.eabi_attribute 21, 1
   6              		.eabi_attribute 23, 3
   7              		.eabi_attribute 24, 1
   8              		.eabi_attribute 25, 1
   9              		.eabi_attribute 26, 1
  10              		.eabi_attribute 30, 2
  11              		.eabi_attribute 34, 1
  12              		.eabi_attribute 18, 4
  13              		.thumb
  14              		.file	"testmtx.c"
  15              		.text
  16              	.Ltext0:
  17              		.cfi_sections	.debug_frame
  18              		.section	.text.mtx1_execute,"ax",%progbits
  19              		.align	2
  20              		.p2align 4,,15
  21              		.thumb
  22              		.thumb_func
  23              		.type	mtx1_execute, %function
  24              	mtx1_execute:
  25              	.LFB228:
  26              		.file 1 "../ChibiOS/test/rt/testmtx.c"
  27              		.loc 1 97 0
  28              		.cfi_startproc
  29              		@ args = 0, pretend = 0, frame = 0
  30              		@ frame_needed = 0, uses_anonymous_args = 0
  31 0000 F0B5     		push	{r4, r5, r6, r7, lr}
  32              		.cfi_def_cfa_offset 20
  33              		.cfi_offset 4, -20
  34              		.cfi_offset 5, -16
  35              		.cfi_offset 6, -12
  36              		.cfi_offset 7, -8
  37              		.cfi_offset 14, -4
  38              	.LBB138:
  39              	.LBB139:
  40              	.LBB140:
  41              	.LBB141:
  42              		.file 2 "../ChibiOS/os/rt/include/chthreads.h"
  43              		.loc 2 179 0
  44 0002 2B4F     		ldr	r7, .L5
  45              	.LBE141:
  46              	.LBE140:
  47              	.LBE139:
  48              	.LBE138:
  49              		.loc 1 101 0
  50 0004 2B4E     		ldr	r6, .L5+4
  51              	.LBB144:
  52              	.LBB142:
  53              		.loc 2 192 0
  54 0006 BB69     		ldr	r3, [r7, #24]
  55              	.LBE142:
  56              	.LBE144:
  57              		.loc 1 100 0
ARM GAS  /tmp/ccldI6Va.s 			page 2


  58 0008 2B48     		ldr	r0, .L5+8
  59              	.LBB145:
  60              	.LBB143:
  61              		.loc 2 192 0
  62 000a 9C68     		ldr	r4, [r3, #8]
  63              	.LBE143:
  64              	.LBE145:
  65              		.loc 1 101 0
  66 000c 2B4D     		ldr	r5, .L5+12
  67              		.loc 1 97 0
  68 000e 83B0     		sub	sp, sp, #12
  69              		.cfi_def_cfa_offset 32
  70              		.loc 1 100 0
  71 0010 FFF7FEFF 		bl	chMtxLock
  72              	.LVL0:
  73              		.loc 1 101 0
  74 0014 2A4B     		ldr	r3, .L5+16
  75 0016 0093     		str	r3, [sp]
  76 0018 621C     		adds	r2, r4, #1
  77 001a 4FF4A471 		mov	r1, #328
  78 001e 294B     		ldr	r3, .L5+20
  79 0020 3068     		ldr	r0, [r6]
  80 0022 FFF7FEFF 		bl	chThdCreateStatic
  81              	.LVL1:
  82              		.loc 1 102 0
  83 0026 7368     		ldr	r3, [r6, #4]
  84 0028 2749     		ldr	r1, .L5+24
  85              		.loc 1 101 0
  86 002a 2860     		str	r0, [r5]
  87              		.loc 1 102 0
  88 002c A21C     		adds	r2, r4, #2
  89 002e 1846     		mov	r0, r3
  90 0030 0091     		str	r1, [sp]
  91 0032 244B     		ldr	r3, .L5+20
  92 0034 4FF4A471 		mov	r1, #328
  93 0038 FFF7FEFF 		bl	chThdCreateStatic
  94              	.LVL2:
  95              		.loc 1 103 0
  96 003c B368     		ldr	r3, [r6, #8]
  97 003e 2349     		ldr	r1, .L5+28
  98              		.loc 1 102 0
  99 0040 6860     		str	r0, [r5, #4]
 100              		.loc 1 103 0
 101 0042 E21C     		adds	r2, r4, #3
 102 0044 1846     		mov	r0, r3
 103 0046 0091     		str	r1, [sp]
 104 0048 1E4B     		ldr	r3, .L5+20
 105 004a 4FF4A471 		mov	r1, #328
 106 004e FFF7FEFF 		bl	chThdCreateStatic
 107              	.LVL3:
 108              		.loc 1 104 0
 109 0052 F368     		ldr	r3, [r6, #12]
 110 0054 1E49     		ldr	r1, .L5+32
 111              		.loc 1 103 0
 112 0056 A860     		str	r0, [r5, #8]
 113              		.loc 1 104 0
 114 0058 221D     		adds	r2, r4, #4
ARM GAS  /tmp/ccldI6Va.s 			page 3


 115 005a 1846     		mov	r0, r3
 116 005c 0091     		str	r1, [sp]
 117 005e 194B     		ldr	r3, .L5+20
 118 0060 4FF4A471 		mov	r1, #328
 119 0064 FFF7FEFF 		bl	chThdCreateStatic
 120              	.LVL4:
 121              		.loc 1 105 0
 122 0068 3369     		ldr	r3, [r6, #16]
 123 006a 1A49     		ldr	r1, .L5+36
 124              		.loc 1 104 0
 125 006c E860     		str	r0, [r5, #12]
 126              		.loc 1 105 0
 127 006e 621D     		adds	r2, r4, #5
 128 0070 1846     		mov	r0, r3
 129 0072 0091     		str	r1, [sp]
 130 0074 134B     		ldr	r3, .L5+20
 131 0076 4FF4A471 		mov	r1, #328
 132 007a FFF7FEFF 		bl	chThdCreateStatic
 133              	.LVL5:
 134 007e 2861     		str	r0, [r5, #16]
 135              		.loc 1 106 0
 136 0080 0D48     		ldr	r0, .L5+8
 137 0082 FFF7FEFF 		bl	chMtxUnlock
 138              	.LVL6:
 139              		.loc 1 107 0
 140 0086 FFF7FEFF 		bl	test_wait_threads
 141              	.LVL7:
 142              	.LBB146:
 143              	.LBB147:
 144              		.loc 2 192 0
 145 008a BB69     		ldr	r3, [r7, #24]
 146              	.LBE147:
 147              	.LBE146:
 148              		.loc 1 108 0
 149 008c 9968     		ldr	r1, [r3, #8]
 150 008e 631A     		subs	r3, r4, r1
 151 0090 5942     		rsbs	r1, r3, #0
 152 0092 5941     		adcs	r1, r1, r3
 153 0094 0120     		movs	r0, #1
 154 0096 FFF7FEFF 		bl	_test_assert
 155              	.LVL8:
 156 009a 08B1     		cbz	r0, .L4
 157              		.loc 1 110 0
 158 009c 03B0     		add	sp, sp, #12
 159              		@ sp needed
 160 009e F0BD     		pop	{r4, r5, r6, r7, pc}
 161              	.L4:
 162              		.loc 1 109 0
 163 00a0 0D49     		ldr	r1, .L5+40
 164 00a2 0220     		movs	r0, #2
 165              		.loc 1 110 0
 166 00a4 03B0     		add	sp, sp, #12
 167              		@ sp needed
 168 00a6 BDE8F040 		pop	{r4, r5, r6, r7, lr}
 169              		.loc 1 109 0
 170 00aa FFF7FEBF 		b	_test_assert_sequence
 171              	.LVL9:
ARM GAS  /tmp/ccldI6Va.s 			page 4


 172              	.L6:
 173 00ae 00BF     		.align	2
 174              	.L5:
 175 00b0 00000000 		.word	ch
 176 00b4 00000000 		.word	wa
 177 00b8 00000000 		.word	.LANCHOR0
 178 00bc 00000000 		.word	threads
 179 00c0 00000000 		.word	.LC0
 180 00c4 00000000 		.word	thread1
 181 00c8 04000000 		.word	.LC1
 182 00cc 08000000 		.word	.LC2
 183 00d0 0C000000 		.word	.LC3
 184 00d4 10000000 		.word	.LC4
 185 00d8 14000000 		.word	.LC5
 186              		.cfi_endproc
 187              	.LFE228:
 188              		.size	mtx1_execute, .-mtx1_execute
 189 00dc AFF30080 		.section	.text.thread1,"ax",%progbits
 190              		.align	2
 191              		.p2align 4,,15
 192              		.thumb
 193              		.thumb_func
 194              		.type	thread1, %function
 195              	thread1:
 196              	.LFB227:
 197              		.loc 1 89 0
 198              		.cfi_startproc
 199              		@ args = 0, pretend = 0, frame = 0
 200              		@ frame_needed = 0, uses_anonymous_args = 0
 201              	.LVL10:
 202 0000 38B5     		push	{r3, r4, r5, lr}
 203              		.cfi_def_cfa_offset 16
 204              		.cfi_offset 3, -16
 205              		.cfi_offset 4, -12
 206              		.cfi_offset 5, -8
 207              		.cfi_offset 14, -4
 208              		.loc 1 91 0
 209 0002 064C     		ldr	r4, .L8
 210              		.loc 1 89 0
 211 0004 0546     		mov	r5, r0
 212              		.loc 1 91 0
 213 0006 2046     		mov	r0, r4
 214              	.LVL11:
 215 0008 FFF7FEFF 		bl	chMtxLock
 216              	.LVL12:
 217              		.loc 1 92 0
 218 000c 2878     		ldrb	r0, [r5]	@ zero_extendqisi2
 219 000e FFF7FEFF 		bl	test_emit_token
 220              	.LVL13:
 221              		.loc 1 93 0
 222 0012 2046     		mov	r0, r4
 223 0014 FFF7FEFF 		bl	chMtxUnlock
 224              	.LVL14:
 225              		.loc 1 95 0
 226 0018 0020     		movs	r0, #0
 227 001a 38BD     		pop	{r3, r4, r5, pc}
 228              	.LVL15:
ARM GAS  /tmp/ccldI6Va.s 			page 5


 229              	.L9:
 230              		.align	2
 231              	.L8:
 232 001c 00000000 		.word	.LANCHOR0
 233              		.cfi_endproc
 234              	.LFE227:
 235              		.size	thread1, .-thread1
 236              		.section	.text.thread12,"ax",%progbits
 237              		.align	2
 238              		.p2align 4,,15
 239              		.thumb
 240              		.thumb_func
 241              		.type	thread12, %function
 242              	thread12:
 243              	.LFB242:
 244              		.loc 1 589 0
 245              		.cfi_startproc
 246              		@ args = 0, pretend = 0, frame = 0
 247              		@ frame_needed = 0, uses_anonymous_args = 0
 248              	.LVL16:
 249 0000 38B5     		push	{r3, r4, r5, lr}
 250              		.cfi_def_cfa_offset 16
 251              		.cfi_offset 3, -16
 252              		.cfi_offset 4, -12
 253              		.cfi_offset 5, -8
 254              		.cfi_offset 14, -4
 255              		.loc 1 591 0
 256 0002 064C     		ldr	r4, .L11
 257              		.loc 1 589 0
 258 0004 0546     		mov	r5, r0
 259              		.loc 1 591 0
 260 0006 2046     		mov	r0, r4
 261              	.LVL17:
 262 0008 FFF7FEFF 		bl	chMtxLock
 263              	.LVL18:
 264              		.loc 1 592 0
 265 000c 2878     		ldrb	r0, [r5]	@ zero_extendqisi2
 266 000e FFF7FEFF 		bl	test_emit_token
 267              	.LVL19:
 268              		.loc 1 593 0
 269 0012 2046     		mov	r0, r4
 270 0014 FFF7FEFF 		bl	chMtxUnlock
 271              	.LVL20:
 272              		.loc 1 595 0
 273 0018 0020     		movs	r0, #0
 274 001a 38BD     		pop	{r3, r4, r5, pc}
 275              	.LVL21:
 276              	.L12:
 277              		.align	2
 278              	.L11:
 279 001c 00000000 		.word	.LANCHOR1
 280              		.cfi_endproc
 281              	.LFE242:
 282              		.size	thread12, .-thread12
 283              		.section	.text.mtx1_setup,"ax",%progbits
 284              		.align	2
 285              		.p2align 4,,15
ARM GAS  /tmp/ccldI6Va.s 			page 6


 286              		.thumb
 287              		.thumb_func
 288              		.type	mtx1_setup, %function
 289              	mtx1_setup:
 290              	.LFB226:
 291              		.loc 1 84 0
 292              		.cfi_startproc
 293              		@ args = 0, pretend = 0, frame = 0
 294              		@ frame_needed = 0, uses_anonymous_args = 0
 295              		@ link register save eliminated.
 296              		.loc 1 86 0
 297 0000 0148     		ldr	r0, .L14
 298 0002 FFF7FEBF 		b	chMtxObjectInit
 299              	.LVL22:
 300              	.L15:
 301 0006 00BF     		.align	2
 302              	.L14:
 303 0008 00000000 		.word	.LANCHOR0
 304              		.cfi_endproc
 305              	.LFE226:
 306              		.size	mtx1_setup, .-mtx1_setup
 307 000c AFF30080 		.section	.text.mtx4_setup,"ax",%progbits
 308              		.align	2
 309              		.p2align 4,,15
 310              		.thumb
 311              		.thumb_func
 312              		.type	mtx4_setup, %function
 313              	mtx4_setup:
 314              	.LFB229:
 315              		.loc 1 341 0
 316              		.cfi_startproc
 317              		@ args = 0, pretend = 0, frame = 0
 318              		@ frame_needed = 0, uses_anonymous_args = 0
 319 0000 08B5     		push	{r3, lr}
 320              		.cfi_def_cfa_offset 8
 321              		.cfi_offset 3, -8
 322              		.cfi_offset 14, -4
 323              		.loc 1 343 0
 324 0002 0448     		ldr	r0, .L17
 325 0004 FFF7FEFF 		bl	chMtxObjectInit
 326              	.LVL23:
 327              		.loc 1 344 0
 328 0008 0348     		ldr	r0, .L17+4
 329              		.loc 1 345 0
 330 000a BDE80840 		pop	{r3, lr}
 331              		.loc 1 344 0
 332 000e FFF7FEBF 		b	chMtxObjectInit
 333              	.LVL24:
 334              	.L18:
 335 0012 00BF     		.align	2
 336              	.L17:
 337 0014 00000000 		.word	.LANCHOR0
 338 0018 00000000 		.word	.LANCHOR1
 339              		.cfi_endproc
 340              	.LFE229:
 341              		.size	mtx4_setup, .-mtx4_setup
 342 001c AFF30080 		.section	.text.mtx5_setup,"ax",%progbits
ARM GAS  /tmp/ccldI6Va.s 			page 7


 343              		.align	2
 344              		.p2align 4,,15
 345              		.thumb
 346              		.thumb_func
 347              		.type	mtx5_setup, %function
 348              	mtx5_setup:
 349              	.LFB233:
 350              		.loc 1 429 0
 351              		.cfi_startproc
 352              		@ args = 0, pretend = 0, frame = 0
 353              		@ frame_needed = 0, uses_anonymous_args = 0
 354              		@ link register save eliminated.
 355              		.loc 1 431 0
 356 0000 0148     		ldr	r0, .L20
 357 0002 FFF7FEBF 		b	chMtxObjectInit
 358              	.LVL25:
 359              	.L21:
 360 0006 00BF     		.align	2
 361              	.L20:
 362 0008 00000000 		.word	.LANCHOR0
 363              		.cfi_endproc
 364              	.LFE233:
 365              		.size	mtx5_setup, .-mtx5_setup
 366 000c AFF30080 		.section	.text.thread4b,"ax",%progbits
 367              		.align	2
 368              		.p2align 4,,15
 369              		.thumb
 370              		.thumb_func
 371              		.type	thread4b, %function
 372              	thread4b:
 373              	.LFB231:
 374              		.loc 1 356 0
 375              		.cfi_startproc
 376              		@ args = 0, pretend = 0, frame = 0
 377              		@ frame_needed = 0, uses_anonymous_args = 0
 378              	.LVL26:
 379 0000 10B5     		push	{r4, lr}
 380              		.cfi_def_cfa_offset 8
 381              		.cfi_offset 4, -8
 382              		.cfi_offset 14, -4
 383              		.loc 1 360 0
 384 0002 064C     		ldr	r4, .L23
 385              		.loc 1 359 0
 386 0004 40F2DC50 		movw	r0, #1500
 387              	.LVL27:
 388 0008 FFF7FEFF 		bl	chThdSleep
 389              	.LVL28:
 390              		.loc 1 360 0
 391 000c 2046     		mov	r0, r4
 392 000e FFF7FEFF 		bl	chMtxLock
 393              	.LVL29:
 394              		.loc 1 361 0
 395 0012 2046     		mov	r0, r4
 396 0014 FFF7FEFF 		bl	chMtxUnlock
 397              	.LVL30:
 398              		.loc 1 363 0
 399 0018 0020     		movs	r0, #0
ARM GAS  /tmp/ccldI6Va.s 			page 8


 400 001a 10BD     		pop	{r4, pc}
 401              	.L24:
 402              		.align	2
 403              	.L23:
 404 001c 00000000 		.word	.LANCHOR0
 405              		.cfi_endproc
 406              	.LFE231:
 407              		.size	thread4b, .-thread4b
 408              		.section	.text.thread4a,"ax",%progbits
 409              		.align	2
 410              		.p2align 4,,15
 411              		.thumb
 412              		.thumb_func
 413              		.type	thread4a, %function
 414              	thread4a:
 415              	.LFB230:
 416              		.loc 1 347 0
 417              		.cfi_startproc
 418              		@ args = 0, pretend = 0, frame = 0
 419              		@ frame_needed = 0, uses_anonymous_args = 0
 420              	.LVL31:
 421 0000 10B5     		push	{r4, lr}
 422              		.cfi_def_cfa_offset 8
 423              		.cfi_offset 4, -8
 424              		.cfi_offset 14, -4
 425              		.loc 1 351 0
 426 0002 064C     		ldr	r4, .L26
 427              		.loc 1 350 0
 428 0004 4FF4FA70 		mov	r0, #500
 429              	.LVL32:
 430 0008 FFF7FEFF 		bl	chThdSleep
 431              	.LVL33:
 432              		.loc 1 351 0
 433 000c 2046     		mov	r0, r4
 434 000e FFF7FEFF 		bl	chMtxLock
 435              	.LVL34:
 436              		.loc 1 352 0
 437 0012 2046     		mov	r0, r4
 438 0014 FFF7FEFF 		bl	chMtxUnlock
 439              	.LVL35:
 440              		.loc 1 354 0
 441 0018 0020     		movs	r0, #0
 442 001a 10BD     		pop	{r4, pc}
 443              	.L27:
 444              		.align	2
 445              	.L26:
 446 001c 00000000 		.word	.LANCHOR1
 447              		.cfi_endproc
 448              	.LFE230:
 449              		.size	thread4a, .-thread4a
 450              		.section	.text.mtx4_execute,"ax",%progbits
 451              		.align	2
 452              		.p2align 4,,15
 453              		.thumb
 454              		.thumb_func
 455              		.type	mtx4_execute, %function
 456              	mtx4_execute:
ARM GAS  /tmp/ccldI6Va.s 			page 9


 457              	.LFB232:
 458              		.loc 1 365 0
 459              		.cfi_startproc
 460              		@ args = 0, pretend = 0, frame = 8
 461              		@ frame_needed = 0, uses_anonymous_args = 0
 462 0000 2DE9F046 		push	{r4, r5, r6, r7, r9, r10, lr}
 463              		.cfi_def_cfa_offset 28
 464              		.cfi_offset 4, -28
 465              		.cfi_offset 5, -24
 466              		.cfi_offset 6, -20
 467              		.cfi_offset 7, -16
 468              		.cfi_offset 9, -12
 469              		.cfi_offset 10, -8
 470              		.cfi_offset 14, -4
 471              	.LBB148:
 472              	.LBB149:
 473              	.LBB150:
 474              	.LBB151:
 475              		.loc 2 179 0
 476 0004 8F4D     		ldr	r5, .L33
 477              	.LBE151:
 478              	.LBE150:
 479              	.LBE149:
 480              	.LBE148:
 481              		.loc 1 371 0
 482 0006 904E     		ldr	r6, .L33+4
 483              	.LBB154:
 484              	.LBB152:
 485              		.loc 2 192 0
 486 0008 AB69     		ldr	r3, [r5, #24]
 487              	.LBE152:
 488              	.LBE154:
 489              		.loc 1 371 0
 490 000a 3268     		ldr	r2, [r6]
 491              	.LBB155:
 492              	.LBB153:
 493              		.loc 2 192 0
 494 000c 9C68     		ldr	r4, [r3, #8]
 495              	.LBE153:
 496              	.LBE155:
 497              		.loc 1 371 0
 498 000e 8F4B     		ldr	r3, .L33+8
 499 0010 8F4F     		ldr	r7, .L33+12
 500              		.loc 1 365 0
 501 0012 85B0     		sub	sp, sp, #20
 502              		.cfi_def_cfa_offset 48
 503              		.loc 1 369 0
 504 0014 04F10109 		add	r9, r4, #1
 505              	.LVL36:
 506              		.loc 1 371 0
 507 0018 0392     		str	r2, [sp, #12]
 508 001a 0093     		str	r3, [sp]
 509 001c 4A46     		mov	r2, r9
 510 001e 4FF4A471 		mov	r1, #328
 511 0022 8C4B     		ldr	r3, .L33+16
 512 0024 0398     		ldr	r0, [sp, #12]
 513 0026 FFF7FEFF 		bl	chThdCreateStatic
ARM GAS  /tmp/ccldI6Va.s 			page 10


 514              	.LVL37:
 515              		.loc 1 372 0
 516 002a 7668     		ldr	r6, [r6, #4]
 517 002c 8A4B     		ldr	r3, .L33+20
 518              		.loc 1 371 0
 519 002e 3860     		str	r0, [r7]
 520              		.loc 1 370 0
 521 0030 04F1020A 		add	r10, r4, #2
 522              	.LVL38:
 523              		.loc 1 372 0
 524 0034 4FF4A471 		mov	r1, #328
 525 0038 5246     		mov	r2, r10
 526 003a 0093     		str	r3, [sp]
 527 003c 3046     		mov	r0, r6
 528 003e 874B     		ldr	r3, .L33+24
 529 0040 FFF7FEFF 		bl	chThdCreateStatic
 530              	.LVL39:
 531 0044 7860     		str	r0, [r7, #4]
 532              		.loc 1 373 0
 533 0046 8648     		ldr	r0, .L33+28
 534 0048 FFF7FEFF 		bl	chMtxLock
 535              	.LVL40:
 536              	.LBB156:
 537              	.LBB157:
 538              		.loc 2 192 0
 539 004c AB69     		ldr	r3, [r5, #24]
 540              	.LBE157:
 541              	.LBE156:
 542              		.loc 1 374 0
 543 004e 9968     		ldr	r1, [r3, #8]
 544 0050 B4EB010C 		subs	ip, r4, r1
 545 0054 DCF10001 		rsbs	r1, ip, #0
 546 0058 51EB0C01 		adcs	r1, r1, ip
 547 005c 0120     		movs	r0, #1
 548 005e FFF7FEFF 		bl	_test_assert
 549              	.LVL41:
 550 0062 10B1     		cbz	r0, .L32
 551              	.L28:
 552              		.loc 1 410 0
 553 0064 05B0     		add	sp, sp, #20
 554              		@ sp needed
 555 0066 BDE8F086 		pop	{r4, r5, r6, r7, r9, r10, pc}
 556              	.LVL42:
 557              	.L32:
 558              		.loc 1 375 0
 559 006a 4FF47A70 		mov	r0, #1000
 560 006e FFF7FEFF 		bl	chThdSleep
 561              	.LVL43:
 562              	.LBB158:
 563              	.LBB159:
 564              		.loc 2 192 0
 565 0072 AB69     		ldr	r3, [r5, #24]
 566              	.LBE159:
 567              	.LBE158:
 568              		.loc 1 376 0
 569 0074 9968     		ldr	r1, [r3, #8]
 570 0076 B9EB010E 		subs	lr, r9, r1
ARM GAS  /tmp/ccldI6Va.s 			page 11


 571 007a DEF10001 		rsbs	r1, lr, #0
 572 007e 51EB0E01 		adcs	r1, r1, lr
 573 0082 0220     		movs	r0, #2
 574 0084 FFF7FEFF 		bl	_test_assert
 575              	.LVL44:
 576 0088 0028     		cmp	r0, #0
 577 008a EBD1     		bne	.L28
 578              		.loc 1 377 0
 579 008c 7548     		ldr	r0, .L33+32
 580 008e FFF7FEFF 		bl	chMtxLock
 581              	.LVL45:
 582              	.LBB160:
 583              	.LBB161:
 584              		.loc 2 192 0
 585 0092 AB69     		ldr	r3, [r5, #24]
 586              	.LBE161:
 587              	.LBE160:
 588              		.loc 1 378 0
 589 0094 9968     		ldr	r1, [r3, #8]
 590 0096 B9EB0102 		subs	r2, r9, r1
 591 009a 5142     		rsbs	r1, r2, #0
 592 009c 5141     		adcs	r1, r1, r2
 593 009e 0320     		movs	r0, #3
 594 00a0 FFF7FEFF 		bl	_test_assert
 595              	.LVL46:
 596 00a4 0028     		cmp	r0, #0
 597 00a6 DDD1     		bne	.L28
 598              		.loc 1 379 0
 599 00a8 4FF47A70 		mov	r0, #1000
 600 00ac FFF7FEFF 		bl	chThdSleep
 601              	.LVL47:
 602              	.LBB162:
 603              	.LBB163:
 604              		.loc 2 192 0
 605 00b0 AB69     		ldr	r3, [r5, #24]
 606              	.LBE163:
 607              	.LBE162:
 608              		.loc 1 380 0
 609 00b2 9968     		ldr	r1, [r3, #8]
 610 00b4 BAEB0103 		subs	r3, r10, r1
 611 00b8 5942     		rsbs	r1, r3, #0
 612 00ba 5941     		adcs	r1, r1, r3
 613 00bc 0420     		movs	r0, #4
 614 00be FFF7FEFF 		bl	_test_assert
 615              	.LVL48:
 616 00c2 0028     		cmp	r0, #0
 617 00c4 CED1     		bne	.L28
 618              		.loc 1 381 0
 619 00c6 6748     		ldr	r0, .L33+32
 620 00c8 FFF7FEFF 		bl	chMtxUnlock
 621              	.LVL49:
 622              	.LBB164:
 623              	.LBB165:
 624              		.loc 2 192 0
 625 00cc AB69     		ldr	r3, [r5, #24]
 626              	.LBE165:
 627              	.LBE164:
ARM GAS  /tmp/ccldI6Va.s 			page 12


 628              		.loc 1 382 0
 629 00ce 9968     		ldr	r1, [r3, #8]
 630 00d0 B9EB010C 		subs	ip, r9, r1
 631 00d4 DCF10001 		rsbs	r1, ip, #0
 632 00d8 51EB0C01 		adcs	r1, r1, ip
 633 00dc 0520     		movs	r0, #5
 634 00de FFF7FEFF 		bl	_test_assert
 635              	.LVL50:
 636 00e2 0028     		cmp	r0, #0
 637 00e4 BED1     		bne	.L28
 638              		.loc 1 383 0
 639 00e6 4FF47A70 		mov	r0, #1000
 640 00ea FFF7FEFF 		bl	chThdSleep
 641              	.LVL51:
 642              	.LBB166:
 643              	.LBB167:
 644              		.loc 2 192 0
 645 00ee AB69     		ldr	r3, [r5, #24]
 646              	.LBE167:
 647              	.LBE166:
 648              		.loc 1 384 0
 649 00f0 9968     		ldr	r1, [r3, #8]
 650 00f2 B9EB010E 		subs	lr, r9, r1
 651 00f6 DEF10001 		rsbs	r1, lr, #0
 652 00fa 51EB0E01 		adcs	r1, r1, lr
 653 00fe 0620     		movs	r0, #6
 654 0100 FFF7FEFF 		bl	_test_assert
 655              	.LVL52:
 656 0104 0028     		cmp	r0, #0
 657 0106 ADD1     		bne	.L28
 658              		.loc 1 385 0
 659 0108 FFF7FEFF 		bl	chMtxUnlockAll
 660              	.LVL53:
 661              	.LBB168:
 662              	.LBB169:
 663              		.loc 2 192 0
 664 010c AB69     		ldr	r3, [r5, #24]
 665              	.LBE169:
 666              	.LBE168:
 667              		.loc 1 386 0
 668 010e 9968     		ldr	r1, [r3, #8]
 669 0110 621A     		subs	r2, r4, r1
 670 0112 5142     		rsbs	r1, r2, #0
 671 0114 5141     		adcs	r1, r1, r2
 672 0116 0720     		movs	r0, #7
 673 0118 FFF7FEFF 		bl	_test_assert
 674              	.LVL54:
 675 011c 0028     		cmp	r0, #0
 676 011e A1D1     		bne	.L28
 677              		.loc 1 387 0
 678 0120 FFF7FEFF 		bl	test_wait_threads
 679              	.LVL55:
 680              		.loc 1 390 0
 681 0124 504B     		ldr	r3, .L33+36
 682 0126 0093     		str	r3, [sp]
 683 0128 4FF4A471 		mov	r1, #328
 684 012c 4A46     		mov	r2, r9
ARM GAS  /tmp/ccldI6Va.s 			page 13


 685 012e 494B     		ldr	r3, .L33+16
 686 0130 0398     		ldr	r0, [sp, #12]
 687 0132 FFF7FEFF 		bl	chThdCreateStatic
 688              	.LVL56:
 689              		.loc 1 391 0
 690 0136 4D4B     		ldr	r3, .L33+40
 691              		.loc 1 390 0
 692 0138 3860     		str	r0, [r7]
 693              		.loc 1 391 0
 694 013a 4FF4A471 		mov	r1, #328
 695 013e 0093     		str	r3, [sp]
 696 0140 5246     		mov	r2, r10
 697 0142 464B     		ldr	r3, .L33+24
 698 0144 3046     		mov	r0, r6
 699 0146 FFF7FEFF 		bl	chThdCreateStatic
 700              	.LVL57:
 701 014a 7860     		str	r0, [r7, #4]
 702              		.loc 1 392 0
 703 014c 4448     		ldr	r0, .L33+28
 704 014e FFF7FEFF 		bl	chMtxLock
 705              	.LVL58:
 706              	.LBB170:
 707              	.LBB171:
 708              		.loc 2 192 0
 709 0152 AB69     		ldr	r3, [r5, #24]
 710              	.LBE171:
 711              	.LBE170:
 712              		.loc 1 393 0
 713 0154 9968     		ldr	r1, [r3, #8]
 714 0156 631A     		subs	r3, r4, r1
 715 0158 5942     		rsbs	r1, r3, #0
 716 015a 5941     		adcs	r1, r1, r3
 717 015c 0820     		movs	r0, #8
 718 015e FFF7FEFF 		bl	_test_assert
 719              	.LVL59:
 720 0162 0028     		cmp	r0, #0
 721 0164 7FF47EAF 		bne	.L28
 722              		.loc 1 394 0
 723 0168 4FF47A70 		mov	r0, #1000
 724 016c FFF7FEFF 		bl	chThdSleep
 725              	.LVL60:
 726              	.LBB172:
 727              	.LBB173:
 728              		.loc 2 192 0
 729 0170 AB69     		ldr	r3, [r5, #24]
 730              	.LBE173:
 731              	.LBE172:
 732              		.loc 1 395 0
 733 0172 9968     		ldr	r1, [r3, #8]
 734 0174 B9EB010C 		subs	ip, r9, r1
 735 0178 DCF10001 		rsbs	r1, ip, #0
 736 017c 51EB0C01 		adcs	r1, r1, ip
 737 0180 0920     		movs	r0, #9
 738 0182 FFF7FEFF 		bl	_test_assert
 739              	.LVL61:
 740 0186 0028     		cmp	r0, #0
 741 0188 7FF46CAF 		bne	.L28
ARM GAS  /tmp/ccldI6Va.s 			page 14


 742              		.loc 1 396 0
 743 018c 3548     		ldr	r0, .L33+32
 744 018e FFF7FEFF 		bl	chMtxLock
 745              	.LVL62:
 746              	.LBB174:
 747              	.LBB175:
 748              		.loc 2 192 0
 749 0192 AB69     		ldr	r3, [r5, #24]
 750              	.LBE175:
 751              	.LBE174:
 752              		.loc 1 397 0
 753 0194 9968     		ldr	r1, [r3, #8]
 754 0196 B9EB010E 		subs	lr, r9, r1
 755 019a DEF10001 		rsbs	r1, lr, #0
 756 019e 51EB0E01 		adcs	r1, r1, lr
 757 01a2 0A20     		movs	r0, #10
 758 01a4 FFF7FEFF 		bl	_test_assert
 759              	.LVL63:
 760 01a8 0028     		cmp	r0, #0
 761 01aa 7FF45BAF 		bne	.L28
 762              		.loc 1 398 0
 763 01ae 4FF47A70 		mov	r0, #1000
 764 01b2 FFF7FEFF 		bl	chThdSleep
 765              	.LVL64:
 766              	.LBB176:
 767              	.LBB177:
 768              		.loc 2 192 0
 769 01b6 AB69     		ldr	r3, [r5, #24]
 770              	.LBE177:
 771              	.LBE176:
 772              		.loc 1 399 0
 773 01b8 9968     		ldr	r1, [r3, #8]
 774 01ba BAEB0107 		subs	r7, r10, r1
 775 01be 7942     		rsbs	r1, r7, #0
 776 01c0 4FF00B00 		mov	r0, #11
 777 01c4 7941     		adcs	r1, r1, r7
 778 01c6 FFF7FEFF 		bl	_test_assert
 779              	.LVL65:
 780 01ca 0646     		mov	r6, r0
 781 01cc 0028     		cmp	r0, #0
 782 01ce 7FF449AF 		bne	.L28
 783              	.LVL66:
 784              	.LBB178:
 785              	.LBB179:
 786              	.LBB180:
 787              	.LBB181:
 788              		.file 3 "../ChibiOS/os/ext/CMSIS/include/core_cmFunc.h"
 789              		.loc 3 546 0
 790 01d2 2023     		movs	r3, #32
 791              	@ 546 "../ChibiOS/os/ext/CMSIS/include/core_cmFunc.h" 1
 792 01d4 83F31188 		MSR basepri, r3
 793              	@ 0 "" 2
 794              		.thumb
 795              	.LBE181:
 796              	.LBE180:
 797              	.LBE179:
 798              	.LBE178:
ARM GAS  /tmp/ccldI6Va.s 			page 15


 799              		.loc 1 401 0
 800 01d8 2248     		ldr	r0, .L33+32
 801 01da FFF7FEFF 		bl	chMtxUnlockS
 802              	.LVL67:
 803              		.loc 1 402 0
 804 01de FFF7FEFF 		bl	chSchRescheduleS
 805              	.LVL68:
 806              	.LBB182:
 807              	.LBB183:
 808              	.LBB184:
 809              	.LBB185:
 810              	.LBB186:
 811              		.loc 3 546 0
 812              	@ 546 "../ChibiOS/os/ext/CMSIS/include/core_cmFunc.h" 1
 813 01e2 86F31188 		MSR basepri, r6
 814              	@ 0 "" 2
 815              		.thumb
 816              	.LBE186:
 817              	.LBE185:
 818              	.LBE184:
 819              	.LBE183:
 820              	.LBE182:
 821              	.LBB187:
 822              	.LBB188:
 823              		.loc 2 192 0
 824 01e6 AB69     		ldr	r3, [r5, #24]
 825              	.LBE188:
 826              	.LBE187:
 827              		.loc 1 404 0
 828 01e8 9968     		ldr	r1, [r3, #8]
 829 01ea B9EB0106 		subs	r6, r9, r1
 830 01ee 7142     		rsbs	r1, r6, #0
 831 01f0 7141     		adcs	r1, r1, r6
 832 01f2 0C20     		movs	r0, #12
 833 01f4 FFF7FEFF 		bl	_test_assert
 834              	.LVL69:
 835 01f8 0028     		cmp	r0, #0
 836 01fa 7FF433AF 		bne	.L28
 837              		.loc 1 405 0
 838 01fe 4FF47A70 		mov	r0, #1000
 839 0202 FFF7FEFF 		bl	chThdSleep
 840              	.LVL70:
 841              	.LBB189:
 842              	.LBB190:
 843              		.loc 2 192 0
 844 0206 AB69     		ldr	r3, [r5, #24]
 845              	.LBE190:
 846              	.LBE189:
 847              		.loc 1 406 0
 848 0208 9968     		ldr	r1, [r3, #8]
 849 020a B9EB0102 		subs	r2, r9, r1
 850 020e 5142     		rsbs	r1, r2, #0
 851 0210 5141     		adcs	r1, r1, r2
 852 0212 0D20     		movs	r0, #13
 853 0214 FFF7FEFF 		bl	_test_assert
 854              	.LVL71:
 855 0218 0028     		cmp	r0, #0
ARM GAS  /tmp/ccldI6Va.s 			page 16


 856 021a 7FF423AF 		bne	.L28
 857              		.loc 1 407 0
 858 021e FFF7FEFF 		bl	chMtxUnlockAll
 859              	.LVL72:
 860              	.LBB191:
 861              	.LBB192:
 862              		.loc 2 192 0
 863 0222 AB69     		ldr	r3, [r5, #24]
 864              	.LBE192:
 865              	.LBE191:
 866              		.loc 1 408 0
 867 0224 9968     		ldr	r1, [r3, #8]
 868 0226 631A     		subs	r3, r4, r1
 869 0228 5942     		rsbs	r1, r3, #0
 870 022a 5941     		adcs	r1, r1, r3
 871 022c 0E20     		movs	r0, #14
 872 022e FFF7FEFF 		bl	_test_assert
 873              	.LVL73:
 874 0232 0028     		cmp	r0, #0
 875 0234 7FF416AF 		bne	.L28
 876              		.loc 1 410 0
 877 0238 05B0     		add	sp, sp, #20
 878              		@ sp needed
 879 023a BDE8F046 		pop	{r4, r5, r6, r7, r9, r10, lr}
 880              	.LVL74:
 881              		.loc 1 409 0
 882 023e FFF7FEBF 		b	test_wait_threads
 883              	.LVL75:
 884              	.L34:
 885 0242 00BF     		.align	2
 886              	.L33:
 887 0244 00000000 		.word	ch
 888 0248 00000000 		.word	wa
 889 024c 0C000000 		.word	.LC3
 890 0250 00000000 		.word	threads
 891 0254 00000000 		.word	thread4a
 892 0258 10000000 		.word	.LC4
 893 025c 00000000 		.word	thread4b
 894 0260 00000000 		.word	.LANCHOR1
 895 0264 00000000 		.word	.LANCHOR0
 896 0268 04000000 		.word	.LC1
 897 026c 08000000 		.word	.LC2
 898              		.cfi_endproc
 899              	.LFE232:
 900              		.size	mtx4_execute, .-mtx4_execute
 901              		.section	.text.mtx5_execute,"ax",%progbits
 902              		.align	2
 903              		.p2align 4,,15
 904              		.thumb
 905              		.thumb_func
 906              		.type	mtx5_execute, %function
 907              	mtx5_execute:
 908              	.LFB234:
 909              		.loc 1 434 0
 910              		.cfi_startproc
 911              		@ args = 0, pretend = 0, frame = 0
 912              		@ frame_needed = 0, uses_anonymous_args = 0
ARM GAS  /tmp/ccldI6Va.s 			page 17


 913 0000 F8B5     		push	{r3, r4, r5, r6, r7, lr}
 914              		.cfi_def_cfa_offset 24
 915              		.cfi_offset 3, -24
 916              		.cfi_offset 4, -20
 917              		.cfi_offset 5, -16
 918              		.cfi_offset 6, -12
 919              		.cfi_offset 7, -8
 920              		.cfi_offset 14, -4
 921              	.LBB193:
 922              	.LBB194:
 923              	.LBB195:
 924              	.LBB196:
 925              		.loc 2 179 0
 926 0002 2B4D     		ldr	r5, .L40
 927              	.LBE196:
 928              	.LBE195:
 929              	.LBE194:
 930              	.LBE193:
 931              		.loc 1 440 0
 932 0004 2B4C     		ldr	r4, .L40+4
 933              	.LBB199:
 934              	.LBB197:
 935              		.loc 2 192 0
 936 0006 AB69     		ldr	r3, [r5, #24]
 937              	.LBE197:
 938              	.LBE199:
 939              		.loc 1 440 0
 940 0008 2046     		mov	r0, r4
 941              	.LBB200:
 942              	.LBB198:
 943              		.loc 2 192 0
 944 000a 9E68     		ldr	r6, [r3, #8]
 945              	.LBE198:
 946              	.LBE200:
 947              		.loc 1 440 0
 948 000c FFF7FEFF 		bl	chMtxTryLock
 949              	.LVL76:
 950              		.loc 1 441 0
 951 0010 0146     		mov	r1, r0
 952 0012 0120     		movs	r0, #1
 953              	.LVL77:
 954 0014 FFF7FEFF 		bl	_test_assert
 955              	.LVL78:
 956 0018 00B1     		cbz	r0, .L39
 957              	.L35:
 958 001a F8BD     		pop	{r3, r4, r5, r6, r7, pc}
 959              	.L39:
 960              		.loc 1 443 0
 961 001c 2046     		mov	r0, r4
 962 001e FFF7FEFF 		bl	chMtxTryLock
 963              	.LVL79:
 964              		.loc 1 444 0
 965 0022 80F00101 		eor	r1, r0, #1
 966 0026 C9B2     		uxtb	r1, r1
 967 0028 0220     		movs	r0, #2
 968              	.LVL80:
 969 002a FFF7FEFF 		bl	_test_assert
ARM GAS  /tmp/ccldI6Va.s 			page 18


 970              	.LVL81:
 971 002e 0746     		mov	r7, r0
 972 0030 0028     		cmp	r0, #0
 973 0032 F2D1     		bne	.L35
 974              	.LVL82:
 975              	.LBB201:
 976              	.LBB202:
 977              	.LBB203:
 978              	.LBB204:
 979              		.loc 3 546 0
 980 0034 2023     		movs	r3, #32
 981              	@ 546 "../ChibiOS/os/ext/CMSIS/include/core_cmFunc.h" 1
 982 0036 83F31188 		MSR basepri, r3
 983              	@ 0 "" 2
 984              		.thumb
 985              	.LBE204:
 986              	.LBE203:
 987              	.LBE202:
 988              	.LBE201:
 989              		.loc 1 447 0
 990 003a 2046     		mov	r0, r4
 991 003c FFF7FEFF 		bl	chMtxUnlockS
 992              	.LVL83:
 993              	.LBB205:
 994              	.LBB206:
 995              	.LBB207:
 996              	.LBB208:
 997              	.LBB209:
 998              		.loc 3 546 0
 999              	@ 546 "../ChibiOS/os/ext/CMSIS/include/core_cmFunc.h" 1
 1000 0040 87F31188 		MSR basepri, r7
 1001              	@ 0 "" 2
 1002              	.LVL84:
 1003              		.thumb
 1004              	.LBE209:
 1005              	.LBE208:
 1006              	.LBE207:
 1007              	.LBE206:
 1008              	.LBE205:
 1009              	.LBB210:
 1010              	.LBB211:
 1011              		.file 4 "../ChibiOS/os/rt/include/chschd.h"
 1012              		.loc 4 587 0
 1013 0044 2168     		ldr	r1, [r4]
 1014              	.LBE211:
 1015              	.LBE210:
 1016              		.loc 1 450 0
 1017 0046 0F1B     		subs	r7, r1, r4
 1018 0048 7942     		rsbs	r1, r7, #0
 1019 004a 7941     		adcs	r1, r1, r7
 1020 004c 0320     		movs	r0, #3
 1021 004e FFF7FEFF 		bl	_test_assert
 1022              	.LVL85:
 1023 0052 0028     		cmp	r0, #0
 1024 0054 E1D1     		bne	.L35
 1025              		.loc 1 451 0
 1026 0056 A168     		ldr	r1, [r4, #8]
ARM GAS  /tmp/ccldI6Va.s 			page 19


 1027 0058 D1F10101 		rsbs	r1, r1, #1
 1028 005c 38BF     		it	cc
 1029 005e 0021     		movcc	r1, #0
 1030 0060 0420     		movs	r0, #4
 1031 0062 FFF7FEFF 		bl	_test_assert
 1032              	.LVL86:
 1033 0066 0028     		cmp	r0, #0
 1034 0068 D7D1     		bne	.L35
 1035              	.LBB212:
 1036              	.LBB213:
 1037              		.loc 2 192 0
 1038 006a AB69     		ldr	r3, [r5, #24]
 1039              	.LBE213:
 1040              	.LBE212:
 1041              		.loc 1 452 0
 1042 006c 9968     		ldr	r1, [r3, #8]
 1043 006e 721A     		subs	r2, r6, r1
 1044 0070 5142     		rsbs	r1, r2, #0
 1045 0072 5141     		adcs	r1, r1, r2
 1046 0074 0520     		movs	r0, #5
 1047 0076 FFF7FEFF 		bl	_test_assert
 1048              	.LVL87:
 1049 007a 0028     		cmp	r0, #0
 1050 007c CDD1     		bne	.L35
 1051              		.loc 1 455 0
 1052 007e 2046     		mov	r0, r4
 1053 0080 FFF7FEFF 		bl	chMtxLock
 1054              	.LVL88:
 1055              		.loc 1 456 0
 1056 0084 FFF7FEFF 		bl	chMtxUnlockAll
 1057              	.LVL89:
 1058              	.LBB214:
 1059              	.LBB215:
 1060              		.loc 4 587 0
 1061 0088 2168     		ldr	r1, [r4]
 1062              	.LBE215:
 1063              	.LBE214:
 1064              		.loc 1 457 0
 1065 008a 0B1B     		subs	r3, r1, r4
 1066 008c 5942     		rsbs	r1, r3, #0
 1067 008e 5941     		adcs	r1, r1, r3
 1068 0090 0620     		movs	r0, #6
 1069 0092 FFF7FEFF 		bl	_test_assert
 1070              	.LVL90:
 1071 0096 0028     		cmp	r0, #0
 1072 0098 BFD1     		bne	.L35
 1073              		.loc 1 458 0
 1074 009a A168     		ldr	r1, [r4, #8]
 1075 009c D1F10101 		rsbs	r1, r1, #1
 1076 00a0 4FF00700 		mov	r0, #7
 1077 00a4 38BF     		it	cc
 1078 00a6 0021     		movcc	r1, #0
 1079              		.loc 1 459 0
 1080 00a8 BDE8F840 		pop	{r3, r4, r5, r6, r7, lr}
 1081              		.loc 1 458 0
 1082 00ac FFF7FEBF 		b	_test_assert
 1083              	.LVL91:
ARM GAS  /tmp/ccldI6Va.s 			page 20


 1084              	.L41:
 1085              		.align	2
 1086              	.L40:
 1087 00b0 00000000 		.word	ch
 1088 00b4 00000000 		.word	.LANCHOR0
 1089              		.cfi_endproc
 1090              	.LFE234:
 1091              		.size	mtx5_execute, .-mtx5_execute
 1092              		.section	.text.mtx6_execute,"ax",%progbits
 1093              		.align	2
 1094              		.p2align 4,,15
 1095              		.thumb
 1096              		.thumb_func
 1097              		.type	mtx6_execute, %function
 1098              	mtx6_execute:
 1099              	.LFB237:
 1100              		.loc 1 495 0
 1101              		.cfi_startproc
 1102              		@ args = 0, pretend = 0, frame = 0
 1103              		@ frame_needed = 0, uses_anonymous_args = 0
 1104 0000 F0B5     		push	{r4, r5, r6, r7, lr}
 1105              		.cfi_def_cfa_offset 20
 1106              		.cfi_offset 4, -20
 1107              		.cfi_offset 5, -16
 1108              		.cfi_offset 6, -12
 1109              		.cfi_offset 7, -8
 1110              		.cfi_offset 14, -4
 1111              	.LBB216:
 1112              	.LBB217:
 1113              	.LBB218:
 1114              	.LBB219:
 1115              		.loc 2 179 0
 1116 0002 2F4B     		ldr	r3, .L43
 1117              	.LBE219:
 1118              	.LBE218:
 1119              	.LBE217:
 1120              	.LBE216:
 1121              		.loc 1 498 0
 1122 0004 2F4F     		ldr	r7, .L43+4
 1123              	.LBB222:
 1124              	.LBB220:
 1125              		.loc 2 192 0
 1126 0006 9B69     		ldr	r3, [r3, #24]
 1127              	.LBE220:
 1128              	.LBE222:
 1129              		.loc 1 498 0
 1130 0008 2F4D     		ldr	r5, .L43+8
 1131              	.LBB223:
 1132              	.LBB221:
 1133              		.loc 2 192 0
 1134 000a 9E68     		ldr	r6, [r3, #8]
 1135              	.LBE221:
 1136              	.LBE223:
 1137              		.loc 1 498 0
 1138 000c 2F4B     		ldr	r3, .L43+12
 1139 000e 3868     		ldr	r0, [r7]
 1140 0010 2F4C     		ldr	r4, .L43+16
ARM GAS  /tmp/ccldI6Va.s 			page 21


 1141              		.loc 1 495 0
 1142 0012 83B0     		sub	sp, sp, #12
 1143              		.cfi_def_cfa_offset 32
 1144              		.loc 1 498 0
 1145 0014 721C     		adds	r2, r6, #1
 1146 0016 0093     		str	r3, [sp]
 1147 0018 4FF4A471 		mov	r1, #328
 1148 001c 2B46     		mov	r3, r5
 1149 001e FFF7FEFF 		bl	chThdCreateStatic
 1150              	.LVL92:
 1151              		.loc 1 499 0
 1152 0022 7B68     		ldr	r3, [r7, #4]
 1153 0024 2B49     		ldr	r1, .L43+20
 1154              		.loc 1 498 0
 1155 0026 2060     		str	r0, [r4]
 1156              		.loc 1 499 0
 1157 0028 B21C     		adds	r2, r6, #2
 1158 002a 0091     		str	r1, [sp]
 1159 002c 1846     		mov	r0, r3
 1160 002e 4FF4A471 		mov	r1, #328
 1161 0032 2B46     		mov	r3, r5
 1162 0034 FFF7FEFF 		bl	chThdCreateStatic
 1163              	.LVL93:
 1164              		.loc 1 500 0
 1165 0038 BB68     		ldr	r3, [r7, #8]
 1166 003a 2749     		ldr	r1, .L43+24
 1167              		.loc 1 499 0
 1168 003c 6060     		str	r0, [r4, #4]
 1169              		.loc 1 500 0
 1170 003e F21C     		adds	r2, r6, #3
 1171 0040 0091     		str	r1, [sp]
 1172 0042 1846     		mov	r0, r3
 1173 0044 4FF4A471 		mov	r1, #328
 1174 0048 2B46     		mov	r3, r5
 1175 004a FFF7FEFF 		bl	chThdCreateStatic
 1176              	.LVL94:
 1177              		.loc 1 501 0
 1178 004e FB68     		ldr	r3, [r7, #12]
 1179 0050 2249     		ldr	r1, .L43+28
 1180              		.loc 1 500 0
 1181 0052 A060     		str	r0, [r4, #8]
 1182              		.loc 1 501 0
 1183 0054 321D     		adds	r2, r6, #4
 1184 0056 0091     		str	r1, [sp]
 1185 0058 1846     		mov	r0, r3
 1186 005a 4FF4A471 		mov	r1, #328
 1187 005e 2B46     		mov	r3, r5
 1188 0060 FFF7FEFF 		bl	chThdCreateStatic
 1189              	.LVL95:
 1190              		.loc 1 502 0
 1191 0064 3B69     		ldr	r3, [r7, #16]
 1192 0066 1E49     		ldr	r1, .L43+32
 1193              		.loc 1 501 0
 1194 0068 E060     		str	r0, [r4, #12]
 1195              		.loc 1 502 0
 1196 006a 721D     		adds	r2, r6, #5
 1197 006c 0091     		str	r1, [sp]
ARM GAS  /tmp/ccldI6Va.s 			page 22


 1198 006e 1846     		mov	r0, r3
 1199 0070 4FF4A471 		mov	r1, #328
 1200 0074 2B46     		mov	r3, r5
 1201 0076 FFF7FEFF 		bl	chThdCreateStatic
 1202              	.LVL96:
 1203              	.LBB224:
 1204              	.LBB225:
 1205              	.LBB226:
 1206              	.LBB227:
 1207              		.loc 3 546 0
 1208 007a 2023     		movs	r3, #32
 1209              	.LBE227:
 1210              	.LBE226:
 1211              	.LBE225:
 1212              	.LBE224:
 1213              		.loc 1 502 0
 1214 007c 2061     		str	r0, [r4, #16]
 1215              	.LVL97:
 1216              	.LBB231:
 1217              	.LBB230:
 1218              	.LBB229:
 1219              	.LBB228:
 1220              		.loc 3 546 0
 1221              	@ 546 "../ChibiOS/os/ext/CMSIS/include/core_cmFunc.h" 1
 1222 007e 83F31188 		MSR basepri, r3
 1223              	@ 0 "" 2
 1224              		.thumb
 1225              	.LBE228:
 1226              	.LBE229:
 1227              	.LBE230:
 1228              	.LBE231:
 1229              		.loc 1 504 0
 1230 0082 184C     		ldr	r4, .L43+36
 1231 0084 2046     		mov	r0, r4
 1232 0086 FFF7FEFF 		bl	chCondSignalI
 1233              	.LVL98:
 1234              		.loc 1 505 0
 1235 008a 2046     		mov	r0, r4
 1236 008c FFF7FEFF 		bl	chCondSignalI
 1237              	.LVL99:
 1238              		.loc 1 506 0
 1239 0090 2046     		mov	r0, r4
 1240 0092 FFF7FEFF 		bl	chCondSignalI
 1241              	.LVL100:
 1242              		.loc 1 507 0
 1243 0096 2046     		mov	r0, r4
 1244 0098 FFF7FEFF 		bl	chCondSignalI
 1245              	.LVL101:
 1246              		.loc 1 508 0
 1247 009c 2046     		mov	r0, r4
 1248 009e FFF7FEFF 		bl	chCondSignalI
 1249              	.LVL102:
 1250              		.loc 1 509 0
 1251 00a2 FFF7FEFF 		bl	chSchRescheduleS
 1252              	.LVL103:
 1253              	.LBB232:
 1254              	.LBB233:
ARM GAS  /tmp/ccldI6Va.s 			page 23


 1255              	.LBB234:
 1256              	.LBB235:
 1257              	.LBB236:
 1258              		.loc 3 546 0
 1259 00a6 0023     		movs	r3, #0
 1260              	@ 546 "../ChibiOS/os/ext/CMSIS/include/core_cmFunc.h" 1
 1261 00a8 83F31188 		MSR basepri, r3
 1262              	@ 0 "" 2
 1263              		.thumb
 1264              	.LBE236:
 1265              	.LBE235:
 1266              	.LBE234:
 1267              	.LBE233:
 1268              	.LBE232:
 1269              		.loc 1 511 0
 1270 00ac FFF7FEFF 		bl	test_wait_threads
 1271              	.LVL104:
 1272              		.loc 1 512 0
 1273 00b0 0D49     		ldr	r1, .L43+40
 1274 00b2 0120     		movs	r0, #1
 1275              		.loc 1 513 0
 1276 00b4 03B0     		add	sp, sp, #12
 1277              		@ sp needed
 1278 00b6 BDE8F040 		pop	{r4, r5, r6, r7, lr}
 1279              		.loc 1 512 0
 1280 00ba FFF7FEBF 		b	_test_assert_sequence
 1281              	.LVL105:
 1282              	.L44:
 1283 00be 00BF     		.align	2
 1284              	.L43:
 1285 00c0 00000000 		.word	ch
 1286 00c4 00000000 		.word	wa
 1287 00c8 00000000 		.word	thread10
 1288 00cc 00000000 		.word	.LC0
 1289 00d0 00000000 		.word	threads
 1290 00d4 04000000 		.word	.LC1
 1291 00d8 08000000 		.word	.LC2
 1292 00dc 0C000000 		.word	.LC3
 1293 00e0 10000000 		.word	.LC4
 1294 00e4 00000000 		.word	.LANCHOR2
 1295 00e8 14000000 		.word	.LC5
 1296              		.cfi_endproc
 1297              	.LFE237:
 1298              		.size	mtx6_execute, .-mtx6_execute
 1299 00ec AFF30080 		.section	.text.thread10,"ax",%progbits
 1300              		.align	2
 1301              		.p2align 4,,15
 1302              		.thumb
 1303              		.thumb_func
 1304              		.type	thread10, %function
 1305              	thread10:
 1306              	.LFB236:
 1307              		.loc 1 486 0
 1308              		.cfi_startproc
 1309              		@ args = 0, pretend = 0, frame = 0
 1310              		@ frame_needed = 0, uses_anonymous_args = 0
 1311              	.LVL106:
ARM GAS  /tmp/ccldI6Va.s 			page 24


 1312 0000 38B5     		push	{r3, r4, r5, lr}
 1313              		.cfi_def_cfa_offset 16
 1314              		.cfi_offset 3, -16
 1315              		.cfi_offset 4, -12
 1316              		.cfi_offset 5, -8
 1317              		.cfi_offset 14, -4
 1318              		.loc 1 488 0
 1319 0002 084C     		ldr	r4, .L46
 1320              		.loc 1 486 0
 1321 0004 0546     		mov	r5, r0
 1322              		.loc 1 488 0
 1323 0006 2046     		mov	r0, r4
 1324              	.LVL107:
 1325 0008 FFF7FEFF 		bl	chMtxLock
 1326              	.LVL108:
 1327              		.loc 1 489 0
 1328 000c 0648     		ldr	r0, .L46+4
 1329 000e FFF7FEFF 		bl	chCondWait
 1330              	.LVL109:
 1331              		.loc 1 490 0
 1332 0012 2878     		ldrb	r0, [r5]	@ zero_extendqisi2
 1333 0014 FFF7FEFF 		bl	test_emit_token
 1334              	.LVL110:
 1335              		.loc 1 491 0
 1336 0018 2046     		mov	r0, r4
 1337 001a FFF7FEFF 		bl	chMtxUnlock
 1338              	.LVL111:
 1339              		.loc 1 493 0
 1340 001e 0020     		movs	r0, #0
 1341 0020 38BD     		pop	{r3, r4, r5, pc}
 1342              	.LVL112:
 1343              	.L47:
 1344 0022 00BF     		.align	2
 1345              	.L46:
 1346 0024 00000000 		.word	.LANCHOR0
 1347 0028 00000000 		.word	.LANCHOR2
 1348              		.cfi_endproc
 1349              	.LFE236:
 1350              		.size	thread10, .-thread10
 1351 002c AFF30080 		.section	.text.mtx6_setup,"ax",%progbits
 1352              		.align	2
 1353              		.p2align 4,,15
 1354              		.thumb
 1355              		.thumb_func
 1356              		.type	mtx6_setup, %function
 1357              	mtx6_setup:
 1358              	.LFB235:
 1359              		.loc 1 480 0
 1360              		.cfi_startproc
 1361              		@ args = 0, pretend = 0, frame = 0
 1362              		@ frame_needed = 0, uses_anonymous_args = 0
 1363 0000 08B5     		push	{r3, lr}
 1364              		.cfi_def_cfa_offset 8
 1365              		.cfi_offset 3, -8
 1366              		.cfi_offset 14, -4
 1367              		.loc 1 482 0
 1368 0002 0448     		ldr	r0, .L49
ARM GAS  /tmp/ccldI6Va.s 			page 25


 1369 0004 FFF7FEFF 		bl	chCondObjectInit
 1370              	.LVL113:
 1371              		.loc 1 483 0
 1372 0008 0348     		ldr	r0, .L49+4
 1373              		.loc 1 484 0
 1374 000a BDE80840 		pop	{r3, lr}
 1375              		.loc 1 483 0
 1376 000e FFF7FEBF 		b	chMtxObjectInit
 1377              	.LVL114:
 1378              	.L50:
 1379 0012 00BF     		.align	2
 1380              	.L49:
 1381 0014 00000000 		.word	.LANCHOR2
 1382 0018 00000000 		.word	.LANCHOR0
 1383              		.cfi_endproc
 1384              	.LFE235:
 1385              		.size	mtx6_setup, .-mtx6_setup
 1386 001c AFF30080 		.section	.text.mtx7_setup,"ax",%progbits
 1387              		.align	2
 1388              		.p2align 4,,15
 1389              		.thumb
 1390              		.thumb_func
 1391              		.type	mtx7_setup, %function
 1392              	mtx7_setup:
 1393              	.LFB238:
 1394              		.loc 1 532 0
 1395              		.cfi_startproc
 1396              		@ args = 0, pretend = 0, frame = 0
 1397              		@ frame_needed = 0, uses_anonymous_args = 0
 1398 0000 08B5     		push	{r3, lr}
 1399              		.cfi_def_cfa_offset 8
 1400              		.cfi_offset 3, -8
 1401              		.cfi_offset 14, -4
 1402              		.loc 1 534 0
 1403 0002 0448     		ldr	r0, .L52
 1404 0004 FFF7FEFF 		bl	chCondObjectInit
 1405              	.LVL115:
 1406              		.loc 1 535 0
 1407 0008 0348     		ldr	r0, .L52+4
 1408              		.loc 1 536 0
 1409 000a BDE80840 		pop	{r3, lr}
 1410              		.loc 1 535 0
 1411 000e FFF7FEBF 		b	chMtxObjectInit
 1412              	.LVL116:
 1413              	.L53:
 1414 0012 00BF     		.align	2
 1415              	.L52:
 1416 0014 00000000 		.word	.LANCHOR2
 1417 0018 00000000 		.word	.LANCHOR0
 1418              		.cfi_endproc
 1419              	.LFE238:
 1420              		.size	mtx7_setup, .-mtx7_setup
 1421 001c AFF30080 		.section	.text.mtx8_setup,"ax",%progbits
 1422              		.align	2
 1423              		.p2align 4,,15
 1424              		.thumb
 1425              		.thumb_func
ARM GAS  /tmp/ccldI6Va.s 			page 26


 1426              		.type	mtx8_setup, %function
 1427              	mtx8_setup:
 1428              	.LFB240:
 1429              		.loc 1 567 0
 1430              		.cfi_startproc
 1431              		@ args = 0, pretend = 0, frame = 0
 1432              		@ frame_needed = 0, uses_anonymous_args = 0
 1433 0000 08B5     		push	{r3, lr}
 1434              		.cfi_def_cfa_offset 8
 1435              		.cfi_offset 3, -8
 1436              		.cfi_offset 14, -4
 1437              		.loc 1 569 0
 1438 0002 0548     		ldr	r0, .L55
 1439 0004 FFF7FEFF 		bl	chCondObjectInit
 1440              	.LVL117:
 1441              		.loc 1 570 0
 1442 0008 0448     		ldr	r0, .L55+4
 1443 000a FFF7FEFF 		bl	chMtxObjectInit
 1444              	.LVL118:
 1445              		.loc 1 571 0
 1446 000e 0448     		ldr	r0, .L55+8
 1447              		.loc 1 572 0
 1448 0010 BDE80840 		pop	{r3, lr}
 1449              		.loc 1 571 0
 1450 0014 FFF7FEBF 		b	chMtxObjectInit
 1451              	.LVL119:
 1452              	.L56:
 1453              		.align	2
 1454              	.L55:
 1455 0018 00000000 		.word	.LANCHOR2
 1456 001c 00000000 		.word	.LANCHOR0
 1457 0020 00000000 		.word	.LANCHOR1
 1458              		.cfi_endproc
 1459              	.LFE240:
 1460              		.size	mtx8_setup, .-mtx8_setup
 1461 0024 AFF30080 		.section	.text.mtx7_execute,"ax",%progbits
 1461      AFF30080 
 1461      AFF30080 
 1462              		.align	2
 1463              		.p2align 4,,15
 1464              		.thumb
 1465              		.thumb_func
 1466              		.type	mtx7_execute, %function
 1467              	mtx7_execute:
 1468              	.LFB239:
 1469              		.loc 1 538 0
 1470              		.cfi_startproc
 1471              		@ args = 0, pretend = 0, frame = 0
 1472              		@ frame_needed = 0, uses_anonymous_args = 0
 1473 0000 F0B5     		push	{r4, r5, r6, r7, lr}
 1474              		.cfi_def_cfa_offset 20
 1475              		.cfi_offset 4, -20
 1476              		.cfi_offset 5, -16
 1477              		.cfi_offset 6, -12
 1478              		.cfi_offset 7, -8
 1479              		.cfi_offset 14, -4
 1480              	.LBB237:
ARM GAS  /tmp/ccldI6Va.s 			page 27


 1481              	.LBB238:
 1482              	.LBB239:
 1483              	.LBB240:
 1484              		.loc 2 179 0
 1485 0002 244B     		ldr	r3, .L58
 1486              	.LBE240:
 1487              	.LBE239:
 1488              	.LBE238:
 1489              	.LBE237:
 1490              		.loc 1 541 0
 1491 0004 244F     		ldr	r7, .L58+4
 1492              	.LBB243:
 1493              	.LBB241:
 1494              		.loc 2 192 0
 1495 0006 9B69     		ldr	r3, [r3, #24]
 1496              	.LBE241:
 1497              	.LBE243:
 1498              		.loc 1 541 0
 1499 0008 244D     		ldr	r5, .L58+8
 1500              	.LBB244:
 1501              	.LBB242:
 1502              		.loc 2 192 0
 1503 000a 9E68     		ldr	r6, [r3, #8]
 1504              	.LBE242:
 1505              	.LBE244:
 1506              		.loc 1 541 0
 1507 000c 244B     		ldr	r3, .L58+12
 1508 000e 3868     		ldr	r0, [r7]
 1509 0010 244C     		ldr	r4, .L58+16
 1510              		.loc 1 538 0
 1511 0012 83B0     		sub	sp, sp, #12
 1512              		.cfi_def_cfa_offset 32
 1513              		.loc 1 541 0
 1514 0014 721C     		adds	r2, r6, #1
 1515 0016 0093     		str	r3, [sp]
 1516 0018 4FF4A471 		mov	r1, #328
 1517 001c 2B46     		mov	r3, r5
 1518 001e FFF7FEFF 		bl	chThdCreateStatic
 1519              	.LVL120:
 1520              		.loc 1 542 0
 1521 0022 7B68     		ldr	r3, [r7, #4]
 1522 0024 2049     		ldr	r1, .L58+20
 1523              		.loc 1 541 0
 1524 0026 2060     		str	r0, [r4]
 1525              		.loc 1 542 0
 1526 0028 B21C     		adds	r2, r6, #2
 1527 002a 0091     		str	r1, [sp]
 1528 002c 1846     		mov	r0, r3
 1529 002e 4FF4A471 		mov	r1, #328
 1530 0032 2B46     		mov	r3, r5
 1531 0034 FFF7FEFF 		bl	chThdCreateStatic
 1532              	.LVL121:
 1533              		.loc 1 543 0
 1534 0038 BB68     		ldr	r3, [r7, #8]
 1535 003a 1C49     		ldr	r1, .L58+24
 1536              		.loc 1 542 0
 1537 003c 6060     		str	r0, [r4, #4]
ARM GAS  /tmp/ccldI6Va.s 			page 28


 1538              		.loc 1 543 0
 1539 003e F21C     		adds	r2, r6, #3
 1540 0040 0091     		str	r1, [sp]
 1541 0042 1846     		mov	r0, r3
 1542 0044 4FF4A471 		mov	r1, #328
 1543 0048 2B46     		mov	r3, r5
 1544 004a FFF7FEFF 		bl	chThdCreateStatic
 1545              	.LVL122:
 1546              		.loc 1 544 0
 1547 004e FB68     		ldr	r3, [r7, #12]
 1548 0050 1749     		ldr	r1, .L58+28
 1549              		.loc 1 543 0
 1550 0052 A060     		str	r0, [r4, #8]
 1551              		.loc 1 544 0
 1552 0054 321D     		adds	r2, r6, #4
 1553 0056 0091     		str	r1, [sp]
 1554 0058 1846     		mov	r0, r3
 1555 005a 4FF4A471 		mov	r1, #328
 1556 005e 2B46     		mov	r3, r5
 1557 0060 FFF7FEFF 		bl	chThdCreateStatic
 1558              	.LVL123:
 1559              		.loc 1 545 0
 1560 0064 3B69     		ldr	r3, [r7, #16]
 1561 0066 1349     		ldr	r1, .L58+32
 1562              		.loc 1 544 0
 1563 0068 E060     		str	r0, [r4, #12]
 1564              		.loc 1 545 0
 1565 006a 721D     		adds	r2, r6, #5
 1566 006c 0091     		str	r1, [sp]
 1567 006e 1846     		mov	r0, r3
 1568 0070 4FF4A471 		mov	r1, #328
 1569 0074 2B46     		mov	r3, r5
 1570 0076 FFF7FEFF 		bl	chThdCreateStatic
 1571              	.LVL124:
 1572 007a 2061     		str	r0, [r4, #16]
 1573              		.loc 1 546 0
 1574 007c 0E48     		ldr	r0, .L58+36
 1575 007e FFF7FEFF 		bl	chCondBroadcast
 1576              	.LVL125:
 1577              		.loc 1 547 0
 1578 0082 FFF7FEFF 		bl	test_wait_threads
 1579              	.LVL126:
 1580              		.loc 1 548 0
 1581 0086 0D49     		ldr	r1, .L58+40
 1582 0088 0120     		movs	r0, #1
 1583              		.loc 1 549 0
 1584 008a 03B0     		add	sp, sp, #12
 1585              		@ sp needed
 1586 008c BDE8F040 		pop	{r4, r5, r6, r7, lr}
 1587              		.loc 1 548 0
 1588 0090 FFF7FEBF 		b	_test_assert_sequence
 1589              	.LVL127:
 1590              	.L59:
 1591              		.align	2
 1592              	.L58:
 1593 0094 00000000 		.word	ch
 1594 0098 00000000 		.word	wa
ARM GAS  /tmp/ccldI6Va.s 			page 29


 1595 009c 00000000 		.word	thread10
 1596 00a0 00000000 		.word	.LC0
 1597 00a4 00000000 		.word	threads
 1598 00a8 04000000 		.word	.LC1
 1599 00ac 08000000 		.word	.LC2
 1600 00b0 0C000000 		.word	.LC3
 1601 00b4 10000000 		.word	.LC4
 1602 00b8 00000000 		.word	.LANCHOR2
 1603 00bc 14000000 		.word	.LC5
 1604              		.cfi_endproc
 1605              	.LFE239:
 1606              		.size	mtx7_execute, .-mtx7_execute
 1607              		.section	.text.mtx8_execute,"ax",%progbits
 1608              		.align	2
 1609              		.p2align 4,,15
 1610              		.thumb
 1611              		.thumb_func
 1612              		.type	mtx8_execute, %function
 1613              	mtx8_execute:
 1614              	.LFB243:
 1615              		.loc 1 597 0
 1616              		.cfi_startproc
 1617              		@ args = 0, pretend = 0, frame = 0
 1618              		@ frame_needed = 0, uses_anonymous_args = 0
 1619 0000 F0B5     		push	{r4, r5, r6, r7, lr}
 1620              		.cfi_def_cfa_offset 20
 1621              		.cfi_offset 4, -20
 1622              		.cfi_offset 5, -16
 1623              		.cfi_offset 6, -12
 1624              		.cfi_offset 7, -8
 1625              		.cfi_offset 14, -4
 1626              	.LBB245:
 1627              	.LBB246:
 1628              	.LBB247:
 1629              	.LBB248:
 1630              		.loc 2 179 0
 1631 0002 1B4B     		ldr	r3, .L61
 1632              	.LBE248:
 1633              	.LBE247:
 1634              	.LBE246:
 1635              	.LBE245:
 1636              		.loc 1 600 0
 1637 0004 1B4E     		ldr	r6, .L61+4
 1638              	.LBB251:
 1639              	.LBB249:
 1640              		.loc 2 192 0
 1641 0006 9B69     		ldr	r3, [r3, #24]
 1642              	.LBE249:
 1643              	.LBE251:
 1644              		.loc 1 600 0
 1645 0008 3068     		ldr	r0, [r6]
 1646              	.LBB252:
 1647              	.LBB250:
 1648              		.loc 2 192 0
 1649 000a 9D68     		ldr	r5, [r3, #8]
 1650              	.LBE250:
 1651              	.LBE252:
ARM GAS  /tmp/ccldI6Va.s 			page 30


 1652              		.loc 1 600 0
 1653 000c 1A4B     		ldr	r3, .L61+8
 1654 000e 1B4C     		ldr	r4, .L61+12
 1655              		.loc 1 603 0
 1656 0010 1B4F     		ldr	r7, .L61+16
 1657              		.loc 1 597 0
 1658 0012 83B0     		sub	sp, sp, #12
 1659              		.cfi_def_cfa_offset 32
 1660              		.loc 1 600 0
 1661 0014 6A1C     		adds	r2, r5, #1
 1662 0016 0093     		str	r3, [sp]
 1663 0018 4FF4A471 		mov	r1, #328
 1664 001c 194B     		ldr	r3, .L61+20
 1665 001e FFF7FEFF 		bl	chThdCreateStatic
 1666              	.LVL128:
 1667              		.loc 1 601 0
 1668 0022 7368     		ldr	r3, [r6, #4]
 1669 0024 1849     		ldr	r1, .L61+24
 1670              		.loc 1 600 0
 1671 0026 2060     		str	r0, [r4]
 1672              		.loc 1 601 0
 1673 0028 AA1C     		adds	r2, r5, #2
 1674 002a 0091     		str	r1, [sp]
 1675 002c 1846     		mov	r0, r3
 1676 002e 4FF4A471 		mov	r1, #328
 1677 0032 164B     		ldr	r3, .L61+28
 1678 0034 FFF7FEFF 		bl	chThdCreateStatic
 1679              	.LVL129:
 1680              		.loc 1 602 0
 1681 0038 B168     		ldr	r1, [r6, #8]
 1682 003a 154B     		ldr	r3, .L61+32
 1683              		.loc 1 601 0
 1684 003c 6060     		str	r0, [r4, #4]
 1685              		.loc 1 602 0
 1686 003e EA1C     		adds	r2, r5, #3
 1687 0040 0093     		str	r3, [sp]
 1688 0042 0846     		mov	r0, r1
 1689 0044 134B     		ldr	r3, .L61+36
 1690 0046 4FF4A471 		mov	r1, #328
 1691 004a FFF7FEFF 		bl	chThdCreateStatic
 1692              	.LVL130:
 1693 004e A060     		str	r0, [r4, #8]
 1694              		.loc 1 603 0
 1695 0050 3846     		mov	r0, r7
 1696 0052 FFF7FEFF 		bl	chCondSignal
 1697              	.LVL131:
 1698              		.loc 1 604 0
 1699 0056 3846     		mov	r0, r7
 1700 0058 FFF7FEFF 		bl	chCondSignal
 1701              	.LVL132:
 1702              		.loc 1 605 0
 1703 005c FFF7FEFF 		bl	test_wait_threads
 1704              	.LVL133:
 1705              		.loc 1 606 0
 1706 0060 0D49     		ldr	r1, .L61+40
 1707 0062 0120     		movs	r0, #1
 1708              		.loc 1 607 0
ARM GAS  /tmp/ccldI6Va.s 			page 31


 1709 0064 03B0     		add	sp, sp, #12
 1710              		@ sp needed
 1711 0066 BDE8F040 		pop	{r4, r5, r6, r7, lr}
 1712              		.loc 1 606 0
 1713 006a FFF7FEBF 		b	_test_assert_sequence
 1714              	.LVL134:
 1715              	.L62:
 1716 006e 00BF     		.align	2
 1717              	.L61:
 1718 0070 00000000 		.word	ch
 1719 0074 00000000 		.word	wa
 1720 0078 10000000 		.word	.LC4
 1721 007c 00000000 		.word	threads
 1722 0080 00000000 		.word	.LANCHOR2
 1723 0084 00000000 		.word	thread11
 1724 0088 08000000 		.word	.LC2
 1725 008c 00000000 		.word	thread10
 1726 0090 0C000000 		.word	.LC3
 1727 0094 00000000 		.word	thread12
 1728 0098 1C000000 		.word	.LC6
 1729              		.cfi_endproc
 1730              	.LFE243:
 1731              		.size	mtx8_execute, .-mtx8_execute
 1732 009c AFF30080 		.section	.text.thread11,"ax",%progbits
 1733              		.align	2
 1734              		.p2align 4,,15
 1735              		.thumb
 1736              		.thumb_func
 1737              		.type	thread11, %function
 1738              	thread11:
 1739              	.LFB241:
 1740              		.loc 1 574 0
 1741              		.cfi_startproc
 1742              		@ args = 0, pretend = 0, frame = 0
 1743              		@ frame_needed = 0, uses_anonymous_args = 0
 1744              	.LVL135:
 1745 0000 70B5     		push	{r4, r5, r6, lr}
 1746              		.cfi_def_cfa_offset 16
 1747              		.cfi_offset 4, -16
 1748              		.cfi_offset 5, -12
 1749              		.cfi_offset 6, -8
 1750              		.cfi_offset 14, -4
 1751              		.loc 1 576 0
 1752 0002 0C4D     		ldr	r5, .L64
 1753              		.loc 1 577 0
 1754 0004 0C4C     		ldr	r4, .L64+4
 1755              		.loc 1 574 0
 1756 0006 0646     		mov	r6, r0
 1757              		.loc 1 576 0
 1758 0008 2846     		mov	r0, r5
 1759              	.LVL136:
 1760 000a FFF7FEFF 		bl	chMtxLock
 1761              	.LVL137:
 1762              		.loc 1 577 0
 1763 000e 2046     		mov	r0, r4
 1764 0010 FFF7FEFF 		bl	chMtxLock
 1765              	.LVL138:
ARM GAS  /tmp/ccldI6Va.s 			page 32


 1766              		.loc 1 579 0
 1767 0014 4FF0FF31 		mov	r1, #-1
 1768 0018 0848     		ldr	r0, .L64+8
 1769 001a FFF7FEFF 		bl	chCondWaitTimeout
 1770              	.LVL139:
 1771              		.loc 1 583 0
 1772 001e 3078     		ldrb	r0, [r6]	@ zero_extendqisi2
 1773 0020 FFF7FEFF 		bl	test_emit_token
 1774              	.LVL140:
 1775              		.loc 1 584 0
 1776 0024 2046     		mov	r0, r4
 1777 0026 FFF7FEFF 		bl	chMtxUnlock
 1778              	.LVL141:
 1779              		.loc 1 585 0
 1780 002a 2846     		mov	r0, r5
 1781 002c FFF7FEFF 		bl	chMtxUnlock
 1782              	.LVL142:
 1783              		.loc 1 587 0
 1784 0030 0020     		movs	r0, #0
 1785 0032 70BD     		pop	{r4, r5, r6, pc}
 1786              	.LVL143:
 1787              	.L65:
 1788              		.align	2
 1789              	.L64:
 1790 0034 00000000 		.word	.LANCHOR1
 1791 0038 00000000 		.word	.LANCHOR0
 1792 003c 00000000 		.word	.LANCHOR2
 1793              		.cfi_endproc
 1794              	.LFE241:
 1795              		.size	thread11, .-thread11
 1796              		.global	patternmtx
 1797              		.global	testmtx8
 1798              		.global	testmtx7
 1799              		.global	testmtx6
 1800              		.global	testmtx5
 1801              		.global	testmtx4
 1802              		.global	testmtx1
 1803              		.section	.rodata.testmtx5,"a",%progbits
 1804              		.align	2
 1805              		.type	testmtx5, %object
 1806              		.size	testmtx5, 16
 1807              	testmtx5:
 1808 0000 64000000 		.word	.LC10
 1809 0004 00000000 		.word	mtx5_setup
 1810 0008 00000000 		.word	0
 1811 000c 00000000 		.word	mtx5_execute
 1812              		.section	.rodata.testmtx6,"a",%progbits
 1813              		.align	2
 1814              		.type	testmtx6, %object
 1815              		.size	testmtx6, 16
 1816              	testmtx6:
 1817 0000 4C000000 		.word	.LC9
 1818 0004 00000000 		.word	mtx6_setup
 1819 0008 00000000 		.word	0
 1820 000c 00000000 		.word	mtx6_execute
 1821              		.section	.rodata.testmtx7,"a",%progbits
 1822              		.align	2
ARM GAS  /tmp/ccldI6Va.s 			page 33


 1823              		.type	testmtx7, %object
 1824              		.size	testmtx7, 16
 1825              	testmtx7:
 1826 0000 34000000 		.word	.LC8
 1827 0004 00000000 		.word	mtx7_setup
 1828 0008 00000000 		.word	0
 1829 000c 00000000 		.word	mtx7_execute
 1830              		.section	.rodata.testmtx8,"a",%progbits
 1831              		.align	2
 1832              		.type	testmtx8, %object
 1833              		.size	testmtx8, 16
 1834              	testmtx8:
 1835 0000 20000000 		.word	.LC7
 1836 0004 00000000 		.word	mtx8_setup
 1837 0008 00000000 		.word	0
 1838 000c 00000000 		.word	mtx8_execute
 1839              		.section	.data.m1,"aw",%progbits
 1840              		.align	2
 1841              		.set	.LANCHOR0,. + 0
 1842              		.type	m1, %object
 1843              		.size	m1, 16
 1844              	m1:
 1845 0000 00000000 		.word	m1
 1846 0004 00000000 		.word	m1
 1847 0008 00000000 		.word	0
 1848 000c 00000000 		.word	0
 1849              		.section	.data.m2,"aw",%progbits
 1850              		.align	2
 1851              		.set	.LANCHOR1,. + 0
 1852              		.type	m2, %object
 1853              		.size	m2, 16
 1854              	m2:
 1855 0000 00000000 		.word	m2
 1856 0004 00000000 		.word	m2
 1857 0008 00000000 		.word	0
 1858 000c 00000000 		.word	0
 1859              		.section	.rodata.str1.4,"aMS",%progbits,1
 1860              		.align	2
 1861              	.LC0:
 1862 0000 4500     		.ascii	"E\000"
 1863 0002 0000     		.space	2
 1864              	.LC1:
 1865 0004 4400     		.ascii	"D\000"
 1866 0006 0000     		.space	2
 1867              	.LC2:
 1868 0008 4300     		.ascii	"C\000"
 1869 000a 0000     		.space	2
 1870              	.LC3:
 1871 000c 4200     		.ascii	"B\000"
 1872 000e 0000     		.space	2
 1873              	.LC4:
 1874 0010 4100     		.ascii	"A\000"
 1875 0012 0000     		.space	2
 1876              	.LC5:
 1877 0014 41424344 		.ascii	"ABCDE\000"
 1877      4500
 1878 001a 0000     		.space	2
ARM GAS  /tmp/ccldI6Va.s 			page 34


 1879              	.LC6:
 1880 001c 41424300 		.ascii	"ABC\000"
 1881              	.LC7:
 1882 0020 436F6E64 		.ascii	"CondVar, boost test\000"
 1882      5661722C 
 1882      20626F6F 
 1882      73742074 
 1882      65737400 
 1883              	.LC8:
 1884 0034 436F6E64 		.ascii	"CondVar, broadcast test\000"
 1884      5661722C 
 1884      2062726F 
 1884      61646361 
 1884      73742074 
 1885              	.LC9:
 1886 004c 436F6E64 		.ascii	"CondVar, signal test\000"
 1886      5661722C 
 1886      20736967 
 1886      6E616C20 
 1886      74657374 
 1887 0061 000000   		.space	3
 1888              	.LC10:
 1889 0064 4D757465 		.ascii	"Mutexes, status\000"
 1889      7865732C 
 1889      20737461 
 1889      74757300 
 1890              	.LC11:
 1891 0074 4D757465 		.ascii	"Mutexes, priority return\000"
 1891      7865732C 
 1891      20707269 
 1891      6F726974 
 1891      79207265 
 1892 008d 000000   		.space	3
 1893              	.LC12:
 1894 0090 4D757465 		.ascii	"Mutexes, priority enqueuing test\000"
 1894      7865732C 
 1894      20707269 
 1894      6F726974 
 1894      7920656E 
 1895 00b1 000000   		.section	.rodata.patternmtx,"a",%progbits
 1896              		.align	2
 1897              		.type	patternmtx, %object
 1898              		.size	patternmtx, 28
 1899              	patternmtx:
 1900 0000 00000000 		.word	testmtx1
 1901 0004 00000000 		.word	testmtx4
 1902 0008 00000000 		.word	testmtx5
 1903 000c 00000000 		.word	testmtx6
 1904 0010 00000000 		.word	testmtx7
 1905 0014 00000000 		.word	testmtx8
 1906 0018 00000000 		.word	0
 1907              		.section	.data.c1,"aw",%progbits
 1908              		.align	2
 1909              		.set	.LANCHOR2,. + 0
 1910              		.type	c1, %object
 1911              		.size	c1, 8
 1912              	c1:
ARM GAS  /tmp/ccldI6Va.s 			page 35


 1913 0000 00000000 		.word	c1
 1914 0004 00000000 		.word	c1
 1915              		.section	.rodata.testmtx1,"a",%progbits
 1916              		.align	2
 1917              		.type	testmtx1, %object
 1918              		.size	testmtx1, 16
 1919              	testmtx1:
 1920 0000 90000000 		.word	.LC12
 1921 0004 00000000 		.word	mtx1_setup
 1922 0008 00000000 		.word	0
 1923 000c 00000000 		.word	mtx1_execute
 1924              		.section	.rodata.testmtx4,"a",%progbits
 1925              		.align	2
 1926              		.type	testmtx4, %object
 1927              		.size	testmtx4, 16
 1928              	testmtx4:
 1929 0000 74000000 		.word	.LC11
 1930 0004 00000000 		.word	mtx4_setup
 1931 0008 00000000 		.word	0
 1932 000c 00000000 		.word	mtx4_execute
 1933              		.text
 1934              	.Letext0:
 1935              		.file 5 "/nfs/nfs5/home/research/hardware/arm2/gcc-arm-embedded/gcc-arm-none-eabi-4_8-2014q2/lib/g
 1936              		.file 6 "/nfs/nfs5/home/research/hardware/arm2/gcc-arm-embedded/gcc-arm-none-eabi-4_8-2014q2/arm-n
 1937              		.file 7 "/nfs/nfs5/home/research/hardware/arm2/gcc-arm-embedded/gcc-arm-none-eabi-4_8-2014q2/arm-n
 1938              		.file 8 "../ChibiOS/os/rt/ports/ARMCMx/compilers/GCC/chtypes.h"
 1939              		.file 9 "../ChibiOS/os/rt/include/chsystypes.h"
 1940              		.file 10 "../ChibiOS/os/rt/ports/ARMCMx/chcore.h"
 1941              		.file 11 "../ChibiOS/os/rt/ports/ARMCMx/chcore_v7m.h"
 1942              		.file 12 "../ChibiOS/os/rt/include/chtm.h"
 1943              		.file 13 "../ChibiOS/os/rt/include/chmtx.h"
 1944              		.file 14 "../ChibiOS/os/rt/include/chcond.h"
 1945              		.file 15 "../ChibiOS/test/rt/test.h"
 1946              		.file 16 "../ChibiOS/os/rt/include/chsys.h"
 1947              		.file 17 "../ChibiOS/os/ext/CMSIS/include/core_cm4.h"