ARM GAS  /tmp/ccEEJHkP.s 			page 1


   1              		.syntax unified
   2              		.cpu cortex-m4
   3              		.fpu softvfp
   4              		.eabi_attribute 20, 1
   5              		.eabi_attribute 21, 1
   6              		.eabi_attribute 23, 3
   7              		.eabi_attribute 24, 1
   8              		.eabi_attribute 25, 1
   9              		.eabi_attribute 26, 1
  10              		.eabi_attribute 30, 2
  11              		.eabi_attribute 34, 1
  12              		.eabi_attribute 18, 4
  13              		.thumb
  14              		.file	"testthd.c"
  15              		.text
  16              	.Ltext0:
  17              		.cfi_sections	.debug_frame
  18              		.section	.text.thd1_execute,"ax",%progbits
  19              		.align	2
  20              		.p2align 4,,15
  21              		.thumb
  22              		.thumb_func
  23              		.type	thd1_execute, %function
  24              	thd1_execute:
  25              	.LFB227:
  26              		.file 1 "../ChibiOS/test/rt/testthd.c"
  27              		.loc 1 66 0
  28              		.cfi_startproc
  29              		@ args = 0, pretend = 0, frame = 0
  30              		@ frame_needed = 0, uses_anonymous_args = 0
  31 0000 F0B5     		push	{r4, r5, r6, r7, lr}
  32              		.cfi_def_cfa_offset 20
  33              		.cfi_offset 4, -20
  34              		.cfi_offset 5, -16
  35              		.cfi_offset 6, -12
  36              		.cfi_offset 7, -8
  37              		.cfi_offset 14, -4
  38              	.LBB257:
  39              	.LBB258:
  40              	.LBB259:
  41              	.LBB260:
  42              		.file 2 "../ChibiOS/os/rt/include/chthreads.h"
  43              		.loc 2 179 0
  44 0002 274F     		ldr	r7, .L2
  45              	.LBE260:
  46              	.LBE259:
  47              	.LBE258:
  48              	.LBE257:
  49              		.loc 1 68 0
  50 0004 274E     		ldr	r6, .L2+4
  51              	.LBB262:
  52              	.LBB261:
  53              		.loc 2 192 0
  54 0006 BB69     		ldr	r3, [r7, #24]
  55              	.LBE261:
  56              	.LBE262:
  57              		.loc 1 68 0
ARM GAS  /tmp/ccEEJHkP.s 			page 2


  58 0008 274D     		ldr	r5, .L2+8
  59 000a 9A68     		ldr	r2, [r3, #8]
  60 000c 274B     		ldr	r3, .L2+12
  61 000e 3068     		ldr	r0, [r6]
  62 0010 274C     		ldr	r4, .L2+16
  63              		.loc 1 66 0
  64 0012 83B0     		sub	sp, sp, #12
  65              		.cfi_def_cfa_offset 32
  66              		.loc 1 68 0
  67 0014 053A     		subs	r2, r2, #5
  68 0016 0093     		str	r3, [sp]
  69 0018 4FF4A471 		mov	r1, #328
  70 001c 2B46     		mov	r3, r5
  71 001e FFF7FEFF 		bl	chThdCreateStatic
  72              	.LVL0:
  73              	.LBB263:
  74              	.LBB264:
  75              		.loc 2 192 0
  76 0022 BB69     		ldr	r3, [r7, #24]
  77              	.LBE264:
  78              	.LBE263:
  79              		.loc 1 69 0
  80 0024 2349     		ldr	r1, .L2+20
  81 0026 9A68     		ldr	r2, [r3, #8]
  82 0028 7368     		ldr	r3, [r6, #4]
  83              		.loc 1 68 0
  84 002a 2060     		str	r0, [r4]
  85              		.loc 1 69 0
  86 002c 0091     		str	r1, [sp]
  87 002e 043A     		subs	r2, r2, #4
  88 0030 1846     		mov	r0, r3
  89 0032 4FF4A471 		mov	r1, #328
  90 0036 2B46     		mov	r3, r5
  91 0038 FFF7FEFF 		bl	chThdCreateStatic
  92              	.LVL1:
  93              	.LBB265:
  94              	.LBB266:
  95              		.loc 2 192 0
  96 003c BA69     		ldr	r2, [r7, #24]
  97              	.LBE266:
  98              	.LBE265:
  99              		.loc 1 70 0
 100 003e B368     		ldr	r3, [r6, #8]
 101 0040 9268     		ldr	r2, [r2, #8]
 102 0042 1D49     		ldr	r1, .L2+24
 103              		.loc 1 69 0
 104 0044 6060     		str	r0, [r4, #4]
 105              		.loc 1 70 0
 106 0046 0091     		str	r1, [sp]
 107 0048 033A     		subs	r2, r2, #3
 108 004a 1846     		mov	r0, r3
 109 004c 4FF4A471 		mov	r1, #328
 110 0050 2B46     		mov	r3, r5
 111 0052 FFF7FEFF 		bl	chThdCreateStatic
 112              	.LVL2:
 113              	.LBB267:
 114              	.LBB268:
ARM GAS  /tmp/ccEEJHkP.s 			page 3


 115              		.loc 2 192 0
 116 0056 BA69     		ldr	r2, [r7, #24]
 117              	.LBE268:
 118              	.LBE267:
 119              		.loc 1 71 0
 120 0058 F368     		ldr	r3, [r6, #12]
 121 005a 9268     		ldr	r2, [r2, #8]
 122 005c 1749     		ldr	r1, .L2+28
 123              		.loc 1 70 0
 124 005e A060     		str	r0, [r4, #8]
 125              		.loc 1 71 0
 126 0060 0091     		str	r1, [sp]
 127 0062 023A     		subs	r2, r2, #2
 128 0064 1846     		mov	r0, r3
 129 0066 4FF4A471 		mov	r1, #328
 130 006a 2B46     		mov	r3, r5
 131 006c FFF7FEFF 		bl	chThdCreateStatic
 132              	.LVL3:
 133              	.LBB269:
 134              	.LBB270:
 135              		.loc 2 192 0
 136 0070 BA69     		ldr	r2, [r7, #24]
 137              	.LBE270:
 138              	.LBE269:
 139              		.loc 1 72 0
 140 0072 3369     		ldr	r3, [r6, #16]
 141 0074 9268     		ldr	r2, [r2, #8]
 142 0076 1249     		ldr	r1, .L2+32
 143              		.loc 1 71 0
 144 0078 E060     		str	r0, [r4, #12]
 145              		.loc 1 72 0
 146 007a 013A     		subs	r2, r2, #1
 147 007c 0091     		str	r1, [sp]
 148 007e 1846     		mov	r0, r3
 149 0080 4FF4A471 		mov	r1, #328
 150 0084 2B46     		mov	r3, r5
 151 0086 FFF7FEFF 		bl	chThdCreateStatic
 152              	.LVL4:
 153 008a 2061     		str	r0, [r4, #16]
 154              		.loc 1 73 0
 155 008c FFF7FEFF 		bl	test_wait_threads
 156              	.LVL5:
 157              		.loc 1 74 0
 158 0090 0C49     		ldr	r1, .L2+36
 159 0092 0120     		movs	r0, #1
 160              		.loc 1 75 0
 161 0094 03B0     		add	sp, sp, #12
 162              		@ sp needed
 163 0096 BDE8F040 		pop	{r4, r5, r6, r7, lr}
 164              		.loc 1 74 0
 165 009a FFF7FEBF 		b	_test_assert_sequence
 166              	.LVL6:
 167              	.L3:
 168 009e 00BF     		.align	2
 169              	.L2:
 170 00a0 00000000 		.word	ch
 171 00a4 00000000 		.word	wa
ARM GAS  /tmp/ccEEJHkP.s 			page 4


 172 00a8 00000000 		.word	thread
 173 00ac 00000000 		.word	.LC0
 174 00b0 00000000 		.word	threads
 175 00b4 04000000 		.word	.LC1
 176 00b8 08000000 		.word	.LC2
 177 00bc 0C000000 		.word	.LC3
 178 00c0 10000000 		.word	.LC4
 179 00c4 14000000 		.word	.LC5
 180              		.cfi_endproc
 181              	.LFE227:
 182              		.size	thd1_execute, .-thd1_execute
 183 00c8 AFF30080 		.section	.text.thread,"ax",%progbits
 183      AFF30080 
 184              		.align	2
 185              		.p2align 4,,15
 186              		.thumb
 187              		.thumb_func
 188              		.type	thread, %function
 189              	thread:
 190              	.LFB226:
 191              		.loc 1 60 0
 192              		.cfi_startproc
 193              		@ args = 0, pretend = 0, frame = 0
 194              		@ frame_needed = 0, uses_anonymous_args = 0
 195              	.LVL7:
 196 0000 08B5     		push	{r3, lr}
 197              		.cfi_def_cfa_offset 8
 198              		.cfi_offset 3, -8
 199              		.cfi_offset 14, -4
 200              		.loc 1 62 0
 201 0002 0078     		ldrb	r0, [r0]	@ zero_extendqisi2
 202              	.LVL8:
 203 0004 FFF7FEFF 		bl	test_emit_token
 204              	.LVL9:
 205              		.loc 1 64 0
 206 0008 0020     		movs	r0, #0
 207 000a 08BD     		pop	{r3, pc}
 208              		.cfi_endproc
 209              	.LFE226:
 210              		.size	thread, .-thread
 211 000c AFF30080 		.section	.text.thd2_execute,"ax",%progbits
 212              		.align	2
 213              		.p2align 4,,15
 214              		.thumb
 215              		.thumb_func
 216              		.type	thd2_execute, %function
 217              	thd2_execute:
 218              	.LFB228:
 219              		.loc 1 94 0
 220              		.cfi_startproc
 221              		@ args = 0, pretend = 0, frame = 0
 222              		@ frame_needed = 0, uses_anonymous_args = 0
 223 0000 F0B5     		push	{r4, r5, r6, r7, lr}
 224              		.cfi_def_cfa_offset 20
 225              		.cfi_offset 4, -20
 226              		.cfi_offset 5, -16
 227              		.cfi_offset 6, -12
ARM GAS  /tmp/ccEEJHkP.s 			page 5


 228              		.cfi_offset 7, -8
 229              		.cfi_offset 14, -4
 230              	.LBB271:
 231              	.LBB272:
 232              	.LBB273:
 233              	.LBB274:
 234              		.loc 2 179 0
 235 0002 2B4F     		ldr	r7, .L6
 236              	.LBE274:
 237              	.LBE273:
 238              	.LBE272:
 239              	.LBE271:
 240              		.loc 1 96 0
 241 0004 2B4E     		ldr	r6, .L6+4
 242              	.LBB276:
 243              	.LBB275:
 244              		.loc 2 192 0
 245 0006 BB69     		ldr	r3, [r7, #24]
 246              	.LBE275:
 247              	.LBE276:
 248              		.loc 1 96 0
 249 0008 2B4D     		ldr	r5, .L6+8
 250 000a 9A68     		ldr	r2, [r3, #8]
 251 000c 2B4B     		ldr	r3, .L6+12
 252 000e 7068     		ldr	r0, [r6, #4]
 253 0010 2B4C     		ldr	r4, .L6+16
 254              		.loc 1 94 0
 255 0012 83B0     		sub	sp, sp, #12
 256              		.cfi_def_cfa_offset 32
 257              		.loc 1 96 0
 258 0014 043A     		subs	r2, r2, #4
 259 0016 0093     		str	r3, [sp]
 260 0018 4FF4A471 		mov	r1, #328
 261 001c 2B46     		mov	r3, r5
 262 001e FFF7FEFF 		bl	chThdCreateStatic
 263              	.LVL10:
 264              	.LBB277:
 265              	.LBB278:
 266              		.loc 2 192 0
 267 0022 BB69     		ldr	r3, [r7, #24]
 268              	.LBE278:
 269              	.LBE277:
 270              		.loc 1 97 0
 271 0024 2749     		ldr	r1, .L6+20
 272 0026 9A68     		ldr	r2, [r3, #8]
 273 0028 3368     		ldr	r3, [r6]
 274              		.loc 1 96 0
 275 002a 6060     		str	r0, [r4, #4]
 276              		.loc 1 97 0
 277 002c 0091     		str	r1, [sp]
 278 002e 053A     		subs	r2, r2, #5
 279 0030 1846     		mov	r0, r3
 280 0032 4FF4A471 		mov	r1, #328
 281 0036 2B46     		mov	r3, r5
 282 0038 FFF7FEFF 		bl	chThdCreateStatic
 283              	.LVL11:
 284              	.LBB279:
ARM GAS  /tmp/ccEEJHkP.s 			page 6


 285              	.LBB280:
 286              		.loc 2 192 0
 287 003c BA69     		ldr	r2, [r7, #24]
 288              	.LBE280:
 289              	.LBE279:
 290              		.loc 1 98 0
 291 003e 3369     		ldr	r3, [r6, #16]
 292 0040 9268     		ldr	r2, [r2, #8]
 293 0042 2149     		ldr	r1, .L6+24
 294              		.loc 1 97 0
 295 0044 2060     		str	r0, [r4]
 296              		.loc 1 98 0
 297 0046 0091     		str	r1, [sp]
 298 0048 013A     		subs	r2, r2, #1
 299 004a 1846     		mov	r0, r3
 300 004c 4FF4A471 		mov	r1, #328
 301 0050 2B46     		mov	r3, r5
 302 0052 FFF7FEFF 		bl	chThdCreateStatic
 303              	.LVL12:
 304              	.LBB281:
 305              	.LBB282:
 306              		.loc 2 192 0
 307 0056 BA69     		ldr	r2, [r7, #24]
 308              	.LBE282:
 309              	.LBE281:
 310              		.loc 1 99 0
 311 0058 F368     		ldr	r3, [r6, #12]
 312 005a 9268     		ldr	r2, [r2, #8]
 313 005c 1B49     		ldr	r1, .L6+28
 314              		.loc 1 98 0
 315 005e 2061     		str	r0, [r4, #16]
 316              		.loc 1 99 0
 317 0060 0091     		str	r1, [sp]
 318 0062 023A     		subs	r2, r2, #2
 319 0064 1846     		mov	r0, r3
 320 0066 4FF4A471 		mov	r1, #328
 321 006a 2B46     		mov	r3, r5
 322 006c FFF7FEFF 		bl	chThdCreateStatic
 323              	.LVL13:
 324              	.LBB283:
 325              	.LBB284:
 326              	.LBB285:
 327              	.LBB286:
 328              		.file 3 "../ChibiOS/os/ext/CMSIS/include/core_cmFunc.h"
 329              		.loc 3 546 0
 330 0070 2023     		movs	r3, #32
 331              	.LBE286:
 332              	.LBE285:
 333              	.LBE284:
 334              	.LBE283:
 335              		.loc 1 99 0
 336 0072 E060     		str	r0, [r4, #12]
 337              	.LVL14:
 338              	.LBB290:
 339              	.LBB289:
 340              	.LBB288:
 341              	.LBB287:
ARM GAS  /tmp/ccEEJHkP.s 			page 7


 342              		.loc 3 546 0
 343              	@ 546 "../ChibiOS/os/ext/CMSIS/include/core_cmFunc.h" 1
 344 0074 83F31188 		MSR basepri, r3
 345              	@ 0 "" 2
 346              		.thumb
 347              	.LBE287:
 348              	.LBE288:
 349              	.LBE289:
 350              	.LBE290:
 351              	.LBB291:
 352              	.LBB292:
 353              		.loc 2 192 0
 354 0078 BB69     		ldr	r3, [r7, #24]
 355              	.LBE292:
 356              	.LBE291:
 357              		.loc 1 102 0
 358 007a B068     		ldr	r0, [r6, #8]
 359 007c 9A68     		ldr	r2, [r3, #8]
 360 007e 144B     		ldr	r3, .L6+32
 361 0080 0093     		str	r3, [sp]
 362 0082 033A     		subs	r2, r2, #3
 363 0084 2B46     		mov	r3, r5
 364 0086 4FF4A471 		mov	r1, #328
 365 008a FFF7FEFF 		bl	chThdCreateI
 366              	.LVL15:
 367              	.LBB293:
 368              	.LBB294:
 369              	.LBB295:
 370              	.LBB296:
 371              	.LBB297:
 372              		.loc 3 546 0
 373 008e 0023     		movs	r3, #0
 374              	.LBE297:
 375              	.LBE296:
 376              	.LBE295:
 377              	.LBE294:
 378              	.LBE293:
 379              		.loc 1 102 0
 380 0090 A060     		str	r0, [r4, #8]
 381              	.LVL16:
 382              	.LBB302:
 383              	.LBB301:
 384              	.LBB300:
 385              	.LBB299:
 386              	.LBB298:
 387              		.loc 3 546 0
 388              	@ 546 "../ChibiOS/os/ext/CMSIS/include/core_cmFunc.h" 1
 389 0092 83F31188 		MSR basepri, r3
 390              	@ 0 "" 2
 391              		.thumb
 392              	.LBE298:
 393              	.LBE299:
 394              	.LBE300:
 395              	.LBE301:
 396              	.LBE302:
 397              		.loc 1 104 0
 398 0096 A068     		ldr	r0, [r4, #8]
ARM GAS  /tmp/ccEEJHkP.s 			page 8


 399 0098 FFF7FEFF 		bl	chThdStart
 400              	.LVL17:
 401              		.loc 1 105 0
 402 009c FFF7FEFF 		bl	test_wait_threads
 403              	.LVL18:
 404              		.loc 1 106 0
 405 00a0 0C49     		ldr	r1, .L6+36
 406 00a2 0120     		movs	r0, #1
 407              		.loc 1 107 0
 408 00a4 03B0     		add	sp, sp, #12
 409              		@ sp needed
 410 00a6 BDE8F040 		pop	{r4, r5, r6, r7, lr}
 411              		.loc 1 106 0
 412 00aa FFF7FEBF 		b	_test_assert_sequence
 413              	.LVL19:
 414              	.L7:
 415 00ae 00BF     		.align	2
 416              	.L6:
 417 00b0 00000000 		.word	ch
 418 00b4 00000000 		.word	wa
 419 00b8 00000000 		.word	thread
 420 00bc 04000000 		.word	.LC1
 421 00c0 00000000 		.word	threads
 422 00c4 00000000 		.word	.LC0
 423 00c8 10000000 		.word	.LC4
 424 00cc 0C000000 		.word	.LC3
 425 00d0 08000000 		.word	.LC2
 426 00d4 14000000 		.word	.LC5
 427              		.cfi_endproc
 428              	.LFE228:
 429              		.size	thd2_execute, .-thd2_execute
 430 00d8 AFF30080 		.section	.text.thd3_execute,"ax",%progbits
 430      AFF30080 
 431              		.align	2
 432              		.p2align 4,,15
 433              		.thumb
 434              		.thumb_func
 435              		.type	thd3_execute, %function
 436              	thd3_execute:
 437              	.LFB229:
 438              		.loc 1 126 0
 439              		.cfi_startproc
 440              		@ args = 0, pretend = 0, frame = 0
 441              		@ frame_needed = 0, uses_anonymous_args = 0
 442 0000 F8B5     		push	{r3, r4, r5, r6, r7, lr}
 443              		.cfi_def_cfa_offset 24
 444              		.cfi_offset 3, -24
 445              		.cfi_offset 4, -20
 446              		.cfi_offset 5, -16
 447              		.cfi_offset 6, -12
 448              		.cfi_offset 7, -8
 449              		.cfi_offset 14, -4
 450              	.LBB303:
 451              	.LBB304:
 452              	.LBB305:
 453              	.LBB306:
 454              		.loc 2 179 0
ARM GAS  /tmp/ccEEJHkP.s 			page 9


 455 0002 4B4E     		ldr	r6, .L14
 456              	.LBE306:
 457              	.LBE305:
 458              		.loc 2 192 0
 459 0004 B369     		ldr	r3, [r6, #24]
 460 0006 9C68     		ldr	r4, [r3, #8]
 461              	.LBE304:
 462              	.LBE303:
 463              		.loc 1 130 0
 464 0008 651C     		adds	r5, r4, #1
 465 000a 2846     		mov	r0, r5
 466 000c FFF7FEFF 		bl	chThdSetPriority
 467              	.LVL20:
 468              		.loc 1 131 0
 469 0010 B0EB040C 		subs	ip, r0, r4
 470 0014 DCF10001 		rsbs	r1, ip, #0
 471              		.loc 1 130 0
 472 0018 0746     		mov	r7, r0
 473              	.LVL21:
 474              		.loc 1 131 0
 475 001a 51EB0C01 		adcs	r1, r1, ip
 476 001e 0120     		movs	r0, #1
 477              	.LVL22:
 478 0020 FFF7FEFF 		bl	_test_assert
 479              	.LVL23:
 480 0024 00B1     		cbz	r0, .L13
 481              	.LVL24:
 482              	.L8:
 483 0026 F8BD     		pop	{r3, r4, r5, r6, r7, pc}
 484              	.LVL25:
 485              	.L13:
 486              	.LBB307:
 487              	.LBB308:
 488              		.loc 2 192 0
 489 0028 B369     		ldr	r3, [r6, #24]
 490              	.LBE308:
 491              	.LBE307:
 492              		.loc 1 133 0
 493 002a 9968     		ldr	r1, [r3, #8]
 494 002c B5EB010E 		subs	lr, r5, r1
 495 0030 DEF10001 		rsbs	r1, lr, #0
 496 0034 51EB0E01 		adcs	r1, r1, lr
 497 0038 0220     		movs	r0, #2
 498 003a FFF7FEFF 		bl	_test_assert
 499              	.LVL26:
 500 003e 0028     		cmp	r0, #0
 501 0040 F1D1     		bne	.L8
 502              		.loc 1 135 0
 503 0042 3846     		mov	r0, r7
 504 0044 FFF7FEFF 		bl	chThdSetPriority
 505              	.LVL27:
 506              		.loc 1 136 0
 507 0048 281A     		subs	r0, r5, r0
 508              	.LVL28:
 509 004a 4142     		rsbs	r1, r0, #0
 510 004c 4141     		adcs	r1, r1, r0
 511 004e 0320     		movs	r0, #3
ARM GAS  /tmp/ccEEJHkP.s 			page 10


 512 0050 FFF7FEFF 		bl	_test_assert
 513              	.LVL29:
 514 0054 0028     		cmp	r0, #0
 515 0056 E6D1     		bne	.L8
 516              	.LBB309:
 517              	.LBB310:
 518              		.loc 2 192 0
 519 0058 B369     		ldr	r3, [r6, #24]
 520              	.LBE310:
 521              	.LBE309:
 522              		.loc 1 138 0
 523 005a 9968     		ldr	r1, [r3, #8]
 524 005c 621A     		subs	r2, r4, r1
 525 005e 5142     		rsbs	r1, r2, #0
 526 0060 5141     		adcs	r1, r1, r2
 527 0062 0420     		movs	r0, #4
 528 0064 FFF7FEFF 		bl	_test_assert
 529              	.LVL30:
 530 0068 0028     		cmp	r0, #0
 531 006a DCD1     		bne	.L8
 532              	.LVL31:
 533              	.LBB311:
 534              	.LBB312:
 535              	.LBB313:
 536              	.LBB314:
 537              		.loc 3 546 0
 538 006c 2023     		movs	r3, #32
 539              	@ 546 "../ChibiOS/os/ext/CMSIS/include/core_cmFunc.h" 1
 540 006e 83F31188 		MSR basepri, r3
 541              	@ 0 "" 2
 542              		.thumb
 543              	.LBE314:
 544              	.LBE313:
 545              	.LBE312:
 546              	.LBE311:
 547              	.LBB315:
 548              	.LBB316:
 549              		.loc 2 179 0
 550 0072 B369     		ldr	r3, [r6, #24]
 551              	.LBE316:
 552              	.LBE315:
 553              		.loc 1 144 0
 554 0074 9A68     		ldr	r2, [r3, #8]
 555 0076 0232     		adds	r2, r2, #2
 556 0078 9A60     		str	r2, [r3, #8]
 557              	.LVL32:
 558              	.LBB317:
 559              	.LBB318:
 560              	.LBB319:
 561              	.LBB320:
 562              	.LBB321:
 563              		.loc 3 546 0
 564              	@ 546 "../ChibiOS/os/ext/CMSIS/include/core_cmFunc.h" 1
 565 007a 80F31188 		MSR basepri, r0
 566              	@ 0 "" 2
 567              		.thumb
 568              	.LBE321:
ARM GAS  /tmp/ccEEJHkP.s 			page 11


 569              	.LBE320:
 570              	.LBE319:
 571              	.LBE318:
 572              	.LBE317:
 573              	.LBB322:
 574              	.LBB323:
 575              		.loc 2 192 0
 576 007e B369     		ldr	r3, [r6, #24]
 577              	.LBE323:
 578              	.LBE322:
 579              		.loc 1 146 0
 580 0080 9968     		ldr	r1, [r3, #8]
 581 0082 A71C     		adds	r7, r4, #2
 582 0084 7B1A     		subs	r3, r7, r1
 583 0086 5942     		rsbs	r1, r3, #0
 584 0088 5941     		adcs	r1, r1, r3
 585 008a 0520     		movs	r0, #5
 586 008c FFF7FEFF 		bl	_test_assert
 587              	.LVL33:
 588 0090 0028     		cmp	r0, #0
 589 0092 C8D1     		bne	.L8
 590              		.loc 1 150 0
 591 0094 2846     		mov	r0, r5
 592 0096 FFF7FEFF 		bl	chThdSetPriority
 593              	.LVL34:
 594              		.loc 1 151 0
 595 009a B0EB040C 		subs	ip, r0, r4
 596 009e DCF10001 		rsbs	r1, ip, #0
 597 00a2 51EB0C01 		adcs	r1, r1, ip
 598 00a6 0620     		movs	r0, #6
 599              	.LVL35:
 600 00a8 FFF7FEFF 		bl	_test_assert
 601              	.LVL36:
 602 00ac 0028     		cmp	r0, #0
 603 00ae BAD1     		bne	.L8
 604              		.loc 1 153 0
 605 00b0 B369     		ldr	r3, [r6, #24]
 606 00b2 9968     		ldr	r1, [r3, #8]
 607 00b4 B7EB010E 		subs	lr, r7, r1
 608 00b8 DEF10001 		rsbs	r1, lr, #0
 609 00bc 51EB0E01 		adcs	r1, r1, lr
 610 00c0 0720     		movs	r0, #7
 611 00c2 FFF7FEFF 		bl	_test_assert
 612              	.LVL37:
 613 00c6 0028     		cmp	r0, #0
 614 00c8 ADD1     		bne	.L8
 615              		.loc 1 155 0
 616 00ca B369     		ldr	r3, [r6, #24]
 617 00cc D96B     		ldr	r1, [r3, #60]
 618 00ce 6F1A     		subs	r7, r5, r1
 619 00d0 7942     		rsbs	r1, r7, #0
 620 00d2 7941     		adcs	r1, r1, r7
 621 00d4 0820     		movs	r0, #8
 622 00d6 FFF7FEFF 		bl	_test_assert
 623              	.LVL38:
 624 00da 0028     		cmp	r0, #0
 625 00dc A3D1     		bne	.L8
ARM GAS  /tmp/ccEEJHkP.s 			page 12


 626              		.loc 1 159 0
 627 00de E71C     		adds	r7, r4, #3
 628 00e0 3846     		mov	r0, r7
 629 00e2 FFF7FEFF 		bl	chThdSetPriority
 630              	.LVL39:
 631              		.loc 1 160 0
 632 00e6 281A     		subs	r0, r5, r0
 633              	.LVL40:
 634 00e8 4142     		rsbs	r1, r0, #0
 635 00ea 4141     		adcs	r1, r1, r0
 636 00ec 0920     		movs	r0, #9
 637 00ee FFF7FEFF 		bl	_test_assert
 638              	.LVL41:
 639 00f2 0028     		cmp	r0, #0
 640 00f4 97D1     		bne	.L8
 641              		.loc 1 162 0
 642 00f6 B369     		ldr	r3, [r6, #24]
 643 00f8 9968     		ldr	r1, [r3, #8]
 644 00fa 7A1A     		subs	r2, r7, r1
 645 00fc 5142     		rsbs	r1, r2, #0
 646 00fe 5141     		adcs	r1, r1, r2
 647 0100 0A20     		movs	r0, #10
 648 0102 FFF7FEFF 		bl	_test_assert
 649              	.LVL42:
 650 0106 0028     		cmp	r0, #0
 651 0108 8DD1     		bne	.L8
 652              		.loc 1 164 0
 653 010a B369     		ldr	r3, [r6, #24]
 654 010c D96B     		ldr	r1, [r3, #60]
 655 010e 7B1A     		subs	r3, r7, r1
 656 0110 5942     		rsbs	r1, r3, #0
 657 0112 5941     		adcs	r1, r1, r3
 658 0114 0B20     		movs	r0, #11
 659 0116 FFF7FEFF 		bl	_test_assert
 660              	.LVL43:
 661 011a 0028     		cmp	r0, #0
 662 011c 83D1     		bne	.L8
 663              	.LVL44:
 664              	.LBB324:
 665              	.LBB325:
 666              	.LBB326:
 667              	.LBB327:
 668              		.loc 3 546 0
 669 011e 2023     		movs	r3, #32
 670              	@ 546 "../ChibiOS/os/ext/CMSIS/include/core_cmFunc.h" 1
 671 0120 83F31188 		MSR basepri, r3
 672              	@ 0 "" 2
 673              		.thumb
 674              	.LBE327:
 675              	.LBE326:
 676              	.LBE325:
 677              	.LBE324:
 678              	.LBB328:
 679              	.LBB329:
 680              		.loc 2 179 0
 681 0124 B369     		ldr	r3, [r6, #24]
 682              	.LBE329:
ARM GAS  /tmp/ccEEJHkP.s 			page 13


 683              	.LBE328:
 684              		.loc 1 168 0
 685 0126 9C60     		str	r4, [r3, #8]
 686              		.loc 1 169 0
 687 0128 DC63     		str	r4, [r3, #60]
 688              	.LVL45:
 689              	.LBB330:
 690              	.LBB331:
 691              	.LBB332:
 692              	.LBB333:
 693              	.LBB334:
 694              		.loc 3 546 0
 695              	@ 546 "../ChibiOS/os/ext/CMSIS/include/core_cmFunc.h" 1
 696 012a 80F31188 		MSR basepri, r0
 697              	@ 0 "" 2
 698              		.thumb
 699 012e 7AE7     		b	.L8
 700              	.L15:
 701              		.align	2
 702              	.L14:
 703 0130 00000000 		.word	ch
 704              	.LBE334:
 705              	.LBE333:
 706              	.LBE332:
 707              	.LBE331:
 708              	.LBE330:
 709              		.cfi_endproc
 710              	.LFE229:
 711              		.size	thd3_execute, .-thd3_execute
 712 0134 AFF30080 		.section	.text.thd4_execute,"ax",%progbits
 712      AFF30080 
 712      AFF30080 
 713              		.align	2
 714              		.p2align 4,,15
 715              		.thumb
 716              		.thumb_func
 717              		.type	thd4_execute, %function
 718              	thd4_execute:
 719              	.LFB230:
 720              		.loc 1 189 0
 721              		.cfi_startproc
 722              		@ args = 0, pretend = 0, frame = 0
 723              		@ frame_needed = 0, uses_anonymous_args = 0
 724 0000 70B5     		push	{r4, r5, r6, lr}
 725              		.cfi_def_cfa_offset 16
 726              		.cfi_offset 4, -16
 727              		.cfi_offset 5, -12
 728              		.cfi_offset 6, -8
 729              		.cfi_offset 14, -4
 730              		.loc 1 192 0
 731 0002 FFF7FEFF 		bl	test_wait_tick
 732              	.LVL46:
 733              	.LBB427:
 734              	.LBB428:
 735              	.LBB429:
 736              	.LBB430:
 737              	.LBB431:
ARM GAS  /tmp/ccEEJHkP.s 			page 14


 738              	.LBB432:
 739              		.loc 3 546 0
 740 0006 2026     		movs	r6, #32
 741              	@ 546 "../ChibiOS/os/ext/CMSIS/include/core_cmFunc.h" 1
 742 0008 86F31188 		MSR basepri, r6
 743              	@ 0 "" 2
 744              		.thumb
 745              	.LBE432:
 746              	.LBE431:
 747              	.LBE430:
 748              	.LBE429:
 749              	.LBB433:
 750              	.LBB434:
 751              	.LBB435:
 752              	.LBB436:
 753              		.file 4 "../ChibiOS/os/hal/ports/STM32/LLD/TIMv1/st_lld.h"
 754              		.loc 4 128 0
 755 000c 4FF08045 		mov	r5, #1073741824
 756              	.LBE436:
 757              	.LBE435:
 758              	.LBE434:
 759              	.LBE433:
 760              	.LBB440:
 761              	.LBB441:
 762              	.LBB442:
 763              	.LBB443:
 764              	.LBB444:
 765              		.loc 3 546 0
 766 0010 0023     		movs	r3, #0
 767              	.LBE444:
 768              	.LBE443:
 769              	.LBE442:
 770              	.LBE441:
 771              	.LBE440:
 772              	.LBB449:
 773              	.LBB439:
 774              	.LBB438:
 775              	.LBB437:
 776              		.loc 4 128 0
 777 0012 6C6A     		ldr	r4, [r5, #36]
 778              	.LVL47:
 779              	.LBE437:
 780              	.LBE438:
 781              	.LBE439:
 782              	.LBE449:
 783              	.LBB450:
 784              	.LBB448:
 785              	.LBB447:
 786              	.LBB446:
 787              	.LBB445:
 788              		.loc 3 546 0
 789              	@ 546 "../ChibiOS/os/ext/CMSIS/include/core_cmFunc.h" 1
 790 0014 83F31188 		MSR basepri, r3
 791              	@ 0 "" 2
 792              		.thumb
 793              	.LBE445:
 794              	.LBE446:
ARM GAS  /tmp/ccEEJHkP.s 			page 15


 795              	.LBE447:
 796              	.LBE448:
 797              	.LBE450:
 798              	.LBE428:
 799              	.LBE427:
 800              		.loc 1 196 0
 801 0018 4FF47A70 		mov	r0, #1000
 802 001c FFF7FEFF 		bl	chThdSleep
 803              	.LVL48:
 804              		.loc 1 197 0
 805 0020 04F57A71 		add	r1, r4, #1000
 806 0024 04F2EA32 		addw	r2, r4, #1002
 807 0028 0120     		movs	r0, #1
 808 002a FFF7FEFF 		bl	_test_assert_time_window
 809              	.LVL49:
 810 002e 00B1     		cbz	r0, .L20
 811              	.L16:
 812 0030 70BD     		pop	{r4, r5, r6, pc}
 813              	.L20:
 814              	.LVL50:
 815              	.LBB451:
 816              	.LBB452:
 817              	.LBB453:
 818              	.LBB454:
 819              	.LBB455:
 820              	.LBB456:
 821              		.loc 3 546 0
 822              	@ 546 "../ChibiOS/os/ext/CMSIS/include/core_cmFunc.h" 1
 823 0032 86F31188 		MSR basepri, r6
 824              	@ 0 "" 2
 825              		.thumb
 826              	.LBE456:
 827              	.LBE455:
 828              	.LBE454:
 829              	.LBE453:
 830              	.LBB457:
 831              	.LBB458:
 832              	.LBB459:
 833              	.LBB460:
 834              		.loc 4 128 0
 835 0036 6C6A     		ldr	r4, [r5, #36]
 836              	.LVL51:
 837              	.LBE460:
 838              	.LBE459:
 839              	.LBE458:
 840              	.LBE457:
 841              	.LBB461:
 842              	.LBB462:
 843              	.LBB463:
 844              	.LBB464:
 845              	.LBB465:
 846              		.loc 3 546 0
 847              	@ 546 "../ChibiOS/os/ext/CMSIS/include/core_cmFunc.h" 1
 848 0038 80F31188 		MSR basepri, r0
 849              	@ 0 "" 2
 850              		.thumb
 851              	.LBE465:
ARM GAS  /tmp/ccEEJHkP.s 			page 16


 852              	.LBE464:
 853              	.LBE463:
 854              	.LBE462:
 855              	.LBE461:
 856              	.LBE452:
 857              	.LBE451:
 858              		.loc 1 203 0
 859 003c 4FF47A70 		mov	r0, #1000
 860 0040 FFF7FEFF 		bl	chThdSleep
 861              	.LVL52:
 862              		.loc 1 204 0
 863 0044 04F57A71 		add	r1, r4, #1000
 864 0048 04F2EA32 		addw	r2, r4, #1002
 865 004c 0220     		movs	r0, #2
 866 004e FFF7FEFF 		bl	_test_assert_time_window
 867              	.LVL53:
 868 0052 0028     		cmp	r0, #0
 869 0054 ECD1     		bne	.L16
 870              	.LVL54:
 871              	.LBB466:
 872              	.LBB467:
 873              	.LBB468:
 874              	.LBB469:
 875              	.LBB470:
 876              	.LBB471:
 877              	.LBB472:
 878              	.LBB473:
 879              		.loc 3 546 0
 880              	@ 546 "../ChibiOS/os/ext/CMSIS/include/core_cmFunc.h" 1
 881 0056 86F31188 		MSR basepri, r6
 882              	@ 0 "" 2
 883              		.thumb
 884              	.LBE473:
 885              	.LBE472:
 886              	.LBE471:
 887              	.LBE470:
 888              	.LBB474:
 889              	.LBB475:
 890              	.LBB476:
 891              	.LBB477:
 892              		.loc 4 128 0
 893 005a 6C6A     		ldr	r4, [r5, #36]
 894              	.LVL55:
 895              	.LBE477:
 896              	.LBE476:
 897              	.LBE475:
 898              	.LBE474:
 899              	.LBB478:
 900              	.LBB479:
 901              	.LBB480:
 902              	.LBB481:
 903              	.LBB482:
 904              		.loc 3 546 0
 905              	@ 546 "../ChibiOS/os/ext/CMSIS/include/core_cmFunc.h" 1
 906 005c 80F31188 		MSR basepri, r0
 907              	@ 0 "" 2
 908              		.thumb
ARM GAS  /tmp/ccEEJHkP.s 			page 17


 909              	.LBE482:
 910              	.LBE481:
 911              	.LBE480:
 912              	.LBE479:
 913              	.LBE478:
 914              	.LBE469:
 915              	.LBE468:
 916              		.loc 1 210 0
 917 0060 42F21070 		movw	r0, #10000
 918 0064 FFF7FEFF 		bl	chThdSleep
 919              	.LVL56:
 920              		.loc 1 211 0
 921 0068 04F51C51 		add	r1, r4, #9984
 922 006c 0A46     		mov	r2, r1
 923 006e 1232     		adds	r2, r2, #18
 924 0070 1031     		adds	r1, r1, #16
 925 0072 0320     		movs	r0, #3
 926 0074 FFF7FEFF 		bl	_test_assert_time_window
 927              	.LVL57:
 928 0078 0028     		cmp	r0, #0
 929 007a D9D1     		bne	.L16
 930              	.LVL58:
 931              	.LBB483:
 932              	.LBB484:
 933              	.LBB485:
 934              	.LBB486:
 935              	.LBB487:
 936              	.LBB488:
 937              		.loc 3 546 0
 938              	@ 546 "../ChibiOS/os/ext/CMSIS/include/core_cmFunc.h" 1
 939 007c 86F31188 		MSR basepri, r6
 940              	@ 0 "" 2
 941              		.thumb
 942              	.LBE488:
 943              	.LBE487:
 944              	.LBE486:
 945              	.LBE485:
 946              	.LBB489:
 947              	.LBB490:
 948              	.LBB491:
 949              	.LBB492:
 950              		.loc 4 128 0
 951 0080 6C6A     		ldr	r4, [r5, #36]
 952              	.LVL59:
 953              	.LBE492:
 954              	.LBE491:
 955              	.LBE490:
 956              	.LBE489:
 957              	.LBB493:
 958              	.LBB494:
 959              	.LBB495:
 960              	.LBB496:
 961              	.LBB497:
 962              		.loc 3 546 0
 963              	@ 546 "../ChibiOS/os/ext/CMSIS/include/core_cmFunc.h" 1
 964 0082 80F31188 		MSR basepri, r0
 965              	@ 0 "" 2
ARM GAS  /tmp/ccEEJHkP.s 			page 18


 966              		.thumb
 967              	.LBE497:
 968              	.LBE496:
 969              	.LBE495:
 970              	.LBE494:
 971              	.LBE493:
 972              	.LBE484:
 973              	.LBE483:
 974              		.loc 1 216 0
 975 0086 04F57A75 		add	r5, r4, #1000
 976              	.LVL60:
 977              		.loc 1 217 0
 978 008a 2846     		mov	r0, r5
 979 008c FFF7FEFF 		bl	chThdSleepUntil
 980              	.LVL61:
 981              		.loc 1 218 0
 982 0090 2946     		mov	r1, r5
 983 0092 04F2EA32 		addw	r2, r4, #1002
 984 0096 0420     		movs	r0, #4
 985              	.LBE467:
 986              	.LBE466:
 987              		.loc 1 221 0
 988 0098 BDE87040 		pop	{r4, r5, r6, lr}
 989              	.LVL62:
 990              	.LBB499:
 991              	.LBB498:
 992              		.loc 1 218 0
 993 009c FFF7FEBF 		b	_test_assert_time_window
 994              	.LVL63:
 995              	.LBE498:
 996              	.LBE499:
 997              		.cfi_endproc
 998              	.LFE230:
 999              		.size	thd4_execute, .-thd4_execute
 1000              		.global	patternthd
 1001              		.global	testthd4
 1002              		.global	testthd3
 1003              		.global	testthd2
 1004              		.global	testthd1
 1005              		.section	.rodata.testthd1,"a",%progbits
 1006              		.align	2
 1007              		.type	testthd1, %object
 1008              		.size	testthd1, 16
 1009              	testthd1:
 1010 0000 64000000 		.word	.LC9
 1011 0004 00000000 		.word	0
 1012 0008 00000000 		.word	0
 1013 000c 00000000 		.word	thd1_execute
 1014              		.section	.rodata.testthd2,"a",%progbits
 1015              		.align	2
 1016              		.type	testthd2, %object
 1017              		.size	testthd2, 16
 1018              	testthd2:
 1019 0000 48000000 		.word	.LC8
 1020 0004 00000000 		.word	0
 1021 0008 00000000 		.word	0
 1022 000c 00000000 		.word	thd2_execute
ARM GAS  /tmp/ccEEJHkP.s 			page 19


 1023              		.section	.rodata.testthd3,"a",%progbits
 1024              		.align	2
 1025              		.type	testthd3, %object
 1026              		.size	testthd3, 16
 1027              	testthd3:
 1028 0000 2C000000 		.word	.LC7
 1029 0004 00000000 		.word	0
 1030 0008 00000000 		.word	0
 1031 000c 00000000 		.word	thd3_execute
 1032              		.section	.rodata.testthd4,"a",%progbits
 1033              		.align	2
 1034              		.type	testthd4, %object
 1035              		.size	testthd4, 16
 1036              	testthd4:
 1037 0000 1C000000 		.word	.LC6
 1038 0004 00000000 		.word	0
 1039 0008 00000000 		.word	0
 1040 000c 00000000 		.word	thd4_execute
 1041              		.section	.rodata.patternthd,"a",%progbits
 1042              		.align	2
 1043              		.type	patternthd, %object
 1044              		.size	patternthd, 20
 1045              	patternthd:
 1046 0000 00000000 		.word	testthd1
 1047 0004 00000000 		.word	testthd2
 1048 0008 00000000 		.word	testthd3
 1049 000c 00000000 		.word	testthd4
 1050 0010 00000000 		.word	0
 1051              		.section	.rodata.str1.4,"aMS",%progbits,1
 1052              		.align	2
 1053              	.LC0:
 1054 0000 4500     		.ascii	"E\000"
 1055 0002 0000     		.space	2
 1056              	.LC1:
 1057 0004 4400     		.ascii	"D\000"
 1058 0006 0000     		.space	2
 1059              	.LC2:
 1060 0008 4300     		.ascii	"C\000"
 1061 000a 0000     		.space	2
 1062              	.LC3:
 1063 000c 4200     		.ascii	"B\000"
 1064 000e 0000     		.space	2
 1065              	.LC4:
 1066 0010 4100     		.ascii	"A\000"
 1067 0012 0000     		.space	2
 1068              	.LC5:
 1069 0014 41424344 		.ascii	"ABCDE\000"
 1069      4500
 1070 001a 0000     		.space	2
 1071              	.LC6:
 1072 001c 54687265 		.ascii	"Threads, delays\000"
 1072      6164732C 
 1072      2064656C 
 1072      61797300 
 1073              	.LC7:
 1074 002c 54687265 		.ascii	"Threads, priority change\000"
 1074      6164732C 
ARM GAS  /tmp/ccEEJHkP.s 			page 20


 1074      20707269 
 1074      6F726974 
 1074      79206368 
 1075 0045 000000   		.space	3
 1076              	.LC8:
 1077 0048 54687265 		.ascii	"Threads, enqueuing test #2\000"
 1077      6164732C 
 1077      20656E71 
 1077      75657569 
 1077      6E672074 
 1078 0063 00       		.space	1
 1079              	.LC9:
 1080 0064 54687265 		.ascii	"Threads, enqueuing test #1\000"
 1080      6164732C 
 1080      20656E71 
 1080      75657569 
 1080      6E672074 
 1081 007f 00       		.text
 1082              	.Letext0:
 1083              		.file 5 "/nfs/nfs5/home/research/hardware/arm2/gcc-arm-embedded/gcc-arm-none-eabi-4_8-2014q2/lib/g
 1084              		.file 6 "/nfs/nfs5/home/research/hardware/arm2/gcc-arm-embedded/gcc-arm-none-eabi-4_8-2014q2/arm-n
 1085              		.file 7 "/nfs/nfs5/home/research/hardware/arm2/gcc-arm-embedded/gcc-arm-none-eabi-4_8-2014q2/arm-n
 1086              		.file 8 "../ChibiOS/os/rt/ports/ARMCMx/compilers/GCC/chtypes.h"
 1087              		.file 9 "../ChibiOS/os/rt/include/chsystypes.h"
 1088              		.file 10 "../ChibiOS/os/rt/include/chschd.h"
 1089              		.file 11 "../ChibiOS/os/rt/ports/ARMCMx/chcore.h"
 1090              		.file 12 "../ChibiOS/os/rt/ports/ARMCMx/chcore_v7m.h"
 1091              		.file 13 "../ChibiOS/os/hal/ports/STM32/LLD/TIMv1/stm32_tim.h"
 1092              		.file 14 "../ChibiOS/os/rt/include/chtm.h"
 1093              		.file 15 "../ChibiOS/os/rt/include/chmtx.h"
 1094              		.file 16 "../ChibiOS/test/rt/test.h"
 1095              		.file 17 "../ChibiOS/os/rt/ports/ARMCMx/chcore_timer.h"
 1096              		.file 18 "../ChibiOS/os/rt/include/chsys.h"
 1097              		.file 19 "../ChibiOS/os/rt/include/chvt.h"
 1098              		.file 20 "../ChibiOS/os/ext/CMSIS/include/core_cm4.h"