ARM GAS  /tmp/ccozm2D3.s 			page 1


   1              		.syntax unified
   2              		.cpu cortex-m4
   3              		.fpu softvfp
   4              		.eabi_attribute 20, 1
   5              		.eabi_attribute 21, 1
   6              		.eabi_attribute 23, 3
   7              		.eabi_attribute 24, 1
   8              		.eabi_attribute 25, 1
   9              		.eabi_attribute 26, 1
  10              		.eabi_attribute 30, 2
  11              		.eabi_attribute 34, 1
  12              		.eabi_attribute 18, 4
  13              		.thumb
  14              		.file	"testbmk.c"
  15              		.text
  16              	.Ltext0:
  17              		.cfi_sections	.debug_frame
  18              		.section	.text.thread1,"ax",%progbits
  19              		.align	2
  20              		.p2align 4,,15
  21              		.thumb
  22              		.thumb_func
  23              		.type	thread1, %function
  24              	thread1:
  25              	.LFB226:
  26              		.file 1 "../ChibiOS/test/rt/testbmk.c"
  27              		.loc 1 66 0
  28              		.cfi_startproc
  29              		@ args = 0, pretend = 0, frame = 0
  30              		@ frame_needed = 0, uses_anonymous_args = 0
  31              		@ link register save eliminated.
  32              	.LVL0:
  33              		.loc 1 69 0
  34 0000 7047     		bx	lr
  35              		.cfi_endproc
  36              	.LFE226:
  37              		.size	thread1, .-thread1
  38 0002 00BFAFF3 		.section	.text.tmo,"ax",%progbits
  38      0080AFF3 
  38      0080AFF3 
  38      0080
  39              		.align	2
  40              		.p2align 4,,15
  41              		.thumb
  42              		.thumb_func
  43              		.type	tmo, %function
  44              	tmo:
  45              	.LFB242:
  46              		.loc 1 509 0
  47              		.cfi_startproc
  48              		@ args = 0, pretend = 0, frame = 0
  49              		@ frame_needed = 0, uses_anonymous_args = 0
  50              		@ link register save eliminated.
  51              	.LVL1:
  52 0000 7047     		bx	lr
  53              		.cfi_endproc
  54              	.LFE242:
ARM GAS  /tmp/ccozm2D3.s 			page 2


  55              		.size	tmo, .-tmo
  56 0002 00BFAFF3 		.section	.text.bmk13_execute,"ax",%progbits
  56      0080AFF3 
  56      0080AFF3 
  56      0080
  57              		.align	2
  58              		.p2align 4,,15
  59              		.thumb
  60              		.thumb_func
  61              		.type	bmk13_execute, %function
  62              	bmk13_execute:
  63              	.LFB248:
  64              		.loc 1 644 0
  65              		.cfi_startproc
  66              		@ args = 0, pretend = 0, frame = 0
  67              		@ frame_needed = 0, uses_anonymous_args = 0
  68              		.loc 1 644 0
  69 0000 10B5     		push	{r4, lr}
  70              		.cfi_def_cfa_offset 8
  71              		.cfi_offset 4, -8
  72              		.cfi_offset 14, -4
  73              		.loc 1 646 0
  74 0002 2F48     		ldr	r0, .L4
  75              		.loc 1 648 0
  76 0004 2F4C     		ldr	r4, .L4+4
  77              		.loc 1 646 0
  78 0006 FFF7FEFF 		bl	test_print
  79              	.LVL2:
  80              		.loc 1 647 0
  81 000a 4FF4A870 		mov	r0, #336
  82 000e FFF7FEFF 		bl	test_printn
  83              	.LVL3:
  84              		.loc 1 648 0
  85 0012 2046     		mov	r0, r4
  86 0014 FFF7FEFF 		bl	test_println
  87              	.LVL4:
  88              		.loc 1 649 0
  89 0018 2B48     		ldr	r0, .L4+8
  90 001a FFF7FEFF 		bl	test_print
  91              	.LVL5:
  92              		.loc 1 650 0
  93 001e 4420     		movs	r0, #68
  94 0020 FFF7FEFF 		bl	test_printn
  95              	.LVL6:
  96              		.loc 1 651 0
  97 0024 2046     		mov	r0, r4
  98 0026 FFF7FEFF 		bl	test_println
  99              	.LVL7:
 100              		.loc 1 652 0
 101 002a 2848     		ldr	r0, .L4+12
 102 002c FFF7FEFF 		bl	test_print
 103              	.LVL8:
 104              		.loc 1 653 0
 105 0030 1420     		movs	r0, #20
 106 0032 FFF7FEFF 		bl	test_printn
 107              	.LVL9:
 108              		.loc 1 654 0
ARM GAS  /tmp/ccozm2D3.s 			page 3


 109 0036 2046     		mov	r0, r4
 110 0038 FFF7FEFF 		bl	test_println
 111              	.LVL10:
 112              		.loc 1 656 0
 113 003c 2448     		ldr	r0, .L4+16
 114 003e FFF7FEFF 		bl	test_print
 115              	.LVL11:
 116              		.loc 1 657 0
 117 0042 0C20     		movs	r0, #12
 118 0044 FFF7FEFF 		bl	test_printn
 119              	.LVL12:
 120              		.loc 1 658 0
 121 0048 2046     		mov	r0, r4
 122 004a FFF7FEFF 		bl	test_println
 123              	.LVL13:
 124              		.loc 1 661 0
 125 004e 2148     		ldr	r0, .L4+20
 126 0050 FFF7FEFF 		bl	test_print
 127              	.LVL14:
 128              		.loc 1 662 0
 129 0054 0420     		movs	r0, #4
 130 0056 FFF7FEFF 		bl	test_printn
 131              	.LVL15:
 132              		.loc 1 663 0
 133 005a 2046     		mov	r0, r4
 134 005c FFF7FEFF 		bl	test_println
 135              	.LVL16:
 136              		.loc 1 664 0
 137 0060 1D48     		ldr	r0, .L4+24
 138 0062 FFF7FEFF 		bl	test_print
 139              	.LVL17:
 140              		.loc 1 665 0
 141 0066 1420     		movs	r0, #20
 142 0068 FFF7FEFF 		bl	test_printn
 143              	.LVL18:
 144              		.loc 1 666 0
 145 006c 2046     		mov	r0, r4
 146 006e FFF7FEFF 		bl	test_println
 147              	.LVL19:
 148              		.loc 1 669 0
 149 0072 1A48     		ldr	r0, .L4+28
 150 0074 FFF7FEFF 		bl	test_print
 151              	.LVL20:
 152              		.loc 1 670 0
 153 0078 1020     		movs	r0, #16
 154 007a FFF7FEFF 		bl	test_printn
 155              	.LVL21:
 156              		.loc 1 671 0
 157 007e 2046     		mov	r0, r4
 158 0080 FFF7FEFF 		bl	test_println
 159              	.LVL22:
 160              		.loc 1 674 0
 161 0084 1648     		ldr	r0, .L4+32
 162 0086 FFF7FEFF 		bl	test_print
 163              	.LVL23:
 164              		.loc 1 675 0
 165 008a 0820     		movs	r0, #8
ARM GAS  /tmp/ccozm2D3.s 			page 4


 166 008c FFF7FEFF 		bl	test_printn
 167              	.LVL24:
 168              		.loc 1 676 0
 169 0090 2046     		mov	r0, r4
 170 0092 FFF7FEFF 		bl	test_println
 171              	.LVL25:
 172              		.loc 1 679 0
 173 0096 1348     		ldr	r0, .L4+36
 174 0098 FFF7FEFF 		bl	test_print
 175              	.LVL26:
 176              		.loc 1 680 0
 177 009c 2420     		movs	r0, #36
 178 009e FFF7FEFF 		bl	test_printn
 179              	.LVL27:
 180              		.loc 1 681 0
 181 00a2 2046     		mov	r0, r4
 182 00a4 FFF7FEFF 		bl	test_println
 183              	.LVL28:
 184              		.loc 1 684 0
 185 00a8 0F48     		ldr	r0, .L4+40
 186 00aa FFF7FEFF 		bl	test_print
 187              	.LVL29:
 188              		.loc 1 685 0
 189 00ae 2820     		movs	r0, #40
 190 00b0 FFF7FEFF 		bl	test_printn
 191              	.LVL30:
 192              		.loc 1 686 0
 193 00b4 2046     		mov	r0, r4
 194              		.loc 1 688 0
 195 00b6 BDE81040 		pop	{r4, lr}
 196              		.loc 1 686 0
 197 00ba FFF7FEBF 		b	test_println
 198              	.LVL31:
 199              	.L5:
 200 00be 00BF     		.align	2
 201              	.L4:
 202 00c0 00000000 		.word	.LC0
 203 00c4 10000000 		.word	.LC1
 204 00c8 18000000 		.word	.LC2
 205 00cc 28000000 		.word	.LC3
 206 00d0 38000000 		.word	.LC4
 207 00d4 48000000 		.word	.LC5
 208 00d8 58000000 		.word	.LC6
 209 00dc 68000000 		.word	.LC7
 210 00e0 78000000 		.word	.LC8
 211 00e4 88000000 		.word	.LC9
 212 00e8 98000000 		.word	.LC10
 213              		.cfi_endproc
 214              	.LFE248:
 215              		.size	bmk13_execute, .-bmk13_execute
 216 00ec AFF30080 		.section	.text.thread2,"ax",%progbits
 217              		.align	2
 218              		.p2align 4,,15
 219              		.thumb
 220              		.thumb_func
 221              		.type	thread2, %function
 222              	thread2:
ARM GAS  /tmp/ccozm2D3.s 			page 5


 223              	.LFB227:
 224              		.loc 1 72 0
 225              		.cfi_startproc
 226              		@ args = 0, pretend = 0, frame = 0
 227              		@ frame_needed = 0, uses_anonymous_args = 0
 228              	.LVL32:
 229 0000 10B5     		push	{r4, lr}
 230              		.cfi_def_cfa_offset 8
 231              		.cfi_offset 4, -8
 232              		.cfi_offset 14, -4
 233              	.LVL33:
 234              	.L8:
 235              		.loc 1 78 0 discriminator 1
 236 0002 FFF7FEFF 		bl	chMsgWait
 237              	.LVL34:
 238              		.loc 1 73 0 discriminator 1
 239 0006 046B     		ldr	r4, [r0, #48]
 240              	.LVL35:
 241              		.loc 1 80 0 discriminator 1
 242 0008 2146     		mov	r1, r4
 243 000a FFF7FEFF 		bl	chMsgRelease
 244              	.LVL36:
 245              		.loc 1 81 0 discriminator 1
 246 000e 002C     		cmp	r4, #0
 247 0010 F7D1     		bne	.L8
 248              		.loc 1 83 0
 249 0012 2046     		mov	r0, r4
 250 0014 10BD     		pop	{r4, pc}
 251              		.cfi_endproc
 252              	.LFE227:
 253              		.size	thread2, .-thread2
 254 0016 00BFAFF3 		.section	.text.bmk6_execute,"ax",%progbits
 254      0080AFF3 
 254      0080
 255              		.align	2
 256              		.p2align 4,,15
 257              		.thumb
 258              		.thumb_func
 259              		.type	bmk6_execute, %function
 260              	bmk6_execute:
 261              	.LFB235:
 262              		.loc 1 309 0
 263              		.cfi_startproc
 264              		@ args = 0, pretend = 0, frame = 0
 265              		@ frame_needed = 0, uses_anonymous_args = 0
 266              	.LVL37:
 267 0000 2DE9F041 		push	{r4, r5, r6, r7, r8, lr}
 268              		.cfi_def_cfa_offset 24
 269              		.cfi_offset 4, -24
 270              		.cfi_offset 5, -20
 271              		.cfi_offset 6, -16
 272              		.cfi_offset 7, -12
 273              		.cfi_offset 8, -8
 274              		.cfi_offset 14, -4
 275              	.LBB168:
 276              	.LBB169:
 277              	.LBB170:
ARM GAS  /tmp/ccozm2D3.s 			page 6


 278              	.LBB171:
 279              		.file 2 "../ChibiOS/os/rt/include/chthreads.h"
 280              		.loc 2 179 0
 281 0004 144B     		ldr	r3, .L13
 282              	.LBE171:
 283              	.LBE170:
 284              	.LBE169:
 285              	.LBE168:
 286              		.loc 1 312 0
 287 0006 154A     		ldr	r2, .L13+4
 288              	.LBB173:
 289              	.LBB172:
 290              		.loc 2 192 0
 291 0008 9B69     		ldr	r3, [r3, #24]
 292              	.LBE172:
 293              	.LBE173:
 294              		.loc 1 312 0
 295 000a D2F80080 		ldr	r8, [r2]
 296              	.LVL38:
 297              		.loc 1 313 0
 298 000e 9E68     		ldr	r6, [r3, #8]
 299 0010 134F     		ldr	r7, .L13+8
 300              		.loc 1 309 0
 301 0012 82B0     		sub	sp, sp, #8
 302              		.cfi_def_cfa_offset 32
 303              		.loc 1 314 0
 304 0014 FFF7FEFF 		bl	test_wait_tick
 305              	.LVL39:
 306              		.loc 1 315 0
 307 0018 4FF47A70 		mov	r0, #1000
 308 001c FFF7FEFF 		bl	test_start_timer
 309              	.LVL40:
 310              		.loc 1 311 0
 311 0020 0024     		movs	r4, #0
 312              		.loc 1 313 0
 313 0022 0136     		adds	r6, r6, #1
 314              	.LVL41:
 315              		.loc 1 317 0
 316 0024 2546     		mov	r5, r4
 317              	.LVL42:
 318              	.L12:
 319              		.loc 1 317 0 is_stmt 0 discriminator 1
 320 0026 0F4B     		ldr	r3, .L13+12
 321 0028 0095     		str	r5, [sp]
 322 002a 4046     		mov	r0, r8
 323 002c 4FF4A471 		mov	r1, #328
 324 0030 3246     		mov	r2, r6
 325 0032 FFF7FEFF 		bl	chThdCreateStatic
 326              	.LVL43:
 327              		.loc 1 322 0 is_stmt 1 discriminator 1
 328 0036 3B78     		ldrb	r3, [r7]	@ zero_extendqisi2
 329              		.loc 1 318 0 discriminator 1
 330 0038 0134     		adds	r4, r4, #1
 331              	.LVL44:
 332              		.loc 1 322 0 discriminator 1
 333 003a 002B     		cmp	r3, #0
 334 003c F3D0     		beq	.L12
ARM GAS  /tmp/ccozm2D3.s 			page 7


 335              		.loc 1 323 0
 336 003e 0A48     		ldr	r0, .L13+16
 337 0040 FFF7FEFF 		bl	test_print
 338              	.LVL45:
 339              		.loc 1 324 0
 340 0044 2046     		mov	r0, r4
 341 0046 FFF7FEFF 		bl	test_printn
 342              	.LVL46:
 343              		.loc 1 325 0
 344 004a 0848     		ldr	r0, .L13+20
 345              		.loc 1 326 0
 346 004c 02B0     		add	sp, sp, #8
 347              		@ sp needed
 348 004e BDE8F041 		pop	{r4, r5, r6, r7, r8, lr}
 349              	.LVL47:
 350              		.loc 1 325 0
 351 0052 FFF7FEBF 		b	test_println
 352              	.LVL48:
 353              	.L14:
 354 0056 00BF     		.align	2
 355              	.L13:
 356 0058 00000000 		.word	ch
 357 005c 00000000 		.word	wa
 358 0060 00000000 		.word	test_timer_done
 359 0064 00000000 		.word	thread1
 360 0068 A8000000 		.word	.LC11
 361 006c B8000000 		.word	.LC12
 362              		.cfi_endproc
 363              	.LFE235:
 364              		.size	bmk6_execute, .-bmk6_execute
 365              		.section	.text.msg_loop_test,"ax",%progbits
 366              		.align	2
 367              		.p2align 4,,15
 368              		.thumb
 369              		.thumb_func
 370              		.type	msg_loop_test, %function
 371              	msg_loop_test:
 372              	.LFB228:
 373              		.loc 1 88 0
 374              		.cfi_startproc
 375              		@ args = 0, pretend = 0, frame = 0
 376              		@ frame_needed = 0, uses_anonymous_args = 0
 377              	.LVL49:
 378 0000 70B5     		push	{r4, r5, r6, lr}
 379              		.cfi_def_cfa_offset 16
 380              		.cfi_offset 4, -16
 381              		.cfi_offset 5, -12
 382              		.cfi_offset 6, -8
 383              		.cfi_offset 14, -4
 384              		.loc 1 88 0
 385 0002 0546     		mov	r5, r0
 386              		.loc 1 91 0
 387 0004 FFF7FEFF 		bl	test_wait_tick
 388              	.LVL50:
 389              		.loc 1 92 0
 390 0008 4FF47A70 		mov	r0, #1000
 391 000c FFF7FEFF 		bl	test_start_timer
ARM GAS  /tmp/ccozm2D3.s 			page 8


 392              	.LVL51:
 393 0010 074E     		ldr	r6, .L18
 394              		.loc 1 90 0
 395 0012 0024     		movs	r4, #0
 396              	.LVL52:
 397              	.L17:
 398              		.loc 1 94 0 discriminator 1
 399 0014 2846     		mov	r0, r5
 400 0016 0121     		movs	r1, #1
 401 0018 FFF7FEFF 		bl	chMsgSend
 402              	.LVL53:
 403              		.loc 1 99 0 discriminator 1
 404 001c 3378     		ldrb	r3, [r6]	@ zero_extendqisi2
 405              		.loc 1 95 0 discriminator 1
 406 001e 0134     		adds	r4, r4, #1
 407              	.LVL54:
 408              		.loc 1 99 0 discriminator 1
 409 0020 002B     		cmp	r3, #0
 410 0022 F7D0     		beq	.L17
 411              		.loc 1 100 0
 412 0024 2846     		mov	r0, r5
 413 0026 0021     		movs	r1, #0
 414 0028 FFF7FEFF 		bl	chMsgSend
 415              	.LVL55:
 416              		.loc 1 102 0
 417 002c 2046     		mov	r0, r4
 418 002e 70BD     		pop	{r4, r5, r6, pc}
 419              	.LVL56:
 420              	.L19:
 421              		.align	2
 422              	.L18:
 423 0030 00000000 		.word	test_timer_done
 424              		.cfi_endproc
 425              	.LFE228:
 426              		.size	msg_loop_test, .-msg_loop_test
 427 0034 AFF30080 		.section	.text.bmk1_execute,"ax",%progbits
 427      AFF30080 
 427      AFF30080 
 428              		.align	2
 429              		.p2align 4,,15
 430              		.thumb
 431              		.thumb_func
 432              		.type	bmk1_execute, %function
 433              	bmk1_execute:
 434              	.LFB229:
 435              		.loc 1 113 0
 436              		.cfi_startproc
 437              		@ args = 0, pretend = 0, frame = 0
 438              		@ frame_needed = 0, uses_anonymous_args = 0
 439 0000 10B5     		push	{r4, lr}
 440              		.cfi_def_cfa_offset 8
 441              		.cfi_offset 4, -8
 442              		.cfi_offset 14, -4
 443              	.LBB174:
 444              	.LBB175:
 445              	.LBB176:
 446              	.LBB177:
ARM GAS  /tmp/ccozm2D3.s 			page 9


 447              		.loc 2 179 0
 448 0002 134B     		ldr	r3, .L21
 449              	.LBE177:
 450              	.LBE176:
 451              	.LBE175:
 452              	.LBE174:
 453              		.loc 1 116 0
 454 0004 134A     		ldr	r2, .L21+4
 455              	.LBB179:
 456              	.LBB178:
 457              		.loc 2 192 0
 458 0006 9B69     		ldr	r3, [r3, #24]
 459              	.LBE178:
 460              	.LBE179:
 461              		.loc 1 116 0
 462 0008 1068     		ldr	r0, [r2]
 463 000a 9A68     		ldr	r2, [r3, #8]
 464 000c 124B     		ldr	r3, .L21+8
 465              		.loc 1 113 0
 466 000e 82B0     		sub	sp, sp, #8
 467              		.cfi_def_cfa_offset 16
 468              		.loc 1 116 0
 469 0010 0021     		movs	r1, #0
 470 0012 013A     		subs	r2, r2, #1
 471 0014 0091     		str	r1, [sp]
 472 0016 4FF4A471 		mov	r1, #328
 473 001a FFF7FEFF 		bl	chThdCreateStatic
 474              	.LVL57:
 475 001e 0F4B     		ldr	r3, .L21+12
 476 0020 1860     		str	r0, [r3]
 477              		.loc 1 117 0
 478 0022 FFF7FEFF 		bl	msg_loop_test
 479              	.LVL58:
 480 0026 0446     		mov	r4, r0
 481              	.LVL59:
 482              		.loc 1 118 0
 483 0028 FFF7FEFF 		bl	test_wait_threads
 484              	.LVL60:
 485              		.loc 1 119 0
 486 002c 0C48     		ldr	r0, .L21+16
 487 002e FFF7FEFF 		bl	test_print
 488              	.LVL61:
 489              		.loc 1 120 0
 490 0032 2046     		mov	r0, r4
 491 0034 FFF7FEFF 		bl	test_printn
 492              	.LVL62:
 493              		.loc 1 121 0
 494 0038 0A48     		ldr	r0, .L21+20
 495 003a FFF7FEFF 		bl	test_print
 496              	.LVL63:
 497              		.loc 1 122 0
 498 003e 6000     		lsls	r0, r4, #1
 499 0040 FFF7FEFF 		bl	test_printn
 500              	.LVL64:
 501              		.loc 1 123 0
 502 0044 0848     		ldr	r0, .L21+24
 503              		.loc 1 124 0
ARM GAS  /tmp/ccozm2D3.s 			page 10


 504 0046 02B0     		add	sp, sp, #8
 505              		@ sp needed
 506 0048 BDE81040 		pop	{r4, lr}
 507              	.LVL65:
 508              		.loc 1 123 0
 509 004c FFF7FEBF 		b	test_println
 510              	.LVL66:
 511              	.L22:
 512              		.align	2
 513              	.L21:
 514 0050 00000000 		.word	ch
 515 0054 00000000 		.word	wa
 516 0058 00000000 		.word	thread2
 517 005c 00000000 		.word	threads
 518 0060 A8000000 		.word	.LC11
 519 0064 C4000000 		.word	.LC13
 520 0068 D0000000 		.word	.LC14
 521              		.cfi_endproc
 522              	.LFE229:
 523              		.size	bmk1_execute, .-bmk1_execute
 524 006c AFF30080 		.section	.text.bmk2_execute,"ax",%progbits
 525              		.align	2
 526              		.p2align 4,,15
 527              		.thumb
 528              		.thumb_func
 529              		.type	bmk2_execute, %function
 530              	bmk2_execute:
 531              	.LFB230:
 532              		.loc 1 142 0
 533              		.cfi_startproc
 534              		@ args = 0, pretend = 0, frame = 0
 535              		@ frame_needed = 0, uses_anonymous_args = 0
 536 0000 10B5     		push	{r4, lr}
 537              		.cfi_def_cfa_offset 8
 538              		.cfi_offset 4, -8
 539              		.cfi_offset 14, -4
 540              	.LBB180:
 541              	.LBB181:
 542              	.LBB182:
 543              	.LBB183:
 544              		.loc 2 179 0
 545 0002 134B     		ldr	r3, .L24
 546              	.LBE183:
 547              	.LBE182:
 548              	.LBE181:
 549              	.LBE180:
 550              		.loc 1 145 0
 551 0004 134A     		ldr	r2, .L24+4
 552              	.LBB185:
 553              	.LBB184:
 554              		.loc 2 192 0
 555 0006 9B69     		ldr	r3, [r3, #24]
 556              	.LBE184:
 557              	.LBE185:
 558              		.loc 1 145 0
 559 0008 1068     		ldr	r0, [r2]
 560 000a 9A68     		ldr	r2, [r3, #8]
ARM GAS  /tmp/ccozm2D3.s 			page 11


 561 000c 124B     		ldr	r3, .L24+8
 562              		.loc 1 142 0
 563 000e 82B0     		sub	sp, sp, #8
 564              		.cfi_def_cfa_offset 16
 565              		.loc 1 145 0
 566 0010 0021     		movs	r1, #0
 567 0012 0132     		adds	r2, r2, #1
 568 0014 0091     		str	r1, [sp]
 569 0016 4FF4A471 		mov	r1, #328
 570 001a FFF7FEFF 		bl	chThdCreateStatic
 571              	.LVL67:
 572 001e 0F4B     		ldr	r3, .L24+12
 573 0020 1860     		str	r0, [r3]
 574              		.loc 1 146 0
 575 0022 FFF7FEFF 		bl	msg_loop_test
 576              	.LVL68:
 577 0026 0446     		mov	r4, r0
 578              	.LVL69:
 579              		.loc 1 147 0
 580 0028 FFF7FEFF 		bl	test_wait_threads
 581              	.LVL70:
 582              		.loc 1 148 0
 583 002c 0C48     		ldr	r0, .L24+16
 584 002e FFF7FEFF 		bl	test_print
 585              	.LVL71:
 586              		.loc 1 149 0
 587 0032 2046     		mov	r0, r4
 588 0034 FFF7FEFF 		bl	test_printn
 589              	.LVL72:
 590              		.loc 1 150 0
 591 0038 0A48     		ldr	r0, .L24+20
 592 003a FFF7FEFF 		bl	test_print
 593              	.LVL73:
 594              		.loc 1 151 0
 595 003e 6000     		lsls	r0, r4, #1
 596 0040 FFF7FEFF 		bl	test_printn
 597              	.LVL74:
 598              		.loc 1 152 0
 599 0044 0848     		ldr	r0, .L24+24
 600              		.loc 1 153 0
 601 0046 02B0     		add	sp, sp, #8
 602              		@ sp needed
 603 0048 BDE81040 		pop	{r4, lr}
 604              	.LVL75:
 605              		.loc 1 152 0
 606 004c FFF7FEBF 		b	test_println
 607              	.LVL76:
 608              	.L25:
 609              		.align	2
 610              	.L24:
 611 0050 00000000 		.word	ch
 612 0054 00000000 		.word	wa
 613 0058 00000000 		.word	thread2
 614 005c 00000000 		.word	threads
 615 0060 A8000000 		.word	.LC11
 616 0064 C4000000 		.word	.LC13
 617 0068 D0000000 		.word	.LC14
ARM GAS  /tmp/ccozm2D3.s 			page 12


 618              		.cfi_endproc
 619              	.LFE230:
 620              		.size	bmk2_execute, .-bmk2_execute
 621 006c AFF30080 		.section	.text.bmk3_execute,"ax",%progbits
 622              		.align	2
 623              		.p2align 4,,15
 624              		.thumb
 625              		.thumb_func
 626              		.type	bmk3_execute, %function
 627              	bmk3_execute:
 628              	.LFB231:
 629              		.loc 1 172 0
 630              		.cfi_startproc
 631              		@ args = 0, pretend = 0, frame = 0
 632              		@ frame_needed = 0, uses_anonymous_args = 0
 633 0000 2DE9F041 		push	{r4, r5, r6, r7, r8, lr}
 634              		.cfi_def_cfa_offset 24
 635              		.cfi_offset 4, -24
 636              		.cfi_offset 5, -20
 637              		.cfi_offset 6, -16
 638              		.cfi_offset 7, -12
 639              		.cfi_offset 8, -8
 640              		.cfi_offset 14, -4
 641              	.LBB186:
 642              	.LBB187:
 643              	.LBB188:
 644              	.LBB189:
 645              		.loc 2 179 0
 646 0004 2C4F     		ldr	r7, .L27
 647              	.LBE189:
 648              	.LBE188:
 649              	.LBE187:
 650              	.LBE186:
 651              		.loc 1 175 0
 652 0006 2D4E     		ldr	r6, .L27+4
 653              	.LBB191:
 654              	.LBB190:
 655              		.loc 2 192 0
 656 0008 BB69     		ldr	r3, [r7, #24]
 657              	.LBE190:
 658              	.LBE191:
 659              		.loc 1 175 0
 660 000a 3068     		ldr	r0, [r6]
 661 000c 9A68     		ldr	r2, [r3, #8]
 662 000e 2C4B     		ldr	r3, .L27+8
 663 0010 2C4C     		ldr	r4, .L27+12
 664              		.loc 1 176 0
 665 0012 DFF8C080 		ldr	r8, .L27+28
 666              		.loc 1 172 0
 667 0016 82B0     		sub	sp, sp, #8
 668              		.cfi_def_cfa_offset 32
 669              		.loc 1 175 0
 670 0018 0025     		movs	r5, #0
 671 001a 0132     		adds	r2, r2, #1
 672 001c 0095     		str	r5, [sp]
 673 001e 4FF4A471 		mov	r1, #328
 674 0022 FFF7FEFF 		bl	chThdCreateStatic
ARM GAS  /tmp/ccozm2D3.s 			page 13


 675              	.LVL77:
 676              	.LBB192:
 677              	.LBB193:
 678              		.loc 2 192 0
 679 0026 BA69     		ldr	r2, [r7, #24]
 680              	.LBE193:
 681              	.LBE192:
 682              		.loc 1 176 0
 683 0028 7368     		ldr	r3, [r6, #4]
 684 002a 9268     		ldr	r2, [r2, #8]
 685              		.loc 1 175 0
 686 002c 2060     		str	r0, [r4]
 687              		.loc 1 176 0
 688 002e 023A     		subs	r2, r2, #2
 689 0030 0095     		str	r5, [sp]
 690 0032 1846     		mov	r0, r3
 691 0034 4FF4A471 		mov	r1, #328
 692 0038 4346     		mov	r3, r8
 693 003a FFF7FEFF 		bl	chThdCreateStatic
 694              	.LVL78:
 695              	.LBB194:
 696              	.LBB195:
 697              		.loc 2 192 0
 698 003e BA69     		ldr	r2, [r7, #24]
 699              	.LBE195:
 700              	.LBE194:
 701              		.loc 1 177 0
 702 0040 B368     		ldr	r3, [r6, #8]
 703 0042 9268     		ldr	r2, [r2, #8]
 704              		.loc 1 176 0
 705 0044 6060     		str	r0, [r4, #4]
 706              		.loc 1 177 0
 707 0046 033A     		subs	r2, r2, #3
 708 0048 0095     		str	r5, [sp]
 709 004a 1846     		mov	r0, r3
 710 004c 4FF4A471 		mov	r1, #328
 711 0050 4346     		mov	r3, r8
 712 0052 FFF7FEFF 		bl	chThdCreateStatic
 713              	.LVL79:
 714              	.LBB196:
 715              	.LBB197:
 716              		.loc 2 192 0
 717 0056 BA69     		ldr	r2, [r7, #24]
 718              	.LBE197:
 719              	.LBE196:
 720              		.loc 1 178 0
 721 0058 F368     		ldr	r3, [r6, #12]
 722 005a 9268     		ldr	r2, [r2, #8]
 723              		.loc 1 177 0
 724 005c A060     		str	r0, [r4, #8]
 725              		.loc 1 178 0
 726 005e 043A     		subs	r2, r2, #4
 727 0060 0095     		str	r5, [sp]
 728 0062 1846     		mov	r0, r3
 729 0064 4FF4A471 		mov	r1, #328
 730 0068 4346     		mov	r3, r8
 731 006a FFF7FEFF 		bl	chThdCreateStatic
ARM GAS  /tmp/ccozm2D3.s 			page 14


 732              	.LVL80:
 733              	.LBB198:
 734              	.LBB199:
 735              		.loc 2 192 0
 736 006e BA69     		ldr	r2, [r7, #24]
 737              	.LBE199:
 738              	.LBE198:
 739              		.loc 1 179 0
 740 0070 3369     		ldr	r3, [r6, #16]
 741 0072 9268     		ldr	r2, [r2, #8]
 742              		.loc 1 178 0
 743 0074 E060     		str	r0, [r4, #12]
 744              		.loc 1 179 0
 745 0076 053A     		subs	r2, r2, #5
 746 0078 4FF4A471 		mov	r1, #328
 747 007c 1846     		mov	r0, r3
 748 007e 0095     		str	r5, [sp]
 749 0080 4346     		mov	r3, r8
 750 0082 FFF7FEFF 		bl	chThdCreateStatic
 751              	.LVL81:
 752 0086 2061     		str	r0, [r4, #16]
 753              		.loc 1 180 0
 754 0088 2068     		ldr	r0, [r4]
 755 008a FFF7FEFF 		bl	msg_loop_test
 756              	.LVL82:
 757 008e 0446     		mov	r4, r0
 758              	.LVL83:
 759              		.loc 1 181 0
 760 0090 FFF7FEFF 		bl	test_wait_threads
 761              	.LVL84:
 762              		.loc 1 182 0
 763 0094 0C48     		ldr	r0, .L27+16
 764 0096 FFF7FEFF 		bl	test_print
 765              	.LVL85:
 766              		.loc 1 183 0
 767 009a 2046     		mov	r0, r4
 768 009c FFF7FEFF 		bl	test_printn
 769              	.LVL86:
 770              		.loc 1 184 0
 771 00a0 0A48     		ldr	r0, .L27+20
 772 00a2 FFF7FEFF 		bl	test_print
 773              	.LVL87:
 774              		.loc 1 185 0
 775 00a6 6000     		lsls	r0, r4, #1
 776 00a8 FFF7FEFF 		bl	test_printn
 777              	.LVL88:
 778              		.loc 1 186 0
 779 00ac 0848     		ldr	r0, .L27+24
 780              		.loc 1 187 0
 781 00ae 02B0     		add	sp, sp, #8
 782              		@ sp needed
 783 00b0 BDE8F041 		pop	{r4, r5, r6, r7, r8, lr}
 784              	.LVL89:
 785              		.loc 1 186 0
 786 00b4 FFF7FEBF 		b	test_println
 787              	.LVL90:
 788              	.L28:
ARM GAS  /tmp/ccozm2D3.s 			page 15


 789              		.align	2
 790              	.L27:
 791 00b8 00000000 		.word	ch
 792 00bc 00000000 		.word	wa
 793 00c0 00000000 		.word	thread2
 794 00c4 00000000 		.word	threads
 795 00c8 A8000000 		.word	.LC11
 796 00cc C4000000 		.word	.LC13
 797 00d0 D0000000 		.word	.LC14
 798 00d4 00000000 		.word	thread1
 799              		.cfi_endproc
 800              	.LFE231:
 801              		.size	bmk3_execute, .-bmk3_execute
 802 00d8 AFF30080 		.section	.text.thread4,"ax",%progbits
 802      AFF30080 
 803              		.align	2
 804              		.p2align 4,,15
 805              		.global	thread4
 806              		.thumb
 807              		.thumb_func
 808              		.type	thread4, %function
 809              	thread4:
 810              	.LFB232:
 811              		.loc 1 207 0
 812              		.cfi_startproc
 813              		@ args = 0, pretend = 0, frame = 0
 814              		@ frame_needed = 0, uses_anonymous_args = 0
 815              	.LVL91:
 816              	.LBB200:
 817              	.LBB201:
 818              		.loc 2 179 0
 819 0000 074A     		ldr	r2, .L32
 820              	.LBE201:
 821              	.LBE200:
 822              		.loc 1 207 0
 823 0002 10B5     		push	{r4, lr}
 824              		.cfi_def_cfa_offset 8
 825              		.cfi_offset 4, -8
 826              		.cfi_offset 14, -4
 827              	.LBB203:
 828              	.LBB204:
 829              	.LBB205:
 830              	.LBB206:
 831              		.file 3 "../ChibiOS/os/ext/CMSIS/include/core_cmFunc.h"
 832              		.loc 3 546 0
 833 0004 2023     		movs	r3, #32
 834              	.LBE206:
 835              	.LBE205:
 836              	.LBE204:
 837              	.LBE203:
 838              	.LBB210:
 839              	.LBB202:
 840              		.loc 2 179 0
 841 0006 9469     		ldr	r4, [r2, #24]
 842              	.LVL92:
 843              	.LBE202:
 844              	.LBE210:
ARM GAS  /tmp/ccozm2D3.s 			page 16


 845              	.LBB211:
 846              	.LBB209:
 847              	.LBB208:
 848              	.LBB207:
 849              		.loc 3 546 0
 850              	@ 546 "../ChibiOS/os/ext/CMSIS/include/core_cmFunc.h" 1
 851 0008 83F31188 		MSR basepri, r3
 852              	@ 0 "" 2
 853              	.LVL93:
 854              		.thumb
 855              	.L31:
 856              	.LBE207:
 857              	.LBE208:
 858              	.LBE209:
 859              	.LBE211:
 860              		.loc 1 214 0 discriminator 1
 861 000c 0320     		movs	r0, #3
 862 000e FFF7FEFF 		bl	chSchGoSleepS
 863              	.LVL94:
 864              		.loc 1 216 0 discriminator 1
 865 0012 236A     		ldr	r3, [r4, #32]
 866 0014 002B     		cmp	r3, #0
 867 0016 F9D0     		beq	.L31
 868              	.LVL95:
 869              	.LBB212:
 870              	.LBB213:
 871              	.LBB214:
 872              	.LBB215:
 873              	.LBB216:
 874              		.loc 3 546 0
 875 0018 0020     		movs	r0, #0
 876              	@ 546 "../ChibiOS/os/ext/CMSIS/include/core_cmFunc.h" 1
 877 001a 80F31188 		MSR basepri, r0
 878              	@ 0 "" 2
 879              		.thumb
 880              	.LBE216:
 881              	.LBE215:
 882              	.LBE214:
 883              	.LBE213:
 884              	.LBE212:
 885              		.loc 1 219 0
 886 001e 10BD     		pop	{r4, pc}
 887              	.LVL96:
 888              	.L33:
 889              		.align	2
 890              	.L32:
 891 0020 00000000 		.word	ch
 892              		.cfi_endproc
 893              	.LFE232:
 894              		.size	thread4, .-thread4
 895 0024 AFF30080 		.section	.text.bmk4_execute,"ax",%progbits
 895      AFF30080 
 895      AFF30080 
 896              		.align	2
 897              		.p2align 4,,15
 898              		.thumb
 899              		.thumb_func
ARM GAS  /tmp/ccozm2D3.s 			page 17


 900              		.type	bmk4_execute, %function
 901              	bmk4_execute:
 902              	.LFB233:
 903              		.loc 1 221 0
 904              		.cfi_startproc
 905              		@ args = 0, pretend = 0, frame = 0
 906              		@ frame_needed = 0, uses_anonymous_args = 0
 907 0000 2DE9F047 		push	{r4, r5, r6, r7, r8, r9, r10, lr}
 908              		.cfi_def_cfa_offset 32
 909              		.cfi_offset 4, -32
 910              		.cfi_offset 5, -28
 911              		.cfi_offset 6, -24
 912              		.cfi_offset 7, -20
 913              		.cfi_offset 8, -16
 914              		.cfi_offset 9, -12
 915              		.cfi_offset 10, -8
 916              		.cfi_offset 14, -4
 917              	.LBB217:
 918              	.LBB218:
 919              	.LBB219:
 920              	.LBB220:
 921              		.loc 2 179 0
 922 0004 264B     		ldr	r3, .L37
 923              	.LBE220:
 924              	.LBE219:
 925              	.LBE218:
 926              	.LBE217:
 927              		.loc 1 225 0
 928 0006 274A     		ldr	r2, .L37+4
 929              	.LBB222:
 930              	.LBB221:
 931              		.loc 2 192 0
 932 0008 9B69     		ldr	r3, [r3, #24]
 933              	.LBE221:
 934              	.LBE222:
 935              		.loc 1 225 0
 936 000a 1068     		ldr	r0, [r2]
 937 000c 9A68     		ldr	r2, [r3, #8]
 938 000e 264B     		ldr	r3, .L37+8
 939 0010 DFF8A490 		ldr	r9, .L37+24
 940              		.loc 1 221 0
 941 0014 82B0     		sub	sp, sp, #8
 942              		.cfi_def_cfa_offset 40
 943              		.loc 1 225 0
 944 0016 0025     		movs	r5, #0
 945 0018 0132     		adds	r2, r2, #1
 946 001a 4FF4A471 		mov	r1, #328
 947 001e 0095     		str	r5, [sp]
 948 0020 FFF7FEFF 		bl	chThdCreateStatic
 949              	.LVL97:
 950 0024 214B     		ldr	r3, .L37+12
 951 0026 0446     		mov	r4, r0
 952 0028 1860     		str	r0, [r3]
 953              	.LVL98:
 954              		.loc 1 228 0
 955 002a FFF7FEFF 		bl	test_wait_tick
 956              	.LVL99:
ARM GAS  /tmp/ccozm2D3.s 			page 18


 957              		.loc 1 229 0
 958 002e 4FF47A70 		mov	r0, #1000
 959 0032 FFF7FEFF 		bl	test_start_timer
 960              	.LVL100:
 961              		.loc 1 232 0
 962 0036 A846     		mov	r8, r5
 963              	.LBB223:
 964              	.LBB224:
 965              	.LBB225:
 966              	.LBB226:
 967              		.loc 3 546 0
 968 0038 2027     		movs	r7, #32
 969              	.LVL101:
 970              	.L36:
 971              		.loc 3 546 0 is_stmt 0 discriminator 1
 972 003a 2026     		movs	r6, #32
 973              	@ 546 "../ChibiOS/os/ext/CMSIS/include/core_cmFunc.h" 1
 974 003c 87F31188 		MSR basepri, r7
 975              	@ 0 "" 2
 976              		.thumb
 977              	.LBE226:
 978              	.LBE225:
 979              	.LBE224:
 980              	.LBE223:
 981              		.loc 1 232 0 is_stmt 1 discriminator 1
 982 0040 0021     		movs	r1, #0
 983 0042 2046     		mov	r0, r4
 984 0044 FFF7FEFF 		bl	chSchWakeupS
 985              	.LVL102:
 986              		.loc 1 233 0 discriminator 1
 987 0048 2046     		mov	r0, r4
 988 004a 0021     		movs	r1, #0
 989 004c FFF7FEFF 		bl	chSchWakeupS
 990              	.LVL103:
 991              		.loc 1 234 0 discriminator 1
 992 0050 2046     		mov	r0, r4
 993 0052 0021     		movs	r1, #0
 994 0054 FFF7FEFF 		bl	chSchWakeupS
 995              	.LVL104:
 996              		.loc 1 235 0 discriminator 1
 997 0058 2046     		mov	r0, r4
 998 005a 0021     		movs	r1, #0
 999 005c FFF7FEFF 		bl	chSchWakeupS
 1000              	.LVL105:
 1001              	.LBB227:
 1002              	.LBB228:
 1003              	.LBB229:
 1004              	.LBB230:
 1005              	.LBB231:
 1006              		.loc 3 546 0 discriminator 1
 1007 0060 4FF0000A 		mov	r10, #0
 1008              	@ 546 "../ChibiOS/os/ext/CMSIS/include/core_cmFunc.h" 1
 1009 0064 88F31188 		MSR basepri, r8
 1010              	@ 0 "" 2
 1011              		.thumb
 1012              	.LBE231:
 1013              	.LBE230:
ARM GAS  /tmp/ccozm2D3.s 			page 19


 1014              	.LBE229:
 1015              	.LBE228:
 1016              	.LBE227:
 1017              		.loc 1 241 0 discriminator 1
 1018 0068 99F80030 		ldrb	r3, [r9]	@ zero_extendqisi2
 1019              		.loc 1 237 0 discriminator 1
 1020 006c 0435     		adds	r5, r5, #4
 1021              	.LVL106:
 1022              		.loc 1 241 0 discriminator 1
 1023 006e 002B     		cmp	r3, #0
 1024 0070 E3D0     		beq	.L36
 1025              	.LVL107:
 1026              	.LBB232:
 1027              	.LBB233:
 1028              	.LBB234:
 1029              	.LBB235:
 1030              		.loc 3 546 0
 1031              	@ 546 "../ChibiOS/os/ext/CMSIS/include/core_cmFunc.h" 1
 1032 0072 86F31188 		MSR basepri, r6
 1033              	@ 0 "" 2
 1034              		.thumb
 1035              	.LBE235:
 1036              	.LBE234:
 1037              	.LBE233:
 1038              	.LBE232:
 1039              		.loc 1 243 0
 1040 0076 4FF0FF31 		mov	r1, #-1
 1041 007a 2046     		mov	r0, r4
 1042 007c FFF7FEFF 		bl	chSchWakeupS
 1043              	.LVL108:
 1044              	.LBB236:
 1045              	.LBB237:
 1046              	.LBB238:
 1047              	.LBB239:
 1048              	.LBB240:
 1049              		.loc 3 546 0
 1050              	@ 546 "../ChibiOS/os/ext/CMSIS/include/core_cmFunc.h" 1
 1051 0080 8AF31188 		MSR basepri, r10
 1052              	@ 0 "" 2
 1053              		.thumb
 1054              	.LBE240:
 1055              	.LBE239:
 1056              	.LBE238:
 1057              	.LBE237:
 1058              	.LBE236:
 1059              		.loc 1 246 0
 1060 0084 FFF7FEFF 		bl	test_wait_threads
 1061              	.LVL109:
 1062              		.loc 1 247 0
 1063 0088 0948     		ldr	r0, .L37+16
 1064 008a FFF7FEFF 		bl	test_print
 1065              	.LVL110:
 1066              		.loc 1 248 0
 1067 008e 6800     		lsls	r0, r5, #1
 1068 0090 FFF7FEFF 		bl	test_printn
 1069              	.LVL111:
 1070              		.loc 1 249 0
ARM GAS  /tmp/ccozm2D3.s 			page 20


 1071 0094 0748     		ldr	r0, .L37+20
 1072              		.loc 1 250 0
 1073 0096 02B0     		add	sp, sp, #8
 1074              		@ sp needed
 1075 0098 BDE8F047 		pop	{r4, r5, r6, r7, r8, r9, r10, lr}
 1076              	.LVL112:
 1077              		.loc 1 249 0
 1078 009c FFF7FEBF 		b	test_println
 1079              	.LVL113:
 1080              	.L38:
 1081              		.align	2
 1082              	.L37:
 1083 00a0 00000000 		.word	ch
 1084 00a4 00000000 		.word	wa
 1085 00a8 00000000 		.word	thread4
 1086 00ac 00000000 		.word	threads
 1087 00b0 A8000000 		.word	.LC11
 1088 00b4 D0000000 		.word	.LC14
 1089 00b8 00000000 		.word	test_timer_done
 1090              		.cfi_endproc
 1091              	.LFE233:
 1092              		.size	bmk4_execute, .-bmk4_execute
 1093 00bc AFF30080 		.section	.text.bmk5_execute,"ax",%progbits
 1094              		.align	2
 1095              		.p2align 4,,15
 1096              		.thumb
 1097              		.thumb_func
 1098              		.type	bmk5_execute, %function
 1099              	bmk5_execute:
 1100              	.LFB234:
 1101              		.loc 1 270 0
 1102              		.cfi_startproc
 1103              		@ args = 0, pretend = 0, frame = 0
 1104              		@ frame_needed = 0, uses_anonymous_args = 0
 1105              	.LVL114:
 1106 0000 2DE9F041 		push	{r4, r5, r6, r7, r8, lr}
 1107              		.cfi_def_cfa_offset 24
 1108              		.cfi_offset 4, -24
 1109              		.cfi_offset 5, -20
 1110              		.cfi_offset 6, -16
 1111              		.cfi_offset 7, -12
 1112              		.cfi_offset 8, -8
 1113              		.cfi_offset 14, -4
 1114              	.LBB241:
 1115              	.LBB242:
 1116              	.LBB243:
 1117              	.LBB244:
 1118              		.loc 2 179 0
 1119 0004 154B     		ldr	r3, .L42
 1120              	.LBE244:
 1121              	.LBE243:
 1122              	.LBE242:
 1123              	.LBE241:
 1124              		.loc 1 273 0
 1125 0006 164A     		ldr	r2, .L42+4
 1126              	.LBB246:
 1127              	.LBB245:
ARM GAS  /tmp/ccozm2D3.s 			page 21


 1128              		.loc 2 192 0
 1129 0008 9B69     		ldr	r3, [r3, #24]
 1130              	.LBE245:
 1131              	.LBE246:
 1132              		.loc 1 273 0
 1133 000a D2F80080 		ldr	r8, [r2]
 1134              	.LVL115:
 1135              		.loc 1 274 0
 1136 000e 9E68     		ldr	r6, [r3, #8]
 1137 0010 144F     		ldr	r7, .L42+8
 1138              		.loc 1 270 0
 1139 0012 82B0     		sub	sp, sp, #8
 1140              		.cfi_def_cfa_offset 32
 1141              		.loc 1 275 0
 1142 0014 FFF7FEFF 		bl	test_wait_tick
 1143              	.LVL116:
 1144              		.loc 1 276 0
 1145 0018 4FF47A70 		mov	r0, #1000
 1146 001c FFF7FEFF 		bl	test_start_timer
 1147              	.LVL117:
 1148              		.loc 1 272 0
 1149 0020 0024     		movs	r4, #0
 1150              		.loc 1 274 0
 1151 0022 013E     		subs	r6, r6, #1
 1152              	.LVL118:
 1153              		.loc 1 278 0
 1154 0024 2546     		mov	r5, r4
 1155              	.LVL119:
 1156              	.L41:
 1157              		.loc 1 278 0 is_stmt 0 discriminator 1
 1158 0026 104B     		ldr	r3, .L42+12
 1159 0028 0095     		str	r5, [sp]
 1160 002a 4FF4A471 		mov	r1, #328
 1161 002e 3246     		mov	r2, r6
 1162 0030 4046     		mov	r0, r8
 1163 0032 FFF7FEFF 		bl	chThdCreateStatic
 1164              	.LVL120:
 1165 0036 FFF7FEFF 		bl	chThdWait
 1166              	.LVL121:
 1167              		.loc 1 283 0 is_stmt 1 discriminator 1
 1168 003a 3B78     		ldrb	r3, [r7]	@ zero_extendqisi2
 1169              		.loc 1 279 0 discriminator 1
 1170 003c 0134     		adds	r4, r4, #1
 1171              	.LVL122:
 1172              		.loc 1 283 0 discriminator 1
 1173 003e 002B     		cmp	r3, #0
 1174 0040 F1D0     		beq	.L41
 1175              		.loc 1 284 0
 1176 0042 0A48     		ldr	r0, .L42+16
 1177 0044 FFF7FEFF 		bl	test_print
 1178              	.LVL123:
 1179              		.loc 1 285 0
 1180 0048 2046     		mov	r0, r4
 1181 004a FFF7FEFF 		bl	test_printn
 1182              	.LVL124:
 1183              		.loc 1 286 0
 1184 004e 0848     		ldr	r0, .L42+20
ARM GAS  /tmp/ccozm2D3.s 			page 22


 1185              		.loc 1 287 0
 1186 0050 02B0     		add	sp, sp, #8
 1187              		@ sp needed
 1188 0052 BDE8F041 		pop	{r4, r5, r6, r7, r8, lr}
 1189              	.LVL125:
 1190              		.loc 1 286 0
 1191 0056 FFF7FEBF 		b	test_println
 1192              	.LVL126:
 1193              	.L43:
 1194 005a 00BF     		.align	2
 1195              	.L42:
 1196 005c 00000000 		.word	ch
 1197 0060 00000000 		.word	wa
 1198 0064 00000000 		.word	test_timer_done
 1199 0068 00000000 		.word	thread1
 1200 006c A8000000 		.word	.LC11
 1201 0070 B8000000 		.word	.LC12
 1202              		.cfi_endproc
 1203              	.LFE234:
 1204              		.size	bmk5_execute, .-bmk5_execute
 1205 0074 AFF30080 		.section	.text.bmk7_execute,"ax",%progbits
 1205      AFF30080 
 1205      AFF30080 
 1206              		.align	2
 1207              		.p2align 4,,15
 1208              		.thumb
 1209              		.thumb_func
 1210              		.type	bmk7_execute, %function
 1211              	bmk7_execute:
 1212              	.LFB238:
 1213              		.loc 1 360 0
 1214              		.cfi_startproc
 1215              		@ args = 0, pretend = 0, frame = 0
 1216              		@ frame_needed = 0, uses_anonymous_args = 0
 1217 0000 2DE9F041 		push	{r4, r5, r6, r7, r8, lr}
 1218              		.cfi_def_cfa_offset 24
 1219              		.cfi_offset 4, -24
 1220              		.cfi_offset 5, -20
 1221              		.cfi_offset 6, -16
 1222              		.cfi_offset 7, -12
 1223              		.cfi_offset 8, -8
 1224              		.cfi_offset 14, -4
 1225              	.LBB247:
 1226              	.LBB248:
 1227              	.LBB249:
 1228              	.LBB250:
 1229              		.loc 2 179 0
 1230 0004 DFF80081 		ldr	r8, .L47+32
 1231              	.LBE250:
 1232              	.LBE249:
 1233              	.LBE248:
 1234              	.LBE247:
 1235              		.loc 1 363 0
 1236 0008 374F     		ldr	r7, .L47
 1237              	.LBB252:
 1238              	.LBB251:
 1239              		.loc 2 192 0
ARM GAS  /tmp/ccozm2D3.s 			page 23


 1240 000a D8F81830 		ldr	r3, [r8, #24]
 1241              	.LBE251:
 1242              	.LBE252:
 1243              		.loc 1 363 0
 1244 000e 3868     		ldr	r0, [r7]
 1245 0010 9A68     		ldr	r2, [r3, #8]
 1246 0012 364B     		ldr	r3, .L47+4
 1247 0014 364E     		ldr	r6, .L47+8
 1248 0016 374D     		ldr	r5, .L47+12
 1249              		.loc 1 360 0
 1250 0018 82B0     		sub	sp, sp, #8
 1251              		.cfi_def_cfa_offset 32
 1252              		.loc 1 363 0
 1253 001a 0024     		movs	r4, #0
 1254 001c 0532     		adds	r2, r2, #5
 1255 001e 4FF4A471 		mov	r1, #328
 1256 0022 0094     		str	r4, [sp]
 1257 0024 FFF7FEFF 		bl	chThdCreateStatic
 1258              	.LVL127:
 1259              	.LBB253:
 1260              	.LBB254:
 1261              		.loc 2 192 0
 1262 0028 D8F81820 		ldr	r2, [r8, #24]
 1263              	.LBE254:
 1264              	.LBE253:
 1265              		.loc 1 364 0
 1266 002c 7B68     		ldr	r3, [r7, #4]
 1267 002e 9268     		ldr	r2, [r2, #8]
 1268              		.loc 1 363 0
 1269 0030 3060     		str	r0, [r6]
 1270              		.loc 1 364 0
 1271 0032 0432     		adds	r2, r2, #4
 1272 0034 1846     		mov	r0, r3
 1273 0036 4FF4A471 		mov	r1, #328
 1274 003a 2C4B     		ldr	r3, .L47+4
 1275 003c 0094     		str	r4, [sp]
 1276 003e FFF7FEFF 		bl	chThdCreateStatic
 1277              	.LVL128:
 1278              	.LBB255:
 1279              	.LBB256:
 1280              		.loc 2 192 0
 1281 0042 D8F81820 		ldr	r2, [r8, #24]
 1282              	.LBE256:
 1283              	.LBE255:
 1284              		.loc 1 365 0
 1285 0046 BB68     		ldr	r3, [r7, #8]
 1286 0048 9268     		ldr	r2, [r2, #8]
 1287              		.loc 1 364 0
 1288 004a 7060     		str	r0, [r6, #4]
 1289              		.loc 1 365 0
 1290 004c 0332     		adds	r2, r2, #3
 1291 004e 1846     		mov	r0, r3
 1292 0050 4FF4A471 		mov	r1, #328
 1293 0054 254B     		ldr	r3, .L47+4
 1294 0056 0094     		str	r4, [sp]
 1295 0058 FFF7FEFF 		bl	chThdCreateStatic
 1296              	.LVL129:
ARM GAS  /tmp/ccozm2D3.s 			page 24


 1297              	.LBB257:
 1298              	.LBB258:
 1299              		.loc 2 192 0
 1300 005c D8F81820 		ldr	r2, [r8, #24]
 1301              	.LBE258:
 1302              	.LBE257:
 1303              		.loc 1 366 0
 1304 0060 FB68     		ldr	r3, [r7, #12]
 1305 0062 9268     		ldr	r2, [r2, #8]
 1306              		.loc 1 365 0
 1307 0064 B060     		str	r0, [r6, #8]
 1308              		.loc 1 366 0
 1309 0066 0232     		adds	r2, r2, #2
 1310 0068 1846     		mov	r0, r3
 1311 006a 4FF4A471 		mov	r1, #328
 1312 006e 1F4B     		ldr	r3, .L47+4
 1313 0070 0094     		str	r4, [sp]
 1314 0072 FFF7FEFF 		bl	chThdCreateStatic
 1315              	.LVL130:
 1316              	.LBB259:
 1317              	.LBB260:
 1318              		.loc 2 192 0
 1319 0076 D8F81820 		ldr	r2, [r8, #24]
 1320              	.LBE260:
 1321              	.LBE259:
 1322              		.loc 1 367 0
 1323 007a 3B69     		ldr	r3, [r7, #16]
 1324 007c 9268     		ldr	r2, [r2, #8]
 1325              		.loc 1 366 0
 1326 007e F060     		str	r0, [r6, #12]
 1327              		.loc 1 367 0
 1328 0080 0132     		adds	r2, r2, #1
 1329 0082 1846     		mov	r0, r3
 1330 0084 4FF4A471 		mov	r1, #328
 1331 0088 184B     		ldr	r3, .L47+4
 1332 008a 0094     		str	r4, [sp]
 1333 008c FFF7FEFF 		bl	chThdCreateStatic
 1334              	.LVL131:
 1335 0090 3061     		str	r0, [r6, #16]
 1336              	.LVL132:
 1337              		.loc 1 370 0
 1338 0092 FFF7FEFF 		bl	test_wait_tick
 1339              	.LVL133:
 1340              		.loc 1 371 0
 1341 0096 4FF47A70 		mov	r0, #1000
 1342 009a FFF7FEFF 		bl	test_start_timer
 1343              	.LVL134:
 1344              	.L46:
 1345              		.loc 1 373 0 discriminator 1
 1346 009e 1648     		ldr	r0, .L47+16
 1347 00a0 0021     		movs	r1, #0
 1348 00a2 FFF7FEFF 		bl	chSemReset
 1349              	.LVL135:
 1350              		.loc 1 378 0 discriminator 1
 1351 00a6 2B78     		ldrb	r3, [r5]	@ zero_extendqisi2
 1352              		.loc 1 374 0 discriminator 1
 1353 00a8 0134     		adds	r4, r4, #1
ARM GAS  /tmp/ccozm2D3.s 			page 25


 1354              	.LVL136:
 1355              		.loc 1 378 0 discriminator 1
 1356 00aa 002B     		cmp	r3, #0
 1357 00ac F7D0     		beq	.L46
 1358              		.loc 1 379 0
 1359 00ae FFF7FEFF 		bl	test_terminate_threads
 1360              	.LVL137:
 1361              		.loc 1 380 0
 1362 00b2 0021     		movs	r1, #0
 1363 00b4 1048     		ldr	r0, .L47+16
 1364 00b6 FFF7FEFF 		bl	chSemReset
 1365              	.LVL138:
 1366              		.loc 1 381 0
 1367 00ba FFF7FEFF 		bl	test_wait_threads
 1368              	.LVL139:
 1369              		.loc 1 383 0
 1370 00be 0F48     		ldr	r0, .L47+20
 1371 00c0 FFF7FEFF 		bl	test_print
 1372              	.LVL140:
 1373              		.loc 1 384 0
 1374 00c4 2046     		mov	r0, r4
 1375 00c6 FFF7FEFF 		bl	test_printn
 1376              	.LVL141:
 1377              		.loc 1 385 0
 1378 00ca 0D48     		ldr	r0, .L47+24
 1379 00cc FFF7FEFF 		bl	test_print
 1380              	.LVL142:
 1381              		.loc 1 386 0
 1382 00d0 04EB4400 		add	r0, r4, r4, lsl #1
 1383 00d4 4000     		lsls	r0, r0, #1
 1384 00d6 FFF7FEFF 		bl	test_printn
 1385              	.LVL143:
 1386              		.loc 1 387 0
 1387 00da 0A48     		ldr	r0, .L47+28
 1388              		.loc 1 388 0
 1389 00dc 02B0     		add	sp, sp, #8
 1390              		@ sp needed
 1391 00de BDE8F041 		pop	{r4, r5, r6, r7, r8, lr}
 1392              	.LVL144:
 1393              		.loc 1 387 0
 1394 00e2 FFF7FEBF 		b	test_println
 1395              	.LVL145:
 1396              	.L48:
 1397 00e6 00BF     		.align	2
 1398              	.L47:
 1399 00e8 00000000 		.word	wa
 1400 00ec 00000000 		.word	thread3
 1401 00f0 00000000 		.word	threads
 1402 00f4 00000000 		.word	test_timer_done
 1403 00f8 00000000 		.word	.LANCHOR0
 1404 00fc A8000000 		.word	.LC11
 1405 0100 DC000000 		.word	.LC15
 1406 0104 D0000000 		.word	.LC14
 1407 0108 00000000 		.word	ch
 1408              		.cfi_endproc
 1409              	.LFE238:
 1410              		.size	bmk7_execute, .-bmk7_execute
ARM GAS  /tmp/ccozm2D3.s 			page 26


 1411 010c AFF30080 		.section	.text.thread3,"ax",%progbits
 1412              		.align	2
 1413              		.p2align 4,,15
 1414              		.thumb
 1415              		.thumb_func
 1416              		.type	thread3, %function
 1417              	thread3:
 1418              	.LFB236:
 1419              		.loc 1 347 0
 1420              		.cfi_startproc
 1421              		@ args = 0, pretend = 0, frame = 0
 1422              		@ frame_needed = 0, uses_anonymous_args = 0
 1423              	.LVL146:
 1424 0000 10B5     		push	{r4, lr}
 1425              		.cfi_def_cfa_offset 8
 1426              		.cfi_offset 4, -8
 1427              		.cfi_offset 14, -4
 1428              	.LBB261:
 1429              	.LBB262:
 1430              	.LBB263:
 1431              	.LBB264:
 1432              		.loc 2 179 0
 1433 0002 074C     		ldr	r4, .L54
 1434              	.LBE264:
 1435              	.LBE263:
 1436              		.loc 2 236 0
 1437 0004 A369     		ldr	r3, [r4, #24]
 1438 0006 5B7F     		ldrb	r3, [r3, #29]	@ zero_extendqisi2
 1439              	.LBE262:
 1440              	.LBE261:
 1441              		.loc 1 350 0
 1442 0008 5A07     		lsls	r2, r3, #29
 1443 000a 06D4     		bmi	.L53
 1444              	.LVL147:
 1445              	.L52:
 1446              		.loc 1 351 0
 1447 000c 0548     		ldr	r0, .L54+4
 1448 000e FFF7FEFF 		bl	chSemWait
 1449              	.LVL148:
 1450              	.LBB266:
 1451              	.LBB265:
 1452              		.loc 2 236 0
 1453 0012 A369     		ldr	r3, [r4, #24]
 1454 0014 5B7F     		ldrb	r3, [r3, #29]	@ zero_extendqisi2
 1455              	.LBE265:
 1456              	.LBE266:
 1457              		.loc 1 350 0
 1458 0016 5B07     		lsls	r3, r3, #29
 1459 0018 F8D5     		bpl	.L52
 1460              	.L53:
 1461              		.loc 1 353 0
 1462 001a 0020     		movs	r0, #0
 1463 001c 10BD     		pop	{r4, pc}
 1464              	.L55:
 1465 001e 00BF     		.align	2
 1466              	.L54:
 1467 0020 00000000 		.word	ch
ARM GAS  /tmp/ccozm2D3.s 			page 27


 1468 0024 00000000 		.word	.LANCHOR0
 1469              		.cfi_endproc
 1470              	.LFE236:
 1471              		.size	thread3, .-thread3
 1472 0028 AFF30080 		.section	.text.bmk7_setup,"ax",%progbits
 1472      AFF30080 
 1473              		.align	2
 1474              		.p2align 4,,15
 1475              		.thumb
 1476              		.thumb_func
 1477              		.type	bmk7_setup, %function
 1478              	bmk7_setup:
 1479              	.LFB237:
 1480              		.loc 1 355 0
 1481              		.cfi_startproc
 1482              		@ args = 0, pretend = 0, frame = 0
 1483              		@ frame_needed = 0, uses_anonymous_args = 0
 1484              		@ link register save eliminated.
 1485              		.loc 1 357 0
 1486 0000 0148     		ldr	r0, .L57
 1487 0002 0021     		movs	r1, #0
 1488 0004 FFF7FEBF 		b	chSemObjectInit
 1489              	.LVL149:
 1490              	.L58:
 1491              		.align	2
 1492              	.L57:
 1493 0008 00000000 		.word	.LANCHOR0
 1494              		.cfi_endproc
 1495              	.LFE237:
 1496              		.size	bmk7_setup, .-bmk7_setup
 1497 000c AFF30080 		.section	.text.bmk11_setup,"ax",%progbits
 1498              		.align	2
 1499              		.p2align 4,,15
 1500              		.thumb
 1501              		.thumb_func
 1502              		.type	bmk11_setup, %function
 1503              	bmk11_setup:
 1504              	.LFB244:
 1505              		.loc 1 552 0
 1506              		.cfi_startproc
 1507              		@ args = 0, pretend = 0, frame = 0
 1508              		@ frame_needed = 0, uses_anonymous_args = 0
 1509              		@ link register save eliminated.
 1510              		.loc 1 554 0
 1511 0000 0148     		ldr	r0, .L60
 1512 0002 0121     		movs	r1, #1
 1513 0004 FFF7FEBF 		b	chSemObjectInit
 1514              	.LVL150:
 1515              	.L61:
 1516              		.align	2
 1517              	.L60:
 1518 0008 00000000 		.word	.LANCHOR0
 1519              		.cfi_endproc
 1520              	.LFE244:
 1521              		.size	bmk11_setup, .-bmk11_setup
 1522 000c AFF30080 		.section	.text.bmk8_execute,"ax",%progbits
 1523              		.align	2
ARM GAS  /tmp/ccozm2D3.s 			page 28


 1524              		.p2align 4,,15
 1525              		.thumb
 1526              		.thumb_func
 1527              		.type	bmk8_execute, %function
 1528              	bmk8_execute:
 1529              	.LFB240:
 1530              		.loc 1 423 0
 1531              		.cfi_startproc
 1532              		@ args = 0, pretend = 0, frame = 8
 1533              		@ frame_needed = 0, uses_anonymous_args = 0
 1534 0000 2DE9F041 		push	{r4, r5, r6, r7, r8, lr}
 1535              		.cfi_def_cfa_offset 24
 1536              		.cfi_offset 4, -24
 1537              		.cfi_offset 5, -20
 1538              		.cfi_offset 6, -16
 1539              		.cfi_offset 7, -12
 1540              		.cfi_offset 8, -8
 1541              		.cfi_offset 14, -4
 1542 0004 84B0     		sub	sp, sp, #16
 1543              		.cfi_def_cfa_offset 40
 1544              		.loc 1 426 0
 1545 0006 04AC     		add	r4, sp, #16
 1546              	.LBB267:
 1547              	.LBB268:
 1548              	.LBB269:
 1549              	.LBB270:
 1550              		.loc 2 179 0
 1551 0008 DFF8CC80 		ldr	r8, .L63+20
 1552              	.LBE270:
 1553              	.LBE269:
 1554              	.LBE268:
 1555              	.LBE267:
 1556              		.loc 1 429 0
 1557 000c 2D4F     		ldr	r7, .L63
 1558 000e 2E4E     		ldr	r6, .L63+4
 1559 0010 2E4D     		ldr	r5, .L63+8
 1560              		.loc 1 426 0
 1561 0012 0023     		movs	r3, #0
 1562 0014 44F8043D 		str	r3, [r4, #-4]!
 1563              		.loc 1 427 0
 1564 0018 FFF7FEFF 		bl	test_wait_tick
 1565              	.LVL151:
 1566              	.LBB272:
 1567              	.LBB271:
 1568              		.loc 2 192 0
 1569 001c D8F81830 		ldr	r3, [r8, #24]
 1570              	.LBE271:
 1571              	.LBE272:
 1572              		.loc 1 429 0
 1573 0020 3868     		ldr	r0, [r7]
 1574 0022 9A68     		ldr	r2, [r3, #8]
 1575 0024 0094     		str	r4, [sp]
 1576 0026 3346     		mov	r3, r6
 1577 0028 013A     		subs	r2, r2, #1
 1578 002a 4FF4A471 		mov	r1, #328
 1579 002e FFF7FEFF 		bl	chThdCreateStatic
 1580              	.LVL152:
ARM GAS  /tmp/ccozm2D3.s 			page 29


 1581              	.LBB273:
 1582              	.LBB274:
 1583              		.loc 2 192 0
 1584 0032 D8F81820 		ldr	r2, [r8, #24]
 1585              	.LBE274:
 1586              	.LBE273:
 1587              		.loc 1 430 0
 1588 0036 7B68     		ldr	r3, [r7, #4]
 1589 0038 9268     		ldr	r2, [r2, #8]
 1590              		.loc 1 429 0
 1591 003a 2860     		str	r0, [r5]
 1592              		.loc 1 430 0
 1593 003c 013A     		subs	r2, r2, #1
 1594 003e 0094     		str	r4, [sp]
 1595 0040 1846     		mov	r0, r3
 1596 0042 4FF4A471 		mov	r1, #328
 1597 0046 3346     		mov	r3, r6
 1598 0048 FFF7FEFF 		bl	chThdCreateStatic
 1599              	.LVL153:
 1600              	.LBB275:
 1601              	.LBB276:
 1602              		.loc 2 192 0
 1603 004c D8F81820 		ldr	r2, [r8, #24]
 1604              	.LBE276:
 1605              	.LBE275:
 1606              		.loc 1 431 0
 1607 0050 BB68     		ldr	r3, [r7, #8]
 1608 0052 9268     		ldr	r2, [r2, #8]
 1609              		.loc 1 430 0
 1610 0054 6860     		str	r0, [r5, #4]
 1611              		.loc 1 431 0
 1612 0056 013A     		subs	r2, r2, #1
 1613 0058 0094     		str	r4, [sp]
 1614 005a 1846     		mov	r0, r3
 1615 005c 4FF4A471 		mov	r1, #328
 1616 0060 3346     		mov	r3, r6
 1617 0062 FFF7FEFF 		bl	chThdCreateStatic
 1618              	.LVL154:
 1619              	.LBB277:
 1620              	.LBB278:
 1621              		.loc 2 192 0
 1622 0066 D8F81820 		ldr	r2, [r8, #24]
 1623              	.LBE278:
 1624              	.LBE277:
 1625              		.loc 1 432 0
 1626 006a FB68     		ldr	r3, [r7, #12]
 1627 006c 9268     		ldr	r2, [r2, #8]
 1628              		.loc 1 431 0
 1629 006e A860     		str	r0, [r5, #8]
 1630              		.loc 1 432 0
 1631 0070 013A     		subs	r2, r2, #1
 1632 0072 0094     		str	r4, [sp]
 1633 0074 1846     		mov	r0, r3
 1634 0076 4FF4A471 		mov	r1, #328
 1635 007a 3346     		mov	r3, r6
 1636 007c FFF7FEFF 		bl	chThdCreateStatic
 1637              	.LVL155:
ARM GAS  /tmp/ccozm2D3.s 			page 30


 1638              	.LBB279:
 1639              	.LBB280:
 1640              		.loc 2 192 0
 1641 0080 D8F81820 		ldr	r2, [r8, #24]
 1642              	.LBE280:
 1643              	.LBE279:
 1644              		.loc 1 433 0
 1645 0084 3B69     		ldr	r3, [r7, #16]
 1646 0086 9268     		ldr	r2, [r2, #8]
 1647              		.loc 1 432 0
 1648 0088 E860     		str	r0, [r5, #12]
 1649              		.loc 1 433 0
 1650 008a 013A     		subs	r2, r2, #1
 1651 008c 4FF4A471 		mov	r1, #328
 1652 0090 0094     		str	r4, [sp]
 1653 0092 1846     		mov	r0, r3
 1654 0094 3346     		mov	r3, r6
 1655 0096 FFF7FEFF 		bl	chThdCreateStatic
 1656              	.LVL156:
 1657 009a 2861     		str	r0, [r5, #16]
 1658              		.loc 1 435 0
 1659 009c 42F21070 		movw	r0, #10000
 1660 00a0 FFF7FEFF 		bl	chThdSleep
 1661              	.LVL157:
 1662              		.loc 1 436 0
 1663 00a4 FFF7FEFF 		bl	test_terminate_threads
 1664              	.LVL158:
 1665              		.loc 1 437 0
 1666 00a8 FFF7FEFF 		bl	test_wait_threads
 1667              	.LVL159:
 1668              		.loc 1 439 0
 1669 00ac 0848     		ldr	r0, .L63+12
 1670 00ae FFF7FEFF 		bl	test_print
 1671              	.LVL160:
 1672              		.loc 1 440 0
 1673 00b2 0398     		ldr	r0, [sp, #12]
 1674 00b4 FFF7FEFF 		bl	test_printn
 1675              	.LVL161:
 1676              		.loc 1 441 0
 1677 00b8 0648     		ldr	r0, .L63+16
 1678 00ba FFF7FEFF 		bl	test_println
 1679              	.LVL162:
 1680              		.loc 1 442 0
 1681 00be 04B0     		add	sp, sp, #16
 1682              		@ sp needed
 1683 00c0 BDE8F081 		pop	{r4, r5, r6, r7, r8, pc}
 1684              	.L64:
 1685              		.align	2
 1686              	.L63:
 1687 00c4 00000000 		.word	wa
 1688 00c8 00000000 		.word	thread8
 1689 00cc 00000000 		.word	threads
 1690 00d0 A8000000 		.word	.LC11
 1691 00d4 D0000000 		.word	.LC14
 1692 00d8 00000000 		.word	ch
 1693              		.cfi_endproc
 1694              	.LFE240:
ARM GAS  /tmp/ccozm2D3.s 			page 31


 1695              		.size	bmk8_execute, .-bmk8_execute
 1696 00dc AFF30080 		.section	.text.thread8,"ax",%progbits
 1697              		.align	2
 1698              		.p2align 4,,15
 1699              		.thumb
 1700              		.thumb_func
 1701              		.type	thread8, %function
 1702              	thread8:
 1703              	.LFB239:
 1704              		.loc 1 408 0
 1705              		.cfi_startproc
 1706              		@ args = 0, pretend = 0, frame = 0
 1707              		@ frame_needed = 0, uses_anonymous_args = 0
 1708              	.LVL163:
 1709 0000 38B5     		push	{r3, r4, r5, lr}
 1710              		.cfi_def_cfa_offset 16
 1711              		.cfi_offset 3, -16
 1712              		.cfi_offset 4, -12
 1713              		.cfi_offset 5, -8
 1714              		.cfi_offset 14, -4
 1715 0002 094D     		ldr	r5, .L68
 1716              		.loc 1 408 0
 1717 0004 0446     		mov	r4, r0
 1718              	.LVL164:
 1719              	.L67:
 1720              		.loc 1 411 0 discriminator 1
 1721 0006 FFF7FEFF 		bl	chThdYield
 1722              	.LVL165:
 1723              		.loc 1 412 0 discriminator 1
 1724 000a FFF7FEFF 		bl	chThdYield
 1725              	.LVL166:
 1726              		.loc 1 413 0 discriminator 1
 1727 000e FFF7FEFF 		bl	chThdYield
 1728              	.LVL167:
 1729              		.loc 1 414 0 discriminator 1
 1730 0012 FFF7FEFF 		bl	chThdYield
 1731              	.LVL168:
 1732              		.loc 1 415 0 discriminator 1
 1733 0016 2368     		ldr	r3, [r4]
 1734              	.LBB281:
 1735              	.LBB282:
 1736              		.loc 2 236 0 discriminator 1
 1737 0018 AA69     		ldr	r2, [r5, #24]
 1738              	.LBE282:
 1739              	.LBE281:
 1740              		.loc 1 415 0 discriminator 1
 1741 001a 0433     		adds	r3, r3, #4
 1742 001c 2360     		str	r3, [r4]
 1743              	.LBB284:
 1744              	.LBB283:
 1745              		.loc 2 236 0 discriminator 1
 1746 001e 537F     		ldrb	r3, [r2, #29]	@ zero_extendqisi2
 1747              	.LBE283:
 1748              	.LBE284:
 1749              		.loc 1 419 0 discriminator 1
 1750 0020 5B07     		lsls	r3, r3, #29
 1751 0022 F0D5     		bpl	.L67
ARM GAS  /tmp/ccozm2D3.s 			page 32


 1752              		.loc 1 421 0
 1753 0024 0020     		movs	r0, #0
 1754 0026 38BD     		pop	{r3, r4, r5, pc}
 1755              	.LVL169:
 1756              	.L69:
 1757              		.align	2
 1758              	.L68:
 1759 0028 00000000 		.word	ch
 1760              		.cfi_endproc
 1761              	.LFE239:
 1762              		.size	thread8, .-thread8
 1763 002c AFF30080 		.section	.text.bmk9_execute,"ax",%progbits
 1764              		.align	2
 1765              		.p2align 4,,15
 1766              		.thumb
 1767              		.thumb_func
 1768              		.type	bmk9_execute, %function
 1769              	bmk9_execute:
 1770              	.LFB241:
 1771              		.loc 1 462 0
 1772              		.cfi_startproc
 1773              		@ args = 0, pretend = 0, frame = 0
 1774              		@ frame_needed = 0, uses_anonymous_args = 0
 1775 0000 F0B5     		push	{r4, r5, r6, r7, lr}
 1776              		.cfi_def_cfa_offset 20
 1777              		.cfi_offset 4, -20
 1778              		.cfi_offset 5, -16
 1779              		.cfi_offset 6, -12
 1780              		.cfi_offset 7, -8
 1781              		.cfi_offset 14, -4
 1782 0002 83B0     		sub	sp, sp, #12
 1783              		.cfi_def_cfa_offset 32
 1784              		.loc 1 467 0
 1785 0004 0024     		movs	r4, #0
 1786 0006 2346     		mov	r3, r4
 1787 0008 2349     		ldr	r1, .L73
 1788 000a 2448     		ldr	r0, .L73+4
 1789 000c 0094     		str	r4, [sp]
 1790 000e 1022     		movs	r2, #16
 1791 0010 FFF7FEFF 		bl	chIQObjectInit
 1792              	.LVL170:
 1793              		.loc 1 469 0
 1794 0014 FFF7FEFF 		bl	test_wait_tick
 1795              	.LVL171:
 1796              		.loc 1 470 0
 1797 0018 4FF47A70 		mov	r0, #1000
 1798 001c FFF7FEFF 		bl	test_start_timer
 1799              	.LVL172:
 1800 0020 1F4F     		ldr	r7, .L73+8
 1801              		.loc 1 473 0
 1802 0022 2646     		mov	r6, r4
 1803              	.LBB285:
 1804              	.LBB286:
 1805              	.LBB287:
 1806              	.LBB288:
 1807              		.loc 3 546 0
 1808 0024 2025     		movs	r5, #32
ARM GAS  /tmp/ccozm2D3.s 			page 33


 1809              	.LVL173:
 1810              	.L72:
 1811              		.loc 3 546 0 is_stmt 0 discriminator 1
 1812              	@ 546 "../ChibiOS/os/ext/CMSIS/include/core_cmFunc.h" 1
 1813 0026 85F31188 		MSR basepri, r5
 1814              	@ 0 "" 2
 1815              		.thumb
 1816              	.LBE288:
 1817              	.LBE287:
 1818              	.LBE286:
 1819              	.LBE285:
 1820              		.loc 1 473 0 is_stmt 1 discriminator 1
 1821 002a 0021     		movs	r1, #0
 1822 002c 1B48     		ldr	r0, .L73+4
 1823 002e FFF7FEFF 		bl	chIQPutI
 1824              	.LVL174:
 1825              		.loc 1 474 0 discriminator 1
 1826 0032 0121     		movs	r1, #1
 1827 0034 1948     		ldr	r0, .L73+4
 1828 0036 FFF7FEFF 		bl	chIQPutI
 1829              	.LVL175:
 1830              		.loc 1 475 0 discriminator 1
 1831 003a 0221     		movs	r1, #2
 1832 003c 1748     		ldr	r0, .L73+4
 1833 003e FFF7FEFF 		bl	chIQPutI
 1834              	.LVL176:
 1835              		.loc 1 476 0 discriminator 1
 1836 0042 0321     		movs	r1, #3
 1837 0044 1548     		ldr	r0, .L73+4
 1838 0046 FFF7FEFF 		bl	chIQPutI
 1839              	.LVL177:
 1840              	.LBB289:
 1841              	.LBB290:
 1842              	.LBB291:
 1843              	.LBB292:
 1844              	.LBB293:
 1845              		.loc 3 546 0 discriminator 1
 1846              	@ 546 "../ChibiOS/os/ext/CMSIS/include/core_cmFunc.h" 1
 1847 004a 86F31188 		MSR basepri, r6
 1848              	@ 0 "" 2
 1849              	.LVL178:
 1850              		.thumb
 1851              	.LBE293:
 1852              	.LBE292:
 1853              	.LBE291:
 1854              	.LBE290:
 1855              	.LBE289:
 1856              	.LBB294:
 1857              	.LBB295:
 1858              		.file 4 "../ChibiOS/os/rt/include/chqueues.h"
 1859              		.loc 4 338 0 discriminator 1
 1860 004e 4FF0FF31 		mov	r1, #-1
 1861 0052 1248     		ldr	r0, .L73+4
 1862 0054 FFF7FEFF 		bl	chIQGetTimeout
 1863              	.LVL179:
 1864              	.LBE295:
 1865              	.LBE294:
ARM GAS  /tmp/ccozm2D3.s 			page 34


 1866              	.LBB296:
 1867              	.LBB297:
 1868 0058 4FF0FF31 		mov	r1, #-1
 1869 005c 0F48     		ldr	r0, .L73+4
 1870 005e FFF7FEFF 		bl	chIQGetTimeout
 1871              	.LVL180:
 1872              	.LBE297:
 1873              	.LBE296:
 1874              	.LBB298:
 1875              	.LBB299:
 1876 0062 4FF0FF31 		mov	r1, #-1
 1877 0066 0D48     		ldr	r0, .L73+4
 1878 0068 FFF7FEFF 		bl	chIQGetTimeout
 1879              	.LVL181:
 1880              	.LBE299:
 1881              	.LBE298:
 1882              	.LBB300:
 1883              	.LBB301:
 1884 006c 0B48     		ldr	r0, .L73+4
 1885 006e 4FF0FF31 		mov	r1, #-1
 1886 0072 FFF7FEFF 		bl	chIQGetTimeout
 1887              	.LVL182:
 1888              	.LBE301:
 1889              	.LBE300:
 1890              		.loc 1 486 0 discriminator 1
 1891 0076 3B78     		ldrb	r3, [r7]	@ zero_extendqisi2
 1892              		.loc 1 482 0 discriminator 1
 1893 0078 0134     		adds	r4, r4, #1
 1894              	.LVL183:
 1895              		.loc 1 486 0 discriminator 1
 1896 007a 002B     		cmp	r3, #0
 1897 007c D3D0     		beq	.L72
 1898              		.loc 1 487 0
 1899 007e 0948     		ldr	r0, .L73+12
 1900 0080 FFF7FEFF 		bl	test_print
 1901              	.LVL184:
 1902              		.loc 1 488 0
 1903 0084 A000     		lsls	r0, r4, #2
 1904 0086 FFF7FEFF 		bl	test_printn
 1905              	.LVL185:
 1906              		.loc 1 489 0
 1907 008a 0748     		ldr	r0, .L73+16
 1908              		.loc 1 490 0
 1909 008c 03B0     		add	sp, sp, #12
 1910              		@ sp needed
 1911 008e BDE8F040 		pop	{r4, r5, r6, r7, lr}
 1912              	.LVL186:
 1913              		.loc 1 489 0
 1914 0092 FFF7FEBF 		b	test_println
 1915              	.LVL187:
 1916              	.L74:
 1917 0096 00BF     		.align	2
 1918              	.L73:
 1919 0098 00000000 		.word	.LANCHOR2
 1920 009c 00000000 		.word	.LANCHOR1
 1921 00a0 00000000 		.word	test_timer_done
 1922 00a4 A8000000 		.word	.LC11
ARM GAS  /tmp/ccozm2D3.s 			page 35


 1923 00a8 F0000000 		.word	.LC16
 1924              		.cfi_endproc
 1925              	.LFE241:
 1926              		.size	bmk9_execute, .-bmk9_execute
 1927 00ac AFF30080 		.section	.text.bmk10_execute,"ax",%progbits
 1928              		.align	2
 1929              		.p2align 4,,15
 1930              		.thumb
 1931              		.thumb_func
 1932              		.type	bmk10_execute, %function
 1933              	bmk10_execute:
 1934              	.LFB243:
 1935              		.loc 1 511 0
 1936              		.cfi_startproc
 1937              		@ args = 0, pretend = 0, frame = 0
 1938              		@ frame_needed = 0, uses_anonymous_args = 0
 1939              	.LVL188:
 1940 0000 38B5     		push	{r3, r4, r5, lr}
 1941              		.cfi_def_cfa_offset 16
 1942              		.cfi_offset 3, -16
 1943              		.cfi_offset 4, -12
 1944              		.cfi_offset 5, -8
 1945              		.cfi_offset 14, -4
 1946              		.loc 1 515 0
 1947 0002 FFF7FEFF 		bl	test_wait_tick
 1948              	.LVL189:
 1949              		.loc 1 516 0
 1950 0006 4FF47A70 		mov	r0, #1000
 1951 000a FFF7FEFF 		bl	test_start_timer
 1952              	.LVL190:
 1953 000e 154D     		ldr	r5, .L78
 1954              		.loc 1 513 0
 1955 0010 0024     		movs	r4, #0
 1956              	.LVL191:
 1957              	.L77:
 1958              	.LBB302:
 1959              	.LBB303:
 1960              	.LBB304:
 1961              	.LBB305:
 1962              		.loc 3 546 0 discriminator 1
 1963 0012 2023     		movs	r3, #32
 1964              	@ 546 "../ChibiOS/os/ext/CMSIS/include/core_cmFunc.h" 1
 1965 0014 83F31188 		MSR basepri, r3
 1966              	@ 0 "" 2
 1967              		.thumb
 1968              	.LBE305:
 1969              	.LBE304:
 1970              	.LBE303:
 1971              	.LBE302:
 1972              		.loc 1 519 0 discriminator 1
 1973 0018 1348     		ldr	r0, .L78+4
 1974 001a 144A     		ldr	r2, .L78+8
 1975 001c 0121     		movs	r1, #1
 1976 001e 0023     		movs	r3, #0
 1977 0020 FFF7FEFF 		bl	chVTDoSetI
 1978              	.LVL192:
 1979              		.loc 1 520 0 discriminator 1
ARM GAS  /tmp/ccozm2D3.s 			page 36


 1980 0024 114A     		ldr	r2, .L78+8
 1981 0026 1248     		ldr	r0, .L78+12
 1982 0028 42F21071 		movw	r1, #10000
 1983 002c 0023     		movs	r3, #0
 1984 002e FFF7FEFF 		bl	chVTDoSetI
 1985              	.LVL193:
 1986              		.loc 1 521 0 discriminator 1
 1987 0032 0D48     		ldr	r0, .L78+4
 1988 0034 FFF7FEFF 		bl	chVTDoResetI
 1989              	.LVL194:
 1990              		.loc 1 522 0 discriminator 1
 1991 0038 0D48     		ldr	r0, .L78+12
 1992 003a FFF7FEFF 		bl	chVTDoResetI
 1993              	.LVL195:
 1994              	.LBB306:
 1995              	.LBB307:
 1996              	.LBB308:
 1997              	.LBB309:
 1998              	.LBB310:
 1999              		.loc 3 546 0 discriminator 1
 2000 003e 0023     		movs	r3, #0
 2001              	@ 546 "../ChibiOS/os/ext/CMSIS/include/core_cmFunc.h" 1
 2002 0040 83F31188 		MSR basepri, r3
 2003              	@ 0 "" 2
 2004              		.thumb
 2005              	.LBE310:
 2006              	.LBE309:
 2007              	.LBE308:
 2008              	.LBE307:
 2009              	.LBE306:
 2010              		.loc 1 528 0 discriminator 1
 2011 0044 2B78     		ldrb	r3, [r5]	@ zero_extendqisi2
 2012              		.loc 1 524 0 discriminator 1
 2013 0046 0134     		adds	r4, r4, #1
 2014              	.LVL196:
 2015              		.loc 1 528 0 discriminator 1
 2016 0048 002B     		cmp	r3, #0
 2017 004a E2D0     		beq	.L77
 2018              		.loc 1 529 0
 2019 004c 0948     		ldr	r0, .L78+16
 2020 004e FFF7FEFF 		bl	test_print
 2021              	.LVL197:
 2022              		.loc 1 530 0
 2023 0052 6000     		lsls	r0, r4, #1
 2024 0054 FFF7FEFF 		bl	test_printn
 2025              	.LVL198:
 2026              		.loc 1 531 0
 2027 0058 0748     		ldr	r0, .L78+20
 2028              		.loc 1 532 0
 2029 005a BDE83840 		pop	{r3, r4, r5, lr}
 2030              	.LVL199:
 2031              		.loc 1 531 0
 2032 005e FFF7FEBF 		b	test_println
 2033              	.LVL200:
 2034              	.L79:
 2035 0062 00BF     		.align	2
 2036              	.L78:
ARM GAS  /tmp/ccozm2D3.s 			page 37


 2037 0064 00000000 		.word	test_timer_done
 2038 0068 00000000 		.word	.LANCHOR3
 2039 006c 00000000 		.word	tmo
 2040 0070 00000000 		.word	.LANCHOR4
 2041 0074 A8000000 		.word	.LC11
 2042 0078 FC000000 		.word	.LC17
 2043              		.cfi_endproc
 2044              	.LFE243:
 2045              		.size	bmk10_execute, .-bmk10_execute
 2046 007c AFF30080 		.section	.text.bmk11_execute,"ax",%progbits
 2047              		.align	2
 2048              		.p2align 4,,15
 2049              		.thumb
 2050              		.thumb_func
 2051              		.type	bmk11_execute, %function
 2052              	bmk11_execute:
 2053              	.LFB245:
 2054              		.loc 1 557 0
 2055              		.cfi_startproc
 2056              		@ args = 0, pretend = 0, frame = 0
 2057              		@ frame_needed = 0, uses_anonymous_args = 0
 2058              	.LVL201:
 2059 0000 38B5     		push	{r3, r4, r5, lr}
 2060              		.cfi_def_cfa_offset 16
 2061              		.cfi_offset 3, -16
 2062              		.cfi_offset 4, -12
 2063              		.cfi_offset 5, -8
 2064              		.cfi_offset 14, -4
 2065              		.loc 1 560 0
 2066 0002 FFF7FEFF 		bl	test_wait_tick
 2067              	.LVL202:
 2068              		.loc 1 561 0
 2069 0006 4FF47A70 		mov	r0, #1000
 2070 000a FFF7FEFF 		bl	test_start_timer
 2071              	.LVL203:
 2072 000e 144D     		ldr	r5, .L83
 2073              		.loc 1 558 0
 2074 0010 0024     		movs	r4, #0
 2075              	.LVL204:
 2076              	.L82:
 2077              		.loc 1 563 0 discriminator 1
 2078 0012 1448     		ldr	r0, .L83+4
 2079 0014 FFF7FEFF 		bl	chSemWait
 2080              	.LVL205:
 2081              		.loc 1 564 0 discriminator 1
 2082 0018 1248     		ldr	r0, .L83+4
 2083 001a FFF7FEFF 		bl	chSemSignal
 2084              	.LVL206:
 2085              		.loc 1 565 0 discriminator 1
 2086 001e 1148     		ldr	r0, .L83+4
 2087 0020 FFF7FEFF 		bl	chSemWait
 2088              	.LVL207:
 2089              		.loc 1 566 0 discriminator 1
 2090 0024 0F48     		ldr	r0, .L83+4
 2091 0026 FFF7FEFF 		bl	chSemSignal
 2092              	.LVL208:
 2093              		.loc 1 567 0 discriminator 1
ARM GAS  /tmp/ccozm2D3.s 			page 38


 2094 002a 0E48     		ldr	r0, .L83+4
 2095 002c FFF7FEFF 		bl	chSemWait
 2096              	.LVL209:
 2097              		.loc 1 568 0 discriminator 1
 2098 0030 0C48     		ldr	r0, .L83+4
 2099 0032 FFF7FEFF 		bl	chSemSignal
 2100              	.LVL210:
 2101              		.loc 1 569 0 discriminator 1
 2102 0036 0B48     		ldr	r0, .L83+4
 2103 0038 FFF7FEFF 		bl	chSemWait
 2104              	.LVL211:
 2105              		.loc 1 570 0 discriminator 1
 2106 003c 0948     		ldr	r0, .L83+4
 2107 003e FFF7FEFF 		bl	chSemSignal
 2108              	.LVL212:
 2109              		.loc 1 575 0 discriminator 1
 2110 0042 2B78     		ldrb	r3, [r5]	@ zero_extendqisi2
 2111              		.loc 1 571 0 discriminator 1
 2112 0044 0134     		adds	r4, r4, #1
 2113              	.LVL213:
 2114              		.loc 1 575 0 discriminator 1
 2115 0046 002B     		cmp	r3, #0
 2116 0048 E3D0     		beq	.L82
 2117              		.loc 1 576 0
 2118 004a 0748     		ldr	r0, .L83+8
 2119 004c FFF7FEFF 		bl	test_print
 2120              	.LVL214:
 2121              		.loc 1 577 0
 2122 0050 A000     		lsls	r0, r4, #2
 2123 0052 FFF7FEFF 		bl	test_printn
 2124              	.LVL215:
 2125              		.loc 1 578 0
 2126 0056 0548     		ldr	r0, .L83+12
 2127              		.loc 1 579 0
 2128 0058 BDE83840 		pop	{r3, r4, r5, lr}
 2129              	.LVL216:
 2130              		.loc 1 578 0
 2131 005c FFF7FEBF 		b	test_println
 2132              	.LVL217:
 2133              	.L84:
 2134              		.align	2
 2135              	.L83:
 2136 0060 00000000 		.word	test_timer_done
 2137 0064 00000000 		.word	.LANCHOR0
 2138 0068 A8000000 		.word	.LC11
 2139 006c 08010000 		.word	.LC18
 2140              		.cfi_endproc
 2141              	.LFE245:
 2142              		.size	bmk11_execute, .-bmk11_execute
 2143              		.section	.text.bmk12_execute,"ax",%progbits
 2144              		.align	2
 2145              		.p2align 4,,15
 2146              		.thumb
 2147              		.thumb_func
 2148              		.type	bmk12_execute, %function
 2149              	bmk12_execute:
 2150              	.LFB247:
ARM GAS  /tmp/ccozm2D3.s 			page 39


 2151              		.loc 1 605 0
 2152              		.cfi_startproc
 2153              		@ args = 0, pretend = 0, frame = 0
 2154              		@ frame_needed = 0, uses_anonymous_args = 0
 2155              	.LVL218:
 2156 0000 38B5     		push	{r3, r4, r5, lr}
 2157              		.cfi_def_cfa_offset 16
 2158              		.cfi_offset 3, -16
 2159              		.cfi_offset 4, -12
 2160              		.cfi_offset 5, -8
 2161              		.cfi_offset 14, -4
 2162              		.loc 1 608 0
 2163 0002 FFF7FEFF 		bl	test_wait_tick
 2164              	.LVL219:
 2165              		.loc 1 609 0
 2166 0006 4FF47A70 		mov	r0, #1000
 2167 000a FFF7FEFF 		bl	test_start_timer
 2168              	.LVL220:
 2169 000e 144D     		ldr	r5, .L88
 2170              		.loc 1 606 0
 2171 0010 0024     		movs	r4, #0
 2172              	.LVL221:
 2173              	.L87:
 2174              		.loc 1 611 0 discriminator 1
 2175 0012 1448     		ldr	r0, .L88+4
 2176 0014 FFF7FEFF 		bl	chMtxLock
 2177              	.LVL222:
 2178              		.loc 1 612 0 discriminator 1
 2179 0018 1248     		ldr	r0, .L88+4
 2180 001a FFF7FEFF 		bl	chMtxUnlock
 2181              	.LVL223:
 2182              		.loc 1 613 0 discriminator 1
 2183 001e 1148     		ldr	r0, .L88+4
 2184 0020 FFF7FEFF 		bl	chMtxLock
 2185              	.LVL224:
 2186              		.loc 1 614 0 discriminator 1
 2187 0024 0F48     		ldr	r0, .L88+4
 2188 0026 FFF7FEFF 		bl	chMtxUnlock
 2189              	.LVL225:
 2190              		.loc 1 615 0 discriminator 1
 2191 002a 0E48     		ldr	r0, .L88+4
 2192 002c FFF7FEFF 		bl	chMtxLock
 2193              	.LVL226:
 2194              		.loc 1 616 0 discriminator 1
 2195 0030 0C48     		ldr	r0, .L88+4
 2196 0032 FFF7FEFF 		bl	chMtxUnlock
 2197              	.LVL227:
 2198              		.loc 1 617 0 discriminator 1
 2199 0036 0B48     		ldr	r0, .L88+4
 2200 0038 FFF7FEFF 		bl	chMtxLock
 2201              	.LVL228:
 2202              		.loc 1 618 0 discriminator 1
 2203 003c 0948     		ldr	r0, .L88+4
 2204 003e FFF7FEFF 		bl	chMtxUnlock
 2205              	.LVL229:
 2206              		.loc 1 623 0 discriminator 1
 2207 0042 2B78     		ldrb	r3, [r5]	@ zero_extendqisi2
ARM GAS  /tmp/ccozm2D3.s 			page 40


 2208              		.loc 1 619 0 discriminator 1
 2209 0044 0134     		adds	r4, r4, #1
 2210              	.LVL230:
 2211              		.loc 1 623 0 discriminator 1
 2212 0046 002B     		cmp	r3, #0
 2213 0048 E3D0     		beq	.L87
 2214              		.loc 1 624 0
 2215 004a 0748     		ldr	r0, .L88+8
 2216 004c FFF7FEFF 		bl	test_print
 2217              	.LVL231:
 2218              		.loc 1 625 0
 2219 0050 A000     		lsls	r0, r4, #2
 2220 0052 FFF7FEFF 		bl	test_printn
 2221              	.LVL232:
 2222              		.loc 1 626 0
 2223 0056 0548     		ldr	r0, .L88+12
 2224              		.loc 1 627 0
 2225 0058 BDE83840 		pop	{r3, r4, r5, lr}
 2226              	.LVL233:
 2227              		.loc 1 626 0
 2228 005c FFF7FEBF 		b	test_println
 2229              	.LVL234:
 2230              	.L89:
 2231              		.align	2
 2232              	.L88:
 2233 0060 00000000 		.word	test_timer_done
 2234 0064 00000000 		.word	.LANCHOR5
 2235 0068 A8000000 		.word	.LC11
 2236 006c 18010000 		.word	.LC19
 2237              		.cfi_endproc
 2238              	.LFE247:
 2239              		.size	bmk12_execute, .-bmk12_execute
 2240              		.section	.text.bmk12_setup,"ax",%progbits
 2241              		.align	2
 2242              		.p2align 4,,15
 2243              		.thumb
 2244              		.thumb_func
 2245              		.type	bmk12_setup, %function
 2246              	bmk12_setup:
 2247              	.LFB246:
 2248              		.loc 1 600 0
 2249              		.cfi_startproc
 2250              		@ args = 0, pretend = 0, frame = 0
 2251              		@ frame_needed = 0, uses_anonymous_args = 0
 2252              		@ link register save eliminated.
 2253              		.loc 1 602 0
 2254 0000 0148     		ldr	r0, .L91
 2255 0002 FFF7FEBF 		b	chMtxObjectInit
 2256              	.LVL235:
 2257              	.L92:
 2258 0006 00BF     		.align	2
 2259              	.L91:
 2260 0008 00000000 		.word	.LANCHOR5
 2261              		.cfi_endproc
 2262              	.LFE246:
 2263              		.size	bmk12_setup, .-bmk12_setup
 2264              		.global	patternbmk
ARM GAS  /tmp/ccozm2D3.s 			page 41


 2265              		.global	testbmk13
 2266              		.global	testbmk12
 2267              		.global	testbmk11
 2268              		.global	testbmk10
 2269              		.global	testbmk9
 2270              		.global	testbmk8
 2271              		.global	testbmk7
 2272              		.global	testbmk6
 2273              		.global	testbmk5
 2274              		.global	testbmk4
 2275              		.global	testbmk3
 2276              		.global	testbmk2
 2277              		.global	testbmk1
 2278 000c AFF30080 		.section	.bss.vt2.6473,"aw",%nobits
 2279              		.align	2
 2280              		.set	.LANCHOR4,. + 0
 2281              		.type	vt2.6473, %object
 2282              		.size	vt2.6473, 20
 2283              	vt2.6473:
 2284 0000 00000000 		.space	20
 2284      00000000 
 2284      00000000 
 2284      00000000 
 2284      00000000 
 2285              		.section	.rodata.patternbmk,"a",%progbits
 2286              		.align	2
 2287              		.type	patternbmk, %object
 2288              		.size	patternbmk, 56
 2289              	patternbmk:
 2290 0000 00000000 		.word	testbmk1
 2291 0004 00000000 		.word	testbmk2
 2292 0008 00000000 		.word	testbmk3
 2293 000c 00000000 		.word	testbmk4
 2294 0010 00000000 		.word	testbmk5
 2295 0014 00000000 		.word	testbmk6
 2296 0018 00000000 		.word	testbmk7
 2297 001c 00000000 		.word	testbmk8
 2298 0020 00000000 		.word	testbmk9
 2299 0024 00000000 		.word	testbmk10
 2300 0028 00000000 		.word	testbmk11
 2301 002c 00000000 		.word	testbmk12
 2302 0030 00000000 		.word	testbmk13
 2303 0034 00000000 		.word	0
 2304              		.section	.rodata.testbmk8,"a",%progbits
 2305              		.align	2
 2306              		.type	testbmk8, %object
 2307              		.size	testbmk8, 16
 2308              	testbmk8:
 2309 0000 D0010000 		.word	.LC25
 2310 0004 00000000 		.word	0
 2311 0008 00000000 		.word	0
 2312 000c 00000000 		.word	bmk8_execute
 2313              		.section	.rodata.testbmk3,"a",%progbits
 2314              		.align	2
 2315              		.type	testbmk3, %object
 2316              		.size	testbmk3, 16
 2317              	testbmk3:
ARM GAS  /tmp/ccozm2D3.s 			page 42


 2318 0000 80020000 		.word	.LC30
 2319 0004 00000000 		.word	0
 2320 0008 00000000 		.word	0
 2321 000c 00000000 		.word	bmk3_execute
 2322              		.section	.rodata.testbmk10,"a",%progbits
 2323              		.align	2
 2324              		.type	testbmk10, %object
 2325              		.size	testbmk10, 16
 2326              	testbmk10:
 2327 0000 88010000 		.word	.LC23
 2328 0004 00000000 		.word	0
 2329 0008 00000000 		.word	0
 2330 000c 00000000 		.word	bmk10_execute
 2331              		.section	.rodata.testbmk4,"a",%progbits
 2332              		.align	2
 2333              		.type	testbmk4, %object
 2334              		.size	testbmk4, 16
 2335              	testbmk4:
 2336 0000 64020000 		.word	.LC29
 2337 0004 00000000 		.word	0
 2338 0008 00000000 		.word	0
 2339 000c 00000000 		.word	bmk4_execute
 2340              		.section	.bss.mtx1,"aw",%nobits
 2341              		.align	2
 2342              		.set	.LANCHOR5,. + 0
 2343              		.type	mtx1, %object
 2344              		.size	mtx1, 16
 2345              	mtx1:
 2346 0000 00000000 		.space	16
 2346      00000000 
 2346      00000000 
 2346      00000000 
 2347              		.section	.bss.ib.6461,"aw",%nobits
 2348              		.align	2
 2349              		.set	.LANCHOR2,. + 0
 2350              		.type	ib.6461, %object
 2351              		.size	ib.6461, 16
 2352              	ib.6461:
 2353 0000 00000000 		.space	16
 2353      00000000 
 2353      00000000 
 2353      00000000 
 2354              		.section	.rodata.testbmk13,"a",%progbits
 2355              		.align	2
 2356              		.type	testbmk13, %object
 2357              		.size	testbmk13, 16
 2358              	testbmk13:
 2359 0000 28010000 		.word	.LC20
 2360 0004 00000000 		.word	0
 2361 0008 00000000 		.word	0
 2362 000c 00000000 		.word	bmk13_execute
 2363              		.section	.rodata.testbmk7,"a",%progbits
 2364              		.align	2
 2365              		.type	testbmk7, %object
 2366              		.size	testbmk7, 16
 2367              	testbmk7:
 2368 0000 FC010000 		.word	.LC26
ARM GAS  /tmp/ccozm2D3.s 			page 43


 2369 0004 00000000 		.word	bmk7_setup
 2370 0008 00000000 		.word	0
 2371 000c 00000000 		.word	bmk7_execute
 2372              		.section	.rodata.testbmk2,"a",%progbits
 2373              		.align	2
 2374              		.type	testbmk2, %object
 2375              		.size	testbmk2, 16
 2376              	testbmk2:
 2377 0000 98020000 		.word	.LC31
 2378 0004 00000000 		.word	0
 2379 0008 00000000 		.word	0
 2380 000c 00000000 		.word	bmk2_execute
 2381              		.section	.rodata.str1.4,"aMS",%progbits,1
 2382              		.align	2
 2383              	.LC0:
 2384 0000 2D2D2D20 		.ascii	"--- System: \000"
 2384      53797374 
 2384      656D3A20 
 2384      00
 2385 000d 000000   		.space	3
 2386              	.LC1:
 2387 0010 20627974 		.ascii	" bytes\000"
 2387      657300
 2388 0017 00       		.space	1
 2389              	.LC2:
 2390 0018 2D2D2D20 		.ascii	"--- Thread: \000"
 2390      54687265 
 2390      61643A20 
 2390      00
 2391 0025 000000   		.space	3
 2392              	.LC3:
 2393 0028 2D2D2D20 		.ascii	"--- Timer : \000"
 2393      54696D65 
 2393      72203A20 
 2393      00
 2394 0035 000000   		.space	3
 2395              	.LC4:
 2396 0038 2D2D2D20 		.ascii	"--- Semaph: \000"
 2396      53656D61 
 2396      70683A20 
 2396      00
 2397 0045 000000   		.space	3
 2398              	.LC5:
 2399 0048 2D2D2D20 		.ascii	"--- EventS: \000"
 2399      4576656E 
 2399      74533A20 
 2399      00
 2400 0055 000000   		.space	3
 2401              	.LC6:
 2402 0058 2D2D2D20 		.ascii	"--- EventL: \000"
 2402      4576656E 
 2402      744C3A20 
 2402      00
 2403 0065 000000   		.space	3
 2404              	.LC7:
 2405 0068 2D2D2D20 		.ascii	"--- Mutex : \000"
 2405      4D757465 
ARM GAS  /tmp/ccozm2D3.s 			page 44


 2405      78203A20 
 2405      00
 2406 0075 000000   		.space	3
 2407              	.LC8:
 2408 0078 2D2D2D20 		.ascii	"--- CondV.: \000"
 2408      436F6E64 
 2408      562E3A20 
 2408      00
 2409 0085 000000   		.space	3
 2410              	.LC9:
 2411 0088 2D2D2D20 		.ascii	"--- Queue : \000"
 2411      51756575 
 2411      65203A20 
 2411      00
 2412 0095 000000   		.space	3
 2413              	.LC10:
 2414 0098 2D2D2D20 		.ascii	"--- MailB.: \000"
 2414      4D61696C 
 2414      422E3A20 
 2414      00
 2415 00a5 000000   		.space	3
 2416              	.LC11:
 2417 00a8 2D2D2D20 		.ascii	"--- Score : \000"
 2417      53636F72 
 2417      65203A20 
 2417      00
 2418 00b5 000000   		.space	3
 2419              	.LC12:
 2420 00b8 20746872 		.ascii	" threads/S\000"
 2420      65616473 
 2420      2F5300
 2421 00c3 00       		.space	1
 2422              	.LC13:
 2423 00c4 206D7367 		.ascii	" msgs/S, \000"
 2423      732F532C 
 2423      2000
 2424 00ce 0000     		.space	2
 2425              	.LC14:
 2426 00d0 20637478 		.ascii	" ctxswc/S\000"
 2426      7377632F 
 2426      5300
 2427 00da 0000     		.space	2
 2428              	.LC15:
 2429 00dc 20726573 		.ascii	" reschedules/S, \000"
 2429      63686564 
 2429      756C6573 
 2429      2F532C20 
 2429      00
 2430 00ed 000000   		.space	3
 2431              	.LC16:
 2432 00f0 20627974 		.ascii	" bytes/S\000"
 2432      65732F53 
 2432      00
 2433 00f9 000000   		.space	3
 2434              	.LC17:
 2435 00fc 2074696D 		.ascii	" timers/S\000"
 2435      6572732F 
ARM GAS  /tmp/ccozm2D3.s 			page 45


 2435      5300
 2436 0106 0000     		.space	2
 2437              	.LC18:
 2438 0108 20776169 		.ascii	" wait+signal/S\000"
 2438      742B7369 
 2438      676E616C 
 2438      2F5300
 2439 0117 00       		.space	1
 2440              	.LC19:
 2441 0118 206C6F63 		.ascii	" lock+unlock/S\000"
 2441      6B2B756E 
 2441      6C6F636B 
 2441      2F5300
 2442 0127 00       		.space	1
 2443              	.LC20:
 2444 0128 42656E63 		.ascii	"Benchmark, RAM footprint\000"
 2444      686D6172 
 2444      6B2C2052 
 2444      414D2066 
 2444      6F6F7470 
 2445 0141 000000   		.space	3
 2446              	.LC21:
 2447 0144 42656E63 		.ascii	"Benchmark, mutexes lock/unlock\000"
 2447      686D6172 
 2447      6B2C206D 
 2447      75746578 
 2447      6573206C 
 2448 0163 00       		.space	1
 2449              	.LC22:
 2450 0164 42656E63 		.ascii	"Benchmark, semaphores wait/signal\000"
 2450      686D6172 
 2450      6B2C2073 
 2450      656D6170 
 2450      686F7265 
 2451 0186 0000     		.space	2
 2452              	.LC23:
 2453 0188 42656E63 		.ascii	"Benchmark, virtual timers set/reset\000"
 2453      686D6172 
 2453      6B2C2076 
 2453      69727475 
 2453      616C2074 
 2454              	.LC24:
 2455 01ac 42656E63 		.ascii	"Benchmark, I/O Queues throughput\000"
 2455      686D6172 
 2455      6B2C2049 
 2455      2F4F2051 
 2455      75657565 
 2456 01cd 000000   		.space	3
 2457              	.LC25:
 2458 01d0 42656E63 		.ascii	"Benchmark, round robin context switching\000"
 2458      686D6172 
 2458      6B2C2072 
 2458      6F756E64 
 2458      20726F62 
 2459 01f9 000000   		.space	3
 2460              	.LC26:
 2461 01fc 42656E63 		.ascii	"Benchmark, mass reschedule, 5 threads\000"
ARM GAS  /tmp/ccozm2D3.s 			page 46


 2461      686D6172 
 2461      6B2C206D 
 2461      61737320 
 2461      72657363 
 2462 0222 0000     		.space	2
 2463              	.LC27:
 2464 0224 42656E63 		.ascii	"Benchmark, threads, create only\000"
 2464      686D6172 
 2464      6B2C2074 
 2464      68726561 
 2464      64732C20 
 2465              	.LC28:
 2466 0244 42656E63 		.ascii	"Benchmark, threads, full cycle\000"
 2466      686D6172 
 2466      6B2C2074 
 2466      68726561 
 2466      64732C20 
 2467 0263 00       		.space	1
 2468              	.LC29:
 2469 0264 42656E63 		.ascii	"Benchmark, context switch\000"
 2469      686D6172 
 2469      6B2C2063 
 2469      6F6E7465 
 2469      78742073 
 2470 027e 0000     		.space	2
 2471              	.LC30:
 2472 0280 42656E63 		.ascii	"Benchmark, messages #3\000"
 2472      686D6172 
 2472      6B2C206D 
 2472      65737361 
 2472      67657320 
 2473 0297 00       		.space	1
 2474              	.LC31:
 2475 0298 42656E63 		.ascii	"Benchmark, messages #2\000"
 2475      686D6172 
 2475      6B2C206D 
 2475      65737361 
 2475      67657320 
 2476 02af 00       		.space	1
 2477              	.LC32:
 2478 02b0 42656E63 		.ascii	"Benchmark, messages #1\000"
 2478      686D6172 
 2478      6B2C206D 
 2478      65737361 
 2478      67657320 
 2479 02c7 00       		.section	.rodata.testbmk9,"a",%progbits
 2480              		.align	2
 2481              		.type	testbmk9, %object
 2482              		.size	testbmk9, 16
 2483              	testbmk9:
 2484 0000 AC010000 		.word	.LC24
 2485 0004 00000000 		.word	0
 2486 0008 00000000 		.word	0
 2487 000c 00000000 		.word	bmk9_execute
 2488              		.section	.bss.sem1,"aw",%nobits
 2489              		.align	2
 2490              		.set	.LANCHOR0,. + 0
ARM GAS  /tmp/ccozm2D3.s 			page 47


 2491              		.type	sem1, %object
 2492              		.size	sem1, 12
 2493              	sem1:
 2494 0000 00000000 		.space	12
 2494      00000000 
 2494      00000000 
 2495              		.section	.rodata.testbmk1,"a",%progbits
 2496              		.align	2
 2497              		.type	testbmk1, %object
 2498              		.size	testbmk1, 16
 2499              	testbmk1:
 2500 0000 B0020000 		.word	.LC32
 2501 0004 00000000 		.word	0
 2502 0008 00000000 		.word	0
 2503 000c 00000000 		.word	bmk1_execute
 2504              		.section	.rodata.testbmk11,"a",%progbits
 2505              		.align	2
 2506              		.type	testbmk11, %object
 2507              		.size	testbmk11, 16
 2508              	testbmk11:
 2509 0000 64010000 		.word	.LC22
 2510 0004 00000000 		.word	bmk11_setup
 2511 0008 00000000 		.word	0
 2512 000c 00000000 		.word	bmk11_execute
 2513              		.section	.rodata.testbmk12,"a",%progbits
 2514              		.align	2
 2515              		.type	testbmk12, %object
 2516              		.size	testbmk12, 16
 2517              	testbmk12:
 2518 0000 44010000 		.word	.LC21
 2519 0004 00000000 		.word	bmk12_setup
 2520 0008 00000000 		.word	0
 2521 000c 00000000 		.word	bmk12_execute
 2522              		.section	.bss.iq.6462,"aw",%nobits
 2523              		.align	2
 2524              		.set	.LANCHOR1,. + 0
 2525              		.type	iq.6462, %object
 2526              		.size	iq.6462, 36
 2527              	iq.6462:
 2528 0000 00000000 		.space	36
 2528      00000000 
 2528      00000000 
 2528      00000000 
 2528      00000000 
 2529              		.section	.rodata.testbmk5,"a",%progbits
 2530              		.align	2
 2531              		.type	testbmk5, %object
 2532              		.size	testbmk5, 16
 2533              	testbmk5:
 2534 0000 44020000 		.word	.LC28
 2535 0004 00000000 		.word	0
 2536 0008 00000000 		.word	0
 2537 000c 00000000 		.word	bmk5_execute
 2538              		.section	.rodata.testbmk6,"a",%progbits
 2539              		.align	2
 2540              		.type	testbmk6, %object
 2541              		.size	testbmk6, 16
ARM GAS  /tmp/ccozm2D3.s 			page 48


 2542              	testbmk6:
 2543 0000 24020000 		.word	.LC27
 2544 0004 00000000 		.word	0
 2545 0008 00000000 		.word	0
 2546 000c 00000000 		.word	bmk6_execute
 2547              		.section	.bss.vt1.6472,"aw",%nobits
 2548              		.align	2
 2549              		.set	.LANCHOR3,. + 0
 2550              		.type	vt1.6472, %object
 2551              		.size	vt1.6472, 20
 2552              	vt1.6472:
 2553 0000 00000000 		.space	20
 2553      00000000 
 2553      00000000 
 2553      00000000 
 2553      00000000 
 2554              		.text
 2555              	.Letext0:
 2556              		.file 5 "/nfs/nfs5/home/research/hardware/arm2/gcc-arm-embedded/gcc-arm-none-eabi-4_8-2014q2/lib/g
 2557              		.file 6 "/nfs/nfs5/home/research/hardware/arm2/gcc-arm-embedded/gcc-arm-none-eabi-4_8-2014q2/arm-n
 2558              		.file 7 "/nfs/nfs5/home/research/hardware/arm2/gcc-arm-embedded/gcc-arm-none-eabi-4_8-2014q2/arm-n
 2559              		.file 8 "../ChibiOS/os/rt/ports/ARMCMx/compilers/GCC/chtypes.h"
 2560              		.file 9 "../ChibiOS/os/rt/include/chsystypes.h"
 2561              		.file 10 "../ChibiOS/os/rt/include/chschd.h"
 2562              		.file 11 "../ChibiOS/os/rt/ports/ARMCMx/chcore.h"
 2563              		.file 12 "../ChibiOS/os/rt/ports/ARMCMx/chcore_v7m.h"
 2564              		.file 13 "../ChibiOS/os/rt/include/chtm.h"
 2565              		.file 14 "../ChibiOS/os/rt/include/chmtx.h"
 2566              		.file 15 "../ChibiOS/os/rt/include/chsem.h"
 2567              		.file 16 "../ChibiOS/test/rt/test.h"
 2568              		.file 17 "../ChibiOS/os/rt/include/chsys.h"
 2569              		.file 18 "../ChibiOS/os/rt/include/chmsg.h"
 2570              		.file 19 "../ChibiOS/os/ext/CMSIS/include/core_cm4.h"
 2571              		.file 20 "../ChibiOS/os/rt/include/chvt.h"