ARM GAS  /tmp/ccYLanIJ.s 			page 1


   1              		.syntax unified
   2              		.cpu cortex-m4
   3              		.fpu softvfp
   4              		.eabi_attribute 20, 1
   5              		.eabi_attribute 21, 1
   6              		.eabi_attribute 23, 3
   7              		.eabi_attribute 24, 1
   8              		.eabi_attribute 25, 1
   9              		.eabi_attribute 26, 1
  10              		.eabi_attribute 30, 2
  11              		.eabi_attribute 34, 1
  12              		.eabi_attribute 18, 4
  13              		.thumb
  14              		.file	"testqueues.c"
  15              		.text
  16              	.Ltext0:
  17              		.cfi_sections	.debug_frame
  18              		.section	.text.notify,"ax",%progbits
  19              		.align	2
  20              		.p2align 4,,15
  21              		.thumb
  22              		.thumb_func
  23              		.type	notify, %function
  24              	notify:
  25              	.LFB226:
  26              		.file 1 "../ChibiOS/test/rt/testqueues.c"
  27              		.loc 1 57 0
  28              		.cfi_startproc
  29              		@ args = 0, pretend = 0, frame = 0
  30              		@ frame_needed = 0, uses_anonymous_args = 0
  31              		@ link register save eliminated.
  32              	.LVL0:
  33 0000 7047     		bx	lr
  34              		.cfi_endproc
  35              	.LFE226:
  36              		.size	notify, .-notify
  37 0002 00BFAFF3 		.section	.text.thread1,"ax",%progbits
  37      0080AFF3 
  37      0080AFF3 
  37      0080
  38              		.align	2
  39              		.p2align 4,,15
  40              		.thumb
  41              		.thumb_func
  42              		.type	thread1, %function
  43              	thread1:
  44              	.LFB228:
  45              		.loc 1 83 0
  46              		.cfi_startproc
  47              		@ args = 0, pretend = 0, frame = 0
  48              		@ frame_needed = 0, uses_anonymous_args = 0
  49              	.LVL1:
  50              		.loc 1 83 0
  51 0000 08B5     		push	{r3, lr}
  52              		.cfi_def_cfa_offset 8
  53              		.cfi_offset 3, -8
  54              		.cfi_offset 14, -4
ARM GAS  /tmp/ccYLanIJ.s 			page 2


  55              		.loc 1 86 0
  56 0002 4FF4FA61 		mov	r1, #2000
  57 0006 0248     		ldr	r0, .L3
  58              	.LVL2:
  59 0008 FFF7FEFF 		bl	chIQGetTimeout
  60              	.LVL3:
  61              		.loc 1 88 0
  62 000c 0020     		movs	r0, #0
  63 000e 08BD     		pop	{r3, pc}
  64              	.L4:
  65              		.align	2
  66              	.L3:
  67 0010 00000000 		.word	.LANCHOR0
  68              		.cfi_endproc
  69              	.LFE228:
  70              		.size	thread1, .-thread1
  71 0014 AFF30080 		.section	.text.queues1_setup,"ax",%progbits
  71      AFF30080 
  71      AFF30080 
  72              		.align	2
  73              		.p2align 4,,15
  74              		.thumb
  75              		.thumb_func
  76              		.type	queues1_setup, %function
  77              	queues1_setup:
  78              	.LFB227:
  79              		.loc 1 78 0
  80              		.cfi_startproc
  81              		@ args = 0, pretend = 0, frame = 0
  82              		@ frame_needed = 0, uses_anonymous_args = 0
  83 0000 00B5     		push	{lr}
  84              		.cfi_def_cfa_offset 4
  85              		.cfi_offset 14, -4
  86              		.loc 1 80 0
  87 0002 064B     		ldr	r3, .L6
  88 0004 0648     		ldr	r0, .L6+4
  89 0006 1968     		ldr	r1, [r3]
  90 0008 064B     		ldr	r3, .L6+8
  91              		.loc 1 78 0
  92 000a 83B0     		sub	sp, sp, #12
  93              		.cfi_def_cfa_offset 16
  94              		.loc 1 80 0
  95 000c 0022     		movs	r2, #0
  96 000e 0092     		str	r2, [sp]
  97 0010 0422     		movs	r2, #4
  98 0012 FFF7FEFF 		bl	chIQObjectInit
  99              	.LVL4:
 100              		.loc 1 81 0
 101 0016 03B0     		add	sp, sp, #12
 102              		@ sp needed
 103 0018 5DF804FB 		ldr	pc, [sp], #4
 104              	.L7:
 105              		.align	2
 106              	.L6:
 107 001c 00000000 		.word	wa
 108 0020 00000000 		.word	.LANCHOR0
 109 0024 00000000 		.word	notify
ARM GAS  /tmp/ccYLanIJ.s 			page 3


 110              		.cfi_endproc
 111              	.LFE227:
 112              		.size	queues1_setup, .-queues1_setup
 113 0028 AFF30080 		.section	.text.thread2,"ax",%progbits
 113      AFF30080 
 114              		.align	2
 115              		.p2align 4,,15
 116              		.thumb
 117              		.thumb_func
 118              		.type	thread2, %function
 119              	thread2:
 120              	.LFB231:
 121              		.loc 1 170 0
 122              		.cfi_startproc
 123              		@ args = 0, pretend = 0, frame = 0
 124              		@ frame_needed = 0, uses_anonymous_args = 0
 125              	.LVL5:
 126 0000 08B5     		push	{r3, lr}
 127              		.cfi_def_cfa_offset 8
 128              		.cfi_offset 3, -8
 129              		.cfi_offset 14, -4
 130              		.loc 1 173 0
 131 0002 0021     		movs	r1, #0
 132 0004 4FF4FA62 		mov	r2, #2000
 133 0008 0248     		ldr	r0, .L9
 134              	.LVL6:
 135 000a FFF7FEFF 		bl	chOQPutTimeout
 136              	.LVL7:
 137              		.loc 1 175 0
 138 000e 0020     		movs	r0, #0
 139 0010 08BD     		pop	{r3, pc}
 140              	.L10:
 141 0012 00BF     		.align	2
 142              	.L9:
 143 0014 00000000 		.word	.LANCHOR1
 144              		.cfi_endproc
 145              	.LFE231:
 146              		.size	thread2, .-thread2
 147 0018 AFF30080 		.section	.text.queues2_setup,"ax",%progbits
 147      AFF30080 
 148              		.align	2
 149              		.p2align 4,,15
 150              		.thumb
 151              		.thumb_func
 152              		.type	queues2_setup, %function
 153              	queues2_setup:
 154              	.LFB230:
 155              		.loc 1 165 0
 156              		.cfi_startproc
 157              		@ args = 0, pretend = 0, frame = 0
 158              		@ frame_needed = 0, uses_anonymous_args = 0
 159 0000 00B5     		push	{lr}
 160              		.cfi_def_cfa_offset 4
 161              		.cfi_offset 14, -4
 162              		.loc 1 167 0
 163 0002 064B     		ldr	r3, .L12
 164 0004 0648     		ldr	r0, .L12+4
ARM GAS  /tmp/ccYLanIJ.s 			page 4


 165 0006 1968     		ldr	r1, [r3]
 166 0008 064B     		ldr	r3, .L12+8
 167              		.loc 1 165 0
 168 000a 83B0     		sub	sp, sp, #12
 169              		.cfi_def_cfa_offset 16
 170              		.loc 1 167 0
 171 000c 0022     		movs	r2, #0
 172 000e 0092     		str	r2, [sp]
 173 0010 0422     		movs	r2, #4
 174 0012 FFF7FEFF 		bl	chOQObjectInit
 175              	.LVL8:
 176              		.loc 1 168 0
 177 0016 03B0     		add	sp, sp, #12
 178              		@ sp needed
 179 0018 5DF804FB 		ldr	pc, [sp], #4
 180              	.L13:
 181              		.align	2
 182              	.L12:
 183 001c 00000000 		.word	wa
 184 0020 00000000 		.word	.LANCHOR1
 185 0024 00000000 		.word	notify
 186              		.cfi_endproc
 187              	.LFE230:
 188              		.size	queues2_setup, .-queues2_setup
 189 0028 AFF30080 		.section	.text.queues1_execute,"ax",%progbits
 189      AFF30080 
 190              		.align	2
 191              		.p2align 4,,15
 192              		.thumb
 193              		.thumb_func
 194              		.type	queues1_execute, %function
 195              	queues1_execute:
 196              	.LFB229:
 197              		.loc 1 90 0
 198              		.cfi_startproc
 199              		@ args = 0, pretend = 0, frame = 0
 200              		@ frame_needed = 0, uses_anonymous_args = 0
 201              	.LVL9:
 202 0000 2DE9F041 		push	{r4, r5, r6, r7, r8, lr}
 203              		.cfi_def_cfa_offset 24
 204              		.cfi_offset 4, -24
 205              		.cfi_offset 5, -20
 206              		.cfi_offset 6, -16
 207              		.cfi_offset 7, -12
 208              		.cfi_offset 8, -8
 209              		.cfi_offset 14, -4
 210              	.LBB882:
 211              	.LBB883:
 212              	.LBB884:
 213              	.LBB885:
 214              		.file 2 "../ChibiOS/os/ext/CMSIS/include/core_cmFunc.h"
 215              		.loc 2 546 0
 216 0004 2024     		movs	r4, #32
 217              	.LBE885:
 218              	.LBE884:
 219              	.LBE883:
 220              	.LBE882:
ARM GAS  /tmp/ccYLanIJ.s 			page 5


 221              		.loc 1 90 0
 222 0006 82B0     		sub	sp, sp, #8
 223              		.cfi_def_cfa_offset 32
 224              	.LBB889:
 225              	.LBB888:
 226              	.LBB887:
 227              	.LBB886:
 228              		.loc 2 546 0
 229              	@ 546 "../ChibiOS/os/ext/CMSIS/include/core_cmFunc.h" 1
 230 0008 84F31188 		MSR basepri, r4
 231              	@ 0 "" 2
 232              	.LVL10:
 233              		.thumb
 234              	.LBE886:
 235              	.LBE887:
 236              	.LBE888:
 237              	.LBE889:
 238              		.loc 1 95 0
 239 000c 924B     		ldr	r3, .L40
 240              	.LBB890:
 241              	.LBB891:
 242              		.file 3 "../ChibiOS/os/rt/include/chqueues.h"
 243              		.loc 3 304 0
 244 000e 9968     		ldr	r1, [r3, #8]
 245              	.LBE891:
 246              	.LBE890:
 247              		.loc 1 95 0
 248 0010 D1F10101 		rsbs	r1, r1, #1
 249 0014 4FF00100 		mov	r0, #1
 250 0018 38BF     		it	cc
 251 001a 0021     		movcc	r1, #0
 252 001c FFF7FEFF 		bl	_test_assert
 253              	.LVL11:
 254 0020 0646     		mov	r6, r0
 255 0022 E8B9     		cbnz	r0, .L36
 256              	.LVL12:
 257              	.LBB892:
 258              	.LBB893:
 259              	.LBB894:
 260              	.LBB895:
 261              	.LBB896:
 262              		.loc 2 546 0
 263              	@ 546 "../ChibiOS/os/ext/CMSIS/include/core_cmFunc.h" 1
 264 0024 80F31188 		MSR basepri, r0
 265              	@ 0 "" 2
 266              	.LVL13:
 267              		.thumb
 268              	.LBE896:
 269              	.LBE895:
 270              	.LBE894:
 271              	.LBE893:
 272              	.LBE892:
 273              	.LBB897:
 274              	.LBB898:
 275              	.LBB899:
 276              	.LBB900:
 277              	@ 546 "../ChibiOS/os/ext/CMSIS/include/core_cmFunc.h" 1
ARM GAS  /tmp/ccYLanIJ.s 			page 6


 278 0028 84F31188 		MSR basepri, r4
 279              	@ 0 "" 2
 280              	.LVL14:
 281              		.thumb
 282 002c 4124     		movs	r4, #65
 283              	.LVL15:
 284              	.L18:
 285              	.LBE900:
 286              	.LBE899:
 287              	.LBE898:
 288              	.LBE897:
 289              		.loc 1 100 0 discriminator 2
 290 002e 8A4D     		ldr	r5, .L40
 291 0030 2146     		mov	r1, r4
 292 0032 0134     		adds	r4, r4, #1
 293 0034 2846     		mov	r0, r5
 294 0036 E4B2     		uxtb	r4, r4
 295 0038 FFF7FEFF 		bl	chIQPutI
 296              	.LVL16:
 297              		.loc 1 99 0 discriminator 2
 298 003c 452C     		cmp	r4, #69
 299 003e F6D1     		bne	.L18
 300              	.LVL17:
 301              	.LBB901:
 302              	.LBB902:
 303              	.LBB903:
 304              	.LBB904:
 305              	.LBB905:
 306              		.loc 2 546 0
 307 0040 0023     		movs	r3, #0
 308              	@ 546 "../ChibiOS/os/ext/CMSIS/include/core_cmFunc.h" 1
 309 0042 83F31188 		MSR basepri, r3
 310              	@ 0 "" 2
 311              	.LVL18:
 312              		.thumb
 313              	.LBE905:
 314              	.LBE904:
 315              	.LBE903:
 316              	.LBE902:
 317              	.LBE901:
 318              	.LBB906:
 319              	.LBB907:
 320              	.LBB908:
 321              	.LBB909:
 322 0046 2023     		movs	r3, #32
 323              	@ 546 "../ChibiOS/os/ext/CMSIS/include/core_cmFunc.h" 1
 324 0048 83F31188 		MSR basepri, r3
 325              	@ 0 "" 2
 326              	.LVL19:
 327              		.thumb
 328              	.LBE909:
 329              	.LBE908:
 330              	.LBE907:
 331              	.LBE906:
 332              	.LBB910:
 333              	.LBB911:
 334              		.loc 3 321 0
ARM GAS  /tmp/ccYLanIJ.s 			page 7


 335 004c 6A69     		ldr	r2, [r5, #20]
 336 004e AB69     		ldr	r3, [r5, #24]
 337 0050 9A42     		cmp	r2, r3
 338 0052 3BD0     		beq	.L39
 339              	.L19:
 340              	.LBE911:
 341              	.LBE910:
 342              		.loc 1 102 0
 343 0054 3146     		mov	r1, r6
 344 0056 0220     		movs	r0, #2
 345 0058 FFF7FEFF 		bl	_test_assert
 346              	.LVL20:
 347 005c 0446     		mov	r4, r0
 348 005e 28B1     		cbz	r0, .L20
 349              	.LVL21:
 350              	.L36:
 351              	.LBB913:
 352              	.LBB914:
 353              	.LBB915:
 354              	.LBB916:
 355              	.LBB917:
 356              		.loc 2 546 0
 357 0060 0023     		movs	r3, #0
 358              	@ 546 "../ChibiOS/os/ext/CMSIS/include/core_cmFunc.h" 1
 359 0062 83F31188 		MSR basepri, r3
 360              	@ 0 "" 2
 361              	.LVL22:
 362              		.thumb
 363              	.L14:
 364              	.LBE917:
 365              	.LBE916:
 366              	.LBE915:
 367              	.LBE914:
 368              	.LBE913:
 369              		.loc 1 147 0
 370 0066 02B0     		add	sp, sp, #8
 371              		@ sp needed
 372 0068 BDE8F081 		pop	{r4, r5, r6, r7, r8, pc}
 373              	.LVL23:
 374              	.L20:
 375              	.LBB918:
 376              	.LBB919:
 377              	.LBB920:
 378              	.LBB921:
 379              	.LBB922:
 380              	.LBB923:
 381              	.LBB924:
 382              		.loc 2 546 0
 383              	@ 546 "../ChibiOS/os/ext/CMSIS/include/core_cmFunc.h" 1
 384 006c 80F31188 		MSR basepri, r0
 385              	@ 0 "" 2
 386              	.LVL24:
 387              		.thumb
 388              	.LBE924:
 389              	.LBE923:
 390              	.LBE922:
 391              	.LBE921:
ARM GAS  /tmp/ccYLanIJ.s 			page 8


 392              	.LBE920:
 393              	.LBB925:
 394              	.LBB926:
 395              	.LBB927:
 396              	.LBB928:
 397 0070 2023     		movs	r3, #32
 398              	@ 546 "../ChibiOS/os/ext/CMSIS/include/core_cmFunc.h" 1
 399 0072 83F31188 		MSR basepri, r3
 400              	@ 0 "" 2
 401              		.thumb
 402              	.LBE928:
 403              	.LBE927:
 404              	.LBE926:
 405              	.LBE925:
 406              		.loc 1 103 0
 407 0076 7848     		ldr	r0, .L40
 408 0078 2146     		mov	r1, r4
 409 007a FFF7FEFF 		bl	chIQPutI
 410              	.LVL25:
 411 007e 0430     		adds	r0, r0, #4
 412 0080 14BF     		ite	ne
 413 0082 0021     		movne	r1, #0
 414 0084 0121     		moveq	r1, #1
 415 0086 0320     		movs	r0, #3
 416 0088 FFF7FEFF 		bl	_test_assert
 417              	.LVL26:
 418 008c C8B9     		cbnz	r0, .L37
 419              	.LVL27:
 420              	.LBB929:
 421              	.LBB930:
 422              	.LBB931:
 423              	.LBB932:
 424              	.LBB933:
 425              		.loc 2 546 0
 426              	@ 546 "../ChibiOS/os/ext/CMSIS/include/core_cmFunc.h" 1
 427 008e 80F31188 		MSR basepri, r0
 428              	@ 0 "" 2
 429              	.LVL28:
 430              		.thumb
 431 0092 0424     		movs	r4, #4
 432              	.LVL29:
 433              	.L23:
 434              	.LBE933:
 435              	.LBE932:
 436              	.LBE931:
 437              	.LBE930:
 438              	.LBE929:
 439              	.LBB934:
 440              	.LBB935:
 441              		.loc 3 338 0
 442 0094 704D     		ldr	r5, .L40
 443 0096 4FF0FF31 		mov	r1, #-1
 444 009a 2846     		mov	r0, r5
 445 009c FFF7FEFF 		bl	chIQGetTimeout
 446              	.LVL30:
 447              	.LBE935:
 448              	.LBE934:
ARM GAS  /tmp/ccYLanIJ.s 			page 9


 449              		.loc 1 107 0
 450 00a0 C0B2     		uxtb	r0, r0
 451 00a2 FFF7FEFF 		bl	test_emit_token
 452              	.LVL31:
 453              		.loc 1 106 0
 454 00a6 013C     		subs	r4, r4, #1
 455              	.LVL32:
 456 00a8 F4D1     		bne	.L23
 457              	.LVL33:
 458              	.LBB936:
 459              	.LBB937:
 460              	.LBB938:
 461              	.LBB939:
 462              		.loc 2 546 0
 463 00aa 2026     		movs	r6, #32
 464              	@ 546 "../ChibiOS/os/ext/CMSIS/include/core_cmFunc.h" 1
 465 00ac 86F31188 		MSR basepri, r6
 466              	@ 0 "" 2
 467              	.LVL34:
 468              		.thumb
 469              	.LBE939:
 470              	.LBE938:
 471              	.LBE937:
 472              	.LBE936:
 473              	.LBB940:
 474              	.LBB941:
 475              		.loc 3 304 0
 476 00b0 A968     		ldr	r1, [r5, #8]
 477              	.LBE941:
 478              	.LBE940:
 479              		.loc 1 108 0
 480 00b2 D1F10101 		rsbs	r1, r1, #1
 481 00b6 38BF     		it	cc
 482 00b8 0021     		movcc	r1, #0
 483 00ba 0420     		movs	r0, #4
 484 00bc FFF7FEFF 		bl	_test_assert
 485              	.LVL35:
 486 00c0 48B1     		cbz	r0, .L24
 487              	.LVL36:
 488              	.L37:
 489              	.LBB942:
 490              	.LBB943:
 491              	.LBB944:
 492              	.LBB945:
 493              	.LBB946:
 494              		.loc 2 546 0
 495              	@ 546 "../ChibiOS/os/ext/CMSIS/include/core_cmFunc.h" 1
 496 00c2 84F31188 		MSR basepri, r4
 497              	@ 0 "" 2
 498              		.thumb
 499              	.LBE946:
 500              	.LBE945:
 501              	.LBE944:
 502              	.LBE943:
 503              	.LBE942:
 504              	.LBE919:
 505              	.LBE918:
ARM GAS  /tmp/ccYLanIJ.s 			page 10


 506              		.loc 1 147 0
 507 00c6 02B0     		add	sp, sp, #8
 508              		@ sp needed
 509 00c8 BDE8F081 		pop	{r4, r5, r6, r7, r8, pc}
 510              	.LVL37:
 511              	.L39:
 512              	.LBB1032:
 513              	.LBB912:
 514              		.loc 3 321 0
 515 00cc AE68     		ldr	r6, [r5, #8]
 516 00ce 0036     		adds	r6, r6, #0
 517 00d0 18BF     		it	ne
 518 00d2 0126     		movne	r6, #1
 519 00d4 BEE7     		b	.L19
 520              	.LVL38:
 521              	.L24:
 522              	.LBE912:
 523              	.LBE1032:
 524              	.LBB1033:
 525              	.LBB1030:
 526              	.LBB947:
 527              	.LBB948:
 528              	.LBB949:
 529              	.LBB950:
 530              	.LBB951:
 531              		.loc 2 546 0
 532              	@ 546 "../ChibiOS/os/ext/CMSIS/include/core_cmFunc.h" 1
 533 00d6 84F31188 		MSR basepri, r4
 534              	@ 0 "" 2
 535              		.thumb
 536              	.LBE951:
 537              	.LBE950:
 538              	.LBE949:
 539              	.LBE948:
 540              	.LBE947:
 541              		.loc 1 109 0
 542 00da 0520     		movs	r0, #5
 543 00dc 5F49     		ldr	r1, .L40+4
 544 00de FFF7FEFF 		bl	_test_assert_sequence
 545              	.LVL39:
 546 00e2 0028     		cmp	r0, #0
 547 00e4 BFD1     		bne	.L14
 548              	.LVL40:
 549              	.LBB952:
 550              	.LBB953:
 551              	.LBB954:
 552              	.LBB955:
 553              		.loc 2 546 0
 554              	@ 546 "../ChibiOS/os/ext/CMSIS/include/core_cmFunc.h" 1
 555 00e6 86F31188 		MSR basepri, r6
 556              	@ 0 "" 2
 557              	.LVL41:
 558              		.thumb
 559 00ea 4124     		movs	r4, #65
 560              	.LVL42:
 561              	.L27:
 562              	.LBE955:
ARM GAS  /tmp/ccYLanIJ.s 			page 11


 563              	.LBE954:
 564              	.LBE953:
 565              	.LBE952:
 566              		.loc 1 114 0
 567 00ec 5A4D     		ldr	r5, .L40
 568 00ee 2146     		mov	r1, r4
 569 00f0 0134     		adds	r4, r4, #1
 570 00f2 2846     		mov	r0, r5
 571 00f4 E4B2     		uxtb	r4, r4
 572 00f6 FFF7FEFF 		bl	chIQPutI
 573              	.LVL43:
 574              		.loc 1 113 0
 575 00fa 452C     		cmp	r4, #69
 576 00fc F6D1     		bne	.L27
 577              	.LVL44:
 578              	.LBB956:
 579              	.LBB957:
 580              	.LBB958:
 581              	.LBB959:
 582              	.LBB960:
 583              		.loc 2 546 0
 584 00fe 0023     		movs	r3, #0
 585              	@ 546 "../ChibiOS/os/ext/CMSIS/include/core_cmFunc.h" 1
 586 0100 83F31188 		MSR basepri, r3
 587              	@ 0 "" 2
 588              		.thumb
 589              	.LBE960:
 590              	.LBE959:
 591              	.LBE958:
 592              	.LBE957:
 593              	.LBE956:
 594              		.loc 1 118 0
 595 0104 564E     		ldr	r6, .L40+8
 596 0106 0822     		movs	r2, #8
 597 0108 7168     		ldr	r1, [r6, #4]
 598 010a 2846     		mov	r0, r5
 599 010c FFF7FEFF 		bl	chIQReadTimeout
 600              	.LVL45:
 601              		.loc 1 119 0
 602 0110 041F     		subs	r4, r0, #4
 603 0112 6142     		rsbs	r1, r4, #0
 604 0114 6141     		adcs	r1, r1, r4
 605 0116 0620     		movs	r0, #6
 606              	.LVL46:
 607 0118 FFF7FEFF 		bl	_test_assert
 608              	.LVL47:
 609 011c 0446     		mov	r4, r0
 610              	.LVL48:
 611 011e 0028     		cmp	r0, #0
 612 0120 A1D1     		bne	.L14
 613              	.LVL49:
 614              	.LBB961:
 615              	.LBB962:
 616              	.LBB963:
 617              	.LBB964:
 618              		.loc 2 546 0
 619 0122 2027     		movs	r7, #32
ARM GAS  /tmp/ccYLanIJ.s 			page 12


 620              	@ 546 "../ChibiOS/os/ext/CMSIS/include/core_cmFunc.h" 1
 621 0124 87F31188 		MSR basepri, r7
 622              	@ 0 "" 2
 623              	.LVL50:
 624              		.thumb
 625              	.LBE964:
 626              	.LBE963:
 627              	.LBE962:
 628              	.LBE961:
 629              	.LBB965:
 630              	.LBB966:
 631              		.loc 3 304 0
 632 0128 A968     		ldr	r1, [r5, #8]
 633              	.LBE966:
 634              	.LBE965:
 635              		.loc 1 120 0
 636 012a D1F10101 		rsbs	r1, r1, #1
 637 012e 38BF     		it	cc
 638 0130 0021     		movcc	r1, #0
 639 0132 0720     		movs	r0, #7
 640 0134 FFF7FEFF 		bl	_test_assert
 641              	.LVL51:
 642 0138 0028     		cmp	r0, #0
 643 013a C2D1     		bne	.L37
 644              	.LVL52:
 645              	.LBB967:
 646              	.LBB968:
 647              	.LBB969:
 648              	.LBB970:
 649              	.LBB971:
 650              		.loc 2 546 0
 651              	@ 546 "../ChibiOS/os/ext/CMSIS/include/core_cmFunc.h" 1
 652 013c 80F31188 		MSR basepri, r0
 653              	@ 0 "" 2
 654              	.LVL53:
 655              		.thumb
 656              	.LBE971:
 657              	.LBE970:
 658              	.LBE969:
 659              	.LBE968:
 660              	.LBE967:
 661              	.LBB972:
 662              	.LBB973:
 663              	.LBB974:
 664              	.LBB975:
 665              	@ 546 "../ChibiOS/os/ext/CMSIS/include/core_cmFunc.h" 1
 666 0140 87F31188 		MSR basepri, r7
 667              	@ 0 "" 2
 668              	.LVL54:
 669              		.thumb
 670 0144 4124     		movs	r4, #65
 671              	.LVL55:
 672              	.L31:
 673              	.LBE975:
 674              	.LBE974:
 675              	.LBE973:
 676              	.LBE972:
ARM GAS  /tmp/ccYLanIJ.s 			page 13


 677              		.loc 1 125 0
 678 0146 444D     		ldr	r5, .L40
 679 0148 2146     		mov	r1, r4
 680 014a 0134     		adds	r4, r4, #1
 681 014c 2846     		mov	r0, r5
 682 014e E4B2     		uxtb	r4, r4
 683 0150 FFF7FEFF 		bl	chIQPutI
 684              	.LVL56:
 685              		.loc 1 124 0
 686 0154 452C     		cmp	r4, #69
 687 0156 F6D1     		bne	.L31
 688              	.LVL57:
 689              	.LBB976:
 690              	.LBB977:
 691              	.LBB978:
 692              	.LBB979:
 693              	.LBB980:
 694              		.loc 2 546 0
 695 0158 0023     		movs	r3, #0
 696              	@ 546 "../ChibiOS/os/ext/CMSIS/include/core_cmFunc.h" 1
 697 015a 83F31188 		MSR basepri, r3
 698              	@ 0 "" 2
 699              		.thumb
 700              	.LBE980:
 701              	.LBE979:
 702              	.LBE978:
 703              	.LBE977:
 704              	.LBE976:
 705              		.loc 1 129 0
 706 015e 7468     		ldr	r4, [r6, #4]
 707 0160 DFF8FC80 		ldr	r8, .L40+8
 708 0164 2146     		mov	r1, r4
 709 0166 2846     		mov	r0, r5
 710 0168 0222     		movs	r2, #2
 711 016a FFF7FEFF 		bl	chIQReadTimeout
 712              	.LVL58:
 713              		.loc 1 130 0
 714 016e 0238     		subs	r0, r0, #2
 715              	.LVL59:
 716 0170 4142     		rsbs	r1, r0, #0
 717 0172 4141     		adcs	r1, r1, r0
 718 0174 0820     		movs	r0, #8
 719              	.LVL60:
 720 0176 FFF7FEFF 		bl	_test_assert
 721              	.LVL61:
 722 017a 0028     		cmp	r0, #0
 723 017c 7FF473AF 		bne	.L14
 724              		.loc 1 131 0
 725 0180 0346     		mov	r3, r0
 726 0182 2146     		mov	r1, r4
 727 0184 0222     		movs	r2, #2
 728 0186 2846     		mov	r0, r5
 729 0188 FFF7FEFF 		bl	chIQReadTimeout
 730              	.LVL62:
 731              		.loc 1 132 0
 732 018c 821E     		subs	r2, r0, #2
 733 018e 5142     		rsbs	r1, r2, #0
ARM GAS  /tmp/ccYLanIJ.s 			page 14


 734 0190 5141     		adcs	r1, r1, r2
 735 0192 0920     		movs	r0, #9
 736              	.LVL63:
 737 0194 FFF7FEFF 		bl	_test_assert
 738              	.LVL64:
 739 0198 0746     		mov	r7, r0
 740 019a 0028     		cmp	r0, #0
 741 019c 7FF463AF 		bne	.L14
 742              	.LVL65:
 743              	.LBB981:
 744              	.LBB982:
 745              	.LBB983:
 746              	.LBB984:
 747              		.loc 2 546 0
 748 01a0 2026     		movs	r6, #32
 749              	@ 546 "../ChibiOS/os/ext/CMSIS/include/core_cmFunc.h" 1
 750 01a2 86F31188 		MSR basepri, r6
 751              	@ 0 "" 2
 752              	.LVL66:
 753              		.thumb
 754              	.LBE984:
 755              	.LBE983:
 756              	.LBE982:
 757              	.LBE981:
 758              	.LBB985:
 759              	.LBB986:
 760              		.loc 3 304 0
 761 01a6 A968     		ldr	r1, [r5, #8]
 762              	.LBE986:
 763              	.LBE985:
 764              		.loc 1 133 0
 765 01a8 D1F10101 		rsbs	r1, r1, #1
 766 01ac 4FF00A00 		mov	r0, #10
 767 01b0 38BF     		it	cc
 768 01b2 0021     		movcc	r1, #0
 769 01b4 FFF7FEFF 		bl	_test_assert
 770              	.LVL67:
 771 01b8 0446     		mov	r4, r0
 772 01ba 10B1     		cbz	r0, .L32
 773              	.L35:
 774              	.LVL68:
 775              	.LBB987:
 776              	.LBB988:
 777              	.LBB989:
 778              	.LBB990:
 779              	.LBB991:
 780              		.loc 2 546 0
 781              	@ 546 "../ChibiOS/os/ext/CMSIS/include/core_cmFunc.h" 1
 782 01bc 87F31188 		MSR basepri, r7
 783              	@ 0 "" 2
 784              		.thumb
 785 01c0 51E7     		b	.L14
 786              	.LVL69:
 787              	.L32:
 788              	.LBE991:
 789              	.LBE990:
 790              	.LBE989:
ARM GAS  /tmp/ccYLanIJ.s 			page 15


 791              	.LBE988:
 792              	.LBE987:
 793              	.LBB992:
 794              	.LBB993:
 795              	.LBB994:
 796              	.LBB995:
 797              	.LBB996:
 798              	@ 546 "../ChibiOS/os/ext/CMSIS/include/core_cmFunc.h" 1
 799 01c2 80F31188 		MSR basepri, r0
 800              	@ 0 "" 2
 801              	.LVL70:
 802              		.thumb
 803              	.LBE996:
 804              	.LBE995:
 805              	.LBE994:
 806              	.LBE993:
 807              	.LBE992:
 808              	.LBB997:
 809              	.LBB998:
 810              	.LBB999:
 811              	.LBB1000:
 812              	@ 546 "../ChibiOS/os/ext/CMSIS/include/core_cmFunc.h" 1
 813 01c6 86F31188 		MSR basepri, r6
 814              	@ 0 "" 2
 815              		.thumb
 816              	.LBE1000:
 817              	.LBE999:
 818              	.LBE998:
 819              	.LBE997:
 820              		.loc 1 137 0
 821 01ca 2146     		mov	r1, r4
 822 01cc 2846     		mov	r0, r5
 823 01ce FFF7FEFF 		bl	chIQPutI
 824              	.LVL71:
 825              		.loc 1 138 0
 826 01d2 2846     		mov	r0, r5
 827 01d4 FFF7FEFF 		bl	chIQResetI
 828              	.LVL72:
 829              	.LBB1001:
 830              	.LBB1002:
 831              	.LBB1003:
 832              	.LBB1004:
 833              	.LBB1005:
 834              		.loc 2 546 0
 835              	@ 546 "../ChibiOS/os/ext/CMSIS/include/core_cmFunc.h" 1
 836 01d8 84F31188 		MSR basepri, r4
 837              	@ 0 "" 2
 838              	.LVL73:
 839              		.thumb
 840              	.LBE1005:
 841              	.LBE1004:
 842              	.LBE1003:
 843              	.LBE1002:
 844              	.LBE1001:
 845              	.LBB1006:
 846              	.LBB1007:
 847              	.LBB1008:
ARM GAS  /tmp/ccYLanIJ.s 			page 16


 848              	.LBB1009:
 849              	@ 546 "../ChibiOS/os/ext/CMSIS/include/core_cmFunc.h" 1
 850 01dc 86F31188 		MSR basepri, r6
 851              	@ 0 "" 2
 852              	.LVL74:
 853              		.thumb
 854              	.LBE1009:
 855              	.LBE1008:
 856              	.LBE1007:
 857              	.LBE1006:
 858              		.loc 1 140 0
 859 01e0 A968     		ldr	r1, [r5, #8]
 860 01e2 D1F10101 		rsbs	r1, r1, #1
 861 01e6 4FF00B00 		mov	r0, #11
 862 01ea 38BF     		it	cc
 863 01ec 0021     		movcc	r1, #0
 864 01ee FFF7FEFF 		bl	_test_assert
 865              	.LVL75:
 866 01f2 0746     		mov	r7, r0
 867 01f4 0028     		cmp	r0, #0
 868 01f6 7FF464AF 		bne	.L37
 869              	.LVL76:
 870              	.LBB1010:
 871              	.LBB1011:
 872              	.LBB1012:
 873              	.LBB1013:
 874              	.LBB1014:
 875              		.loc 2 546 0
 876              	@ 546 "../ChibiOS/os/ext/CMSIS/include/core_cmFunc.h" 1
 877 01fa 80F31188 		MSR basepri, r0
 878              	@ 0 "" 2
 879              		.thumb
 880              	.LBE1014:
 881              	.LBE1013:
 882              	.LBE1012:
 883              	.LBE1011:
 884              	.LBE1010:
 885              	.LBB1015:
 886              	.LBB1016:
 887              	.LBB1017:
 888              	.LBB1018:
 889              		.file 4 "../ChibiOS/os/rt/include/chthreads.h"
 890              		.loc 4 179 0
 891 01fe 194B     		ldr	r3, .L40+12
 892              	.LBE1018:
 893              	.LBE1017:
 894              	.LBE1016:
 895              	.LBE1015:
 896              		.loc 1 141 0
 897 0200 D8F80000 		ldr	r0, [r8]
 898              	.LBB1020:
 899              	.LBB1019:
 900              		.loc 4 192 0
 901 0204 9A69     		ldr	r2, [r3, #24]
 902              	.LBE1019:
 903              	.LBE1020:
 904              		.loc 1 141 0
ARM GAS  /tmp/ccYLanIJ.s 			page 17


 905 0206 184B     		ldr	r3, .L40+16
 906 0208 9268     		ldr	r2, [r2, #8]
 907 020a 0097     		str	r7, [sp]
 908 020c 0132     		adds	r2, r2, #1
 909 020e 4FF4A471 		mov	r1, #328
 910 0212 FFF7FEFF 		bl	chThdCreateStatic
 911              	.LVL77:
 912 0216 154B     		ldr	r3, .L40+20
 913 0218 1860     		str	r0, [r3]
 914              	.LVL78:
 915              	.LBB1021:
 916              	.LBB1022:
 917              	.LBB1023:
 918              	.LBB1024:
 919              		.loc 2 546 0
 920              	@ 546 "../ChibiOS/os/ext/CMSIS/include/core_cmFunc.h" 1
 921 021a 86F31188 		MSR basepri, r6
 922              	@ 0 "" 2
 923              	.LVL79:
 924              		.thumb
 925              	.LBE1024:
 926              	.LBE1023:
 927              	.LBE1022:
 928              	.LBE1021:
 929              		.loc 1 142 0
 930 021e A968     		ldr	r1, [r5, #8]
 931 0220 D1F10101 		rsbs	r1, r1, #1
 932 0224 38BF     		it	cc
 933 0226 0021     		movcc	r1, #0
 934 0228 0C20     		movs	r0, #12
 935 022a FFF7FEFF 		bl	_test_assert
 936              	.LVL80:
 937 022e 0028     		cmp	r0, #0
 938 0230 C4D1     		bne	.L35
 939              	.LVL81:
 940              	.LBB1025:
 941              	.LBB1026:
 942              	.LBB1027:
 943              	.LBB1028:
 944              	.LBB1029:
 945              		.loc 2 546 0
 946              	@ 546 "../ChibiOS/os/ext/CMSIS/include/core_cmFunc.h" 1
 947 0232 80F31188 		MSR basepri, r0
 948              	@ 0 "" 2
 949              		.thumb
 950              	.LBE1029:
 951              	.LBE1028:
 952              	.LBE1027:
 953              	.LBE1026:
 954              	.LBE1025:
 955              		.loc 1 143 0
 956 0236 FFF7FEFF 		bl	test_wait_threads
 957              	.LVL82:
 958              		.loc 1 146 0
 959 023a 2846     		mov	r0, r5
 960 023c 0A21     		movs	r1, #10
 961 023e FFF7FEFF 		bl	chIQGetTimeout
ARM GAS  /tmp/ccYLanIJ.s 			page 18


 962              	.LVL83:
 963 0242 B0F1FF33 		subs	r3, r0, #-1
 964 0246 5942     		rsbs	r1, r3, #0
 965 0248 5941     		adcs	r1, r1, r3
 966 024a 0D20     		movs	r0, #13
 967              	.LBE1030:
 968              	.LBE1033:
 969              		.loc 1 147 0
 970 024c 02B0     		add	sp, sp, #8
 971              		@ sp needed
 972 024e BDE8F041 		pop	{r4, r5, r6, r7, r8, lr}
 973              	.LBB1034:
 974              	.LBB1031:
 975              		.loc 1 146 0
 976 0252 FFF7FEBF 		b	_test_assert
 977              	.LVL84:
 978              	.L41:
 979 0256 00BF     		.align	2
 980              	.L40:
 981 0258 00000000 		.word	.LANCHOR0
 982 025c 00000000 		.word	.LC0
 983 0260 00000000 		.word	wa
 984 0264 00000000 		.word	ch
 985 0268 00000000 		.word	thread1
 986 026c 00000000 		.word	threads
 987              	.LBE1031:
 988              	.LBE1034:
 989              		.cfi_endproc
 990              	.LFE229:
 991              		.size	queues1_execute, .-queues1_execute
 992              		.section	.text.queues2_execute,"ax",%progbits
 993              		.align	2
 994              		.p2align 4,,15
 995              		.thumb
 996              		.thumb_func
 997              		.type	queues2_execute, %function
 998              	queues2_execute:
 999              	.LFB232:
 1000              		.loc 1 177 0
 1001              		.cfi_startproc
 1002              		@ args = 0, pretend = 0, frame = 0
 1003              		@ frame_needed = 0, uses_anonymous_args = 0
 1004              	.LVL85:
 1005 0000 2DE9F043 		push	{r4, r5, r6, r7, r8, r9, lr}
 1006              		.cfi_def_cfa_offset 28
 1007              		.cfi_offset 4, -28
 1008              		.cfi_offset 5, -24
 1009              		.cfi_offset 6, -20
 1010              		.cfi_offset 7, -16
 1011              		.cfi_offset 8, -12
 1012              		.cfi_offset 9, -8
 1013              		.cfi_offset 14, -4
 1014              	.LBB1217:
 1015              	.LBB1218:
 1016              	.LBB1219:
 1017              	.LBB1220:
 1018              		.loc 2 546 0
ARM GAS  /tmp/ccYLanIJ.s 			page 19


 1019 0004 2023     		movs	r3, #32
 1020              	.LBE1220:
 1021              	.LBE1219:
 1022              	.LBE1218:
 1023              	.LBE1217:
 1024              		.loc 1 177 0
 1025 0006 83B0     		sub	sp, sp, #12
 1026              		.cfi_def_cfa_offset 40
 1027              	.LBB1224:
 1028              	.LBB1223:
 1029              	.LBB1222:
 1030              	.LBB1221:
 1031              		.loc 2 546 0
 1032              	@ 546 "../ChibiOS/os/ext/CMSIS/include/core_cmFunc.h" 1
 1033 0008 83F31188 		MSR basepri, r3
 1034              	@ 0 "" 2
 1035              	.LVL86:
 1036              		.thumb
 1037              	.LBE1221:
 1038              	.LBE1222:
 1039              	.LBE1223:
 1040              	.LBE1224:
 1041              	.LBB1225:
 1042              	.LBB1226:
 1043              		.loc 3 387 0
 1044 000c 8B4B     		ldr	r3, .L65
 1045 000e 5969     		ldr	r1, [r3, #20]
 1046 0010 9A69     		ldr	r2, [r3, #24]
 1047 0012 9142     		cmp	r1, r2
 1048 0014 60D0     		beq	.L63
 1049 0016 0021     		movs	r1, #0
 1050              	.L43:
 1051              	.LBE1226:
 1052              	.LBE1225:
 1053              		.loc 1 182 0
 1054 0018 0120     		movs	r0, #1
 1055 001a FFF7FEFF 		bl	_test_assert
 1056              	.LVL87:
 1057 001e 0028     		cmp	r0, #0
 1058 0020 39D1     		bne	.L62
 1059              	.LVL88:
 1060              	.LBB1228:
 1061              	.LBB1229:
 1062              	.LBB1230:
 1063              	.LBB1231:
 1064              	.LBB1232:
 1065              		.loc 2 546 0
 1066              	@ 546 "../ChibiOS/os/ext/CMSIS/include/core_cmFunc.h" 1
 1067 0022 80F31188 		MSR basepri, r0
 1068              	@ 0 "" 2
 1069              	.LVL89:
 1070              		.thumb
 1071 0026 4124     		movs	r4, #65
 1072              	.LVL90:
 1073              	.L47:
 1074              	.LBE1232:
 1075              	.LBE1231:
ARM GAS  /tmp/ccYLanIJ.s 			page 20


 1076              	.LBE1230:
 1077              	.LBE1229:
 1078              	.LBE1228:
 1079              	.LBB1233:
 1080              	.LBB1234:
 1081              		.loc 3 423 0 discriminator 2
 1082 0028 844D     		ldr	r5, .L65
 1083 002a 2146     		mov	r1, r4
 1084 002c 0134     		adds	r4, r4, #1
 1085              	.LVL91:
 1086 002e 2846     		mov	r0, r5
 1087 0030 4FF0FF32 		mov	r2, #-1
 1088 0034 E4B2     		uxtb	r4, r4
 1089 0036 FFF7FEFF 		bl	chOQPutTimeout
 1090              	.LVL92:
 1091              	.LBE1234:
 1092              	.LBE1233:
 1093              		.loc 1 185 0 discriminator 2
 1094 003a 452C     		cmp	r4, #69
 1095 003c F4D1     		bne	.L47
 1096              	.LVL93:
 1097              	.LBB1235:
 1098              	.LBB1236:
 1099              	.LBB1237:
 1100              	.LBB1238:
 1101              		.loc 2 546 0
 1102 003e 4FF02009 		mov	r9, #32
 1103              	@ 546 "../ChibiOS/os/ext/CMSIS/include/core_cmFunc.h" 1
 1104 0042 89F31188 		MSR basepri, r9
 1105              	@ 0 "" 2
 1106              	.LVL94:
 1107              		.thumb
 1108              	.LBE1238:
 1109              	.LBE1237:
 1110              	.LBE1236:
 1111              	.LBE1235:
 1112              	.LBB1239:
 1113              	.LBB1240:
 1114              		.loc 3 404 0
 1115 0046 A968     		ldr	r1, [r5, #8]
 1116              	.LBE1240:
 1117              	.LBE1239:
 1118              		.loc 1 187 0
 1119 0048 D1F10101 		rsbs	r1, r1, #1
 1120 004c 4FF00200 		mov	r0, #2
 1121 0050 38BF     		it	cc
 1122 0052 0021     		movcc	r1, #0
 1123 0054 FFF7FEFF 		bl	_test_assert
 1124              	.LVL95:
 1125 0058 0646     		mov	r6, r0
 1126 005a E0B9     		cbnz	r0, .L62
 1127              	.LVL96:
 1128              	.LBB1241:
 1129              	.LBB1242:
 1130              	.LBB1243:
 1131              	.LBB1244:
 1132              	.LBB1245:
ARM GAS  /tmp/ccYLanIJ.s 			page 21


 1133              	.LBB1246:
 1134              	.LBB1247:
 1135              		.loc 2 546 0
 1136              	@ 546 "../ChibiOS/os/ext/CMSIS/include/core_cmFunc.h" 1
 1137 005c 80F31188 		MSR basepri, r0
 1138              	@ 0 "" 2
 1139              	.LVL97:
 1140              		.thumb
 1141 0060 0424     		movs	r4, #4
 1142              	.LBE1247:
 1143              	.LBE1246:
 1144              	.LBE1245:
 1145              	.LBE1244:
 1146              	.LBE1243:
 1147              	.LBB1248:
 1148              	.LBB1249:
 1149              	.LBB1250:
 1150              	.LBB1251:
 1151              	.LBB1252:
 1152              	.LBB1253:
 1153 0062 8046     		mov	r8, r0
 1154              	.LVL98:
 1155              	.L50:
 1156              	.LBE1253:
 1157              	.LBE1252:
 1158              	.LBE1251:
 1159              	.LBE1250:
 1160              	.LBE1249:
 1161              	.LBB1258:
 1162              	.LBB1259:
 1163              	.LBB1260:
 1164              	.LBB1261:
 1165 0064 2027     		movs	r7, #32
 1166              	@ 546 "../ChibiOS/os/ext/CMSIS/include/core_cmFunc.h" 1
 1167 0066 89F31188 		MSR basepri, r9
 1168              	@ 0 "" 2
 1169              		.thumb
 1170              	.LBE1261:
 1171              	.LBE1260:
 1172              	.LBE1259:
 1173              	.LBE1258:
 1174              		.loc 1 194 0
 1175 006a 744D     		ldr	r5, .L65
 1176 006c 2846     		mov	r0, r5
 1177 006e FFF7FEFF 		bl	chOQGetI
 1178              	.LVL99:
 1179              	.LBB1262:
 1180              	.LBB1257:
 1181              	.LBB1256:
 1182              	.LBB1255:
 1183              	.LBB1254:
 1184              		.loc 2 546 0
 1185              	@ 546 "../ChibiOS/os/ext/CMSIS/include/core_cmFunc.h" 1
 1186 0072 88F31188 		MSR basepri, r8
 1187              	@ 0 "" 2
 1188              		.thumb
 1189              	.LBE1254:
ARM GAS  /tmp/ccYLanIJ.s 			page 22


 1190              	.LBE1255:
 1191              	.LBE1256:
 1192              	.LBE1257:
 1193              	.LBE1262:
 1194              		.loc 1 196 0
 1195 0076 C0B2     		uxtb	r0, r0
 1196              	.LVL100:
 1197 0078 FFF7FEFF 		bl	test_emit_token
 1198              	.LVL101:
 1199              	.LBE1248:
 1200              		.loc 1 190 0
 1201 007c 013C     		subs	r4, r4, #1
 1202              	.LVL102:
 1203 007e F1D1     		bne	.L50
 1204              	.LVL103:
 1205              	.LBB1263:
 1206              	.LBB1264:
 1207              	.LBB1265:
 1208              	.LBB1266:
 1209              		.loc 2 546 0
 1210              	@ 546 "../ChibiOS/os/ext/CMSIS/include/core_cmFunc.h" 1
 1211 0080 87F31188 		MSR basepri, r7
 1212              	@ 0 "" 2
 1213              	.LVL104:
 1214              		.thumb
 1215              	.LBE1266:
 1216              	.LBE1265:
 1217              	.LBE1264:
 1218              	.LBE1263:
 1219              	.LBB1267:
 1220              	.LBB1268:
 1221              		.loc 3 387 0
 1222 0084 6A69     		ldr	r2, [r5, #20]
 1223 0086 AB69     		ldr	r3, [r5, #24]
 1224 0088 9A42     		cmp	r2, r3
 1225 008a 2AD0     		beq	.L64
 1226              	.L51:
 1227              	.LBE1268:
 1228              	.LBE1267:
 1229              		.loc 1 198 0
 1230 008c 3146     		mov	r1, r6
 1231 008e 0320     		movs	r0, #3
 1232 0090 FFF7FEFF 		bl	_test_assert
 1233              	.LVL105:
 1234 0094 28B1     		cbz	r0, .L52
 1235              	.LVL106:
 1236              	.L62:
 1237              	.LBB1270:
 1238              	.LBB1271:
 1239              	.LBB1272:
 1240              	.LBB1273:
 1241              	.LBB1274:
 1242              		.loc 2 546 0
 1243 0096 0023     		movs	r3, #0
 1244              	@ 546 "../ChibiOS/os/ext/CMSIS/include/core_cmFunc.h" 1
 1245 0098 83F31188 		MSR basepri, r3
 1246              	@ 0 "" 2
ARM GAS  /tmp/ccYLanIJ.s 			page 23


 1247              	.LVL107:
 1248              		.thumb
 1249              	.L42:
 1250              	.LBE1274:
 1251              	.LBE1273:
 1252              	.LBE1272:
 1253              	.LBE1271:
 1254              	.LBE1270:
 1255              	.LBE1242:
 1256              	.LBE1241:
 1257              		.loc 1 225 0
 1258 009c 03B0     		add	sp, sp, #12
 1259              		@ sp needed
 1260 009e BDE8F083 		pop	{r4, r5, r6, r7, r8, r9, pc}
 1261              	.LVL108:
 1262              	.L52:
 1263              	.LBB1374:
 1264              	.LBB1371:
 1265              	.LBB1275:
 1266              	.LBB1276:
 1267              	.LBB1277:
 1268              	.LBB1278:
 1269              	.LBB1279:
 1270              		.loc 2 546 0
 1271              	@ 546 "../ChibiOS/os/ext/CMSIS/include/core_cmFunc.h" 1
 1272 00a2 80F31188 		MSR basepri, r0
 1273              	@ 0 "" 2
 1274              		.thumb
 1275              	.LBE1279:
 1276              	.LBE1278:
 1277              	.LBE1277:
 1278              	.LBE1276:
 1279              	.LBE1275:
 1280              		.loc 1 199 0
 1281 00a6 0420     		movs	r0, #4
 1282 00a8 6549     		ldr	r1, .L65+4
 1283 00aa FFF7FEFF 		bl	_test_assert_sequence
 1284              	.LVL109:
 1285 00ae 0446     		mov	r4, r0
 1286              	.LVL110:
 1287 00b0 0028     		cmp	r0, #0
 1288 00b2 F3D1     		bne	.L42
 1289              	.LVL111:
 1290              	.LBB1280:
 1291              	.LBB1281:
 1292              	.LBB1282:
 1293              	.LBB1283:
 1294              		.loc 2 546 0
 1295 00b4 2026     		movs	r6, #32
 1296              	@ 546 "../ChibiOS/os/ext/CMSIS/include/core_cmFunc.h" 1
 1297 00b6 86F31188 		MSR basepri, r6
 1298              	@ 0 "" 2
 1299              		.thumb
 1300              	.LBE1283:
 1301              	.LBE1282:
 1302              	.LBE1281:
 1303              	.LBE1280:
ARM GAS  /tmp/ccYLanIJ.s 			page 24


 1304              		.loc 1 200 0
 1305 00ba 604D     		ldr	r5, .L65
 1306 00bc 2846     		mov	r0, r5
 1307 00be FFF7FEFF 		bl	chOQGetI
 1308              	.LVL112:
 1309 00c2 0330     		adds	r0, r0, #3
 1310 00c4 14BF     		ite	ne
 1311 00c6 0021     		movne	r1, #0
 1312 00c8 0121     		moveq	r1, #1
 1313 00ca 0520     		movs	r0, #5
 1314 00cc FFF7FEFF 		bl	_test_assert
 1315              	.LVL113:
 1316 00d0 60B1     		cbz	r0, .L54
 1317              	.LVL114:
 1318              	.LBB1284:
 1319              	.LBB1285:
 1320              	.LBB1286:
 1321              	.LBB1287:
 1322              	.LBB1288:
 1323              		.loc 2 546 0
 1324              	@ 546 "../ChibiOS/os/ext/CMSIS/include/core_cmFunc.h" 1
 1325 00d2 84F31188 		MSR basepri, r4
 1326              	@ 0 "" 2
 1327              		.thumb
 1328 00d6 E1E7     		b	.L42
 1329              	.LVL115:
 1330              	.L63:
 1331              	.LBE1288:
 1332              	.LBE1287:
 1333              	.LBE1286:
 1334              	.LBE1285:
 1335              	.LBE1284:
 1336              	.LBE1371:
 1337              	.LBE1374:
 1338              	.LBB1375:
 1339              	.LBB1227:
 1340              		.loc 3 387 0
 1341 00d8 9968     		ldr	r1, [r3, #8]
 1342 00da 0031     		adds	r1, r1, #0
 1343 00dc 18BF     		it	ne
 1344 00de 0121     		movne	r1, #1
 1345 00e0 9AE7     		b	.L43
 1346              	.LVL116:
 1347              	.L64:
 1348              	.LBE1227:
 1349              	.LBE1375:
 1350              	.LBB1376:
 1351              	.LBB1372:
 1352              	.LBB1289:
 1353              	.LBB1269:
 1354 00e2 AE68     		ldr	r6, [r5, #8]
 1355 00e4 0036     		adds	r6, r6, #0
 1356 00e6 18BF     		it	ne
 1357 00e8 0126     		movne	r6, #1
 1358 00ea CFE7     		b	.L51
 1359              	.LVL117:
 1360              	.L54:
ARM GAS  /tmp/ccYLanIJ.s 			page 25


 1361              	.LBE1269:
 1362              	.LBE1289:
 1363              	.LBB1290:
 1364              	.LBB1291:
 1365              	.LBB1292:
 1366              	.LBB1293:
 1367              	.LBB1294:
 1368              		.loc 2 546 0
 1369              	@ 546 "../ChibiOS/os/ext/CMSIS/include/core_cmFunc.h" 1
 1370 00ec 80F31188 		MSR basepri, r0
 1371              	@ 0 "" 2
 1372              		.thumb
 1373              	.LBE1294:
 1374              	.LBE1293:
 1375              	.LBE1292:
 1376              	.LBE1291:
 1377              	.LBE1290:
 1378              		.loc 1 203 0
 1379 00f0 544F     		ldr	r7, .L65+8
 1380 00f2 7C68     		ldr	r4, [r7, #4]
 1381 00f4 0346     		mov	r3, r0
 1382 00f6 2146     		mov	r1, r4
 1383 00f8 0822     		movs	r2, #8
 1384 00fa 2846     		mov	r0, r5
 1385 00fc FFF7FEFF 		bl	chOQWriteTimeout
 1386              	.LVL118:
 1387              		.loc 1 204 0
 1388 0100 B0F10408 		subs	r8, r0, #4
 1389 0104 D8F10001 		rsbs	r1, r8, #0
 1390 0108 51EB0801 		adcs	r1, r1, r8
 1391 010c 0620     		movs	r0, #6
 1392              	.LVL119:
 1393 010e FFF7FEFF 		bl	_test_assert
 1394              	.LVL120:
 1395 0112 8046     		mov	r8, r0
 1396              	.LVL121:
 1397 0114 0028     		cmp	r0, #0
 1398 0116 C1D1     		bne	.L42
 1399              	.LVL122:
 1400              	.LBB1295:
 1401              	.LBB1296:
 1402              	.LBB1297:
 1403              	.LBB1298:
 1404              		.loc 2 546 0
 1405              	@ 546 "../ChibiOS/os/ext/CMSIS/include/core_cmFunc.h" 1
 1406 0118 86F31188 		MSR basepri, r6
 1407              	@ 0 "" 2
 1408              	.LVL123:
 1409              		.thumb
 1410              	.LBE1298:
 1411              	.LBE1297:
 1412              	.LBE1296:
 1413              	.LBE1295:
 1414              	.LBB1299:
 1415              	.LBB1300:
 1416              		.loc 3 404 0
 1417 011c A968     		ldr	r1, [r5, #8]
ARM GAS  /tmp/ccYLanIJ.s 			page 26


 1418              	.LBE1300:
 1419              	.LBE1299:
 1420              		.loc 1 205 0
 1421 011e D1F10101 		rsbs	r1, r1, #1
 1422 0122 4FF00700 		mov	r0, #7
 1423 0126 38BF     		it	cc
 1424 0128 0021     		movcc	r1, #0
 1425 012a FFF7FEFF 		bl	_test_assert
 1426              	.LVL124:
 1427 012e 8146     		mov	r9, r0
 1428 0130 10B1     		cbz	r0, .L56
 1429              	.LVL125:
 1430              	.LBB1301:
 1431              	.LBB1302:
 1432              	.LBB1303:
 1433              	.LBB1304:
 1434              	.LBB1305:
 1435              		.loc 2 546 0
 1436              	@ 546 "../ChibiOS/os/ext/CMSIS/include/core_cmFunc.h" 1
 1437 0132 88F31188 		MSR basepri, r8
 1438              	@ 0 "" 2
 1439              		.thumb
 1440 0136 B1E7     		b	.L42
 1441              	.LVL126:
 1442              	.L56:
 1443              	.LBE1305:
 1444              	.LBE1304:
 1445              	.LBE1303:
 1446              	.LBE1302:
 1447              	.LBE1301:
 1448              	.LBB1306:
 1449              	.LBB1307:
 1450              	.LBB1308:
 1451              	.LBB1309:
 1452              	.LBB1310:
 1453              	@ 546 "../ChibiOS/os/ext/CMSIS/include/core_cmFunc.h" 1
 1454 0138 80F31188 		MSR basepri, r0
 1455              	@ 0 "" 2
 1456              		.thumb
 1457              	.LBE1310:
 1458              	.LBE1309:
 1459              	.LBE1308:
 1460              	.LBE1307:
 1461              	.LBE1306:
 1462              	.LBB1311:
 1463              	.LBB1312:
 1464              	.LBB1313:
 1465              	.LBB1314:
 1466              		.loc 4 179 0
 1467 013c 424B     		ldr	r3, .L65+12
 1468              	.LBE1314:
 1469              	.LBE1313:
 1470              	.LBE1312:
 1471              	.LBE1311:
 1472              		.loc 1 206 0
 1473 013e 3868     		ldr	r0, [r7]
 1474              	.LBB1316:
ARM GAS  /tmp/ccYLanIJ.s 			page 27


 1475              	.LBB1315:
 1476              		.loc 4 192 0
 1477 0140 9A69     		ldr	r2, [r3, #24]
 1478              	.LBE1315:
 1479              	.LBE1316:
 1480              		.loc 1 206 0
 1481 0142 424B     		ldr	r3, .L65+16
 1482 0144 9268     		ldr	r2, [r2, #8]
 1483 0146 CDF80090 		str	r9, [sp]
 1484 014a 0132     		adds	r2, r2, #1
 1485 014c 4FF4A471 		mov	r1, #328
 1486 0150 FFF7FEFF 		bl	chThdCreateStatic
 1487              	.LVL127:
 1488 0154 3E4B     		ldr	r3, .L65+20
 1489 0156 1860     		str	r0, [r3]
 1490              	.LVL128:
 1491              	.LBB1317:
 1492              	.LBB1318:
 1493              	.LBB1319:
 1494              	.LBB1320:
 1495              		.loc 2 546 0
 1496              	@ 546 "../ChibiOS/os/ext/CMSIS/include/core_cmFunc.h" 1
 1497 0158 86F31188 		MSR basepri, r6
 1498              	@ 0 "" 2
 1499              	.LVL129:
 1500              		.thumb
 1501              	.LBE1320:
 1502              	.LBE1319:
 1503              	.LBE1318:
 1504              	.LBE1317:
 1505              	.LBB1321:
 1506              	.LBB1322:
 1507              		.loc 3 354 0
 1508 015c 2969     		ldr	r1, [r5, #16]
 1509 015e EA68     		ldr	r2, [r5, #12]
 1510 0160 AB68     		ldr	r3, [r5, #8]
 1511 0162 8A1A     		subs	r2, r1, r2
 1512 0164 D11A     		subs	r1, r2, r3
 1513              	.LBE1322:
 1514              	.LBE1321:
 1515              		.loc 1 207 0
 1516 0166 B1F1040C 		subs	ip, r1, #4
 1517 016a DCF10001 		rsbs	r1, ip, #0
 1518 016e 51EB0C01 		adcs	r1, r1, ip
 1519 0172 0820     		movs	r0, #8
 1520 0174 FFF7FEFF 		bl	_test_assert
 1521              	.LVL130:
 1522 0178 0746     		mov	r7, r0
 1523 017a 10B1     		cbz	r0, .L57
 1524              	.LVL131:
 1525              	.LBB1323:
 1526              	.LBB1324:
 1527              	.LBB1325:
 1528              	.LBB1326:
 1529              	.LBB1327:
 1530              		.loc 2 546 0
 1531              	@ 546 "../ChibiOS/os/ext/CMSIS/include/core_cmFunc.h" 1
ARM GAS  /tmp/ccYLanIJ.s 			page 28


 1532 017c 89F31188 		MSR basepri, r9
 1533              	@ 0 "" 2
 1534              		.thumb
 1535 0180 8CE7     		b	.L42
 1536              	.LVL132:
 1537              	.L57:
 1538              	.LBE1327:
 1539              	.LBE1326:
 1540              	.LBE1325:
 1541              	.LBE1324:
 1542              	.LBE1323:
 1543              	.LBB1328:
 1544              	.LBB1329:
 1545              	.LBB1330:
 1546              	.LBB1331:
 1547              	.LBB1332:
 1548              	@ 546 "../ChibiOS/os/ext/CMSIS/include/core_cmFunc.h" 1
 1549 0182 80F31188 		MSR basepri, r0
 1550              	@ 0 "" 2
 1551              		.thumb
 1552              	.LBE1332:
 1553              	.LBE1331:
 1554              	.LBE1330:
 1555              	.LBE1329:
 1556              	.LBE1328:
 1557              		.loc 1 208 0
 1558 0186 FFF7FEFF 		bl	test_wait_threads
 1559              	.LVL133:
 1560              	.LBB1333:
 1561              	.LBB1334:
 1562              	.LBB1335:
 1563              	.LBB1336:
 1564              		.loc 2 546 0
 1565              	@ 546 "../ChibiOS/os/ext/CMSIS/include/core_cmFunc.h" 1
 1566 018a 86F31188 		MSR basepri, r6
 1567              	@ 0 "" 2
 1568              		.thumb
 1569              	.LBE1336:
 1570              	.LBE1335:
 1571              	.LBE1334:
 1572              	.LBE1333:
 1573              		.loc 1 212 0
 1574 018e 2846     		mov	r0, r5
 1575 0190 FFF7FEFF 		bl	chOQResetI
 1576              	.LVL134:
 1577              	.LBB1337:
 1578              	.LBB1338:
 1579              	.LBB1339:
 1580              	.LBB1340:
 1581              	.LBB1341:
 1582              		.loc 2 546 0
 1583              	@ 546 "../ChibiOS/os/ext/CMSIS/include/core_cmFunc.h" 1
 1584 0194 87F31188 		MSR basepri, r7
 1585              	@ 0 "" 2
 1586              	.LVL135:
 1587              		.thumb
 1588              	.LBE1341:
ARM GAS  /tmp/ccYLanIJ.s 			page 29


 1589              	.LBE1340:
 1590              	.LBE1339:
 1591              	.LBE1338:
 1592              	.LBE1337:
 1593              	.LBB1342:
 1594              	.LBB1343:
 1595              	.LBB1344:
 1596              	.LBB1345:
 1597              	@ 546 "../ChibiOS/os/ext/CMSIS/include/core_cmFunc.h" 1
 1598 0198 86F31188 		MSR basepri, r6
 1599              	@ 0 "" 2
 1600              	.LVL136:
 1601              		.thumb
 1602              	.LBE1345:
 1603              	.LBE1344:
 1604              	.LBE1343:
 1605              	.LBE1342:
 1606              	.LBB1346:
 1607              	.LBB1347:
 1608              		.loc 3 354 0
 1609 019c 2969     		ldr	r1, [r5, #16]
 1610 019e EA68     		ldr	r2, [r5, #12]
 1611              	.LBE1347:
 1612              	.LBE1346:
 1613              		.loc 1 214 0
 1614 01a0 AB68     		ldr	r3, [r5, #8]
 1615              	.LBB1349:
 1616              	.LBB1348:
 1617              		.loc 3 354 0
 1618 01a2 891A     		subs	r1, r1, r2
 1619              	.LBE1348:
 1620              	.LBE1349:
 1621              		.loc 1 214 0
 1622 01a4 B1EB030E 		subs	lr, r1, r3
 1623 01a8 DEF10001 		rsbs	r1, lr, #0
 1624 01ac 51EB0E01 		adcs	r1, r1, lr
 1625 01b0 0920     		movs	r0, #9
 1626 01b2 FFF7FEFF 		bl	_test_assert
 1627              	.LVL137:
 1628 01b6 0346     		mov	r3, r0
 1629 01b8 10B1     		cbz	r0, .L58
 1630              	.LVL138:
 1631              	.LBB1350:
 1632              	.LBB1351:
 1633              	.LBB1352:
 1634              	.LBB1353:
 1635              	.LBB1354:
 1636              		.loc 2 546 0
 1637              	@ 546 "../ChibiOS/os/ext/CMSIS/include/core_cmFunc.h" 1
 1638 01ba 87F31188 		MSR basepri, r7
 1639              	@ 0 "" 2
 1640              		.thumb
 1641 01be 6DE7     		b	.L42
 1642              	.LVL139:
 1643              	.L58:
 1644              	.LBE1354:
 1645              	.LBE1353:
ARM GAS  /tmp/ccYLanIJ.s 			page 30


 1646              	.LBE1352:
 1647              	.LBE1351:
 1648              	.LBE1350:
 1649              	.LBB1355:
 1650              	.LBB1356:
 1651              	.LBB1357:
 1652              	.LBB1358:
 1653              	.LBB1359:
 1654              	@ 546 "../ChibiOS/os/ext/CMSIS/include/core_cmFunc.h" 1
 1655 01c0 80F31188 		MSR basepri, r0
 1656              	@ 0 "" 2
 1657              		.thumb
 1658              	.LBE1359:
 1659              	.LBE1358:
 1660              	.LBE1357:
 1661              	.LBE1356:
 1662              	.LBE1355:
 1663              		.loc 1 217 0
 1664 01c4 0222     		movs	r2, #2
 1665 01c6 2146     		mov	r1, r4
 1666 01c8 2846     		mov	r0, r5
 1667 01ca FFF7FEFF 		bl	chOQWriteTimeout
 1668              	.LVL140:
 1669              		.loc 1 218 0
 1670 01ce 0238     		subs	r0, r0, #2
 1671              	.LVL141:
 1672 01d0 4142     		rsbs	r1, r0, #0
 1673 01d2 4141     		adcs	r1, r1, r0
 1674 01d4 0A20     		movs	r0, #10
 1675              	.LVL142:
 1676 01d6 FFF7FEFF 		bl	_test_assert
 1677              	.LVL143:
 1678 01da 0346     		mov	r3, r0
 1679 01dc 0028     		cmp	r0, #0
 1680 01de 7FF45DAF 		bne	.L42
 1681              		.loc 1 219 0
 1682 01e2 2146     		mov	r1, r4
 1683 01e4 0222     		movs	r2, #2
 1684 01e6 2846     		mov	r0, r5
 1685 01e8 FFF7FEFF 		bl	chOQWriteTimeout
 1686              	.LVL144:
 1687              		.loc 1 220 0
 1688 01ec 821E     		subs	r2, r0, #2
 1689 01ee 5142     		rsbs	r1, r2, #0
 1690 01f0 5141     		adcs	r1, r1, r2
 1691 01f2 0B20     		movs	r0, #11
 1692              	.LVL145:
 1693 01f4 FFF7FEFF 		bl	_test_assert
 1694              	.LVL146:
 1695 01f8 0028     		cmp	r0, #0
 1696 01fa 7FF44FAF 		bne	.L42
 1697              	.LVL147:
 1698              	.LBB1360:
 1699              	.LBB1361:
 1700              	.LBB1362:
 1701              	.LBB1363:
 1702              		.loc 2 546 0
ARM GAS  /tmp/ccYLanIJ.s 			page 31


 1703              	@ 546 "../ChibiOS/os/ext/CMSIS/include/core_cmFunc.h" 1
 1704 01fe 86F31188 		MSR basepri, r6
 1705              	@ 0 "" 2
 1706              	.LVL148:
 1707              		.thumb
 1708              	.LBE1363:
 1709              	.LBE1362:
 1710              	.LBE1361:
 1711              	.LBE1360:
 1712              	.LBB1364:
 1713              	.LBB1365:
 1714              		.loc 3 404 0
 1715 0202 A968     		ldr	r1, [r5, #8]
 1716              	.LBE1365:
 1717              	.LBE1364:
 1718              		.loc 1 221 0
 1719 0204 D1F10101 		rsbs	r1, r1, #1
 1720 0208 38BF     		it	cc
 1721 020a 0021     		movcc	r1, #0
 1722 020c 0C20     		movs	r0, #12
 1723 020e FFF7FEFF 		bl	_test_assert
 1724              	.LVL149:
 1725 0212 0028     		cmp	r0, #0
 1726 0214 7FF43FAF 		bne	.L62
 1727              	.LVL150:
 1728              	.LBB1366:
 1729              	.LBB1367:
 1730              	.LBB1368:
 1731              	.LBB1369:
 1732              	.LBB1370:
 1733              		.loc 2 546 0
 1734 0218 0021     		movs	r1, #0
 1735              	@ 546 "../ChibiOS/os/ext/CMSIS/include/core_cmFunc.h" 1
 1736 021a 81F31188 		MSR basepri, r1
 1737              	@ 0 "" 2
 1738              		.thumb
 1739              	.LBE1370:
 1740              	.LBE1369:
 1741              	.LBE1368:
 1742              	.LBE1367:
 1743              	.LBE1366:
 1744              		.loc 1 224 0
 1745 021e 0A22     		movs	r2, #10
 1746 0220 0648     		ldr	r0, .L65
 1747 0222 FFF7FEFF 		bl	chOQPutTimeout
 1748              	.LVL151:
 1749 0226 B0F1FF33 		subs	r3, r0, #-1
 1750 022a 5942     		rsbs	r1, r3, #0
 1751 022c 5941     		adcs	r1, r1, r3
 1752 022e 0D20     		movs	r0, #13
 1753              	.LBE1372:
 1754              	.LBE1376:
 1755              		.loc 1 225 0
 1756 0230 03B0     		add	sp, sp, #12
 1757              		@ sp needed
 1758 0232 BDE8F043 		pop	{r4, r5, r6, r7, r8, r9, lr}
 1759              	.LBB1377:
ARM GAS  /tmp/ccYLanIJ.s 			page 32


 1760              	.LBB1373:
 1761              		.loc 1 224 0
 1762 0236 FFF7FEBF 		b	_test_assert
 1763              	.LVL152:
 1764              	.L66:
 1765 023a 00BF     		.align	2
 1766              	.L65:
 1767 023c 00000000 		.word	.LANCHOR1
 1768 0240 00000000 		.word	.LC0
 1769 0244 00000000 		.word	wa
 1770 0248 00000000 		.word	ch
 1771 024c 00000000 		.word	thread2
 1772 0250 00000000 		.word	threads
 1773              	.LBE1373:
 1774              	.LBE1377:
 1775              		.cfi_endproc
 1776              	.LFE232:
 1777              		.size	queues2_execute, .-queues2_execute
 1778              		.global	patternqueues
 1779              		.global	testqueues2
 1780              		.global	testqueues1
 1781 0254 AFF30080 		.section	.rodata.testqueues1,"a",%progbits
 1781      AFF30080 
 1781      AFF30080 
 1782              		.align	2
 1783              		.type	testqueues1, %object
 1784              		.size	testqueues1, 16
 1785              	testqueues1:
 1786 0000 20000000 		.word	.LC2
 1787 0004 00000000 		.word	queues1_setup
 1788 0008 00000000 		.word	0
 1789 000c 00000000 		.word	queues1_execute
 1790              		.section	.rodata.testqueues2,"a",%progbits
 1791              		.align	2
 1792              		.type	testqueues2, %object
 1793              		.size	testqueues2, 16
 1794              	testqueues2:
 1795 0000 08000000 		.word	.LC1
 1796 0004 00000000 		.word	queues2_setup
 1797 0008 00000000 		.word	0
 1798 000c 00000000 		.word	queues2_execute
 1799              		.section	.rodata.str1.4,"aMS",%progbits,1
 1800              		.align	2
 1801              	.LC0:
 1802 0000 41424344 		.ascii	"ABCD\000"
 1802      00
 1803 0005 000000   		.space	3
 1804              	.LC1:
 1805 0008 51756575 		.ascii	"Queues, output queues\000"
 1805      65732C20 
 1805      6F757470 
 1805      75742071 
 1805      75657565 
 1806 001e 0000     		.space	2
 1807              	.LC2:
 1808 0020 51756575 		.ascii	"Queues, input queues\000"
 1808      65732C20 
ARM GAS  /tmp/ccYLanIJ.s 			page 33


 1808      696E7075 
 1808      74207175 
 1808      65756573 
 1809 0035 000000   		.section	.rodata.patternqueues,"a",%progbits
 1810              		.align	2
 1811              		.type	patternqueues, %object
 1812              		.size	patternqueues, 12
 1813              	patternqueues:
 1814 0000 00000000 		.word	testqueues1
 1815 0004 00000000 		.word	testqueues2
 1816 0008 00000000 		.word	0
 1817              		.section	.data.oq,"aw",%progbits
 1818              		.align	2
 1819              		.set	.LANCHOR1,. + 0
 1820              		.type	oq, %object
 1821              		.size	oq, 36
 1822              	oq:
 1823 0000 00000000 		.word	oq
 1824 0004 00000000 		.word	oq
 1825 0008 04000000 		.word	4
 1826 000c 48010000 		.word	test+328
 1827 0010 4C010000 		.word	test+332
 1828 0014 48010000 		.word	test+328
 1829 0018 48010000 		.word	test+328
 1830 001c 00000000 		.word	notify
 1831 0020 00000000 		.word	0
 1832              		.section	.data.iq,"aw",%progbits
 1833              		.align	2
 1834              		.set	.LANCHOR0,. + 0
 1835              		.type	iq, %object
 1836              		.size	iq, 36
 1837              	iq:
 1838 0000 00000000 		.word	iq
 1839 0004 00000000 		.word	iq
 1840 0008 00000000 		.word	0
 1841 000c 00000000 		.word	test
 1842 0010 04000000 		.word	test+4
 1843 0014 00000000 		.word	test
 1844 0018 00000000 		.word	test
 1845 001c 00000000 		.word	notify
 1846 0020 00000000 		.word	0
 1847              		.text
 1848              	.Letext0:
 1849              		.file 5 "/nfs/nfs5/home/research/hardware/arm2/gcc-arm-embedded/gcc-arm-none-eabi-4_8-2014q2/lib/g
 1850              		.file 6 "/nfs/nfs5/home/research/hardware/arm2/gcc-arm-embedded/gcc-arm-none-eabi-4_8-2014q2/arm-n
 1851              		.file 7 "/nfs/nfs5/home/research/hardware/arm2/gcc-arm-embedded/gcc-arm-none-eabi-4_8-2014q2/arm-n
 1852              		.file 8 "../ChibiOS/os/rt/ports/ARMCMx/compilers/GCC/chtypes.h"
 1853              		.file 9 "../ChibiOS/os/rt/include/chsystypes.h"
 1854              		.file 10 "../ChibiOS/os/rt/include/chschd.h"
 1855              		.file 11 "../ChibiOS/os/rt/ports/ARMCMx/chcore.h"
 1856              		.file 12 "../ChibiOS/os/rt/ports/ARMCMx/chcore_v7m.h"
 1857              		.file 13 "../ChibiOS/os/rt/include/chtm.h"
 1858              		.file 14 "../ChibiOS/os/rt/include/chmtx.h"
 1859              		.file 15 "../ChibiOS/test/rt/test.h"
 1860              		.file 16 "../ChibiOS/os/rt/include/chsys.h"
 1861              		.file 17 "../ChibiOS/os/ext/CMSIS/include/core_cm4.h"