ARM GAS  /tmp/ccCwhJxt.s 			page 1


   1              		.syntax unified
   2              		.cpu cortex-m4
   3              		.fpu softvfp
   4              		.eabi_attribute 20, 1
   5              		.eabi_attribute 21, 1
   6              		.eabi_attribute 23, 3
   7              		.eabi_attribute 24, 1
   8              		.eabi_attribute 25, 1
   9              		.eabi_attribute 26, 1
  10              		.eabi_attribute 30, 2
  11              		.eabi_attribute 34, 1
  12              		.eabi_attribute 18, 4
  13              		.thumb
  14              		.file	"testdyn.c"
  15              		.text
  16              	.Ltext0:
  17              		.cfi_sections	.debug_frame
  18              		.section	.text.dyn1_execute,"ax",%progbits
  19              		.align	2
  20              		.p2align 4,,15
  21              		.thumb
  22              		.thumb_func
  23              		.type	dyn1_execute, %function
  24              	dyn1_execute:
  25              	.LFB228:
  26              		.file 1 "../ChibiOS/test/rt/testdyn.c"
  27              		.loc 1 83 0
  28              		.cfi_startproc
  29              		@ args = 0, pretend = 0, frame = 8
  30              		@ frame_needed = 0, uses_anonymous_args = 0
  31 0000 70B5     		push	{r4, r5, r6, lr}
  32              		.cfi_def_cfa_offset 16
  33              		.cfi_offset 4, -16
  34              		.cfi_offset 5, -12
  35              		.cfi_offset 6, -8
  36              		.cfi_offset 14, -4
  37              	.LBB16:
  38              	.LBB17:
  39              	.LBB18:
  40              	.LBB19:
  41              		.file 2 "../ChibiOS/os/rt/include/chthreads.h"
  42              		.loc 2 179 0
  43 0002 334B     		ldr	r3, .L12
  44              	.LBE19:
  45              	.LBE18:
  46              	.LBE17:
  47              	.LBE16:
  48              		.loc 1 88 0
  49 0004 3348     		ldr	r0, .L12+4
  50              	.LBB22:
  51              	.LBB20:
  52              		.loc 2 192 0
  53 0006 9B69     		ldr	r3, [r3, #24]
  54              	.LBE20:
  55              	.LBE22:
  56              		.loc 1 90 0
  57 0008 334C     		ldr	r4, .L12+8
ARM GAS  /tmp/ccCwhJxt.s 			page 2


  58              	.LBB23:
  59              	.LBB21:
  60              		.loc 2 192 0
  61 000a 9D68     		ldr	r5, [r3, #8]
  62              	.LBE21:
  63              	.LBE23:
  64              		.loc 1 83 0
  65 000c 84B0     		sub	sp, sp, #16
  66              		.cfi_def_cfa_offset 32
  67              		.loc 1 88 0
  68 000e 03A9     		add	r1, sp, #12
  69 0010 FFF7FEFF 		bl	chHeapStatus
  70              	.LVL0:
  71              		.loc 1 90 0
  72 0014 314B     		ldr	r3, .L12+12
  73 0016 0093     		str	r3, [sp]
  74 0018 6A1E     		subs	r2, r5, #1
  75 001a 314B     		ldr	r3, .L12+16
  76 001c 2D48     		ldr	r0, .L12+4
  77 001e 4FF4A471 		mov	r1, #328
  78 0022 FFF7FEFF 		bl	chThdCreateFromHeap
  79              	.LVL1:
  80              		.loc 1 93 0
  81 0026 2F4B     		ldr	r3, .L12+20
  82              		.loc 1 90 0
  83 0028 2060     		str	r0, [r4]
  84              		.loc 1 93 0
  85 002a AA1E     		subs	r2, r5, #2
  86 002c 0093     		str	r3, [sp]
  87 002e 4FF4A471 		mov	r1, #328
  88 0032 2B4B     		ldr	r3, .L12+16
  89 0034 2748     		ldr	r0, .L12+4
  90 0036 FFF7FEFF 		bl	chThdCreateFromHeap
  91              	.LVL2:
  92              		.loc 1 97 0
  93 003a 02A9     		add	r1, sp, #8
  94              		.loc 1 93 0
  95 003c 6060     		str	r0, [r4, #4]
  96              		.loc 1 97 0
  97 003e 2548     		ldr	r0, .L12+4
  98 0040 FFF7FEFF 		bl	chHeapStatus
  99              	.LVL3:
 100              		.loc 1 98 0
 101 0044 0299     		ldr	r1, [sp, #8]
 102 0046 2348     		ldr	r0, .L12+4
 103 0048 FFF7FEFF 		bl	chHeapAlloc
 104              	.LVL4:
 105              		.loc 1 99 0
 106 004c 264B     		ldr	r3, .L12+24
 107 004e 0093     		str	r3, [sp]
 108 0050 4FF4A471 		mov	r1, #328
 109              		.loc 1 98 0
 110 0054 0646     		mov	r6, r0
 111              	.LVL5:
 112              		.loc 1 99 0
 113 0056 EA1E     		subs	r2, r5, #3
 114 0058 214B     		ldr	r3, .L12+16
ARM GAS  /tmp/ccCwhJxt.s 			page 3


 115 005a 1E48     		ldr	r0, .L12+4
 116              	.LVL6:
 117 005c FFF7FEFF 		bl	chThdCreateFromHeap
 118              	.LVL7:
 119 0060 A060     		str	r0, [r4, #8]
 120              		.loc 1 102 0
 121 0062 3046     		mov	r0, r6
 122 0064 FFF7FEFF 		bl	chHeapFree
 123              	.LVL8:
 124              		.loc 1 104 0
 125 0068 2168     		ldr	r1, [r4]
 126 006a 21B1     		cbz	r1, .L2
 127              		.loc 1 104 0 is_stmt 0 discriminator 1
 128 006c 6168     		ldr	r1, [r4, #4]
 129 006e 11B1     		cbz	r1, .L2
 130 0070 A168     		ldr	r1, [r4, #8]
 131 0072 19B3     		cbz	r1, .L10
 132 0074 0021     		movs	r1, #0
 133              	.L2:
 134              		.loc 1 104 0 discriminator 4
 135 0076 0120     		movs	r0, #1
 136 0078 FFF7FEFF 		bl	_test_assert
 137              	.LVL9:
 138 007c 08B1     		cbz	r0, .L11
 139              	.L1:
 140              		.loc 1 118 0 is_stmt 1
 141 007e 04B0     		add	sp, sp, #16
 142              		@ sp needed
 143 0080 70BD     		pop	{r4, r5, r6, pc}
 144              	.LVL10:
 145              	.L11:
 146              		.loc 1 112 0
 147 0082 FFF7FEFF 		bl	test_wait_threads
 148              	.LVL11:
 149              		.loc 1 113 0
 150 0086 0220     		movs	r0, #2
 151 0088 1849     		ldr	r1, .L12+28
 152 008a FFF7FEFF 		bl	_test_assert_sequence
 153              	.LVL12:
 154 008e 0028     		cmp	r0, #0
 155 0090 F5D1     		bne	.L1
 156              		.loc 1 116 0
 157 0092 02A9     		add	r1, sp, #8
 158 0094 0F48     		ldr	r0, .L12+4
 159 0096 FFF7FEFF 		bl	chHeapStatus
 160              	.LVL13:
 161 009a 421E     		subs	r2, r0, #1
 162 009c 5142     		rsbs	r1, r2, #0
 163 009e 5141     		adcs	r1, r1, r2
 164 00a0 0320     		movs	r0, #3
 165 00a2 FFF7FEFF 		bl	_test_assert
 166              	.LVL14:
 167 00a6 0028     		cmp	r0, #0
 168 00a8 E9D1     		bne	.L1
 169              		.loc 1 117 0
 170 00aa 0299     		ldr	r1, [sp, #8]
 171 00ac 039B     		ldr	r3, [sp, #12]
ARM GAS  /tmp/ccCwhJxt.s 			page 4


 172 00ae CB1A     		subs	r3, r1, r3
 173 00b0 5942     		rsbs	r1, r3, #0
 174 00b2 5941     		adcs	r1, r1, r3
 175 00b4 0420     		movs	r0, #4
 176 00b6 FFF7FEFF 		bl	_test_assert
 177              	.LVL15:
 178 00ba E0E7     		b	.L1
 179              	.L10:
 180              		.loc 1 104 0 discriminator 1
 181 00bc E368     		ldr	r3, [r4, #12]
 182 00be 002B     		cmp	r3, #0
 183 00c0 D9D1     		bne	.L2
 184 00c2 2169     		ldr	r1, [r4, #16]
 185 00c4 D1F10101 		rsbs	r1, r1, #1
 186 00c8 38BF     		it	cc
 187 00ca 0021     		movcc	r1, #0
 188 00cc D3E7     		b	.L2
 189              	.L13:
 190 00ce 00BF     		.align	2
 191              	.L12:
 192 00d0 00000000 		.word	ch
 193 00d4 00000000 		.word	.LANCHOR0
 194 00d8 00000000 		.word	threads
 195 00dc 00000000 		.word	.LC0
 196 00e0 00000000 		.word	thread
 197 00e4 04000000 		.word	.LC1
 198 00e8 08000000 		.word	.LC2
 199 00ec 0C000000 		.word	.LC3
 200              		.cfi_endproc
 201              	.LFE228:
 202              		.size	dyn1_execute, .-dyn1_execute
 203              		.section	.text.thread,"ax",%progbits
 204              		.align	2
 205              		.p2align 4,,15
 206              		.thumb
 207              		.thumb_func
 208              		.type	thread, %function
 209              	thread:
 210              	.LFB226:
 211              		.loc 1 71 0
 212              		.cfi_startproc
 213              		@ args = 0, pretend = 0, frame = 0
 214              		@ frame_needed = 0, uses_anonymous_args = 0
 215              	.LVL16:
 216 0000 08B5     		push	{r3, lr}
 217              		.cfi_def_cfa_offset 8
 218              		.cfi_offset 3, -8
 219              		.cfi_offset 14, -4
 220              		.loc 1 73 0
 221 0002 0078     		ldrb	r0, [r0]	@ zero_extendqisi2
 222              	.LVL17:
 223 0004 FFF7FEFF 		bl	test_emit_token
 224              	.LVL18:
 225              		.loc 1 75 0
 226 0008 0020     		movs	r0, #0
 227 000a 08BD     		pop	{r3, pc}
 228              		.cfi_endproc
ARM GAS  /tmp/ccCwhJxt.s 			page 5


 229              	.LFE226:
 230              		.size	thread, .-thread
 231 000c AFF30080 		.section	.text.dyn1_setup,"ax",%progbits
 232              		.align	2
 233              		.p2align 4,,15
 234              		.thumb
 235              		.thumb_func
 236              		.type	dyn1_setup, %function
 237              	dyn1_setup:
 238              	.LFB227:
 239              		.loc 1 78 0
 240              		.cfi_startproc
 241              		@ args = 0, pretend = 0, frame = 0
 242              		@ frame_needed = 0, uses_anonymous_args = 0
 243              		@ link register save eliminated.
 244              		.loc 1 80 0
 245 0000 0248     		ldr	r0, .L16
 246 0002 0349     		ldr	r1, .L16+4
 247 0004 4FF4CD62 		mov	r2, #1640
 248 0008 FFF7FEBF 		b	chHeapObjectInit
 249              	.LVL19:
 250              	.L17:
 251              		.align	2
 252              	.L16:
 253 000c 00000000 		.word	.LANCHOR0
 254 0010 00000000 		.word	test
 255              		.cfi_endproc
 256              	.LFE227:
 257              		.size	dyn1_setup, .-dyn1_setup
 258 0014 AFF30080 		.section	.text.dyn3_setup,"ax",%progbits
 258      AFF30080 
 258      AFF30080 
 259              		.align	2
 260              		.p2align 4,,15
 261              		.thumb
 262              		.thumb_func
 263              		.type	dyn3_setup, %function
 264              	dyn3_setup:
 265              	.LFB232:
 266              		.loc 1 206 0
 267              		.cfi_startproc
 268              		@ args = 0, pretend = 0, frame = 0
 269              		@ frame_needed = 0, uses_anonymous_args = 0
 270              		@ link register save eliminated.
 271              		.loc 1 208 0
 272 0000 0248     		ldr	r0, .L19
 273 0002 0349     		ldr	r1, .L19+4
 274 0004 4FF4CD62 		mov	r2, #1640
 275 0008 FFF7FEBF 		b	chHeapObjectInit
 276              	.LVL20:
 277              	.L20:
 278              		.align	2
 279              	.L19:
 280 000c 00000000 		.word	.LANCHOR0
 281 0010 00000000 		.word	test
 282              		.cfi_endproc
 283              	.LFE232:
ARM GAS  /tmp/ccCwhJxt.s 			page 6


 284              		.size	dyn3_setup, .-dyn3_setup
 285 0014 AFF30080 		.section	.text.dyn2_execute,"ax",%progbits
 285      AFF30080 
 285      AFF30080 
 286              		.align	2
 287              		.p2align 4,,15
 288              		.thumb
 289              		.thumb_func
 290              		.type	dyn2_execute, %function
 291              	dyn2_execute:
 292              	.LFB230:
 293              		.loc 1 144 0
 294              		.cfi_startproc
 295              		@ args = 0, pretend = 0, frame = 0
 296              		@ frame_needed = 0, uses_anonymous_args = 0
 297              	.LBB24:
 298              	.LBB25:
 299              	.LBB26:
 300              	.LBB27:
 301              		.loc 2 179 0
 302 0000 324B     		ldr	r3, .L35
 303              	.LBE27:
 304              	.LBE26:
 305              		.loc 2 192 0
 306 0002 9B69     		ldr	r3, [r3, #24]
 307              	.LBE25:
 308              	.LBE24:
 309              		.loc 1 144 0
 310 0004 70B5     		push	{r4, r5, r6, lr}
 311              		.cfi_def_cfa_offset 16
 312              		.cfi_offset 4, -16
 313              		.cfi_offset 5, -12
 314              		.cfi_offset 6, -8
 315              		.cfi_offset 14, -4
 316 0006 324C     		ldr	r4, .L35+4
 317              	.LBB29:
 318              	.LBB28:
 319              		.loc 2 192 0
 320 0008 9D68     		ldr	r5, [r3, #8]
 321              	.LVL21:
 322 000a 04F11006 		add	r6, r4, #16
 323              	.LVL22:
 324              	.L23:
 325              	.LBE28:
 326              	.LBE29:
 327              		.loc 1 150 0 discriminator 2
 328 000e 54F8041F 		ldr	r1, [r4, #4]!
 329 0012 3048     		ldr	r0, .L35+8
 330 0014 FFF7FEFF 		bl	chPoolFree
 331              	.LVL23:
 332              		.loc 1 149 0 discriminator 2
 333 0018 B442     		cmp	r4, r6
 334 001a F8D1     		bne	.L23
 335              		.loc 1 153 0
 336 001c 2E4A     		ldr	r2, .L35+12
 337 001e 2F4B     		ldr	r3, .L35+16
 338 0020 2C48     		ldr	r0, .L35+8
ARM GAS  /tmp/ccCwhJxt.s 			page 7


 339 0022 2F4C     		ldr	r4, .L35+20
 340 0024 691E     		subs	r1, r5, #1
 341 0026 FFF7FEFF 		bl	chThdCreateFromMemoryPool
 342              	.LVL24:
 343              		.loc 1 154 0
 344 002a A91E     		subs	r1, r5, #2
 345              		.loc 1 153 0
 346 002c 2060     		str	r0, [r4]
 347              		.loc 1 154 0
 348 002e 2A4A     		ldr	r2, .L35+12
 349 0030 2C4B     		ldr	r3, .L35+24
 350 0032 2848     		ldr	r0, .L35+8
 351 0034 FFF7FEFF 		bl	chThdCreateFromMemoryPool
 352              	.LVL25:
 353              		.loc 1 155 0
 354 0038 E91E     		subs	r1, r5, #3
 355              		.loc 1 154 0
 356 003a 6060     		str	r0, [r4, #4]
 357              		.loc 1 155 0
 358 003c 264A     		ldr	r2, .L35+12
 359 003e 2A4B     		ldr	r3, .L35+28
 360 0040 2448     		ldr	r0, .L35+8
 361 0042 FFF7FEFF 		bl	chThdCreateFromMemoryPool
 362              	.LVL26:
 363              		.loc 1 156 0
 364 0046 291F     		subs	r1, r5, #4
 365              		.loc 1 155 0
 366 0048 A060     		str	r0, [r4, #8]
 367              		.loc 1 156 0
 368 004a 234A     		ldr	r2, .L35+12
 369 004c 274B     		ldr	r3, .L35+32
 370 004e 2148     		ldr	r0, .L35+8
 371 0050 FFF7FEFF 		bl	chThdCreateFromMemoryPool
 372              	.LVL27:
 373              		.loc 1 157 0
 374 0054 691F     		subs	r1, r5, #5
 375              		.loc 1 156 0
 376 0056 E060     		str	r0, [r4, #12]
 377              		.loc 1 157 0
 378 0058 1F4A     		ldr	r2, .L35+12
 379 005a 1E48     		ldr	r0, .L35+8
 380 005c 244B     		ldr	r3, .L35+36
 381 005e FFF7FEFF 		bl	chThdCreateFromMemoryPool
 382              	.LVL28:
 383              		.loc 1 159 0
 384 0062 2168     		ldr	r1, [r4]
 385              		.loc 1 157 0
 386 0064 2061     		str	r0, [r4, #16]
 387              		.loc 1 159 0
 388 0066 49B1     		cbz	r1, .L24
 389              		.loc 1 159 0 is_stmt 0 discriminator 1
 390 0068 6168     		ldr	r1, [r4, #4]
 391 006a 39B1     		cbz	r1, .L24
 392 006c A168     		ldr	r1, [r4, #8]
 393 006e 29B1     		cbz	r1, .L24
 394 0070 E168     		ldr	r1, [r4, #12]
 395 0072 19B1     		cbz	r1, .L24
ARM GAS  /tmp/ccCwhJxt.s 			page 8


 396 0074 D0F10101 		rsbs	r1, r0, #1
 397 0078 38BF     		it	cc
 398 007a 0021     		movcc	r1, #0
 399              	.L24:
 400              		.loc 1 159 0 discriminator 4
 401 007c 0120     		movs	r0, #1
 402 007e FFF7FEFF 		bl	_test_assert
 403              	.LVL29:
 404 0082 00B1     		cbz	r0, .L34
 405              	.L21:
 406 0084 70BD     		pop	{r4, r5, r6, pc}
 407              	.L34:
 408              		.loc 1 167 0 is_stmt 1
 409 0086 FFF7FEFF 		bl	test_wait_threads
 410              	.LVL30:
 411              		.loc 1 168 0
 412 008a 0220     		movs	r0, #2
 413 008c 1949     		ldr	r1, .L35+40
 414 008e FFF7FEFF 		bl	_test_assert_sequence
 415              	.LVL31:
 416 0092 0028     		cmp	r0, #0
 417 0094 F6D1     		bne	.L21
 418 0096 0424     		movs	r4, #4
 419              	.L29:
 420              	.LVL32:
 421              		.loc 1 172 0
 422 0098 0E48     		ldr	r0, .L35+8
 423 009a FFF7FEFF 		bl	chPoolAlloc
 424              	.LVL33:
 425 009e 011C     		adds	r1, r0, #0
 426 00a0 18BF     		it	ne
 427 00a2 0121     		movne	r1, #1
 428 00a4 0320     		movs	r0, #3
 429 00a6 FFF7FEFF 		bl	_test_assert
 430              	.LVL34:
 431 00aa 0028     		cmp	r0, #0
 432 00ac EAD1     		bne	.L21
 433              		.loc 1 171 0
 434 00ae 013C     		subs	r4, r4, #1
 435              	.LVL35:
 436 00b0 F2D1     		bne	.L29
 437              		.loc 1 173 0
 438 00b2 0848     		ldr	r0, .L35+8
 439 00b4 FFF7FEFF 		bl	chPoolAlloc
 440              	.LVL36:
 441 00b8 D0F10101 		rsbs	r1, r0, #1
 442 00bc 38BF     		it	cc
 443 00be 0021     		movcc	r1, #0
 444 00c0 0420     		movs	r0, #4
 445              		.loc 1 174 0
 446 00c2 BDE87040 		pop	{r4, r5, r6, lr}
 447              	.LVL37:
 448              		.loc 1 173 0
 449 00c6 FFF7FEBF 		b	_test_assert
 450              	.LVL38:
 451              	.L36:
 452 00ca 00BF     		.align	2
ARM GAS  /tmp/ccCwhJxt.s 			page 9


 453              	.L35:
 454 00cc 00000000 		.word	ch
 455 00d0 FCFFFFFF 		.word	wa-4
 456 00d4 00000000 		.word	.LANCHOR1
 457 00d8 00000000 		.word	thread
 458 00dc 00000000 		.word	.LC0
 459 00e0 00000000 		.word	threads
 460 00e4 04000000 		.word	.LC1
 461 00e8 08000000 		.word	.LC2
 462 00ec 10000000 		.word	.LC4
 463 00f0 14000000 		.word	.LC5
 464 00f4 18000000 		.word	.LC6
 465              		.cfi_endproc
 466              	.LFE230:
 467              		.size	dyn2_execute, .-dyn2_execute
 468 00f8 AFF30080 		.section	.text.dyn2_setup,"ax",%progbits
 468      AFF30080 
 469              		.align	2
 470              		.p2align 4,,15
 471              		.thumb
 472              		.thumb_func
 473              		.type	dyn2_setup, %function
 474              	dyn2_setup:
 475              	.LFB229:
 476              		.loc 1 139 0
 477              		.cfi_startproc
 478              		@ args = 0, pretend = 0, frame = 0
 479              		@ frame_needed = 0, uses_anonymous_args = 0
 480              		@ link register save eliminated.
 481              		.loc 1 141 0
 482 0000 0248     		ldr	r0, .L38
 483 0002 4FF4A471 		mov	r1, #328
 484 0006 0022     		movs	r2, #0
 485 0008 FFF7FEBF 		b	chPoolObjectInit
 486              	.LVL39:
 487              	.L39:
 488              		.align	2
 489              	.L38:
 490 000c 00000000 		.word	.LANCHOR1
 491              		.cfi_endproc
 492              	.LFE229:
 493              		.size	dyn2_setup, .-dyn2_setup
 494              		.section	.text.regfind,"ax",%progbits
 495              		.align	2
 496              		.p2align 4,,15
 497              		.thumb
 498              		.thumb_func
 499              		.type	regfind, %function
 500              	regfind:
 501              	.LFB231:
 502              		.loc 1 194 0
 503              		.cfi_startproc
 504              		@ args = 0, pretend = 0, frame = 0
 505              		@ frame_needed = 0, uses_anonymous_args = 0
 506              	.LVL40:
 507 0000 38B5     		push	{r3, r4, r5, lr}
 508              		.cfi_def_cfa_offset 16
ARM GAS  /tmp/ccCwhJxt.s 			page 10


 509              		.cfi_offset 3, -16
 510              		.cfi_offset 4, -12
 511              		.cfi_offset 5, -8
 512              		.cfi_offset 14, -4
 513              		.loc 1 194 0
 514 0002 0546     		mov	r5, r0
 515              		.loc 1 198 0
 516 0004 FFF7FEFF 		bl	chRegFirstThread
 517              	.LVL41:
 518              		.loc 1 196 0
 519 0008 0024     		movs	r4, #0
 520              		.loc 1 198 0
 521 000a 0346     		mov	r3, r0
 522              	.LVL42:
 523              	.L42:
 524              		.loc 1 201 0 discriminator 1
 525 000c 1846     		mov	r0, r3
 526              		.loc 1 200 0 discriminator 1
 527 000e AB42     		cmp	r3, r5
 528 0010 08BF     		it	eq
 529 0012 44F00104 		orreq	r4, r4, #1
 530              	.LVL43:
 531              		.loc 1 201 0 discriminator 1
 532 0016 FFF7FEFF 		bl	chRegNextThread
 533              	.LVL44:
 534              		.loc 1 202 0 discriminator 1
 535 001a 0346     		mov	r3, r0
 536 001c 0028     		cmp	r0, #0
 537 001e F5D1     		bne	.L42
 538              		.loc 1 204 0
 539 0020 2046     		mov	r0, r4
 540              	.LVL45:
 541 0022 38BD     		pop	{r3, r4, r5, pc}
 542              		.cfi_endproc
 543              	.LFE231:
 544              		.size	regfind, .-regfind
 545 0024 AFF30080 		.section	.text.dyn3_execute,"ax",%progbits
 545      AFF30080 
 545      AFF30080 
 546              		.align	2
 547              		.p2align 4,,15
 548              		.thumb
 549              		.thumb_func
 550              		.type	dyn3_execute, %function
 551              	dyn3_execute:
 552              	.LFB233:
 553              		.loc 1 211 0
 554              		.cfi_startproc
 555              		@ args = 0, pretend = 0, frame = 0
 556              		@ frame_needed = 0, uses_anonymous_args = 0
 557 0000 10B5     		push	{r4, lr}
 558              		.cfi_def_cfa_offset 8
 559              		.cfi_offset 4, -8
 560              		.cfi_offset 14, -4
 561              	.LBB30:
 562              	.LBB31:
 563              	.LBB32:
ARM GAS  /tmp/ccCwhJxt.s 			page 11


 564              	.LBB33:
 565              		.loc 2 179 0
 566 0002 4A4B     		ldr	r3, .L48
 567              	.LBE33:
 568              	.LBE32:
 569              	.LBE31:
 570              	.LBE30:
 571              		.loc 1 216 0
 572 0004 4A49     		ldr	r1, .L48+4
 573              	.LBB35:
 574              	.LBB34:
 575              		.loc 2 192 0
 576 0006 9B69     		ldr	r3, [r3, #24]
 577              	.LBE34:
 578              	.LBE35:
 579              		.loc 1 216 0
 580 0008 4A48     		ldr	r0, .L48+8
 581 000a 9A68     		ldr	r2, [r3, #8]
 582 000c 4A4B     		ldr	r3, .L48+12
 583              		.loc 1 211 0
 584 000e 82B0     		sub	sp, sp, #8
 585              		.cfi_def_cfa_offset 16
 586              		.loc 1 216 0
 587 0010 013A     		subs	r2, r2, #1
 588 0012 0091     		str	r1, [sp]
 589 0014 4FF4A471 		mov	r1, #328
 590 0018 FFF7FEFF 		bl	chThdCreateFromHeap
 591              	.LVL46:
 592 001c 0446     		mov	r4, r0
 593              	.LVL47:
 594              		.loc 1 217 0
 595 001e 0120     		movs	r0, #1
 596              	.LVL48:
 597 0020 A17F     		ldrb	r1, [r4, #30]	@ zero_extendqisi2
 598 0022 B1EB000C 		subs	ip, r1, r0
 599 0026 DCF10001 		rsbs	r1, ip, #0
 600 002a 51EB0C01 		adcs	r1, r1, ip
 601 002e FFF7FEFF 		bl	_test_assert
 602              	.LVL49:
 603 0032 08B1     		cbz	r0, .L47
 604              	.L43:
 605              		.loc 1 239 0
 606 0034 02B0     		add	sp, sp, #8
 607              		@ sp needed
 608 0036 10BD     		pop	{r4, pc}
 609              	.LVL50:
 610              	.L47:
 611              		.loc 1 218 0
 612 0038 2046     		mov	r0, r4
 613 003a FFF7FEFF 		bl	chThdAddRef
 614              	.LVL51:
 615              		.loc 1 219 0
 616 003e A17F     		ldrb	r1, [r4, #30]	@ zero_extendqisi2
 617 0040 0220     		movs	r0, #2
 618 0042 B1EB000E 		subs	lr, r1, r0
 619 0046 DEF10001 		rsbs	r1, lr, #0
 620 004a 51EB0E01 		adcs	r1, r1, lr
ARM GAS  /tmp/ccCwhJxt.s 			page 12


 621 004e FFF7FEFF 		bl	_test_assert
 622              	.LVL52:
 623 0052 0028     		cmp	r0, #0
 624 0054 EED1     		bne	.L43
 625              		.loc 1 220 0
 626 0056 2046     		mov	r0, r4
 627 0058 FFF7FEFF 		bl	chThdRelease
 628              	.LVL53:
 629              		.loc 1 221 0
 630 005c A17F     		ldrb	r1, [r4, #30]	@ zero_extendqisi2
 631 005e 4A1E     		subs	r2, r1, #1
 632 0060 5142     		rsbs	r1, r2, #0
 633 0062 5141     		adcs	r1, r1, r2
 634 0064 0320     		movs	r0, #3
 635 0066 FFF7FEFF 		bl	_test_assert
 636              	.LVL54:
 637 006a 0028     		cmp	r0, #0
 638 006c E2D1     		bne	.L43
 639              		.loc 1 224 0
 640 006e 2046     		mov	r0, r4
 641 0070 FFF7FEFF 		bl	regfind
 642              	.LVL55:
 643 0074 0146     		mov	r1, r0
 644 0076 0420     		movs	r0, #4
 645 0078 FFF7FEFF 		bl	_test_assert
 646              	.LVL56:
 647 007c 0028     		cmp	r0, #0
 648 007e D9D1     		bne	.L43
 649              		.loc 1 225 0
 650 0080 2046     		mov	r0, r4
 651 0082 FFF7FEFF 		bl	regfind
 652              	.LVL57:
 653 0086 0146     		mov	r1, r0
 654 0088 0520     		movs	r0, #5
 655 008a FFF7FEFF 		bl	_test_assert
 656              	.LVL58:
 657 008e 0028     		cmp	r0, #0
 658 0090 D0D1     		bne	.L43
 659              		.loc 1 228 0
 660 0092 2046     		mov	r0, r4
 661 0094 FFF7FEFF 		bl	chThdRelease
 662              	.LVL59:
 663              		.loc 1 229 0
 664 0098 A17F     		ldrb	r1, [r4, #30]	@ zero_extendqisi2
 665 009a D1F10101 		rsbs	r1, r1, #1
 666 009e 38BF     		it	cc
 667 00a0 0021     		movcc	r1, #0
 668 00a2 0620     		movs	r0, #6
 669 00a4 FFF7FEFF 		bl	_test_assert
 670              	.LVL60:
 671 00a8 0028     		cmp	r0, #0
 672 00aa C3D1     		bne	.L43
 673              		.loc 1 230 0
 674 00ac 217F     		ldrb	r1, [r4, #28]	@ zero_extendqisi2
 675 00ae D1F10101 		rsbs	r1, r1, #1
 676 00b2 38BF     		it	cc
 677 00b4 0021     		movcc	r1, #0
ARM GAS  /tmp/ccCwhJxt.s 			page 13


 678 00b6 0720     		movs	r0, #7
 679 00b8 FFF7FEFF 		bl	_test_assert
 680              	.LVL61:
 681 00bc 0028     		cmp	r0, #0
 682 00be B9D1     		bne	.L43
 683              		.loc 1 231 0
 684 00c0 2046     		mov	r0, r4
 685 00c2 FFF7FEFF 		bl	regfind
 686              	.LVL62:
 687 00c6 0146     		mov	r1, r0
 688 00c8 0820     		movs	r0, #8
 689 00ca FFF7FEFF 		bl	_test_assert
 690              	.LVL63:
 691 00ce 0028     		cmp	r0, #0
 692 00d0 B0D1     		bne	.L43
 693              		.loc 1 232 0
 694 00d2 2046     		mov	r0, r4
 695 00d4 FFF7FEFF 		bl	regfind
 696              	.LVL64:
 697 00d8 0146     		mov	r1, r0
 698 00da 0920     		movs	r0, #9
 699 00dc FFF7FEFF 		bl	_test_assert
 700              	.LVL65:
 701 00e0 0028     		cmp	r0, #0
 702 00e2 A7D1     		bne	.L43
 703              		.loc 1 233 0
 704 00e4 4FF4FA70 		mov	r0, #500
 705 00e8 FFF7FEFF 		bl	chThdSleep
 706              	.LVL66:
 707              		.loc 1 234 0
 708 00ec 217F     		ldrb	r1, [r4, #28]	@ zero_extendqisi2
 709 00ee B1F10F03 		subs	r3, r1, #15
 710 00f2 5942     		rsbs	r1, r3, #0
 711 00f4 5941     		adcs	r1, r1, r3
 712 00f6 0A20     		movs	r0, #10
 713 00f8 FFF7FEFF 		bl	_test_assert
 714              	.LVL67:
 715 00fc 0028     		cmp	r0, #0
 716 00fe 99D1     		bne	.L43
 717              		.loc 1 237 0
 718 0100 2046     		mov	r0, r4
 719 0102 FFF7FEFF 		bl	regfind
 720              	.LVL68:
 721 0106 0146     		mov	r1, r0
 722 0108 0B20     		movs	r0, #11
 723 010a FFF7FEFF 		bl	_test_assert
 724              	.LVL69:
 725 010e 0028     		cmp	r0, #0
 726 0110 90D1     		bne	.L43
 727              		.loc 1 238 0
 728 0112 2046     		mov	r0, r4
 729 0114 FFF7FEFF 		bl	regfind
 730              	.LVL70:
 731 0118 80F00101 		eor	r1, r0, #1
 732 011c C9B2     		uxtb	r1, r1
 733 011e 0C20     		movs	r0, #12
 734              		.loc 1 239 0
ARM GAS  /tmp/ccCwhJxt.s 			page 14


 735 0120 02B0     		add	sp, sp, #8
 736              		@ sp needed
 737 0122 BDE81040 		pop	{r4, lr}
 738              	.LVL71:
 739              		.loc 1 238 0
 740 0126 FFF7FEBF 		b	_test_assert
 741              	.LVL72:
 742              	.L49:
 743 012a 00BF     		.align	2
 744              	.L48:
 745 012c 00000000 		.word	ch
 746 0130 00000000 		.word	.LC0
 747 0134 00000000 		.word	.LANCHOR0
 748 0138 00000000 		.word	thread
 749              		.cfi_endproc
 750              	.LFE233:
 751              		.size	dyn3_execute, .-dyn3_execute
 752              		.global	patterndyn
 753              		.global	testdyn3
 754              		.global	testdyn2
 755              		.global	testdyn1
 756 013c AFF30080 		.section	.rodata.testdyn1,"a",%progbits
 757              		.align	2
 758              		.type	testdyn1, %object
 759              		.size	testdyn1, 16
 760              	testdyn1:
 761 0000 78000000 		.word	.LC9
 762 0004 00000000 		.word	dyn1_setup
 763 0008 00000000 		.word	0
 764 000c 00000000 		.word	dyn1_execute
 765              		.section	.rodata.testdyn2,"a",%progbits
 766              		.align	2
 767              		.type	testdyn2, %object
 768              		.size	testdyn2, 16
 769              	testdyn2:
 770 0000 48000000 		.word	.LC8
 771 0004 00000000 		.word	dyn2_setup
 772 0008 00000000 		.word	0
 773 000c 00000000 		.word	dyn2_execute
 774              		.section	.rodata.testdyn3,"a",%progbits
 775              		.align	2
 776              		.type	testdyn3, %object
 777              		.size	testdyn3, 16
 778              	testdyn3:
 779 0000 20000000 		.word	.LC7
 780 0004 00000000 		.word	dyn3_setup
 781 0008 00000000 		.word	0
 782 000c 00000000 		.word	dyn3_execute
 783              		.section	.bss.mp1,"aw",%nobits
 784              		.align	2
 785              		.set	.LANCHOR1,. + 0
 786              		.type	mp1, %object
 787              		.size	mp1, 12
 788              	mp1:
 789 0000 00000000 		.space	12
 789      00000000 
 789      00000000 
ARM GAS  /tmp/ccCwhJxt.s 			page 15


 790              		.section	.rodata.str1.4,"aMS",%progbits,1
 791              		.align	2
 792              	.LC0:
 793 0000 4100     		.ascii	"A\000"
 794 0002 0000     		.space	2
 795              	.LC1:
 796 0004 4200     		.ascii	"B\000"
 797 0006 0000     		.space	2
 798              	.LC2:
 799 0008 4300     		.ascii	"C\000"
 800 000a 0000     		.space	2
 801              	.LC3:
 802 000c 414200   		.ascii	"AB\000"
 803 000f 00       		.space	1
 804              	.LC4:
 805 0010 4400     		.ascii	"D\000"
 806 0012 0000     		.space	2
 807              	.LC5:
 808 0014 4500     		.ascii	"E\000"
 809 0016 0000     		.space	2
 810              	.LC6:
 811 0018 41424344 		.ascii	"ABCD\000"
 811      00
 812 001d 000000   		.space	3
 813              	.LC7:
 814 0020 44796E61 		.ascii	"Dynamic APIs, registry and references\000"
 814      6D696320 
 814      41504973 
 814      2C207265 
 814      67697374 
 815 0046 0000     		.space	2
 816              	.LC8:
 817 0048 44796E61 		.ascii	"Dynamic APIs, threads creation from memory pool\000"
 817      6D696320 
 817      41504973 
 817      2C207468 
 817      72656164 
 818              	.LC9:
 819 0078 44796E61 		.ascii	"Dynamic APIs, threads creation from heap\000"
 819      6D696320 
 819      41504973 
 819      2C207468 
 819      72656164 
 820 00a1 000000   		.section	.rodata.patterndyn,"a",%progbits
 821              		.align	2
 822              		.type	patterndyn, %object
 823              		.size	patterndyn, 16
 824              	patterndyn:
 825 0000 00000000 		.word	testdyn1
 826 0004 00000000 		.word	testdyn2
 827 0008 00000000 		.word	testdyn3
 828 000c 00000000 		.word	0
 829              		.section	.bss.heap1,"aw",%nobits
 830              		.align	3
 831              		.set	.LANCHOR0,. + 0
 832              		.type	heap1, %object
 833              		.size	heap1, 32
ARM GAS  /tmp/ccCwhJxt.s 			page 16


 834              	heap1:
 835 0000 00000000 		.space	32
 835      00000000 
 835      00000000 
 835      00000000 
 835      00000000 
 836              		.text
 837              	.Letext0:
 838              		.file 3 "/nfs/nfs5/home/research/hardware/arm2/gcc-arm-embedded/gcc-arm-none-eabi-4_8-2014q2/lib/g
 839              		.file 4 "/nfs/nfs5/home/research/hardware/arm2/gcc-arm-embedded/gcc-arm-none-eabi-4_8-2014q2/arm-n
 840              		.file 5 "/nfs/nfs5/home/research/hardware/arm2/gcc-arm-embedded/gcc-arm-none-eabi-4_8-2014q2/arm-n
 841              		.file 6 "../ChibiOS/os/rt/ports/ARMCMx/compilers/GCC/chtypes.h"
 842              		.file 7 "../ChibiOS/os/rt/include/chsystypes.h"
 843              		.file 8 "../ChibiOS/os/rt/include/chschd.h"
 844              		.file 9 "../ChibiOS/os/rt/ports/ARMCMx/chcore.h"
 845              		.file 10 "../ChibiOS/os/rt/ports/ARMCMx/chcore_v7m.h"
 846              		.file 11 "../ChibiOS/os/rt/include/chtm.h"
 847              		.file 12 "../ChibiOS/os/rt/include/chmtx.h"
 848              		.file 13 "../ChibiOS/os/rt/include/chmemcore.h"
 849              		.file 14 "../ChibiOS/os/rt/include/chheap.h"
 850              		.file 15 "../ChibiOS/os/rt/include/chmempools.h"
 851              		.file 16 "../ChibiOS/test/rt/test.h"
 852              		.file 17 "../ChibiOS/os/ext/CMSIS/include/core_cm4.h"
 853              		.file 18 "../ChibiOS/os/rt/include/chdynamic.h"
 854              		.file 19 "../ChibiOS/os/rt/include/chregistry.h"